
adjust-android-signature-3.67.0/jni/x86_64/libsigner.so:     file format elf64-x86-64


Disassembly of section .text:

0000000000088475 <Java_com_adjust_sdk_sig_NativeLibHelper_nOnResume@@Base-0x3282e>:
   88475:	55                   	push   rbp
   88476:	48 89 e5             	mov    rbp,rsp
   88479:	41 57                	push   r15
   8847b:	41 56                	push   r14
   8847d:	41 55                	push   r13
   8847f:	41 54                	push   r12
   88481:	53                   	push   rbx
   88482:	48 81 ec 08 06 00 00 	sub    rsp,0x608
   88489:	48 89 b5 90 fc ff ff 	mov    QWORD PTR [rbp-0x370],rsi
   88490:	48 89 bd e0 fe ff ff 	mov    QWORD PTR [rbp-0x120],rdi
   88497:	64 48 8b 04 25 28 00 	mov    rax,QWORD PTR fs:0x28
   8849e:	00 00 
   884a0:	48 89 45 d0          	mov    QWORD PTR [rbp-0x30],rax
   884a4:	48 8d 42 64          	lea    rax,[rdx+0x64]
   884a8:	48 89 85 a0 fc ff ff 	mov    QWORD PTR [rbp-0x360],rax
   884af:	48 89 95 d8 fe ff ff 	mov    QWORD PTR [rbp-0x128],rdx
   884b6:	48 8d 42 60          	lea    rax,[rdx+0x60]
   884ba:	48 89 85 98 fc ff ff 	mov    QWORD PTR [rbp-0x368],rax
   884c1:	48 ba 44 98 56 13 dc 	movabs rdx,0xe06589dc13569844
   884c8:	89 65 e0 
   884cb:	4c 89 8d 70 fe ff ff 	mov    QWORD PTR [rbp-0x190],r9
   884d2:	48 89 d6             	mov    rsi,rdx
   884d5:	4c 8b 4d b8          	mov    r9,QWORD PTR [rbp-0x48]
   884d9:	48 8b 45 b0          	mov    rax,QWORD PTR [rbp-0x50]
   884dd:	48 89 85 00 ff ff ff 	mov    QWORD PTR [rbp-0x100],rax
   884e4:	48 8b 45 a8          	mov    rax,QWORD PTR [rbp-0x58]
   884e8:	48 89 85 f8 fe ff ff 	mov    QWORD PTR [rbp-0x108],rax
   884ef:	48 8b 45 a0          	mov    rax,QWORD PTR [rbp-0x60]
   884f3:	48 89 85 10 ff ff ff 	mov    QWORD PTR [rbp-0xf0],rax
   884fa:	48 8b 4d 98          	mov    rcx,QWORD PTR [rbp-0x68]
   884fe:	4c 8b 6d 90          	mov    r13,QWORD PTR [rbp-0x70]
   88502:	48 8b 5d 88          	mov    rbx,QWORD PTR [rbp-0x78]
   88506:	48 8b 55 80          	mov    rdx,QWORD PTR [rbp-0x80]
   8850a:	48 89 95 50 ff ff ff 	mov    QWORD PTR [rbp-0xb0],rdx
   88511:	4c 8b a5 78 ff ff ff 	mov    r12,QWORD PTR [rbp-0x88]
   88518:	4c 8b bd 70 ff ff ff 	mov    r15,QWORD PTR [rbp-0x90]
   8851f:	44 8b 75 cc          	mov    r14d,DWORD PTR [rbp-0x34]
   88523:	8b 45 c8             	mov    eax,DWORD PTR [rbp-0x38]
   88526:	4c 8b 95 68 ff ff ff 	mov    r10,QWORD PTR [rbp-0x98]
   8852d:	4c 8b 85 60 ff ff ff 	mov    r8,QWORD PTR [rbp-0xa0]
   88534:	48 8b bd 58 ff ff ff 	mov    rdi,QWORD PTR [rbp-0xa8]
   8853b:	48 ba 6f 1b a3 86 a5 	movabs rdx,0x4132fa586a31b6f
   88542:	2f 13 04 
   88545:	49 bb a8 02 29 0b 6d 	movabs r11,0x8052276d0b2902a8
   8854c:	27 52 80 
   8854f:	48 89 b5 e8 fe ff ff 	mov    QWORD PTR [rbp-0x118],rsi
   88556:	4c 39 de             	cmp    rsi,r11
   88559:	0f 84 73 ff ff ff    	je     884d2 <Java_com_adjust_sdk_sig_NativeLibHelper_nOnResume@@Base-0x327d1>
   8855f:	48 89 bd 48 ff ff ff 	mov    QWORD PTR [rbp-0xb8],rdi
   88566:	4c 89 85 40 ff ff ff 	mov    QWORD PTR [rbp-0xc0],r8
   8856d:	4c 89 95 30 ff ff ff 	mov    QWORD PTR [rbp-0xd0],r10
   88574:	89 45 c0             	mov    DWORD PTR [rbp-0x40],eax
   88577:	44 89 75 c4          	mov    DWORD PTR [rbp-0x3c],r14d
   8857b:	4c 89 bd 28 ff ff ff 	mov    QWORD PTR [rbp-0xd8],r15
   88582:	4c 89 a5 f0 fe ff ff 	mov    QWORD PTR [rbp-0x110],r12
   88589:	48 89 9d 20 ff ff ff 	mov    QWORD PTR [rbp-0xe0],rbx
   88590:	4c 89 ad 18 ff ff ff 	mov    QWORD PTR [rbp-0xe8],r13
   88597:	48 89 8d 08 ff ff ff 	mov    QWORD PTR [rbp-0xf8],rcx
   8859e:	4c 89 8d 38 ff ff ff 	mov    QWORD PTR [rbp-0xc8],r9
   885a5:	48 b8 f2 4b 3e 6a 15 	movabs rax,0x80a625156a3e4bf2
   885ac:	25 a6 80 
   885af:	48 8b 8d e8 fe ff ff 	mov    rcx,QWORD PTR [rbp-0x118]
   885b6:	48 39 c1             	cmp    rcx,rax
   885b9:	0f 84 c9 62 00 00    	je     8e888 <Java_com_adjust_sdk_sig_NativeLibHelper_nOnResume@@Base-0x2c41b>
   885bf:	48 8b 85 48 ff ff ff 	mov    rax,QWORD PTR [rbp-0xb8]
   885c6:	48 89 85 58 ff ff ff 	mov    QWORD PTR [rbp-0xa8],rax
   885cd:	48 8b 85 40 ff ff ff 	mov    rax,QWORD PTR [rbp-0xc0]
   885d4:	48 89 85 60 ff ff ff 	mov    QWORD PTR [rbp-0xa0],rax
   885db:	48 8b 85 30 ff ff ff 	mov    rax,QWORD PTR [rbp-0xd0]
   885e2:	48 89 85 68 ff ff ff 	mov    QWORD PTR [rbp-0x98],rax
   885e9:	8b 45 c0             	mov    eax,DWORD PTR [rbp-0x40]
   885ec:	89 45 c8             	mov    DWORD PTR [rbp-0x38],eax
   885ef:	8b 45 c4             	mov    eax,DWORD PTR [rbp-0x3c]
   885f2:	89 45 cc             	mov    DWORD PTR [rbp-0x34],eax
   885f5:	48 8b 85 28 ff ff ff 	mov    rax,QWORD PTR [rbp-0xd8]
   885fc:	48 89 85 70 ff ff ff 	mov    QWORD PTR [rbp-0x90],rax
   88603:	48 8b 85 f0 fe ff ff 	mov    rax,QWORD PTR [rbp-0x110]
   8860a:	48 89 85 78 ff ff ff 	mov    QWORD PTR [rbp-0x88],rax
   88611:	48 8b 85 50 ff ff ff 	mov    rax,QWORD PTR [rbp-0xb0]
   88618:	48 89 45 80          	mov    QWORD PTR [rbp-0x80],rax
   8861c:	48 8b 85 20 ff ff ff 	mov    rax,QWORD PTR [rbp-0xe0]
   88623:	48 89 45 88          	mov    QWORD PTR [rbp-0x78],rax
   88627:	48 8b 85 18 ff ff ff 	mov    rax,QWORD PTR [rbp-0xe8]
   8862e:	48 89 45 90          	mov    QWORD PTR [rbp-0x70],rax
   88632:	48 8b 85 08 ff ff ff 	mov    rax,QWORD PTR [rbp-0xf8]
   88639:	48 89 45 98          	mov    QWORD PTR [rbp-0x68],rax
   8863d:	48 8b 85 10 ff ff ff 	mov    rax,QWORD PTR [rbp-0xf0]
   88644:	48 89 45 a0          	mov    QWORD PTR [rbp-0x60],rax
   88648:	48 8b 85 f8 fe ff ff 	mov    rax,QWORD PTR [rbp-0x108]
   8864f:	48 89 45 a8          	mov    QWORD PTR [rbp-0x58],rax
   88653:	48 8b 85 00 ff ff ff 	mov    rax,QWORD PTR [rbp-0x100]
   8865a:	48 89 45 b0          	mov    QWORD PTR [rbp-0x50],rax
   8865e:	48 8b 85 38 ff ff ff 	mov    rax,QWORD PTR [rbp-0xc8]
   88665:	48 89 45 b8          	mov    QWORD PTR [rbp-0x48],rax
   88669:	48 ba 2b 02 19 f1 2b 	movabs rdx,0x7a86af2bf119022b
   88670:	af 86 7a 
   88673:	49 bb 54 64 22 10 fa 	movabs r11,0x82d95ffa10226454
   8867a:	5f d9 82 
   8867d:	4c 39 d9             	cmp    rcx,r11
   88680:	0f 84 4c fe ff ff    	je     884d2 <Java_com_adjust_sdk_sig_NativeLibHelper_nOnResume@@Base-0x327d1>
   88686:	48 b8 77 ed 62 21 3a 	movabs rax,0x8406bd3a2162ed77
   8868d:	bd 06 84 
   88690:	48 8b bd e8 fe ff ff 	mov    rdi,QWORD PTR [rbp-0x118]
   88697:	48 39 c7             	cmp    rdi,rax
   8869a:	0f 84 39 6d 00 00    	je     8f3d9 <Java_com_adjust_sdk_sig_NativeLibHelper_nOnResume@@Base-0x2b8ca>
   886a0:	48 b8 d6 ca c6 a0 cb 	movabs rax,0x84a558cba0c6cad6
   886a7:	58 a5 84 
   886aa:	48 39 c7             	cmp    rdi,rax
   886ad:	4c 8b 9d 00 ff ff ff 	mov    r11,QWORD PTR [rbp-0x100]
   886b4:	4c 8b 8d f8 fe ff ff 	mov    r9,QWORD PTR [rbp-0x108]
   886bb:	4c 8b a5 f0 fe ff ff 	mov    r12,QWORD PTR [rbp-0x110]
   886c2:	4c 8b ad 28 ff ff ff 	mov    r13,QWORD PTR [rbp-0xd8]
   886c9:	0f 84 97 4f 00 00    	je     8d666 <Java_com_adjust_sdk_sig_NativeLibHelper_nOnResume@@Base-0x2d63d>
   886cf:	48 b8 4d 98 28 94 fb 	movabs rax,0x869fa6fb9428984d
   886d6:	a6 9f 86 
   886d9:	48 39 c7             	cmp    rdi,rax
   886dc:	44 8b 75 c4          	mov    r14d,DWORD PTR [rbp-0x3c]
   886e0:	0f 84 9c b6 00 00    	je     93d82 <Java_com_adjust_sdk_sig_NativeLibHelper_nOnResume@@Base-0x26f21>
   886e6:	48 8b 85 48 ff ff ff 	mov    rax,QWORD PTR [rbp-0xb8]
   886ed:	48 89 85 58 ff ff ff 	mov    QWORD PTR [rbp-0xa8],rax
   886f4:	48 8b 8d 40 ff ff ff 	mov    rcx,QWORD PTR [rbp-0xc0]
   886fb:	48 89 8d 60 ff ff ff 	mov    QWORD PTR [rbp-0xa0],rcx
   88702:	4c 8b 85 30 ff ff ff 	mov    r8,QWORD PTR [rbp-0xd0]
   88709:	4c 89 85 68 ff ff ff 	mov    QWORD PTR [rbp-0x98],r8
   88710:	44 8b 55 c0          	mov    r10d,DWORD PTR [rbp-0x40]
   88714:	44 89 55 c8          	mov    DWORD PTR [rbp-0x38],r10d
   88718:	44 89 75 cc          	mov    DWORD PTR [rbp-0x34],r14d
   8871c:	4c 89 ad 70 ff ff ff 	mov    QWORD PTR [rbp-0x90],r13
   88723:	4c 89 a5 78 ff ff ff 	mov    QWORD PTR [rbp-0x88],r12
   8872a:	48 8b 85 50 ff ff ff 	mov    rax,QWORD PTR [rbp-0xb0]
   88731:	48 89 45 80          	mov    QWORD PTR [rbp-0x80],rax
   88735:	48 8b 9d 20 ff ff ff 	mov    rbx,QWORD PTR [rbp-0xe0]
   8873c:	48 89 5d 88          	mov    QWORD PTR [rbp-0x78],rbx
   88740:	4c 8b ad 18 ff ff ff 	mov    r13,QWORD PTR [rbp-0xe8]
   88747:	4c 89 6d 90          	mov    QWORD PTR [rbp-0x70],r13
   8874b:	48 8b 85 08 ff ff ff 	mov    rax,QWORD PTR [rbp-0xf8]
   88752:	48 89 45 98          	mov    QWORD PTR [rbp-0x68],rax
   88756:	4c 8b b5 10 ff ff ff 	mov    r14,QWORD PTR [rbp-0xf0]
   8875d:	4c 89 75 a0          	mov    QWORD PTR [rbp-0x60],r14
   88761:	4c 89 4d a8          	mov    QWORD PTR [rbp-0x58],r9
   88765:	4c 89 ce             	mov    rsi,r9
   88768:	4c 89 5d b0          	mov    QWORD PTR [rbp-0x50],r11
   8876c:	4c 8b bd 38 ff ff ff 	mov    r15,QWORD PTR [rbp-0xc8]
   88773:	4c 89 7d b8          	mov    QWORD PTR [rbp-0x48],r15
   88777:	48 ba fc 00 2e e5 5a 	movabs rdx,0xd1c8c75ae52e00fc
   8877e:	c7 c8 d1 
   88781:	4d 89 d9             	mov    r9,r11
   88784:	49 bb d3 77 cc 67 21 	movabs r11,0x892fc32167cc77d3
   8878b:	c3 2f 89 
   8878e:	4c 39 df             	cmp    rdi,r11
   88791:	44 89 d7             	mov    edi,r10d
   88794:	4d 89 c2             	mov    r10,r8
   88797:	49 89 c8             	mov    r8,rcx
   8879a:	48 8b 8d 48 ff ff ff 	mov    rcx,QWORD PTR [rbp-0xb8]
   887a1:	0f 84 2b fd ff ff    	je     884d2 <Java_com_adjust_sdk_sig_NativeLibHelper_nOnResume@@Base-0x327d1>
   887a7:	48 89 8d 58 ff ff ff 	mov    QWORD PTR [rbp-0xa8],rcx
   887ae:	4c 89 85 60 ff ff ff 	mov    QWORD PTR [rbp-0xa0],r8
   887b5:	4c 89 95 68 ff ff ff 	mov    QWORD PTR [rbp-0x98],r10
   887bc:	89 7d c8             	mov    DWORD PTR [rbp-0x38],edi
   887bf:	8b 55 c4             	mov    edx,DWORD PTR [rbp-0x3c]
   887c2:	89 55 cc             	mov    DWORD PTR [rbp-0x34],edx
   887c5:	48 8b 95 28 ff ff ff 	mov    rdx,QWORD PTR [rbp-0xd8]
   887cc:	48 89 95 70 ff ff ff 	mov    QWORD PTR [rbp-0x90],rdx
   887d3:	4c 89 a5 78 ff ff ff 	mov    QWORD PTR [rbp-0x88],r12
   887da:	48 8b 95 50 ff ff ff 	mov    rdx,QWORD PTR [rbp-0xb0]
   887e1:	48 89 55 80          	mov    QWORD PTR [rbp-0x80],rdx
   887e5:	48 89 5d 88          	mov    QWORD PTR [rbp-0x78],rbx
   887e9:	4c 89 6d 90          	mov    QWORD PTR [rbp-0x70],r13
   887ed:	48 89 45 98          	mov    QWORD PTR [rbp-0x68],rax
   887f1:	4c 89 75 a0          	mov    QWORD PTR [rbp-0x60],r14
   887f5:	48 89 75 a8          	mov    QWORD PTR [rbp-0x58],rsi
   887f9:	4c 89 4d b0          	mov    QWORD PTR [rbp-0x50],r9
   887fd:	4c 89 7d b8          	mov    QWORD PTR [rbp-0x48],r15
   88801:	48 ba 1e 35 84 91 6d 	movabs rdx,0xc9e62d6d9184351e
   88808:	2d e6 c9 
   8880b:	49 bb 61 bf bb 19 ad 	movabs r11,0x89cedaad19bbbf61
   88812:	da ce 89 
   88815:	4c 39 9d e8 fe ff ff 	cmp    QWORD PTR [rbp-0x118],r11
   8881c:	0f 84 b0 fc ff ff    	je     884d2 <Java_com_adjust_sdk_sig_NativeLibHelper_nOnResume@@Base-0x327d1>
   88822:	48 89 8d 58 ff ff ff 	mov    QWORD PTR [rbp-0xa8],rcx
   88829:	4c 89 85 60 ff ff ff 	mov    QWORD PTR [rbp-0xa0],r8
   88830:	4c 89 95 68 ff ff ff 	mov    QWORD PTR [rbp-0x98],r10
   88837:	89 7d c8             	mov    DWORD PTR [rbp-0x38],edi
   8883a:	8b 4d c4             	mov    ecx,DWORD PTR [rbp-0x3c]
   8883d:	89 4d cc             	mov    DWORD PTR [rbp-0x34],ecx
   88840:	48 8b 8d 28 ff ff ff 	mov    rcx,QWORD PTR [rbp-0xd8]
   88847:	48 89 8d 70 ff ff ff 	mov    QWORD PTR [rbp-0x90],rcx
   8884e:	4c 89 a5 78 ff ff ff 	mov    QWORD PTR [rbp-0x88],r12
   88855:	48 8b 95 50 ff ff ff 	mov    rdx,QWORD PTR [rbp-0xb0]
   8885c:	48 89 55 80          	mov    QWORD PTR [rbp-0x80],rdx
   88860:	48 89 5d 88          	mov    QWORD PTR [rbp-0x78],rbx
   88864:	4c 89 6d 90          	mov    QWORD PTR [rbp-0x70],r13
   88868:	48 89 45 98          	mov    QWORD PTR [rbp-0x68],rax
   8886c:	4c 89 75 a0          	mov    QWORD PTR [rbp-0x60],r14
   88870:	48 89 75 a8          	mov    QWORD PTR [rbp-0x58],rsi
   88874:	4c 89 4d b0          	mov    QWORD PTR [rbp-0x50],r9
   88878:	4c 89 7d b8          	mov    QWORD PTR [rbp-0x48],r15
   8887c:	48 ba d2 53 d5 1b ed 	movabs rdx,0xd6e3c6ed1bd553d2
   88883:	c6 e3 d6 
   88886:	49 bb 47 1d f7 02 64 	movabs r11,0x8a90086402f71d47
   8888d:	08 90 8a 
   88890:	4c 39 9d e8 fe ff ff 	cmp    QWORD PTR [rbp-0x118],r11
   88897:	0f 84 35 fc ff ff    	je     884d2 <Java_com_adjust_sdk_sig_NativeLibHelper_nOnResume@@Base-0x327d1>
   8889d:	48 b8 eb 47 c1 ae 5f 	movabs rax,0x8b9aaa5faec147eb
   888a4:	aa 9a 8b 
   888a7:	48 8b 8d e8 fe ff ff 	mov    rcx,QWORD PTR [rbp-0x118]
   888ae:	48 39 c1             	cmp    rcx,rax
   888b1:	0f 84 d6 b5 00 00    	je     93e8d <Java_com_adjust_sdk_sig_NativeLibHelper_nOnResume@@Base-0x26e16>
   888b7:	48 b8 c8 ec f4 3d dc 	movabs rax,0x8ba891dc3df4ecc8
   888be:	91 a8 8b 
   888c1:	48 39 c1             	cmp    rcx,rax
   888c4:	48 8b 95 00 ff ff ff 	mov    rdx,QWORD PTR [rbp-0x100]
   888cb:	4c 8b bd f8 fe ff ff 	mov    r15,QWORD PTR [rbp-0x108]
   888d2:	4c 8b 8d 10 ff ff ff 	mov    r9,QWORD PTR [rbp-0xf0]
   888d9:	4c 8b 9d 08 ff ff ff 	mov    r11,QWORD PTR [rbp-0xf8]
   888e0:	48 8b b5 f0 fe ff ff 	mov    rsi,QWORD PTR [rbp-0x110]
   888e7:	48 8b bd 28 ff ff ff 	mov    rdi,QWORD PTR [rbp-0xd8]
   888ee:	8b 5d c4             	mov    ebx,DWORD PTR [rbp-0x3c]
   888f1:	44 8b 55 c0          	mov    r10d,DWORD PTR [rbp-0x40]
   888f5:	4c 8b b5 30 ff ff ff 	mov    r14,QWORD PTR [rbp-0xd0]
   888fc:	0f 84 87 59 00 00    	je     8e289 <Java_com_adjust_sdk_sig_NativeLibHelper_nOnResume@@Base-0x2ca1a>
   88902:	48 b8 fe 6b ca 4c ec 	movabs rax,0x8c4c36ec4cca6bfe
   88909:	36 4c 8c 
   8890c:	48 39 c1             	cmp    rcx,rax
   8890f:	0f 84 6e 97 00 00    	je     92083 <Java_com_adjust_sdk_sig_NativeLibHelper_nOnResume@@Base-0x28c20>
   88915:	4c 8b a5 48 ff ff ff 	mov    r12,QWORD PTR [rbp-0xb8]
   8891c:	4c 89 a5 58 ff ff ff 	mov    QWORD PTR [rbp-0xa8],r12
   88923:	4c 8b 85 40 ff ff ff 	mov    r8,QWORD PTR [rbp-0xc0]
   8892a:	4c 89 85 60 ff ff ff 	mov    QWORD PTR [rbp-0xa0],r8
   88931:	4c 89 b5 68 ff ff ff 	mov    QWORD PTR [rbp-0x98],r14
   88938:	44 89 55 c8          	mov    DWORD PTR [rbp-0x38],r10d
   8893c:	89 5d cc             	mov    DWORD PTR [rbp-0x34],ebx
   8893f:	48 89 bd 70 ff ff ff 	mov    QWORD PTR [rbp-0x90],rdi
   88946:	48 89 b5 78 ff ff ff 	mov    QWORD PTR [rbp-0x88],rsi
   8894d:	48 8b 85 50 ff ff ff 	mov    rax,QWORD PTR [rbp-0xb0]
   88954:	48 89 45 80          	mov    QWORD PTR [rbp-0x80],rax
   88958:	48 89 fe             	mov    rsi,rdi
   8895b:	48 8b bd 20 ff ff ff 	mov    rdi,QWORD PTR [rbp-0xe0]
   88962:	48 89 7d 88          	mov    QWORD PTR [rbp-0x78],rdi
   88966:	4c 8b ad 18 ff ff ff 	mov    r13,QWORD PTR [rbp-0xe8]
   8896d:	4c 89 6d 90          	mov    QWORD PTR [rbp-0x70],r13
   88971:	4c 89 5d 98          	mov    QWORD PTR [rbp-0x68],r11
   88975:	4c 89 4d a0          	mov    QWORD PTR [rbp-0x60],r9
   88979:	4c 89 7d a8          	mov    QWORD PTR [rbp-0x58],r15
   8897d:	4d 89 df             	mov    r15,r11
   88980:	48 89 55 b0          	mov    QWORD PTR [rbp-0x50],rdx
   88984:	48 8b 85 38 ff ff ff 	mov    rax,QWORD PTR [rbp-0xc8]
   8898b:	48 89 45 b8          	mov    QWORD PTR [rbp-0x48],rax
   8898f:	48 ba c8 df 9e a4 a2 	movabs rdx,0xb4b588a2a49edfc8
   88996:	88 b5 b4 
   88999:	49 bb 6b ea 84 b8 02 	movabs r11,0x8e4fb002b884ea6b
   889a0:	b0 4f 8e 
   889a3:	4c 39 d9             	cmp    rcx,r11
   889a6:	0f 84 26 fb ff ff    	je     884d2 <Java_com_adjust_sdk_sig_NativeLibHelper_nOnResume@@Base-0x327d1>
   889ac:	4c 89 a5 58 ff ff ff 	mov    QWORD PTR [rbp-0xa8],r12
   889b3:	4c 89 85 60 ff ff ff 	mov    QWORD PTR [rbp-0xa0],r8
   889ba:	4c 89 b5 68 ff ff ff 	mov    QWORD PTR [rbp-0x98],r14
   889c1:	44 89 55 c8          	mov    DWORD PTR [rbp-0x38],r10d
   889c5:	89 5d cc             	mov    DWORD PTR [rbp-0x34],ebx
   889c8:	48 89 b5 70 ff ff ff 	mov    QWORD PTR [rbp-0x90],rsi
   889cf:	48 8b 8d f0 fe ff ff 	mov    rcx,QWORD PTR [rbp-0x110]
   889d6:	48 89 8d 78 ff ff ff 	mov    QWORD PTR [rbp-0x88],rcx
   889dd:	48 8b 95 50 ff ff ff 	mov    rdx,QWORD PTR [rbp-0xb0]
   889e4:	48 89 55 80          	mov    QWORD PTR [rbp-0x80],rdx
   889e8:	48 89 7d 88          	mov    QWORD PTR [rbp-0x78],rdi
   889ec:	4c 89 6d 90          	mov    QWORD PTR [rbp-0x70],r13
   889f0:	4c 89 7d 98          	mov    QWORD PTR [rbp-0x68],r15
   889f4:	4c 89 4d a0          	mov    QWORD PTR [rbp-0x60],r9
   889f8:	48 8b 8d f8 fe ff ff 	mov    rcx,QWORD PTR [rbp-0x108]
   889ff:	48 89 4d a8          	mov    QWORD PTR [rbp-0x58],rcx
   88a03:	48 8b 8d 00 ff ff ff 	mov    rcx,QWORD PTR [rbp-0x100]
   88a0a:	48 89 4d b0          	mov    QWORD PTR [rbp-0x50],rcx
   88a0e:	48 89 45 b8          	mov    QWORD PTR [rbp-0x48],rax
   88a12:	48 ba 7d 16 ed d8 4b 	movabs rdx,0x416be64bd8ed167d
   88a19:	e6 6b 41 
   88a1c:	49 bb eb ee 26 d2 27 	movabs r11,0x9054da27d226eeeb
   88a23:	da 54 90 
   88a26:	4c 39 9d e8 fe ff ff 	cmp    QWORD PTR [rbp-0x118],r11
   88a2d:	0f 84 9f fa ff ff    	je     884d2 <Java_com_adjust_sdk_sig_NativeLibHelper_nOnResume@@Base-0x327d1>
   88a33:	48 b8 c1 cc 22 b1 1d 	movabs rax,0x93a4c81db122ccc1
   88a3a:	c8 a4 93 
   88a3d:	4c 8b a5 e8 fe ff ff 	mov    r12,QWORD PTR [rbp-0x118]
   88a44:	49 39 c4             	cmp    r12,rax
   88a47:	0f 84 5c 48 00 00    	je     8d2a9 <Java_com_adjust_sdk_sig_NativeLibHelper_nOnResume@@Base-0x2d9fa>
   88a4d:	48 b8 47 39 3c e9 a6 	movabs rax,0x93f25fa6e93c3947
   88a54:	5f f2 93 
   88a57:	49 39 c4             	cmp    r12,rax
   88a5a:	4c 8b 85 00 ff ff ff 	mov    r8,QWORD PTR [rbp-0x100]
   88a61:	4c 8b b5 f8 fe ff ff 	mov    r14,QWORD PTR [rbp-0x108]
   88a68:	48 8b 95 10 ff ff ff 	mov    rdx,QWORD PTR [rbp-0xf0]
   88a6f:	4c 8b 8d 08 ff ff ff 	mov    r9,QWORD PTR [rbp-0xf8]
   88a76:	4c 8b 9d 18 ff ff ff 	mov    r11,QWORD PTR [rbp-0xe8]
   88a7d:	48 8b 9d f0 fe ff ff 	mov    rbx,QWORD PTR [rbp-0x110]
   88a84:	44 8b 55 c0          	mov    r10d,DWORD PTR [rbp-0x40]
   88a88:	48 8b 8d 30 ff ff ff 	mov    rcx,QWORD PTR [rbp-0xd0]
   88a8f:	48 8b b5 40 ff ff ff 	mov    rsi,QWORD PTR [rbp-0xc0]
   88a96:	48 8b bd 48 ff ff ff 	mov    rdi,QWORD PTR [rbp-0xb8]
   88a9d:	0f 84 a4 57 00 00    	je     8e247 <Java_com_adjust_sdk_sig_NativeLibHelper_nOnResume@@Base-0x2ca5c>
   88aa3:	48 b8 7d 52 9f db a5 	movabs rax,0x954f5da5db9f527d
   88aaa:	5d 4f 95 
   88aad:	49 39 c4             	cmp    r12,rax
   88ab0:	0f 84 ac ae 00 00    	je     93962 <Java_com_adjust_sdk_sig_NativeLibHelper_nOnResume@@Base-0x27341>
   88ab6:	48 b8 ac 01 13 29 a9 	movabs rax,0x971185a9291301ac
   88abd:	85 11 97 
   88ac0:	49 39 c4             	cmp    r12,rax
   88ac3:	0f 84 02 b1 00 00    	je     93bcb <Java_com_adjust_sdk_sig_NativeLibHelper_nOnResume@@Base-0x270d8>
   88ac9:	48 89 bd 58 ff ff ff 	mov    QWORD PTR [rbp-0xa8],rdi
   88ad0:	48 89 b5 60 ff ff ff 	mov    QWORD PTR [rbp-0xa0],rsi
   88ad7:	48 89 8d 68 ff ff ff 	mov    QWORD PTR [rbp-0x98],rcx
   88ade:	44 89 55 c8          	mov    DWORD PTR [rbp-0x38],r10d
   88ae2:	49 89 fa             	mov    r10,rdi
   88ae5:	4c 89 f1             	mov    rcx,r14
   88ae8:	44 8b 75 c4          	mov    r14d,DWORD PTR [rbp-0x3c]
   88aec:	44 89 75 cc          	mov    DWORD PTR [rbp-0x34],r14d
   88af0:	4c 8b bd 28 ff ff ff 	mov    r15,QWORD PTR [rbp-0xd8]
   88af7:	4c 89 bd 70 ff ff ff 	mov    QWORD PTR [rbp-0x90],r15
   88afe:	48 89 9d 78 ff ff ff 	mov    QWORD PTR [rbp-0x88],rbx
   88b05:	48 8b 85 50 ff ff ff 	mov    rax,QWORD PTR [rbp-0xb0]
   88b0c:	48 89 45 80          	mov    QWORD PTR [rbp-0x80],rax
   88b10:	4c 89 e7             	mov    rdi,r12
   88b13:	4c 8b ad 20 ff ff ff 	mov    r13,QWORD PTR [rbp-0xe0]
   88b1a:	4c 89 6d 88          	mov    QWORD PTR [rbp-0x78],r13
   88b1e:	4c 89 5d 90          	mov    QWORD PTR [rbp-0x70],r11
   88b22:	4c 89 4d 98          	mov    QWORD PTR [rbp-0x68],r9
   88b26:	48 89 55 a0          	mov    QWORD PTR [rbp-0x60],rdx
   88b2a:	48 89 4d a8          	mov    QWORD PTR [rbp-0x58],rcx
   88b2e:	48 89 d6             	mov    rsi,rdx
   88b31:	49 89 dc             	mov    r12,rbx
   88b34:	4c 89 db             	mov    rbx,r11
   88b37:	4c 89 45 b0          	mov    QWORD PTR [rbp-0x50],r8
   88b3b:	48 8b 85 38 ff ff ff 	mov    rax,QWORD PTR [rbp-0xc8]
   88b42:	48 89 45 b8          	mov    QWORD PTR [rbp-0x48],rax
   88b46:	48 ba 76 e9 b2 3e f7 	movabs rdx,0xef472af73eb2e976
   88b4d:	2a 47 ef 
   88b50:	49 bb 5a b6 7b 01 9c 	movabs r11,0x9843fc9c017bb65a
   88b57:	fc 43 98 
   88b5a:	4c 39 df             	cmp    rdi,r11
   88b5d:	0f 84 6f f9 ff ff    	je     884d2 <Java_com_adjust_sdk_sig_NativeLibHelper_nOnResume@@Base-0x327d1>
   88b63:	4c 89 c9             	mov    rcx,r9
   88b66:	4c 89 95 58 ff ff ff 	mov    QWORD PTR [rbp-0xa8],r10
   88b6d:	48 8b 95 40 ff ff ff 	mov    rdx,QWORD PTR [rbp-0xc0]
   88b74:	48 89 95 60 ff ff ff 	mov    QWORD PTR [rbp-0xa0],rdx
   88b7b:	48 8b 95 30 ff ff ff 	mov    rdx,QWORD PTR [rbp-0xd0]
   88b82:	48 89 95 68 ff ff ff 	mov    QWORD PTR [rbp-0x98],rdx
   88b89:	8b 55 c0             	mov    edx,DWORD PTR [rbp-0x40]
   88b8c:	89 55 c8             	mov    DWORD PTR [rbp-0x38],edx
   88b8f:	44 89 75 cc          	mov    DWORD PTR [rbp-0x34],r14d
   88b93:	4c 89 bd 70 ff ff ff 	mov    QWORD PTR [rbp-0x90],r15
   88b9a:	4c 89 a5 78 ff ff ff 	mov    QWORD PTR [rbp-0x88],r12
   88ba1:	48 8b 95 d8 f9 ff ff 	mov    rdx,QWORD PTR [rbp-0x628]
   88ba8:	48 89 55 80          	mov    QWORD PTR [rbp-0x80],rdx
   88bac:	4c 89 6d 88          	mov    QWORD PTR [rbp-0x78],r13
   88bb0:	48 89 5d 90          	mov    QWORD PTR [rbp-0x70],rbx
   88bb4:	4c 89 4d 98          	mov    QWORD PTR [rbp-0x68],r9
   88bb8:	48 89 75 a0          	mov    QWORD PTR [rbp-0x60],rsi
   88bbc:	48 8b 8d f8 fe ff ff 	mov    rcx,QWORD PTR [rbp-0x108]
   88bc3:	48 89 4d a8          	mov    QWORD PTR [rbp-0x58],rcx
   88bc7:	4c 89 45 b0          	mov    QWORD PTR [rbp-0x50],r8
   88bcb:	48 89 45 b8          	mov    QWORD PTR [rbp-0x48],rax
   88bcf:	48 ba bc 97 a8 2b c4 	movabs rdx,0x50263bc42ba897bc
   88bd6:	3b 26 50 
   88bd9:	49 bb 81 f6 ea 65 62 	movabs r11,0x98b2036265eaf681
   88be0:	03 b2 98 
   88be3:	4c 39 9d e8 fe ff ff 	cmp    QWORD PTR [rbp-0x118],r11
   88bea:	0f 84 e2 f8 ff ff    	je     884d2 <Java_com_adjust_sdk_sig_NativeLibHelper_nOnResume@@Base-0x327d1>
   88bf0:	48 b8 3d 8b 4a 66 28 	movabs rax,0x995c3a28664a8b3d
   88bf7:	3a 5c 99 
   88bfa:	48 8b 8d e8 fe ff ff 	mov    rcx,QWORD PTR [rbp-0x118]
   88c01:	48 39 c1             	cmp    rcx,rax
   88c04:	0f 84 45 b2 00 00    	je     93e4f <Java_com_adjust_sdk_sig_NativeLibHelper_nOnResume@@Base-0x26e54>
   88c0a:	48 b8 22 e4 60 f2 95 	movabs rax,0x9a3db195f260e422
   88c11:	b1 3d 9a 
   88c14:	48 39 c1             	cmp    rcx,rax
   88c17:	48 8b 9d f0 fe ff ff 	mov    rbx,QWORD PTR [rbp-0x110]
   88c1e:	0f 84 5d 4f 00 00    	je     8db81 <Java_com_adjust_sdk_sig_NativeLibHelper_nOnResume@@Base-0x2d122>
   88c24:	48 b8 5b aa c1 31 b9 	movabs rax,0x9bb834b931c1aa5b
   88c2b:	34 b8 9b 
   88c2e:	48 39 c1             	cmp    rcx,rax
   88c31:	4c 8b b5 00 ff ff ff 	mov    r14,QWORD PTR [rbp-0x100]
   88c38:	0f 84 8a b0 00 00    	je     93cc8 <Java_com_adjust_sdk_sig_NativeLibHelper_nOnResume@@Base-0x26fdb>
   88c3e:	48 b8 a7 ce 10 3e ac 	movabs rax,0x9c4639ac3e10cea7
   88c45:	39 46 9c 
   88c48:	48 39 c1             	cmp    rcx,rax
   88c4b:	0f 84 21 91 00 00    	je     91d72 <Java_com_adjust_sdk_sig_NativeLibHelper_nOnResume@@Base-0x28f31>
   88c51:	48 b8 34 61 54 c3 e3 	movabs rax,0x9c7886e3c3546134
   88c58:	86 78 9c 
   88c5b:	48 39 c1             	cmp    rcx,rax
   88c5e:	0f 84 c9 a8 00 00    	je     9352d <Java_com_adjust_sdk_sig_NativeLibHelper_nOnResume@@Base-0x27776>
   88c64:	48 b8 be dd ac 5d 60 	movabs rax,0x9d3ced605dacddbe
   88c6b:	ed 3c 9d 
   88c6e:	48 39 c1             	cmp    rcx,rax
   88c71:	0f 84 aa 4a 00 00    	je     8d721 <Java_com_adjust_sdk_sig_NativeLibHelper_nOnResume@@Base-0x2d582>
   88c77:	48 b8 1f ac f6 73 ec 	movabs rax,0x9fe44eec73f6ac1f
   88c7e:	4e e4 9f 
   88c81:	48 39 c1             	cmp    rcx,rax
   88c84:	0f 84 c4 77 00 00    	je     9044e <Java_com_adjust_sdk_sig_NativeLibHelper_nOnResume@@Base-0x2a855>
   88c8a:	48 b8 fe 93 7a d7 59 	movabs rax,0xa159ac59d77a93fe
   88c91:	ac 59 a1 
   88c94:	48 39 c1             	cmp    rcx,rax
   88c97:	0f 84 e5 84 00 00    	je     91182 <Java_com_adjust_sdk_sig_NativeLibHelper_nOnResume@@Base-0x29b21>
   88c9d:	48 b8 d9 8a b5 1c ec 	movabs rax,0xa1e0dcec1cb58ad9
   88ca4:	dc e0 a1 
   88ca7:	48 39 c1             	cmp    rcx,rax
   88caa:	0f 84 23 49 00 00    	je     8d5d3 <Java_com_adjust_sdk_sig_NativeLibHelper_nOnResume@@Base-0x2d6d0>
   88cb0:	48 b8 2e a6 22 03 d0 	movabs rax,0xa32344d00322a62e
   88cb7:	44 23 a3 
   88cba:	48 39 c1             	cmp    rcx,rax
   88cbd:	0f 84 99 4e 00 00    	je     8db5c <Java_com_adjust_sdk_sig_NativeLibHelper_nOnResume@@Base-0x2d147>
   88cc3:	48 b8 38 a6 2c 98 c5 	movabs rax,0xa59ee2c5982ca638
   88cca:	e2 9e a5 
   88ccd:	48 39 c1             	cmp    rcx,rax
   88cd0:	0f 84 00 aa 00 00    	je     936d6 <Java_com_adjust_sdk_sig_NativeLibHelper_nOnResume@@Base-0x275cd>
   88cd6:	48 b8 e8 5c d9 eb 70 	movabs rax,0xa7530370ebd95ce8
   88cdd:	03 53 a7 
   88ce0:	48 39 c1             	cmp    rcx,rax
   88ce3:	0f 84 13 ae 00 00    	je     93afc <Java_com_adjust_sdk_sig_NativeLibHelper_nOnResume@@Base-0x271a7>
   88ce9:	48 b8 f1 80 cf 74 cc 	movabs rax,0xa77680cc74cf80f1
   88cf0:	80 76 a7 
   88cf3:	48 39 c1             	cmp    rcx,rax
   88cf6:	4c 8b 8d 38 ff ff ff 	mov    r9,QWORD PTR [rbp-0xc8]
   88cfd:	0f 84 ea 8d 00 00    	je     91aed <Java_com_adjust_sdk_sig_NativeLibHelper_nOnResume@@Base-0x291b6>
   88d03:	48 b8 b3 a1 d8 b4 c1 	movabs rax,0xa8240ec1b4d8a1b3
   88d0a:	0e 24 a8 
   88d0d:	48 39 c1             	cmp    rcx,rax
   88d10:	0f 84 44 47 00 00    	je     8d45a <Java_com_adjust_sdk_sig_NativeLibHelper_nOnResume@@Base-0x2d849>
   88d16:	48 b8 5e a3 4c 14 ad 	movabs rax,0xa8242dad144ca35e
   88d1d:	2d 24 a8 
   88d20:	48 39 c1             	cmp    rcx,rax
   88d23:	0f 84 96 9c 00 00    	je     929bf <Java_com_adjust_sdk_sig_NativeLibHelper_nOnResume@@Base-0x282e4>
   88d29:	48 b8 68 bb 13 fe be 	movabs rax,0xa8ab60befe13bb68
   88d30:	60 ab a8 
   88d33:	48 39 c1             	cmp    rcx,rax
   88d36:	4c 8b b5 f8 fe ff ff 	mov    r14,QWORD PTR [rbp-0x108]
   88d3d:	0f 84 c3 9b 00 00    	je     92906 <Java_com_adjust_sdk_sig_NativeLibHelper_nOnResume@@Base-0x2839d>
   88d43:	48 b8 41 c2 5f f2 db 	movabs rax,0xa9e2e1dbf25fc241
   88d4a:	e1 e2 a9 
   88d4d:	48 39 c1             	cmp    rcx,rax
   88d50:	0f 84 99 75 00 00    	je     902ef <Java_com_adjust_sdk_sig_NativeLibHelper_nOnResume@@Base-0x2a9b4>
   88d56:	48 b8 b7 bf 40 b9 35 	movabs rax,0xaa768935b940bfb7
   88d5d:	89 76 aa 
   88d60:	48 39 c1             	cmp    rcx,rax
   88d63:	0f 84 28 8f 00 00    	je     91c91 <Java_com_adjust_sdk_sig_NativeLibHelper_nOnResume@@Base-0x29012>
   88d69:	48 b8 18 24 f9 70 bd 	movabs rax,0xabc20cbd70f92418
   88d70:	0c c2 ab 
   88d73:	48 39 c1             	cmp    rcx,rax
   88d76:	0f 84 40 88 00 00    	je     915bc <Java_com_adjust_sdk_sig_NativeLibHelper_nOnResume@@Base-0x296e7>
   88d7c:	48 b8 8d 89 bc 56 f4 	movabs rax,0xac8b8ff456bc898d
   88d83:	8f 8b ac 
   88d86:	48 39 c1             	cmp    rcx,rax
   88d89:	4c 8b 85 00 ff ff ff 	mov    r8,QWORD PTR [rbp-0x100]
   88d90:	0f 84 04 46 00 00    	je     8d39a <Java_com_adjust_sdk_sig_NativeLibHelper_nOnResume@@Base-0x2d909>
   88d96:	48 b8 c8 34 c7 ac 56 	movabs rax,0xadb40456acc734c8
   88d9d:	04 b4 ad 
   88da0:	48 39 c1             	cmp    rcx,rax
   88da3:	0f 84 3d a2 00 00    	je     92fe6 <Java_com_adjust_sdk_sig_NativeLibHelper_nOnResume@@Base-0x27cbd>
   88da9:	48 b8 88 9d 0b ae 4d 	movabs rax,0xae2faf4dae0b9d88
   88db0:	af 2f ae 
   88db3:	48 39 c1             	cmp    rcx,rax
   88db6:	0f 84 6f 66 00 00    	je     8f42b <Java_com_adjust_sdk_sig_NativeLibHelper_nOnResume@@Base-0x2b878>
   88dbc:	48 b8 a7 f6 31 df 05 	movabs rax,0xae3eef05df31f6a7
   88dc3:	ef 3e ae 
   88dc6:	48 39 c1             	cmp    rcx,rax
   88dc9:	0f 84 49 47 00 00    	je     8d518 <Java_com_adjust_sdk_sig_NativeLibHelper_nOnResume@@Base-0x2d78b>
   88dcf:	48 b8 de b3 67 60 14 	movabs rax,0xae872a146067b3de
   88dd6:	2a 87 ae 
   88dd9:	48 39 c1             	cmp    rcx,rax
   88ddc:	0f 84 c2 99 00 00    	je     927a4 <Java_com_adjust_sdk_sig_NativeLibHelper_nOnResume@@Base-0x284ff>
   88de2:	48 8b 85 48 ff ff ff 	mov    rax,QWORD PTR [rbp-0xb8]
   88de9:	48 89 85 58 ff ff ff 	mov    QWORD PTR [rbp-0xa8],rax
   88df0:	48 8b 85 40 ff ff ff 	mov    rax,QWORD PTR [rbp-0xc0]
   88df7:	48 89 85 60 ff ff ff 	mov    QWORD PTR [rbp-0xa0],rax
   88dfe:	48 8b 85 30 ff ff ff 	mov    rax,QWORD PTR [rbp-0xd0]
   88e05:	48 89 85 68 ff ff ff 	mov    QWORD PTR [rbp-0x98],rax
   88e0c:	8b 45 c0             	mov    eax,DWORD PTR [rbp-0x40]
   88e0f:	89 45 c8             	mov    DWORD PTR [rbp-0x38],eax
   88e12:	8b 45 c4             	mov    eax,DWORD PTR [rbp-0x3c]
   88e15:	89 45 cc             	mov    DWORD PTR [rbp-0x34],eax
   88e18:	48 8b 85 28 ff ff ff 	mov    rax,QWORD PTR [rbp-0xd8]
   88e1f:	48 89 85 70 ff ff ff 	mov    QWORD PTR [rbp-0x90],rax
   88e26:	48 89 9d 78 ff ff ff 	mov    QWORD PTR [rbp-0x88],rbx
   88e2d:	48 8b 85 50 ff ff ff 	mov    rax,QWORD PTR [rbp-0xb0]
   88e34:	48 89 45 80          	mov    QWORD PTR [rbp-0x80],rax
   88e38:	48 8b 85 20 ff ff ff 	mov    rax,QWORD PTR [rbp-0xe0]
   88e3f:	48 89 45 88          	mov    QWORD PTR [rbp-0x78],rax
   88e43:	48 8b 85 18 ff ff ff 	mov    rax,QWORD PTR [rbp-0xe8]
   88e4a:	48 89 45 90          	mov    QWORD PTR [rbp-0x70],rax
   88e4e:	48 8b 85 08 ff ff ff 	mov    rax,QWORD PTR [rbp-0xf8]
   88e55:	48 89 45 98          	mov    QWORD PTR [rbp-0x68],rax
   88e59:	48 8b 85 10 ff ff ff 	mov    rax,QWORD PTR [rbp-0xf0]
   88e60:	48 89 45 a0          	mov    QWORD PTR [rbp-0x60],rax
   88e64:	4c 89 75 a8          	mov    QWORD PTR [rbp-0x58],r14
   88e68:	4c 89 45 b0          	mov    QWORD PTR [rbp-0x50],r8
   88e6c:	48 8b 85 38 ff ff ff 	mov    rax,QWORD PTR [rbp-0xc8]
   88e73:	48 89 45 b8          	mov    QWORD PTR [rbp-0x48],rax
   88e77:	48 ba 1d 9e bb 5b 06 	movabs rdx,0x477719065bbb9e1d
   88e7e:	19 77 47 
   88e81:	49 bb 5e 18 a7 81 20 	movabs r11,0xb2cc4b2081a7185e
   88e88:	4b cc b2 
   88e8b:	4c 39 d9             	cmp    rcx,r11
   88e8e:	0f 84 3e f6 ff ff    	je     884d2 <Java_com_adjust_sdk_sig_NativeLibHelper_nOnResume@@Base-0x327d1>
   88e94:	48 b8 c8 df 9e a4 a2 	movabs rax,0xb4b588a2a49edfc8
   88e9b:	88 b5 b4 
   88e9e:	48 8b 8d e8 fe ff ff 	mov    rcx,QWORD PTR [rbp-0x118]
   88ea5:	48 39 c1             	cmp    rcx,rax
   88ea8:	0f 84 38 ab 00 00    	je     939e6 <Java_com_adjust_sdk_sig_NativeLibHelper_nOnResume@@Base-0x272bd>
   88eae:	48 b8 63 bc 51 43 e2 	movabs rax,0xb571eae24351bc63
   88eb5:	ea 71 b5 
   88eb8:	48 39 c1             	cmp    rcx,rax
   88ebb:	4c 8b b5 00 ff ff ff 	mov    r14,QWORD PTR [rbp-0x100]
   88ec2:	48 8b 9d f0 fe ff ff 	mov    rbx,QWORD PTR [rbp-0x110]
   88ec9:	0f 84 b1 ad 00 00    	je     93c80 <Java_com_adjust_sdk_sig_NativeLibHelper_nOnResume@@Base-0x27023>
   88ecf:	48 8b 85 48 ff ff ff 	mov    rax,QWORD PTR [rbp-0xb8]
   88ed6:	48 89 85 58 ff ff ff 	mov    QWORD PTR [rbp-0xa8],rax
   88edd:	48 8b 85 40 ff ff ff 	mov    rax,QWORD PTR [rbp-0xc0]
   88ee4:	48 89 85 60 ff ff ff 	mov    QWORD PTR [rbp-0xa0],rax
   88eeb:	48 8b 85 30 ff ff ff 	mov    rax,QWORD PTR [rbp-0xd0]
   88ef2:	48 89 85 68 ff ff ff 	mov    QWORD PTR [rbp-0x98],rax
   88ef9:	8b 45 c0             	mov    eax,DWORD PTR [rbp-0x40]
   88efc:	89 45 c8             	mov    DWORD PTR [rbp-0x38],eax
   88eff:	8b 45 c4             	mov    eax,DWORD PTR [rbp-0x3c]
   88f02:	89 45 cc             	mov    DWORD PTR [rbp-0x34],eax
   88f05:	48 8b 85 28 ff ff ff 	mov    rax,QWORD PTR [rbp-0xd8]
   88f0c:	48 89 85 70 ff ff ff 	mov    QWORD PTR [rbp-0x90],rax
   88f13:	48 89 9d 78 ff ff ff 	mov    QWORD PTR [rbp-0x88],rbx
   88f1a:	48 8b 85 50 ff ff ff 	mov    rax,QWORD PTR [rbp-0xb0]
   88f21:	48 89 45 80          	mov    QWORD PTR [rbp-0x80],rax
   88f25:	48 8b 85 20 ff ff ff 	mov    rax,QWORD PTR [rbp-0xe0]
   88f2c:	48 89 45 88          	mov    QWORD PTR [rbp-0x78],rax
   88f30:	48 8b 85 18 ff ff ff 	mov    rax,QWORD PTR [rbp-0xe8]
   88f37:	48 89 45 90          	mov    QWORD PTR [rbp-0x70],rax
   88f3b:	48 8b 85 08 ff ff ff 	mov    rax,QWORD PTR [rbp-0xf8]
   88f42:	48 89 45 98          	mov    QWORD PTR [rbp-0x68],rax
   88f46:	48 8b 85 10 ff ff ff 	mov    rax,QWORD PTR [rbp-0xf0]
   88f4d:	48 89 45 a0          	mov    QWORD PTR [rbp-0x60],rax
   88f51:	48 8b 85 f8 fe ff ff 	mov    rax,QWORD PTR [rbp-0x108]
   88f58:	48 89 45 a8          	mov    QWORD PTR [rbp-0x58],rax
   88f5c:	4c 89 75 b0          	mov    QWORD PTR [rbp-0x50],r14
   88f60:	48 8b 85 38 ff ff ff 	mov    rax,QWORD PTR [rbp-0xc8]
   88f67:	48 89 45 b8          	mov    QWORD PTR [rbp-0x48],rax
   88f6b:	48 ba 92 28 97 f8 f0 	movabs rdx,0x7f347af0f8972892
   88f72:	7a 34 7f 
   88f75:	49 bb 9e ac d2 87 59 	movabs r11,0xb5bc595987d2ac9e
   88f7c:	59 bc b5 
   88f7f:	4c 39 d9             	cmp    rcx,r11
   88f82:	0f 84 4a f5 ff ff    	je     884d2 <Java_com_adjust_sdk_sig_NativeLibHelper_nOnResume@@Base-0x327d1>
   88f88:	48 b8 bb 76 8d c8 b2 	movabs rax,0xb66b34b2c88d76bb
   88f8f:	34 6b b6 
   88f92:	4c 8b bd e8 fe ff ff 	mov    r15,QWORD PTR [rbp-0x118]
   88f99:	49 39 c7             	cmp    r15,rax
   88f9c:	0f 84 34 a1 00 00    	je     930d6 <Java_com_adjust_sdk_sig_NativeLibHelper_nOnResume@@Base-0x27bcd>
   88fa2:	48 b8 a9 b0 9a d0 5c 	movabs rax,0xb7e9285cd09ab0a9
   88fa9:	28 e9 b7 
   88fac:	49 39 c7             	cmp    r15,rax
   88faf:	4c 8b 85 00 ff ff ff 	mov    r8,QWORD PTR [rbp-0x100]
   88fb6:	48 8b bd f8 fe ff ff 	mov    rdi,QWORD PTR [rbp-0x108]
   88fbd:	48 8b b5 10 ff ff ff 	mov    rsi,QWORD PTR [rbp-0xf0]
   88fc4:	48 8b 8d 08 ff ff ff 	mov    rcx,QWORD PTR [rbp-0xf8]
   88fcb:	4c 8b 8d 18 ff ff ff 	mov    r9,QWORD PTR [rbp-0xe8]
   88fd2:	4c 8b 9d 20 ff ff ff 	mov    r11,QWORD PTR [rbp-0xe0]
   88fd9:	48 8b 9d f0 fe ff ff 	mov    rbx,QWORD PTR [rbp-0x110]
   88fe0:	44 8b 55 c0          	mov    r10d,DWORD PTR [rbp-0x40]
   88fe4:	4c 8b b5 30 ff ff ff 	mov    r14,QWORD PTR [rbp-0xd0]
   88feb:	0f 84 97 72 00 00    	je     90288 <Java_com_adjust_sdk_sig_NativeLibHelper_nOnResume@@Base-0x2aa1b>
   88ff1:	48 8b 85 48 ff ff ff 	mov    rax,QWORD PTR [rbp-0xb8]
   88ff8:	48 89 85 58 ff ff ff 	mov    QWORD PTR [rbp-0xa8],rax
   88fff:	48 8b 85 40 ff ff ff 	mov    rax,QWORD PTR [rbp-0xc0]
   89006:	48 89 85 60 ff ff ff 	mov    QWORD PTR [rbp-0xa0],rax
   8900d:	4c 89 b5 68 ff ff ff 	mov    QWORD PTR [rbp-0x98],r14
   89014:	44 89 55 c8          	mov    DWORD PTR [rbp-0x38],r10d
   89018:	8b 45 c4             	mov    eax,DWORD PTR [rbp-0x3c]
   8901b:	89 45 cc             	mov    DWORD PTR [rbp-0x34],eax
   8901e:	48 8b 85 28 ff ff ff 	mov    rax,QWORD PTR [rbp-0xd8]
   89025:	48 89 85 70 ff ff ff 	mov    QWORD PTR [rbp-0x90],rax
   8902c:	48 89 9d 78 ff ff ff 	mov    QWORD PTR [rbp-0x88],rbx
   89033:	48 8b 85 50 ff ff ff 	mov    rax,QWORD PTR [rbp-0xb0]
   8903a:	48 89 45 80          	mov    QWORD PTR [rbp-0x80],rax
   8903e:	4c 89 5d 88          	mov    QWORD PTR [rbp-0x78],r11
   89042:	4c 89 4d 90          	mov    QWORD PTR [rbp-0x70],r9
   89046:	48 89 4d 98          	mov    QWORD PTR [rbp-0x68],rcx
   8904a:	48 89 75 a0          	mov    QWORD PTR [rbp-0x60],rsi
   8904e:	48 89 7d a8          	mov    QWORD PTR [rbp-0x58],rdi
   89052:	4c 89 45 b0          	mov    QWORD PTR [rbp-0x50],r8
   89056:	48 8b 85 38 ff ff ff 	mov    rax,QWORD PTR [rbp-0xc8]
   8905d:	48 89 45 b8          	mov    QWORD PTR [rbp-0x48],rax
   89061:	48 ba 15 43 a9 74 4d 	movabs rdx,0x4248ed4d74a94315
   89068:	ed 48 42 
   8906b:	49 bb d2 a0 e4 e0 ea 	movabs r11,0xb802caeae0e4a0d2
   89072:	ca 02 b8 
   89075:	4d 39 df             	cmp    r15,r11
   89078:	0f 84 54 f4 ff ff    	je     884d2 <Java_com_adjust_sdk_sig_NativeLibHelper_nOnResume@@Base-0x327d1>
   8907e:	48 b8 1d 1a d0 e2 14 	movabs rax,0xb803d814e2d01a1d
   89085:	d8 03 b8 
   89088:	48 8b 8d e8 fe ff ff 	mov    rcx,QWORD PTR [rbp-0x118]
   8908f:	48 39 c1             	cmp    rcx,rax
   89092:	0f 84 f4 a7 00 00    	je     9388c <Java_com_adjust_sdk_sig_NativeLibHelper_nOnResume@@Base-0x27417>
   89098:	48 b8 82 62 05 06 69 	movabs rax,0xb9c07a6906056282
   8909f:	7a c0 b9 
   890a2:	48 39 c1             	cmp    rcx,rax
   890a5:	48 8b 9d f0 fe ff ff 	mov    rbx,QWORD PTR [rbp-0x110]
   890ac:	0f 84 7a 47 00 00    	je     8d82c <Java_com_adjust_sdk_sig_NativeLibHelper_nOnResume@@Base-0x2d477>
   890b2:	48 b8 ab b4 fe 41 47 	movabs rax,0xbb65d74741feb4ab
   890b9:	d7 65 bb 
   890bc:	48 39 c1             	cmp    rcx,rax
   890bf:	4c 8b b5 00 ff ff ff 	mov    r14,QWORD PTR [rbp-0x100]
   890c6:	0f 84 de 5a 00 00    	je     8ebaa <Java_com_adjust_sdk_sig_NativeLibHelper_nOnResume@@Base-0x2c0f9>
   890cc:	48 8b 85 48 ff ff ff 	mov    rax,QWORD PTR [rbp-0xb8]
   890d3:	48 89 85 58 ff ff ff 	mov    QWORD PTR [rbp-0xa8],rax
   890da:	48 8b 85 40 ff ff ff 	mov    rax,QWORD PTR [rbp-0xc0]
   890e1:	48 89 85 60 ff ff ff 	mov    QWORD PTR [rbp-0xa0],rax
   890e8:	48 8b 85 30 ff ff ff 	mov    rax,QWORD PTR [rbp-0xd0]
   890ef:	48 89 85 68 ff ff ff 	mov    QWORD PTR [rbp-0x98],rax
   890f6:	8b 45 c0             	mov    eax,DWORD PTR [rbp-0x40]
   890f9:	89 45 c8             	mov    DWORD PTR [rbp-0x38],eax
   890fc:	8b 85 48 fe ff ff    	mov    eax,DWORD PTR [rbp-0x1b8]
   89102:	89 45 cc             	mov    DWORD PTR [rbp-0x34],eax
   89105:	48 8b 85 28 ff ff ff 	mov    rax,QWORD PTR [rbp-0xd8]
   8910c:	48 89 85 70 ff ff ff 	mov    QWORD PTR [rbp-0x90],rax
   89113:	48 89 9d 78 ff ff ff 	mov    QWORD PTR [rbp-0x88],rbx
   8911a:	48 8b 85 50 ff ff ff 	mov    rax,QWORD PTR [rbp-0xb0]
   89121:	48 89 45 80          	mov    QWORD PTR [rbp-0x80],rax
   89125:	48 8b 85 20 ff ff ff 	mov    rax,QWORD PTR [rbp-0xe0]
   8912c:	48 89 45 88          	mov    QWORD PTR [rbp-0x78],rax
   89130:	48 8b 85 18 ff ff ff 	mov    rax,QWORD PTR [rbp-0xe8]
   89137:	48 89 45 90          	mov    QWORD PTR [rbp-0x70],rax
   8913b:	48 8b 85 08 ff ff ff 	mov    rax,QWORD PTR [rbp-0xf8]
   89142:	48 89 45 98          	mov    QWORD PTR [rbp-0x68],rax
   89146:	48 8b 85 10 ff ff ff 	mov    rax,QWORD PTR [rbp-0xf0]
   8914d:	48 89 45 a0          	mov    QWORD PTR [rbp-0x60],rax
   89151:	48 8b 85 f8 fe ff ff 	mov    rax,QWORD PTR [rbp-0x108]
   89158:	48 89 45 a8          	mov    QWORD PTR [rbp-0x58],rax
   8915c:	4c 89 75 b0          	mov    QWORD PTR [rbp-0x50],r14
   89160:	48 8b 85 38 ff ff ff 	mov    rax,QWORD PTR [rbp-0xc8]
   89167:	48 89 45 b8          	mov    QWORD PTR [rbp-0x48],rax
   8916b:	48 ba 11 7d 83 2e ac 	movabs rdx,0x278790ac2e837d11
   89172:	90 87 27 
   89175:	49 bb 04 e2 df 99 72 	movabs r11,0xbc34f77299dfe204
   8917c:	f7 34 bc 
   8917f:	4c 39 d9             	cmp    rcx,r11
   89182:	0f 84 4a f3 ff ff    	je     884d2 <Java_com_adjust_sdk_sig_NativeLibHelper_nOnResume@@Base-0x327d1>
   89188:	48 b8 54 79 8b 67 1a 	movabs rax,0xbeb2b81a678b7954
   8918f:	b8 b2 be 
   89192:	48 8b 8d e8 fe ff ff 	mov    rcx,QWORD PTR [rbp-0x118]
   89199:	48 39 c1             	cmp    rcx,rax
   8919c:	0f 84 60 4e 00 00    	je     8e002 <Java_com_adjust_sdk_sig_NativeLibHelper_nOnResume@@Base-0x2cca1>
   891a2:	48 8b 85 48 ff ff ff 	mov    rax,QWORD PTR [rbp-0xb8]
   891a9:	48 89 85 58 ff ff ff 	mov    QWORD PTR [rbp-0xa8],rax
   891b0:	48 8b 85 e0 f9 ff ff 	mov    rax,QWORD PTR [rbp-0x620]
   891b7:	48 89 85 60 ff ff ff 	mov    QWORD PTR [rbp-0xa0],rax
   891be:	48 8b 85 30 ff ff ff 	mov    rax,QWORD PTR [rbp-0xd0]
   891c5:	48 89 85 68 ff ff ff 	mov    QWORD PTR [rbp-0x98],rax
   891cc:	8b 45 c0             	mov    eax,DWORD PTR [rbp-0x40]
   891cf:	89 45 c8             	mov    DWORD PTR [rbp-0x38],eax
   891d2:	8b 45 c4             	mov    eax,DWORD PTR [rbp-0x3c]
   891d5:	89 45 cc             	mov    DWORD PTR [rbp-0x34],eax
   891d8:	48 8b 85 28 ff ff ff 	mov    rax,QWORD PTR [rbp-0xd8]
   891df:	48 89 85 70 ff ff ff 	mov    QWORD PTR [rbp-0x90],rax
   891e6:	48 8b 85 f0 fe ff ff 	mov    rax,QWORD PTR [rbp-0x110]
   891ed:	48 89 85 78 ff ff ff 	mov    QWORD PTR [rbp-0x88],rax
   891f4:	48 8b 85 50 ff ff ff 	mov    rax,QWORD PTR [rbp-0xb0]
   891fb:	48 89 45 80          	mov    QWORD PTR [rbp-0x80],rax
   891ff:	48 8b 85 20 ff ff ff 	mov    rax,QWORD PTR [rbp-0xe0]
   89206:	48 89 45 88          	mov    QWORD PTR [rbp-0x78],rax
   8920a:	48 8b 85 18 ff ff ff 	mov    rax,QWORD PTR [rbp-0xe8]
   89211:	48 89 45 90          	mov    QWORD PTR [rbp-0x70],rax
   89215:	48 8b 85 08 ff ff ff 	mov    rax,QWORD PTR [rbp-0xf8]
   8921c:	48 89 45 98          	mov    QWORD PTR [rbp-0x68],rax
   89220:	48 8b 85 10 ff ff ff 	mov    rax,QWORD PTR [rbp-0xf0]
   89227:	48 89 45 a0          	mov    QWORD PTR [rbp-0x60],rax
   8922b:	48 8b 85 f8 fe ff ff 	mov    rax,QWORD PTR [rbp-0x108]
   89232:	48 89 45 a8          	mov    QWORD PTR [rbp-0x58],rax
   89236:	48 8b 85 00 ff ff ff 	mov    rax,QWORD PTR [rbp-0x100]
   8923d:	48 89 45 b0          	mov    QWORD PTR [rbp-0x50],rax
   89241:	48 8b 85 38 ff ff ff 	mov    rax,QWORD PTR [rbp-0xc8]
   89248:	48 89 45 b8          	mov    QWORD PTR [rbp-0x48],rax
   8924c:	48 ba b6 59 31 e4 b7 	movabs rdx,0xdeed7cb7e43159b6
   89253:	7c ed de 
   89256:	49 bb a8 af fa cf 32 	movabs r11,0xbf066032cffaafa8
   8925d:	60 06 bf 
   89260:	4c 39 d9             	cmp    rcx,r11
   89263:	0f 84 69 f2 ff ff    	je     884d2 <Java_com_adjust_sdk_sig_NativeLibHelper_nOnResume@@Base-0x327d1>
   89269:	48 b8 1b d4 04 76 32 	movabs rax,0xbfb923327604d41b
   89270:	23 b9 bf 
   89273:	48 8b 95 e8 fe ff ff 	mov    rdx,QWORD PTR [rbp-0x118]
   8927a:	48 39 c2             	cmp    rdx,rax
   8927d:	0f 84 90 7c 00 00    	je     90f13 <Java_com_adjust_sdk_sig_NativeLibHelper_nOnResume@@Base-0x29d90>
   89283:	48 b8 88 4f 7d 98 ff 	movabs rax,0xc05bf4ff987d4f88
   8928a:	f4 5b c0 
   8928d:	48 39 c2             	cmp    rdx,rax
   89290:	48 8b b5 00 ff ff ff 	mov    rsi,QWORD PTR [rbp-0x100]
   89297:	48 8b 8d f8 fe ff ff 	mov    rcx,QWORD PTR [rbp-0x108]
   8929e:	4c 8b 8d 10 ff ff ff 	mov    r9,QWORD PTR [rbp-0xf0]
   892a5:	4c 8b 9d 08 ff ff ff 	mov    r11,QWORD PTR [rbp-0xf8]
   892ac:	4c 8b 85 f0 fe ff ff 	mov    r8,QWORD PTR [rbp-0x110]
   892b3:	4c 8b bd 28 ff ff ff 	mov    r15,QWORD PTR [rbp-0xd8]
   892ba:	44 8b 75 c4          	mov    r14d,DWORD PTR [rbp-0x3c]
   892be:	0f 84 b6 49 00 00    	je     8dc7a <Java_com_adjust_sdk_sig_NativeLibHelper_nOnResume@@Base-0x2d029>
   892c4:	48 b8 ec bd fa 79 0f 	movabs rax,0xc130b50f79fabdec
   892cb:	b5 30 c1 
   892ce:	48 39 c2             	cmp    rdx,rax
   892d1:	0f 84 42 46 00 00    	je     8d919 <Java_com_adjust_sdk_sig_NativeLibHelper_nOnResume@@Base-0x2d38a>
   892d7:	48 b8 d6 9a 2c 47 80 	movabs rax,0xc2b0d980472c9ad6
   892de:	d9 b0 c2 
   892e1:	48 39 c2             	cmp    rdx,rax
   892e4:	0f 84 be 47 00 00    	je     8daa8 <Java_com_adjust_sdk_sig_NativeLibHelper_nOnResume@@Base-0x2d1fb>
   892ea:	48 8b 85 e8 f9 ff ff 	mov    rax,QWORD PTR [rbp-0x618]
   892f1:	48 89 85 58 ff ff ff 	mov    QWORD PTR [rbp-0xa8],rax
   892f8:	4c 8b a5 40 ff ff ff 	mov    r12,QWORD PTR [rbp-0xc0]
   892ff:	4c 89 a5 60 ff ff ff 	mov    QWORD PTR [rbp-0xa0],r12
   89306:	4c 8b 95 30 ff ff ff 	mov    r10,QWORD PTR [rbp-0xd0]
   8930d:	4c 89 95 68 ff ff ff 	mov    QWORD PTR [rbp-0x98],r10
   89314:	8b 7d c0             	mov    edi,DWORD PTR [rbp-0x40]
   89317:	89 7d c8             	mov    DWORD PTR [rbp-0x38],edi
   8931a:	44 89 75 cc          	mov    DWORD PTR [rbp-0x34],r14d
   8931e:	4c 89 bd 70 ff ff ff 	mov    QWORD PTR [rbp-0x90],r15
   89325:	4c 89 85 78 ff ff ff 	mov    QWORD PTR [rbp-0x88],r8
   8932c:	48 8b 85 50 ff ff ff 	mov    rax,QWORD PTR [rbp-0xb0]
   89333:	48 89 45 80          	mov    QWORD PTR [rbp-0x80],rax
   89337:	48 8b 9d 20 ff ff ff 	mov    rbx,QWORD PTR [rbp-0xe0]
   8933e:	48 89 5d 88          	mov    QWORD PTR [rbp-0x78],rbx
   89342:	49 89 d0             	mov    r8,rdx
   89345:	4c 8b ad 18 ff ff ff 	mov    r13,QWORD PTR [rbp-0xe8]
   8934c:	4c 89 6d 90          	mov    QWORD PTR [rbp-0x70],r13
   89350:	4c 89 5d 98          	mov    QWORD PTR [rbp-0x68],r11
   89354:	4c 89 4d a0          	mov    QWORD PTR [rbp-0x60],r9
   89358:	48 89 4d a8          	mov    QWORD PTR [rbp-0x58],rcx
   8935c:	4d 89 df             	mov    r15,r11
   8935f:	48 89 75 b0          	mov    QWORD PTR [rbp-0x50],rsi
   89363:	48 8b 85 38 ff ff ff 	mov    rax,QWORD PTR [rbp-0xc8]
   8936a:	48 89 45 b8          	mov    QWORD PTR [rbp-0x48],rax
   8936e:	48 ba 6a fc db 10 4f 	movabs rdx,0x4472b14f10dbfc6a
   89375:	b1 72 44 
   89378:	49 bb 11 5b a2 b0 37 	movabs r11,0xc33d0f37b0a25b11
   8937f:	0f 3d c3 
   89382:	4d 39 d8             	cmp    r8,r11
   89385:	4c 8b 85 48 ff ff ff 	mov    r8,QWORD PTR [rbp-0xb8]
   8938c:	0f 84 40 f1 ff ff    	je     884d2 <Java_com_adjust_sdk_sig_NativeLibHelper_nOnResume@@Base-0x327d1>
   89392:	4c 89 85 58 ff ff ff 	mov    QWORD PTR [rbp-0xa8],r8
   89399:	4c 89 a5 60 ff ff ff 	mov    QWORD PTR [rbp-0xa0],r12
   893a0:	4c 89 95 68 ff ff ff 	mov    QWORD PTR [rbp-0x98],r10
   893a7:	89 7d c8             	mov    DWORD PTR [rbp-0x38],edi
   893aa:	44 89 75 cc          	mov    DWORD PTR [rbp-0x34],r14d
   893ae:	48 8b 95 28 ff ff ff 	mov    rdx,QWORD PTR [rbp-0xd8]
   893b5:	48 89 95 70 ff ff ff 	mov    QWORD PTR [rbp-0x90],rdx
   893bc:	48 8b 95 f0 fe ff ff 	mov    rdx,QWORD PTR [rbp-0x110]
   893c3:	48 89 95 78 ff ff ff 	mov    QWORD PTR [rbp-0x88],rdx
   893ca:	48 8b 95 50 ff ff ff 	mov    rdx,QWORD PTR [rbp-0xb0]
   893d1:	48 89 55 80          	mov    QWORD PTR [rbp-0x80],rdx
   893d5:	48 89 5d 88          	mov    QWORD PTR [rbp-0x78],rbx
   893d9:	4c 89 6d 90          	mov    QWORD PTR [rbp-0x70],r13
   893dd:	4c 89 7d 98          	mov    QWORD PTR [rbp-0x68],r15
   893e1:	4c 89 4d a0          	mov    QWORD PTR [rbp-0x60],r9
   893e5:	48 89 4d a8          	mov    QWORD PTR [rbp-0x58],rcx
   893e9:	48 89 75 b0          	mov    QWORD PTR [rbp-0x50],rsi
   893ed:	48 89 45 b8          	mov    QWORD PTR [rbp-0x48],rax
   893f1:	48 ba a1 36 32 59 37 	movabs rdx,0xdd444637593236a1
   893f8:	46 44 dd 
   893fb:	49 bb 45 7d 60 fc 45 	movabs r11,0xc3dbac45fc607d45
   89402:	ac db c3 
   89405:	4c 39 9d e8 fe ff ff 	cmp    QWORD PTR [rbp-0x118],r11
   8940c:	0f 84 c0 f0 ff ff    	je     884d2 <Java_com_adjust_sdk_sig_NativeLibHelper_nOnResume@@Base-0x327d1>
   89412:	4c 89 85 58 ff ff ff 	mov    QWORD PTR [rbp-0xa8],r8
   89419:	4c 89 a5 60 ff ff ff 	mov    QWORD PTR [rbp-0xa0],r12
   89420:	4c 89 95 68 ff ff ff 	mov    QWORD PTR [rbp-0x98],r10
   89427:	89 7d c8             	mov    DWORD PTR [rbp-0x38],edi
   8942a:	44 89 75 cc          	mov    DWORD PTR [rbp-0x34],r14d
   8942e:	48 8b 95 28 ff ff ff 	mov    rdx,QWORD PTR [rbp-0xd8]
   89435:	48 89 95 70 ff ff ff 	mov    QWORD PTR [rbp-0x90],rdx
   8943c:	48 8b 95 f0 fe ff ff 	mov    rdx,QWORD PTR [rbp-0x110]
   89443:	48 89 95 78 ff ff ff 	mov    QWORD PTR [rbp-0x88],rdx
   8944a:	48 8b 95 50 ff ff ff 	mov    rdx,QWORD PTR [rbp-0xb0]
   89451:	48 89 55 80          	mov    QWORD PTR [rbp-0x80],rdx
   89455:	48 89 5d 88          	mov    QWORD PTR [rbp-0x78],rbx
   89459:	4c 89 6d 90          	mov    QWORD PTR [rbp-0x70],r13
   8945d:	4c 89 7d 98          	mov    QWORD PTR [rbp-0x68],r15
   89461:	4c 89 4d a0          	mov    QWORD PTR [rbp-0x60],r9
   89465:	48 89 4d a8          	mov    QWORD PTR [rbp-0x58],rcx
   89469:	48 89 75 b0          	mov    QWORD PTR [rbp-0x50],rsi
   8946d:	48 89 45 b8          	mov    QWORD PTR [rbp-0x48],rax
   89471:	48 ba 4e 46 6f c7 ba 	movabs rdx,0xf8a2e9bac76f464e
   89478:	e9 a2 f8 
   8947b:	49 bb a7 da 61 d6 da 	movabs r11,0xc3ecfedad661daa7
   89482:	fe ec c3 
   89485:	4c 39 9d e8 fe ff ff 	cmp    QWORD PTR [rbp-0x118],r11
   8948c:	0f 84 40 f0 ff ff    	je     884d2 <Java_com_adjust_sdk_sig_NativeLibHelper_nOnResume@@Base-0x327d1>
   89492:	48 b8 07 3c 8d 8e 32 	movabs rax,0xc4cdb4328e8d3c07
   89499:	b4 cd c4 
   8949c:	48 8b 8d e8 fe ff ff 	mov    rcx,QWORD PTR [rbp-0x118]
   894a3:	48 39 c1             	cmp    rcx,rax
   894a6:	0f 84 5f a5 00 00    	je     93a0b <Java_com_adjust_sdk_sig_NativeLibHelper_nOnResume@@Base-0x27298>
   894ac:	48 b8 15 df ff 88 85 	movabs rax,0xc88d3f8588ffdf15
   894b3:	3f 8d c8 
   894b6:	48 39 c1             	cmp    rcx,rax
   894b9:	4c 8b b5 00 ff ff ff 	mov    r14,QWORD PTR [rbp-0x100]
   894c0:	48 8b 9d f0 fe ff ff 	mov    rbx,QWORD PTR [rbp-0x110]
   894c7:	0f 84 ba 48 00 00    	je     8dd87 <Java_com_adjust_sdk_sig_NativeLibHelper_nOnResume@@Base-0x2cf1c>
   894cd:	48 b8 1e 35 84 91 6d 	movabs rax,0xc9e62d6d9184351e
   894d4:	2d e6 c9 
   894d7:	48 39 c1             	cmp    rcx,rax
   894da:	0f 84 a5 56 00 00    	je     8eb85 <Java_com_adjust_sdk_sig_NativeLibHelper_nOnResume@@Base-0x2c11e>
   894e0:	48 b8 42 fb 9a fb 37 	movabs rax,0xc9efd237fb9afb42
   894e7:	d2 ef c9 
   894ea:	48 39 c1             	cmp    rcx,rax
   894ed:	0f 84 e2 44 00 00    	je     8d9d5 <Java_com_adjust_sdk_sig_NativeLibHelper_nOnResume@@Base-0x2d2ce>
   894f3:	48 b8 8c 91 ed 4d e3 	movabs rax,0xca44c2e34ded918c
   894fa:	c2 44 ca 
   894fd:	48 39 c1             	cmp    rcx,rax
   89500:	0f 84 07 8a 00 00    	je     91f0d <Java_com_adjust_sdk_sig_NativeLibHelper_nOnResume@@Base-0x28d96>
   89506:	48 b8 53 03 86 a9 85 	movabs rax,0xca61d785a9860353
   8950d:	d7 61 ca 
   89510:	48 39 c1             	cmp    rcx,rax
   89513:	0f 84 5f 9e 00 00    	je     93378 <Java_com_adjust_sdk_sig_NativeLibHelper_nOnResume@@Base-0x2792b>
   89519:	48 8b 85 48 ff ff ff 	mov    rax,QWORD PTR [rbp-0xb8]
   89520:	48 89 85 58 ff ff ff 	mov    QWORD PTR [rbp-0xa8],rax
   89527:	48 8b 85 40 ff ff ff 	mov    rax,QWORD PTR [rbp-0xc0]
   8952e:	48 89 85 60 ff ff ff 	mov    QWORD PTR [rbp-0xa0],rax
   89535:	48 8b 85 30 ff ff ff 	mov    rax,QWORD PTR [rbp-0xd0]
   8953c:	48 89 85 68 ff ff ff 	mov    QWORD PTR [rbp-0x98],rax
   89543:	8b 45 c0             	mov    eax,DWORD PTR [rbp-0x40]
   89546:	89 45 c8             	mov    DWORD PTR [rbp-0x38],eax
   89549:	8b 45 c4             	mov    eax,DWORD PTR [rbp-0x3c]
   8954c:	89 45 cc             	mov    DWORD PTR [rbp-0x34],eax
   8954f:	48 8b 85 28 ff ff ff 	mov    rax,QWORD PTR [rbp-0xd8]
   89556:	48 89 85 70 ff ff ff 	mov    QWORD PTR [rbp-0x90],rax
   8955d:	48 89 9d 78 ff ff ff 	mov    QWORD PTR [rbp-0x88],rbx
   89564:	48 8b 85 50 ff ff ff 	mov    rax,QWORD PTR [rbp-0xb0]
   8956b:	48 89 45 80          	mov    QWORD PTR [rbp-0x80],rax
   8956f:	48 8b 85 20 ff ff ff 	mov    rax,QWORD PTR [rbp-0xe0]
   89576:	48 89 45 88          	mov    QWORD PTR [rbp-0x78],rax
   8957a:	48 8b 85 18 ff ff ff 	mov    rax,QWORD PTR [rbp-0xe8]
   89581:	48 89 45 90          	mov    QWORD PTR [rbp-0x70],rax
   89585:	48 8b 85 08 ff ff ff 	mov    rax,QWORD PTR [rbp-0xf8]
   8958c:	48 89 45 98          	mov    QWORD PTR [rbp-0x68],rax
   89590:	48 8b 85 10 ff ff ff 	mov    rax,QWORD PTR [rbp-0xf0]
   89597:	48 89 45 a0          	mov    QWORD PTR [rbp-0x60],rax
   8959b:	48 8b 85 f8 fe ff ff 	mov    rax,QWORD PTR [rbp-0x108]
   895a2:	48 89 45 a8          	mov    QWORD PTR [rbp-0x58],rax
   895a6:	4c 89 75 b0          	mov    QWORD PTR [rbp-0x50],r14
   895aa:	48 8b 85 38 ff ff ff 	mov    rax,QWORD PTR [rbp-0xc8]
   895b1:	48 89 45 b8          	mov    QWORD PTR [rbp-0x48],rax
   895b5:	48 ba 1e bc 4c d5 f9 	movabs rdx,0x623d56f9d54cbc1e
   895bc:	56 3d 62 
   895bf:	49 bb 6d 43 20 4f 4a 	movabs r11,0xca70754a4f20436d
   895c6:	75 70 ca 
   895c9:	4c 39 d9             	cmp    rcx,r11
   895cc:	0f 84 00 ef ff ff    	je     884d2 <Java_com_adjust_sdk_sig_NativeLibHelper_nOnResume@@Base-0x327d1>
   895d2:	48 b8 09 0b f4 a4 a9 	movabs rax,0xca8c6fa9a4f40b09
   895d9:	6f 8c ca 
   895dc:	4c 8b 95 e8 fe ff ff 	mov    r10,QWORD PTR [rbp-0x118]
   895e3:	49 39 c2             	cmp    r10,rax
   895e6:	0f 84 d2 9b 00 00    	je     931be <Java_com_adjust_sdk_sig_NativeLibHelper_nOnResume@@Base-0x27ae5>
   895ec:	48 b8 ba e1 cb c7 27 	movabs rax,0xcab4ad27c7cbe1ba
   895f3:	ad b4 ca 
   895f6:	49 39 c2             	cmp    r10,rax
   895f9:	4c 8b 85 00 ff ff ff 	mov    r8,QWORD PTR [rbp-0x100]
   89600:	48 8b bd f8 fe ff ff 	mov    rdi,QWORD PTR [rbp-0x108]
   89607:	48 8b b5 10 ff ff ff 	mov    rsi,QWORD PTR [rbp-0xf0]
   8960e:	48 8b 8d 08 ff ff ff 	mov    rcx,QWORD PTR [rbp-0xf8]
   89615:	4c 8b 8d 18 ff ff ff 	mov    r9,QWORD PTR [rbp-0xe8]
   8961c:	4c 8b 9d 20 ff ff ff 	mov    r11,QWORD PTR [rbp-0xe0]
   89623:	48 8b 9d f0 fe ff ff 	mov    rbx,QWORD PTR [rbp-0x110]
   8962a:	44 8b 75 c0          	mov    r14d,DWORD PTR [rbp-0x40]
   8962e:	0f 84 b2 90 00 00    	je     926e6 <Java_com_adjust_sdk_sig_NativeLibHelper_nOnResume@@Base-0x285bd>
   89634:	48 8b 85 48 ff ff ff 	mov    rax,QWORD PTR [rbp-0xb8]
   8963b:	48 89 85 58 ff ff ff 	mov    QWORD PTR [rbp-0xa8],rax
   89642:	48 8b 85 40 ff ff ff 	mov    rax,QWORD PTR [rbp-0xc0]
   89649:	48 89 85 60 ff ff ff 	mov    QWORD PTR [rbp-0xa0],rax
   89650:	48 8b 85 30 ff ff ff 	mov    rax,QWORD PTR [rbp-0xd0]
   89657:	48 89 85 68 ff ff ff 	mov    QWORD PTR [rbp-0x98],rax
   8965e:	44 89 75 c8          	mov    DWORD PTR [rbp-0x38],r14d
   89662:	8b 45 c4             	mov    eax,DWORD PTR [rbp-0x3c]
   89665:	89 45 cc             	mov    DWORD PTR [rbp-0x34],eax
   89668:	48 8b 85 28 ff ff ff 	mov    rax,QWORD PTR [rbp-0xd8]
   8966f:	48 89 85 70 ff ff ff 	mov    QWORD PTR [rbp-0x90],rax
   89676:	48 89 9d 78 ff ff ff 	mov    QWORD PTR [rbp-0x88],rbx
   8967d:	48 8b 85 50 ff ff ff 	mov    rax,QWORD PTR [rbp-0xb0]
   89684:	48 89 45 80          	mov    QWORD PTR [rbp-0x80],rax
   89688:	4c 89 5d 88          	mov    QWORD PTR [rbp-0x78],r11
   8968c:	4c 89 4d 90          	mov    QWORD PTR [rbp-0x70],r9
   89690:	48 89 4d 98          	mov    QWORD PTR [rbp-0x68],rcx
   89694:	48 89 75 a0          	mov    QWORD PTR [rbp-0x60],rsi
   89698:	48 89 7d a8          	mov    QWORD PTR [rbp-0x58],rdi
   8969c:	4c 89 45 b0          	mov    QWORD PTR [rbp-0x50],r8
   896a0:	48 8b 85 38 ff ff ff 	mov    rax,QWORD PTR [rbp-0xc8]
   896a7:	48 89 45 b8          	mov    QWORD PTR [rbp-0x48],rax
   896ab:	48 ba 2b 02 19 f1 2b 	movabs rdx,0x7a86af2bf119022b
   896b2:	af 86 7a 
   896b5:	49 bb 16 36 07 f5 f2 	movabs r11,0xccfa44f2f5073616
   896bc:	44 fa cc 
   896bf:	4d 39 da             	cmp    r10,r11
   896c2:	0f 84 0a ee ff ff    	je     884d2 <Java_com_adjust_sdk_sig_NativeLibHelper_nOnResume@@Base-0x327d1>
   896c8:	48 b8 9a 1e ff 94 cd 	movabs rax,0xcd28f0cd94ff1e9a
   896cf:	f0 28 cd 
   896d2:	48 8b 8d e8 fe ff ff 	mov    rcx,QWORD PTR [rbp-0x118]
   896d9:	48 39 c1             	cmp    rcx,rax
   896dc:	0f 84 e1 52 00 00    	je     8e9c3 <Java_com_adjust_sdk_sig_NativeLibHelper_nOnResume@@Base-0x2c2e0>
   896e2:	48 8b 85 48 ff ff ff 	mov    rax,QWORD PTR [rbp-0xb8]
   896e9:	48 89 85 58 ff ff ff 	mov    QWORD PTR [rbp-0xa8],rax
   896f0:	48 8b 85 40 ff ff ff 	mov    rax,QWORD PTR [rbp-0xc0]
   896f7:	48 89 85 60 ff ff ff 	mov    QWORD PTR [rbp-0xa0],rax
   896fe:	48 8b 85 30 ff ff ff 	mov    rax,QWORD PTR [rbp-0xd0]
   89705:	48 89 85 68 ff ff ff 	mov    QWORD PTR [rbp-0x98],rax
   8970c:	8b 45 c0             	mov    eax,DWORD PTR [rbp-0x40]
   8970f:	89 45 c8             	mov    DWORD PTR [rbp-0x38],eax
   89712:	8b 45 c4             	mov    eax,DWORD PTR [rbp-0x3c]
   89715:	89 45 cc             	mov    DWORD PTR [rbp-0x34],eax
   89718:	48 8b 85 28 ff ff ff 	mov    rax,QWORD PTR [rbp-0xd8]
   8971f:	48 89 85 70 ff ff ff 	mov    QWORD PTR [rbp-0x90],rax
   89726:	48 8b 85 f0 fe ff ff 	mov    rax,QWORD PTR [rbp-0x110]
   8972d:	48 89 85 78 ff ff ff 	mov    QWORD PTR [rbp-0x88],rax
   89734:	48 8b 85 50 ff ff ff 	mov    rax,QWORD PTR [rbp-0xb0]
   8973b:	48 89 45 80          	mov    QWORD PTR [rbp-0x80],rax
   8973f:	48 8b 85 20 ff ff ff 	mov    rax,QWORD PTR [rbp-0xe0]
   89746:	48 89 45 88          	mov    QWORD PTR [rbp-0x78],rax
   8974a:	48 8b 85 18 ff ff ff 	mov    rax,QWORD PTR [rbp-0xe8]
   89751:	48 89 45 90          	mov    QWORD PTR [rbp-0x70],rax
   89755:	48 8b 85 08 ff ff ff 	mov    rax,QWORD PTR [rbp-0xf8]
   8975c:	48 89 45 98          	mov    QWORD PTR [rbp-0x68],rax
   89760:	48 8b 85 10 ff ff ff 	mov    rax,QWORD PTR [rbp-0xf0]
   89767:	48 89 45 a0          	mov    QWORD PTR [rbp-0x60],rax
   8976b:	48 8b 85 f8 fe ff ff 	mov    rax,QWORD PTR [rbp-0x108]
   89772:	48 89 45 a8          	mov    QWORD PTR [rbp-0x58],rax
   89776:	48 8b 85 00 ff ff ff 	mov    rax,QWORD PTR [rbp-0x100]
   8977d:	48 89 45 b0          	mov    QWORD PTR [rbp-0x50],rax
   89781:	48 8b 85 38 ff ff ff 	mov    rax,QWORD PTR [rbp-0xc8]
   89788:	48 89 45 b8          	mov    QWORD PTR [rbp-0x48],rax
   8978c:	48 ba df 68 44 d6 f2 	movabs rdx,0x4695a6f2d64468df
   89793:	a6 95 46 
   89796:	49 bb 54 5f c0 67 00 	movabs r11,0xcec9d40067c05f54
   8979d:	d4 c9 ce 
   897a0:	4c 39 d9             	cmp    rcx,r11
   897a3:	0f 84 29 ed ff ff    	je     884d2 <Java_com_adjust_sdk_sig_NativeLibHelper_nOnResume@@Base-0x327d1>
   897a9:	48 b8 f6 fc 92 15 21 	movabs rax,0xcf6124211592fcf6
   897b0:	24 61 cf 
   897b3:	48 8b 8d e8 fe ff ff 	mov    rcx,QWORD PTR [rbp-0x118]
   897ba:	48 39 c1             	cmp    rcx,rax
   897bd:	0f 84 51 9c 00 00    	je     93414 <Java_com_adjust_sdk_sig_NativeLibHelper_nOnResume@@Base-0x2788f>
   897c3:	48 b8 e0 2d bb fa 5a 	movabs rax,0xcfc52f5afabb2de0
   897ca:	2f c5 cf 
   897cd:	48 39 c1             	cmp    rcx,rax
   897d0:	4c 8b 9d 00 ff ff ff 	mov    r11,QWORD PTR [rbp-0x100]
   897d7:	4c 8b 8d f8 fe ff ff 	mov    r9,QWORD PTR [rbp-0x108]
   897de:	48 8b 9d f0 fe ff ff 	mov    rbx,QWORD PTR [rbp-0x110]
   897e5:	44 8b 75 c0          	mov    r14d,DWORD PTR [rbp-0x40]
   897e9:	0f 84 4a 58 00 00    	je     8f039 <Java_com_adjust_sdk_sig_NativeLibHelper_nOnResume@@Base-0x2bc6a>
   897ef:	48 b8 fc 00 2e e5 5a 	movabs rax,0xd1c8c75ae52e00fc
   897f6:	c7 c8 d1 
   897f9:	48 39 c1             	cmp    rcx,rax
   897fc:	0f 84 15 9f 00 00    	je     93717 <Java_com_adjust_sdk_sig_NativeLibHelper_nOnResume@@Base-0x2758c>
   89802:	48 b8 09 57 3d 3b c0 	movabs rax,0xd21af8c03b3d5709
   89809:	f8 1a d2 
   8980c:	48 39 c1             	cmp    rcx,rax
   8980f:	0f 84 c4 48 00 00    	je     8e0d9 <Java_com_adjust_sdk_sig_NativeLibHelper_nOnResume@@Base-0x2cbca>
   89815:	48 b8 97 3c cd 79 b0 	movabs rax,0xd390d4b079cd3c97
   8981c:	d4 90 d3 
   8981f:	48 39 c1             	cmp    rcx,rax
   89822:	0f 84 9a 86 00 00    	je     91ec2 <Java_com_adjust_sdk_sig_NativeLibHelper_nOnResume@@Base-0x28de1>
   89828:	4c 8b 85 48 ff ff ff 	mov    r8,QWORD PTR [rbp-0xb8]
   8982f:	4c 89 85 58 ff ff ff 	mov    QWORD PTR [rbp-0xa8],r8
   89836:	48 8b bd 40 ff ff ff 	mov    rdi,QWORD PTR [rbp-0xc0]
   8983d:	48 89 bd 60 ff ff ff 	mov    QWORD PTR [rbp-0xa0],rdi
   89844:	4c 8b 95 30 ff ff ff 	mov    r10,QWORD PTR [rbp-0xd0]
   8984b:	4c 89 95 68 ff ff ff 	mov    QWORD PTR [rbp-0x98],r10
   89852:	44 89 75 c8          	mov    DWORD PTR [rbp-0x38],r14d
   89856:	44 8b 75 c4          	mov    r14d,DWORD PTR [rbp-0x3c]
   8985a:	44 89 75 cc          	mov    DWORD PTR [rbp-0x34],r14d
   8985e:	4c 8b bd 28 ff ff ff 	mov    r15,QWORD PTR [rbp-0xd8]
   89865:	4c 89 bd 70 ff ff ff 	mov    QWORD PTR [rbp-0x90],r15
   8986c:	48 89 9d 78 ff ff ff 	mov    QWORD PTR [rbp-0x88],rbx
   89873:	48 8b 85 50 ff ff ff 	mov    rax,QWORD PTR [rbp-0xb0]
   8987a:	48 89 45 80          	mov    QWORD PTR [rbp-0x80],rax
   8987e:	48 8b 9d 20 ff ff ff 	mov    rbx,QWORD PTR [rbp-0xe0]
   89885:	48 89 5d 88          	mov    QWORD PTR [rbp-0x78],rbx
   89889:	4c 8b ad 18 ff ff ff 	mov    r13,QWORD PTR [rbp-0xe8]
   89890:	4c 89 6d 90          	mov    QWORD PTR [rbp-0x70],r13
   89894:	4c 8b a5 08 ff ff ff 	mov    r12,QWORD PTR [rbp-0xf8]
   8989b:	4c 89 65 98          	mov    QWORD PTR [rbp-0x68],r12
   8989f:	48 8b b5 10 ff ff ff 	mov    rsi,QWORD PTR [rbp-0xf0]
   898a6:	48 89 75 a0          	mov    QWORD PTR [rbp-0x60],rsi
   898aa:	4c 89 4d a8          	mov    QWORD PTR [rbp-0x58],r9
   898ae:	4c 89 5d b0          	mov    QWORD PTR [rbp-0x50],r11
   898b2:	48 8b 85 38 ff ff ff 	mov    rax,QWORD PTR [rbp-0xc8]
   898b9:	48 89 45 b8          	mov    QWORD PTR [rbp-0x48],rax
   898bd:	48 ba 15 43 a9 74 4d 	movabs rdx,0x4248ed4d74a94315
   898c4:	ed 48 42 
   898c7:	49 bb e9 6a dc c0 35 	movabs r11,0xd461c435c0dc6ae9
   898ce:	c4 61 d4 
   898d1:	4c 39 d9             	cmp    rcx,r11
   898d4:	0f 84 f8 eb ff ff    	je     884d2 <Java_com_adjust_sdk_sig_NativeLibHelper_nOnResume@@Base-0x327d1>
   898da:	4c 89 85 58 ff ff ff 	mov    QWORD PTR [rbp-0xa8],r8
   898e1:	48 89 bd 60 ff ff ff 	mov    QWORD PTR [rbp-0xa0],rdi
   898e8:	4c 89 95 68 ff ff ff 	mov    QWORD PTR [rbp-0x98],r10
   898ef:	8b 4d c0             	mov    ecx,DWORD PTR [rbp-0x40]
   898f2:	89 4d c8             	mov    DWORD PTR [rbp-0x38],ecx
   898f5:	44 89 75 cc          	mov    DWORD PTR [rbp-0x34],r14d
   898f9:	4c 89 bd 70 ff ff ff 	mov    QWORD PTR [rbp-0x90],r15
   89900:	48 8b 8d f0 fe ff ff 	mov    rcx,QWORD PTR [rbp-0x110]
   89907:	48 89 8d 78 ff ff ff 	mov    QWORD PTR [rbp-0x88],rcx
   8990e:	48 8b 95 50 ff ff ff 	mov    rdx,QWORD PTR [rbp-0xb0]
   89915:	48 89 55 80          	mov    QWORD PTR [rbp-0x80],rdx
   89919:	48 89 5d 88          	mov    QWORD PTR [rbp-0x78],rbx
   8991d:	4c 89 6d 90          	mov    QWORD PTR [rbp-0x70],r13
   89921:	4c 89 65 98          	mov    QWORD PTR [rbp-0x68],r12
   89925:	48 89 75 a0          	mov    QWORD PTR [rbp-0x60],rsi
   89929:	4c 89 4d a8          	mov    QWORD PTR [rbp-0x58],r9
   8992d:	48 8b 8d 00 ff ff ff 	mov    rcx,QWORD PTR [rbp-0x100]
   89934:	48 89 4d b0          	mov    QWORD PTR [rbp-0x50],rcx
   89938:	48 89 45 b8          	mov    QWORD PTR [rbp-0x48],rax
   8993c:	48 ba 1c 60 7e a7 64 	movabs rdx,0xce52164a77e601c
   89943:	21 e5 0c 
   89946:	49 bb 66 01 ad fb 8f 	movabs r11,0xd465d68ffbad0166
   8994d:	d6 65 d4 
   89950:	4c 39 9d e8 fe ff ff 	cmp    QWORD PTR [rbp-0x118],r11
   89957:	0f 84 75 eb ff ff    	je     884d2 <Java_com_adjust_sdk_sig_NativeLibHelper_nOnResume@@Base-0x327d1>
   8995d:	48 b8 9d 53 22 37 d7 	movabs rax,0xd483ead73722539d
   89964:	ea 83 d4 
   89967:	48 8b 8d e8 fe ff ff 	mov    rcx,QWORD PTR [rbp-0x118]
   8996e:	48 39 c1             	cmp    rcx,rax
   89971:	0f 84 21 74 00 00    	je     90d98 <Java_com_adjust_sdk_sig_NativeLibHelper_nOnResume@@Base-0x29f0b>
   89977:	48 b8 d2 53 d5 1b ed 	movabs rax,0xd6e3c6ed1bd553d2
   8997e:	c6 e3 d6 
   89981:	48 39 c1             	cmp    rcx,rax
   89984:	48 8b bd f8 fe ff ff 	mov    rdi,QWORD PTR [rbp-0x108]
   8998b:	48 8b b5 10 ff ff ff 	mov    rsi,QWORD PTR [rbp-0xf0]
   89992:	4c 8b 85 08 ff ff ff 	mov    r8,QWORD PTR [rbp-0xf8]
   89999:	4c 8b 9d 18 ff ff ff 	mov    r11,QWORD PTR [rbp-0xe8]
   899a0:	48 8b 9d 20 ff ff ff 	mov    rbx,QWORD PTR [rbp-0xe0]
   899a7:	44 8b 55 c0          	mov    r10d,DWORD PTR [rbp-0x40]
   899ab:	4c 8b b5 30 ff ff ff 	mov    r14,QWORD PTR [rbp-0xd0]
   899b2:	0f 84 3a 86 00 00    	je     91ff2 <Java_com_adjust_sdk_sig_NativeLibHelper_nOnResume@@Base-0x28cb1>
   899b8:	48 b8 a1 36 32 59 37 	movabs rax,0xdd444637593236a1
   899bf:	46 44 dd 
   899c2:	48 39 c1             	cmp    rcx,rax
   899c5:	4c 8b 8d 00 ff ff ff 	mov    r9,QWORD PTR [rbp-0x100]
   899cc:	0f 84 86 48 00 00    	je     8e258 <Java_com_adjust_sdk_sig_NativeLibHelper_nOnResume@@Base-0x2ca4b>
   899d2:	48 b8 18 22 4d 94 68 	movabs rax,0xdeb8b868944d2218
   899d9:	b8 b8 de 
   899dc:	48 39 c1             	cmp    rcx,rax
   899df:	0f 84 17 9e 00 00    	je     937fc <Java_com_adjust_sdk_sig_NativeLibHelper_nOnResume@@Base-0x274a7>
   899e5:	48 b8 b6 59 31 e4 b7 	movabs rax,0xdeed7cb7e43159b6
   899ec:	7c ed de 
   899ef:	48 39 c1             	cmp    rcx,rax
   899f2:	0f 84 81 74 00 00    	je     90e79 <Java_com_adjust_sdk_sig_NativeLibHelper_nOnResume@@Base-0x29e2a>
   899f8:	48 8b 85 48 ff ff ff 	mov    rax,QWORD PTR [rbp-0xb8]
   899ff:	48 89 85 58 ff ff ff 	mov    QWORD PTR [rbp-0xa8],rax
   89a06:	48 8b 85 40 ff ff ff 	mov    rax,QWORD PTR [rbp-0xc0]
   89a0d:	48 89 85 60 ff ff ff 	mov    QWORD PTR [rbp-0xa0],rax
   89a14:	4c 89 b5 68 ff ff ff 	mov    QWORD PTR [rbp-0x98],r14
   89a1b:	44 89 55 c8          	mov    DWORD PTR [rbp-0x38],r10d
   89a1f:	8b 45 c4             	mov    eax,DWORD PTR [rbp-0x3c]
   89a22:	89 45 cc             	mov    DWORD PTR [rbp-0x34],eax
   89a25:	48 8b 85 28 ff ff ff 	mov    rax,QWORD PTR [rbp-0xd8]
   89a2c:	48 89 85 70 ff ff ff 	mov    QWORD PTR [rbp-0x90],rax
   89a33:	48 8b 85 f0 fe ff ff 	mov    rax,QWORD PTR [rbp-0x110]
   89a3a:	48 89 85 78 ff ff ff 	mov    QWORD PTR [rbp-0x88],rax
   89a41:	48 8b 85 50 ff ff ff 	mov    rax,QWORD PTR [rbp-0xb0]
   89a48:	48 89 45 80          	mov    QWORD PTR [rbp-0x80],rax
   89a4c:	48 89 5d 88          	mov    QWORD PTR [rbp-0x78],rbx
   89a50:	4c 89 5d 90          	mov    QWORD PTR [rbp-0x70],r11
   89a54:	4c 89 45 98          	mov    QWORD PTR [rbp-0x68],r8
   89a58:	48 89 75 a0          	mov    QWORD PTR [rbp-0x60],rsi
   89a5c:	48 89 7d a8          	mov    QWORD PTR [rbp-0x58],rdi
   89a60:	4c 89 4d b0          	mov    QWORD PTR [rbp-0x50],r9
   89a64:	48 8b 85 38 ff ff ff 	mov    rax,QWORD PTR [rbp-0xc8]
   89a6b:	48 89 45 b8          	mov    QWORD PTR [rbp-0x48],rax
   89a6f:	48 ba 64 df 97 01 5e 	movabs rdx,0x4ebe15e0197df64
   89a76:	e1 eb 04 
   89a79:	49 bb 29 d9 4d 8b 9b 	movabs r11,0xdf29229b8b4dd929
   89a80:	22 29 df 
   89a83:	4c 39 d9             	cmp    rcx,r11
   89a86:	0f 84 46 ea ff ff    	je     884d2 <Java_com_adjust_sdk_sig_NativeLibHelper_nOnResume@@Base-0x327d1>
   89a8c:	48 b8 97 f7 6b 18 a8 	movabs rax,0xe01a64a8186bf797
   89a93:	64 1a e0 
   89a96:	48 8b 8d e8 fe ff ff 	mov    rcx,QWORD PTR [rbp-0x118]
   89a9d:	48 39 c1             	cmp    rcx,rax
   89aa0:	0f 84 ec 53 00 00    	je     8ee92 <Java_com_adjust_sdk_sig_NativeLibHelper_nOnResume@@Base-0x2be11>
   89aa6:	48 8b 85 48 ff ff ff 	mov    rax,QWORD PTR [rbp-0xb8]
   89aad:	48 89 85 58 ff ff ff 	mov    QWORD PTR [rbp-0xa8],rax
   89ab4:	48 8b 85 40 ff ff ff 	mov    rax,QWORD PTR [rbp-0xc0]
   89abb:	48 89 85 60 ff ff ff 	mov    QWORD PTR [rbp-0xa0],rax
   89ac2:	48 8b 85 30 ff ff ff 	mov    rax,QWORD PTR [rbp-0xd0]
   89ac9:	48 89 85 68 ff ff ff 	mov    QWORD PTR [rbp-0x98],rax
   89ad0:	8b 45 c0             	mov    eax,DWORD PTR [rbp-0x40]
   89ad3:	89 45 c8             	mov    DWORD PTR [rbp-0x38],eax
   89ad6:	8b 45 c4             	mov    eax,DWORD PTR [rbp-0x3c]
   89ad9:	89 45 cc             	mov    DWORD PTR [rbp-0x34],eax
   89adc:	48 8b 85 28 ff ff ff 	mov    rax,QWORD PTR [rbp-0xd8]
   89ae3:	48 89 85 70 ff ff ff 	mov    QWORD PTR [rbp-0x90],rax
   89aea:	48 8b 85 f0 fe ff ff 	mov    rax,QWORD PTR [rbp-0x110]
   89af1:	48 89 85 78 ff ff ff 	mov    QWORD PTR [rbp-0x88],rax
   89af8:	48 8b 85 50 ff ff ff 	mov    rax,QWORD PTR [rbp-0xb0]
   89aff:	48 89 45 80          	mov    QWORD PTR [rbp-0x80],rax
   89b03:	48 8b 85 20 ff ff ff 	mov    rax,QWORD PTR [rbp-0xe0]
   89b0a:	48 89 45 88          	mov    QWORD PTR [rbp-0x78],rax
   89b0e:	48 8b 85 18 ff ff ff 	mov    rax,QWORD PTR [rbp-0xe8]
   89b15:	48 89 45 90          	mov    QWORD PTR [rbp-0x70],rax
   89b19:	48 8b 85 08 ff ff ff 	mov    rax,QWORD PTR [rbp-0xf8]
   89b20:	48 89 45 98          	mov    QWORD PTR [rbp-0x68],rax
   89b24:	48 8b 85 10 ff ff ff 	mov    rax,QWORD PTR [rbp-0xf0]
   89b2b:	48 89 45 a0          	mov    QWORD PTR [rbp-0x60],rax
   89b2f:	48 8b 85 f8 fe ff ff 	mov    rax,QWORD PTR [rbp-0x108]
   89b36:	48 89 45 a8          	mov    QWORD PTR [rbp-0x58],rax
   89b3a:	48 8b 85 00 ff ff ff 	mov    rax,QWORD PTR [rbp-0x100]
   89b41:	48 89 45 b0          	mov    QWORD PTR [rbp-0x50],rax
   89b45:	48 8b 85 38 ff ff ff 	mov    rax,QWORD PTR [rbp-0xc8]
   89b4c:	48 89 45 b8          	mov    QWORD PTR [rbp-0x48],rax
   89b50:	48 ba 5b aa c1 31 b9 	movabs rdx,0x9bb834b931c1aa5b
   89b57:	34 b8 9b 
   89b5a:	49 bb 44 98 56 13 dc 	movabs r11,0xe06589dc13569844
   89b61:	89 65 e0 
   89b64:	4c 39 d9             	cmp    rcx,r11
   89b67:	0f 84 65 e9 ff ff    	je     884d2 <Java_com_adjust_sdk_sig_NativeLibHelper_nOnResume@@Base-0x327d1>
   89b6d:	48 b8 dd 53 92 8c c5 	movabs rax,0xe17b07c58c9253dd
   89b74:	07 7b e1 
   89b77:	4c 8b 95 e8 fe ff ff 	mov    r10,QWORD PTR [rbp-0x118]
   89b7e:	49 39 c2             	cmp    r10,rax
   89b81:	0f 84 c7 42 00 00    	je     8de4e <Java_com_adjust_sdk_sig_NativeLibHelper_nOnResume@@Base-0x2ce55>
   89b87:	48 b8 97 6c c5 17 25 	movabs rax,0xe2adcf2517c56c97
   89b8e:	cf ad e2 
   89b91:	49 39 c2             	cmp    r10,rax
   89b94:	4c 8b 85 00 ff ff ff 	mov    r8,QWORD PTR [rbp-0x100]
   89b9b:	4c 8b b5 f8 fe ff ff 	mov    r14,QWORD PTR [rbp-0x108]
   89ba2:	4c 8b 8d 10 ff ff ff 	mov    r9,QWORD PTR [rbp-0xf0]
   89ba9:	48 8b 95 08 ff ff ff 	mov    rdx,QWORD PTR [rbp-0xf8]
   89bb0:	48 8b 8d f0 fe ff ff 	mov    rcx,QWORD PTR [rbp-0x110]
   89bb7:	4c 8b ad 28 ff ff ff 	mov    r13,QWORD PTR [rbp-0xd8]
   89bbe:	8b 7d c4             	mov    edi,DWORD PTR [rbp-0x3c]
   89bc1:	44 8b 5d c0          	mov    r11d,DWORD PTR [rbp-0x40]
   89bc5:	0f 84 a8 3b 00 00    	je     8d773 <Java_com_adjust_sdk_sig_NativeLibHelper_nOnResume@@Base-0x2d530>
   89bcb:	48 b8 74 5b 76 21 be 	movabs rax,0xe2f71dbe21765b74
   89bd2:	1d f7 e2 
   89bd5:	49 39 c2             	cmp    r10,rax
   89bd8:	0f 84 35 9a 00 00    	je     93613 <Java_com_adjust_sdk_sig_NativeLibHelper_nOnResume@@Base-0x27690>
   89bde:	4c 8b bd 48 ff ff ff 	mov    r15,QWORD PTR [rbp-0xb8]
   89be5:	4c 89 bd 58 ff ff ff 	mov    QWORD PTR [rbp-0xa8],r15
   89bec:	4c 8b a5 40 ff ff ff 	mov    r12,QWORD PTR [rbp-0xc0]
   89bf3:	4c 89 a5 60 ff ff ff 	mov    QWORD PTR [rbp-0xa0],r12
   89bfa:	48 8b b5 30 ff ff ff 	mov    rsi,QWORD PTR [rbp-0xd0]
   89c01:	48 89 b5 68 ff ff ff 	mov    QWORD PTR [rbp-0x98],rsi
   89c08:	44 89 5d c8          	mov    DWORD PTR [rbp-0x38],r11d
   89c0c:	89 7d cc             	mov    DWORD PTR [rbp-0x34],edi
   89c0f:	4c 89 ad 70 ff ff ff 	mov    QWORD PTR [rbp-0x90],r13
   89c16:	48 89 8d 78 ff ff ff 	mov    QWORD PTR [rbp-0x88],rcx
   89c1d:	48 8b 85 50 ff ff ff 	mov    rax,QWORD PTR [rbp-0xb0]
   89c24:	48 89 45 80          	mov    QWORD PTR [rbp-0x80],rax
   89c28:	48 8b 9d 20 ff ff ff 	mov    rbx,QWORD PTR [rbp-0xe0]
   89c2f:	48 89 5d 88          	mov    QWORD PTR [rbp-0x78],rbx
   89c33:	4c 89 d1             	mov    rcx,r10
   89c36:	4c 8b ad 18 ff ff ff 	mov    r13,QWORD PTR [rbp-0xe8]
   89c3d:	4c 89 6d 90          	mov    QWORD PTR [rbp-0x70],r13
   89c41:	48 89 55 98          	mov    QWORD PTR [rbp-0x68],rdx
   89c45:	4c 89 4d a0          	mov    QWORD PTR [rbp-0x60],r9
   89c49:	4c 89 75 a8          	mov    QWORD PTR [rbp-0x58],r14
   89c4d:	45 89 da             	mov    r10d,r11d
   89c50:	49 89 d6             	mov    r14,rdx
   89c53:	4c 89 45 b0          	mov    QWORD PTR [rbp-0x50],r8
   89c57:	48 8b 85 38 ff ff ff 	mov    rax,QWORD PTR [rbp-0xc8]
   89c5e:	48 89 45 b8          	mov    QWORD PTR [rbp-0x48],rax
   89c62:	48 ba ab b4 fe 41 47 	movabs rdx,0xbb65d74741feb4ab
   89c69:	d7 65 bb 
   89c6c:	49 bb e2 17 64 12 55 	movabs r11,0xe36ddf55126417e2
   89c73:	df 6d e3 
   89c76:	4c 39 d9             	cmp    rcx,r11
   89c79:	0f 84 53 e8 ff ff    	je     884d2 <Java_com_adjust_sdk_sig_NativeLibHelper_nOnResume@@Base-0x327d1>
   89c7f:	4c 89 bd 58 ff ff ff 	mov    QWORD PTR [rbp-0xa8],r15
   89c86:	4c 89 a5 60 ff ff ff 	mov    QWORD PTR [rbp-0xa0],r12
   89c8d:	48 89 b5 68 ff ff ff 	mov    QWORD PTR [rbp-0x98],rsi
   89c94:	44 89 55 c8          	mov    DWORD PTR [rbp-0x38],r10d
   89c98:	89 7d cc             	mov    DWORD PTR [rbp-0x34],edi
   89c9b:	48 8b 8d 28 ff ff ff 	mov    rcx,QWORD PTR [rbp-0xd8]
   89ca2:	48 89 8d 70 ff ff ff 	mov    QWORD PTR [rbp-0x90],rcx
   89ca9:	48 8b 8d f0 fe ff ff 	mov    rcx,QWORD PTR [rbp-0x110]
   89cb0:	48 89 8d 78 ff ff ff 	mov    QWORD PTR [rbp-0x88],rcx
   89cb7:	48 8b 95 50 ff ff ff 	mov    rdx,QWORD PTR [rbp-0xb0]
   89cbe:	48 89 55 80          	mov    QWORD PTR [rbp-0x80],rdx
   89cc2:	48 89 5d 88          	mov    QWORD PTR [rbp-0x78],rbx
   89cc6:	4c 89 6d 90          	mov    QWORD PTR [rbp-0x70],r13
   89cca:	4c 89 75 98          	mov    QWORD PTR [rbp-0x68],r14
   89cce:	4c 89 4d a0          	mov    QWORD PTR [rbp-0x60],r9
   89cd2:	48 8b 8d f8 fe ff ff 	mov    rcx,QWORD PTR [rbp-0x108]
   89cd9:	48 89 4d a8          	mov    QWORD PTR [rbp-0x58],rcx
   89cdd:	4c 89 45 b0          	mov    QWORD PTR [rbp-0x50],r8
   89ce1:	48 89 45 b8          	mov    QWORD PTR [rbp-0x48],rax
   89ce5:	48 ba 97 f7 6b 18 a8 	movabs rdx,0xe01a64a8186bf797
   89cec:	64 1a e0 
   89cef:	49 bb c8 39 8f 7a 62 	movabs r11,0xe36ee3627a8f39c8
   89cf6:	e3 6e e3 
   89cf9:	4c 39 9d e8 fe ff ff 	cmp    QWORD PTR [rbp-0x118],r11
   89d00:	0f 84 cc e7 ff ff    	je     884d2 <Java_com_adjust_sdk_sig_NativeLibHelper_nOnResume@@Base-0x327d1>
   89d06:	48 b8 1d 43 14 c7 c6 	movabs rax,0xe41943c6c714431d
   89d0d:	43 19 e4 
   89d10:	48 8b 95 e8 fe ff ff 	mov    rdx,QWORD PTR [rbp-0x118]
   89d17:	48 39 c2             	cmp    rdx,rax
   89d1a:	0f 84 92 93 00 00    	je     930b2 <Java_com_adjust_sdk_sig_NativeLibHelper_nOnResume@@Base-0x27bf1>
   89d20:	48 8b 85 48 ff ff ff 	mov    rax,QWORD PTR [rbp-0xb8]
   89d27:	48 89 85 58 ff ff ff 	mov    QWORD PTR [rbp-0xa8],rax
   89d2e:	48 8b 85 40 ff ff ff 	mov    rax,QWORD PTR [rbp-0xc0]
   89d35:	48 89 85 60 ff ff ff 	mov    QWORD PTR [rbp-0xa0],rax
   89d3c:	48 8b 85 30 ff ff ff 	mov    rax,QWORD PTR [rbp-0xd0]
   89d43:	48 89 85 68 ff ff ff 	mov    QWORD PTR [rbp-0x98],rax
   89d4a:	8b 75 c0             	mov    esi,DWORD PTR [rbp-0x40]
   89d4d:	89 75 c8             	mov    DWORD PTR [rbp-0x38],esi
   89d50:	8b 4d c4             	mov    ecx,DWORD PTR [rbp-0x3c]
   89d53:	89 4d cc             	mov    DWORD PTR [rbp-0x34],ecx
   89d56:	4c 8b bd 28 ff ff ff 	mov    r15,QWORD PTR [rbp-0xd8]
   89d5d:	4c 89 bd 70 ff ff ff 	mov    QWORD PTR [rbp-0x90],r15
   89d64:	4c 8b a5 f0 fe ff ff 	mov    r12,QWORD PTR [rbp-0x110]
   89d6b:	4c 89 a5 78 ff ff ff 	mov    QWORD PTR [rbp-0x88],r12
   89d72:	48 8b 85 50 ff ff ff 	mov    rax,QWORD PTR [rbp-0xb0]
   89d79:	48 89 45 80          	mov    QWORD PTR [rbp-0x80],rax
   89d7d:	4c 8b b5 20 ff ff ff 	mov    r14,QWORD PTR [rbp-0xe0]
   89d84:	4c 89 75 88          	mov    QWORD PTR [rbp-0x78],r14
   89d88:	48 89 d0             	mov    rax,rdx
   89d8b:	4c 8b ad 18 ff ff ff 	mov    r13,QWORD PTR [rbp-0xe8]
   89d92:	4c 89 6d 90          	mov    QWORD PTR [rbp-0x70],r13
   89d96:	48 8b 9d 08 ff ff ff 	mov    rbx,QWORD PTR [rbp-0xf8]
   89d9d:	48 89 5d 98          	mov    QWORD PTR [rbp-0x68],rbx
   89da1:	4c 8b 95 10 ff ff ff 	mov    r10,QWORD PTR [rbp-0xf0]
   89da8:	4c 89 55 a0          	mov    QWORD PTR [rbp-0x60],r10
   89dac:	48 8b bd f8 fe ff ff 	mov    rdi,QWORD PTR [rbp-0x108]
   89db3:	48 89 7d a8          	mov    QWORD PTR [rbp-0x58],rdi
   89db7:	4c 8b 85 00 ff ff ff 	mov    r8,QWORD PTR [rbp-0x100]
   89dbe:	4c 89 45 b0          	mov    QWORD PTR [rbp-0x50],r8
   89dc2:	4c 8b 8d 38 ff ff ff 	mov    r9,QWORD PTR [rbp-0xc8]
   89dc9:	4c 89 4d b8          	mov    QWORD PTR [rbp-0x48],r9
   89dcd:	48 ba ec df c8 4d 10 	movabs rdx,0x7a9f83104dc8dfec
   89dd4:	83 9f 7a 
   89dd7:	49 bb 30 8d 3b 74 46 	movabs r11,0xe49d0646743b8d30
   89dde:	06 9d e4 
   89de1:	4c 39 d8             	cmp    rax,r11
   89de4:	4c 89 c8             	mov    rax,r9
   89de7:	4d 89 d1             	mov    r9,r10
   89dea:	49 89 da             	mov    r10,rbx
   89ded:	4c 89 f3             	mov    rbx,r14
   89df0:	41 89 f6             	mov    r14d,esi
   89df3:	48 8b b5 30 ff ff ff 	mov    rsi,QWORD PTR [rbp-0xd0]
   89dfa:	0f 84 d2 e6 ff ff    	je     884d2 <Java_com_adjust_sdk_sig_NativeLibHelper_nOnResume@@Base-0x327d1>
   89e00:	48 8b 95 48 ff ff ff 	mov    rdx,QWORD PTR [rbp-0xb8]
   89e07:	48 89 95 58 ff ff ff 	mov    QWORD PTR [rbp-0xa8],rdx
   89e0e:	48 8b 95 40 ff ff ff 	mov    rdx,QWORD PTR [rbp-0xc0]
   89e15:	48 89 95 60 ff ff ff 	mov    QWORD PTR [rbp-0xa0],rdx
   89e1c:	48 89 b5 68 ff ff ff 	mov    QWORD PTR [rbp-0x98],rsi
   89e23:	44 89 75 c8          	mov    DWORD PTR [rbp-0x38],r14d
   89e27:	89 4d cc             	mov    DWORD PTR [rbp-0x34],ecx
   89e2a:	4c 89 bd 70 ff ff ff 	mov    QWORD PTR [rbp-0x90],r15
   89e31:	4c 89 a5 78 ff ff ff 	mov    QWORD PTR [rbp-0x88],r12
   89e38:	48 8b 95 50 ff ff ff 	mov    rdx,QWORD PTR [rbp-0xb0]
   89e3f:	48 89 55 80          	mov    QWORD PTR [rbp-0x80],rdx
   89e43:	48 89 5d 88          	mov    QWORD PTR [rbp-0x78],rbx
   89e47:	4c 89 6d 90          	mov    QWORD PTR [rbp-0x70],r13
   89e4b:	4c 89 55 98          	mov    QWORD PTR [rbp-0x68],r10
   89e4f:	4c 89 4d a0          	mov    QWORD PTR [rbp-0x60],r9
   89e53:	48 89 7d a8          	mov    QWORD PTR [rbp-0x58],rdi
   89e57:	4c 89 45 b0          	mov    QWORD PTR [rbp-0x50],r8
   89e5b:	48 89 45 b8          	mov    QWORD PTR [rbp-0x48],rax
   89e5f:	48 ba c8 ec f4 3d dc 	movabs rdx,0x8ba891dc3df4ecc8
   89e66:	91 a8 8b 
   89e69:	49 bb 98 72 60 6a f1 	movabs r11,0xe64074f16a607298
   89e70:	74 40 e6 
   89e73:	4c 39 9d e8 fe ff ff 	cmp    QWORD PTR [rbp-0x118],r11
   89e7a:	0f 84 52 e6 ff ff    	je     884d2 <Java_com_adjust_sdk_sig_NativeLibHelper_nOnResume@@Base-0x327d1>
   89e80:	48 8b 95 48 ff ff ff 	mov    rdx,QWORD PTR [rbp-0xb8]
   89e87:	48 89 95 58 ff ff ff 	mov    QWORD PTR [rbp-0xa8],rdx
   89e8e:	48 8b 95 40 ff ff ff 	mov    rdx,QWORD PTR [rbp-0xc0]
   89e95:	48 89 95 60 ff ff ff 	mov    QWORD PTR [rbp-0xa0],rdx
   89e9c:	48 89 b5 68 ff ff ff 	mov    QWORD PTR [rbp-0x98],rsi
   89ea3:	44 89 75 c8          	mov    DWORD PTR [rbp-0x38],r14d
   89ea7:	89 4d cc             	mov    DWORD PTR [rbp-0x34],ecx
   89eaa:	4c 89 bd 70 ff ff ff 	mov    QWORD PTR [rbp-0x90],r15
   89eb1:	4c 89 a5 78 ff ff ff 	mov    QWORD PTR [rbp-0x88],r12
   89eb8:	48 8b 95 50 ff ff ff 	mov    rdx,QWORD PTR [rbp-0xb0]
   89ebf:	48 89 55 80          	mov    QWORD PTR [rbp-0x80],rdx
   89ec3:	48 89 5d 88          	mov    QWORD PTR [rbp-0x78],rbx
   89ec7:	4c 89 6d 90          	mov    QWORD PTR [rbp-0x70],r13
   89ecb:	4c 89 55 98          	mov    QWORD PTR [rbp-0x68],r10
   89ecf:	4c 89 4d a0          	mov    QWORD PTR [rbp-0x60],r9
   89ed3:	48 89 7d a8          	mov    QWORD PTR [rbp-0x58],rdi
   89ed7:	4c 89 45 b0          	mov    QWORD PTR [rbp-0x50],r8
   89edb:	48 89 45 b8          	mov    QWORD PTR [rbp-0x48],rax
   89edf:	48 ba 72 c3 f3 39 ec 	movabs rdx,0x370ee1ec39f3c372
   89ee6:	e1 0e 37 
   89ee9:	49 bb 0d a4 f9 fa ef 	movabs r11,0xe6ef1feffaf9a40d
   89ef0:	1f ef e6 
   89ef3:	4c 39 9d e8 fe ff ff 	cmp    QWORD PTR [rbp-0x118],r11
   89efa:	0f 84 d2 e5 ff ff    	je     884d2 <Java_com_adjust_sdk_sig_NativeLibHelper_nOnResume@@Base-0x327d1>
   89f00:	48 b8 1b e5 48 c3 d6 	movabs rax,0xe84332d6c348e51b
   89f07:	32 43 e8 
   89f0a:	48 8b 95 e8 fe ff ff 	mov    rdx,QWORD PTR [rbp-0x118]
   89f11:	48 39 c2             	cmp    rdx,rax
   89f14:	0f 84 eb 7a 00 00    	je     91a05 <Java_com_adjust_sdk_sig_NativeLibHelper_nOnResume@@Base-0x2929e>
   89f1a:	48 8b b5 48 ff ff ff 	mov    rsi,QWORD PTR [rbp-0xb8]
   89f21:	48 89 b5 58 ff ff ff 	mov    QWORD PTR [rbp-0xa8],rsi
   89f28:	48 8b 8d 40 ff ff ff 	mov    rcx,QWORD PTR [rbp-0xc0]
   89f2f:	48 89 8d 60 ff ff ff 	mov    QWORD PTR [rbp-0xa0],rcx
   89f36:	4c 8b 95 30 ff ff ff 	mov    r10,QWORD PTR [rbp-0xd0]
   89f3d:	4c 89 95 68 ff ff ff 	mov    QWORD PTR [rbp-0x98],r10
   89f44:	8b 7d c0             	mov    edi,DWORD PTR [rbp-0x40]
   89f47:	89 7d c8             	mov    DWORD PTR [rbp-0x38],edi
   89f4a:	44 8b 75 c4          	mov    r14d,DWORD PTR [rbp-0x3c]
   89f4e:	44 89 75 cc          	mov    DWORD PTR [rbp-0x34],r14d
   89f52:	4c 8b bd 28 ff ff ff 	mov    r15,QWORD PTR [rbp-0xd8]
   89f59:	4c 89 bd 70 ff ff ff 	mov    QWORD PTR [rbp-0x90],r15
   89f60:	4c 8b a5 f0 fe ff ff 	mov    r12,QWORD PTR [rbp-0x110]
   89f67:	4c 89 a5 78 ff ff ff 	mov    QWORD PTR [rbp-0x88],r12
   89f6e:	48 8b 85 50 ff ff ff 	mov    rax,QWORD PTR [rbp-0xb0]
   89f75:	48 89 45 80          	mov    QWORD PTR [rbp-0x80],rax
   89f79:	48 8b 9d 20 ff ff ff 	mov    rbx,QWORD PTR [rbp-0xe0]
   89f80:	48 89 5d 88          	mov    QWORD PTR [rbp-0x78],rbx
   89f84:	48 89 d0             	mov    rax,rdx
   89f87:	4c 8b ad 18 ff ff ff 	mov    r13,QWORD PTR [rbp-0xe8]
   89f8e:	4c 89 6d 90          	mov    QWORD PTR [rbp-0x70],r13
   89f92:	48 8b 95 08 ff ff ff 	mov    rdx,QWORD PTR [rbp-0xf8]
   89f99:	48 89 55 98          	mov    QWORD PTR [rbp-0x68],rdx
   89f9d:	48 8b 95 10 ff ff ff 	mov    rdx,QWORD PTR [rbp-0xf0]
   89fa4:	48 89 55 a0          	mov    QWORD PTR [rbp-0x60],rdx
   89fa8:	48 8b 95 f0 f9 ff ff 	mov    rdx,QWORD PTR [rbp-0x610]
   89faf:	48 89 55 a8          	mov    QWORD PTR [rbp-0x58],rdx
   89fb3:	4c 8b 85 00 ff ff ff 	mov    r8,QWORD PTR [rbp-0x100]
   89fba:	4c 89 45 b0          	mov    QWORD PTR [rbp-0x50],r8
   89fbe:	4c 8b 8d 38 ff ff ff 	mov    r9,QWORD PTR [rbp-0xc8]
   89fc5:	4c 89 4d b8          	mov    QWORD PTR [rbp-0x48],r9
   89fc9:	48 ba 69 51 d1 69 23 	movabs rdx,0xf37a002369d15169
   89fd0:	00 7a f3 
   89fd3:	49 bb c3 e7 21 9a df 	movabs r11,0xe89920df9a21e7c3
   89fda:	20 99 e8 
   89fdd:	4c 39 d8             	cmp    rax,r11
   89fe0:	4c 8b 9d f8 fe ff ff 	mov    r11,QWORD PTR [rbp-0x108]
   89fe7:	0f 84 e5 e4 ff ff    	je     884d2 <Java_com_adjust_sdk_sig_NativeLibHelper_nOnResume@@Base-0x327d1>
   89fed:	48 89 b5 58 ff ff ff 	mov    QWORD PTR [rbp-0xa8],rsi
   89ff4:	48 89 8d 60 ff ff ff 	mov    QWORD PTR [rbp-0xa0],rcx
   89ffb:	4c 89 95 68 ff ff ff 	mov    QWORD PTR [rbp-0x98],r10
   8a002:	89 7d c8             	mov    DWORD PTR [rbp-0x38],edi
   8a005:	44 89 75 cc          	mov    DWORD PTR [rbp-0x34],r14d
   8a009:	4c 89 bd 70 ff ff ff 	mov    QWORD PTR [rbp-0x90],r15
   8a010:	4c 89 a5 78 ff ff ff 	mov    QWORD PTR [rbp-0x88],r12
   8a017:	48 8b 95 50 ff ff ff 	mov    rdx,QWORD PTR [rbp-0xb0]
   8a01e:	48 89 55 80          	mov    QWORD PTR [rbp-0x80],rdx
   8a022:	48 89 5d 88          	mov    QWORD PTR [rbp-0x78],rbx
   8a026:	4c 89 6d 90          	mov    QWORD PTR [rbp-0x70],r13
   8a02a:	48 8b 85 08 ff ff ff 	mov    rax,QWORD PTR [rbp-0xf8]
   8a031:	48 89 45 98          	mov    QWORD PTR [rbp-0x68],rax
   8a035:	48 8b 85 10 ff ff ff 	mov    rax,QWORD PTR [rbp-0xf0]
   8a03c:	48 89 45 a0          	mov    QWORD PTR [rbp-0x60],rax
   8a040:	4c 89 5d a8          	mov    QWORD PTR [rbp-0x58],r11
   8a044:	4c 89 45 b0          	mov    QWORD PTR [rbp-0x50],r8
   8a048:	4c 89 4d b8          	mov    QWORD PTR [rbp-0x48],r9
   8a04c:	48 ba ea a6 d7 23 79 	movabs rdx,0x78722b7923d7a6ea
   8a053:	2b 72 78 
   8a056:	49 bb b9 52 25 4f f0 	movabs r11,0xe8a9d5f04f2552b9
   8a05d:	d5 a9 e8 
   8a060:	4c 39 9d e8 fe ff ff 	cmp    QWORD PTR [rbp-0x118],r11
   8a067:	0f 84 65 e4 ff ff    	je     884d2 <Java_com_adjust_sdk_sig_NativeLibHelper_nOnResume@@Base-0x327d1>
   8a06d:	48 b8 80 39 c9 b2 15 	movabs rax,0xe964c415b2c93980
   8a074:	c4 64 e9 
   8a077:	4c 8b bd e8 fe ff ff 	mov    r15,QWORD PTR [rbp-0x118]
   8a07e:	49 39 c7             	cmp    r15,rax
   8a081:	0f 84 5b 94 00 00    	je     934e2 <Java_com_adjust_sdk_sig_NativeLibHelper_nOnResume@@Base-0x277c1>
   8a087:	48 b8 0a e0 50 57 e4 	movabs rax,0xe9c451e45750e00a
   8a08e:	51 c4 e9 
   8a091:	49 39 c7             	cmp    r15,rax
   8a094:	48 8b 95 00 ff ff ff 	mov    rdx,QWORD PTR [rbp-0x100]
   8a09b:	48 8b bd f8 fe ff ff 	mov    rdi,QWORD PTR [rbp-0x108]
   8a0a2:	48 8b b5 10 ff ff ff 	mov    rsi,QWORD PTR [rbp-0xf0]
   8a0a9:	48 8b 8d 08 ff ff ff 	mov    rcx,QWORD PTR [rbp-0xf8]
   8a0b0:	4c 8b 85 18 ff ff ff 	mov    r8,QWORD PTR [rbp-0xe8]
   8a0b7:	4c 8b 8d 20 ff ff ff 	mov    r9,QWORD PTR [rbp-0xe0]
   8a0be:	4c 8b 9d f0 fe ff ff 	mov    r11,QWORD PTR [rbp-0x110]
   8a0c5:	48 8b 9d 28 ff ff ff 	mov    rbx,QWORD PTR [rbp-0xd8]
   8a0cc:	44 8b 55 c0          	mov    r10d,DWORD PTR [rbp-0x40]
   8a0d0:	4c 8b b5 30 ff ff ff 	mov    r14,QWORD PTR [rbp-0xd0]
   8a0d7:	0f 84 85 36 00 00    	je     8d762 <Java_com_adjust_sdk_sig_NativeLibHelper_nOnResume@@Base-0x2d541>
   8a0dd:	48 8b 85 48 ff ff ff 	mov    rax,QWORD PTR [rbp-0xb8]
   8a0e4:	48 89 85 58 ff ff ff 	mov    QWORD PTR [rbp-0xa8],rax
   8a0eb:	48 8b 85 40 ff ff ff 	mov    rax,QWORD PTR [rbp-0xc0]
   8a0f2:	48 89 85 60 ff ff ff 	mov    QWORD PTR [rbp-0xa0],rax
   8a0f9:	4c 89 b5 68 ff ff ff 	mov    QWORD PTR [rbp-0x98],r14
   8a100:	44 89 55 c8          	mov    DWORD PTR [rbp-0x38],r10d
   8a104:	8b 45 c4             	mov    eax,DWORD PTR [rbp-0x3c]
   8a107:	89 45 cc             	mov    DWORD PTR [rbp-0x34],eax
   8a10a:	48 89 9d 70 ff ff ff 	mov    QWORD PTR [rbp-0x90],rbx
   8a111:	4c 89 9d 78 ff ff ff 	mov    QWORD PTR [rbp-0x88],r11
   8a118:	48 8b 85 50 ff ff ff 	mov    rax,QWORD PTR [rbp-0xb0]
   8a11f:	48 89 45 80          	mov    QWORD PTR [rbp-0x80],rax
   8a123:	4c 89 4d 88          	mov    QWORD PTR [rbp-0x78],r9
   8a127:	4c 89 45 90          	mov    QWORD PTR [rbp-0x70],r8
   8a12b:	48 89 4d 98          	mov    QWORD PTR [rbp-0x68],rcx
   8a12f:	48 89 75 a0          	mov    QWORD PTR [rbp-0x60],rsi
   8a133:	48 89 7d a8          	mov    QWORD PTR [rbp-0x58],rdi
   8a137:	48 89 55 b0          	mov    QWORD PTR [rbp-0x50],rdx
   8a13b:	48 8b 85 38 ff ff ff 	mov    rax,QWORD PTR [rbp-0xc8]
   8a142:	48 89 45 b8          	mov    QWORD PTR [rbp-0x48],rax
   8a146:	48 ba 8f f8 ef d0 f1 	movabs rdx,0x754eb2f1d0eff88f
   8a14d:	b2 4e 75 
   8a150:	49 bb d4 55 80 39 03 	movabs r11,0xea53ba03398055d4
   8a157:	ba 53 ea 
   8a15a:	4d 39 df             	cmp    r15,r11
   8a15d:	0f 84 6f e3 ff ff    	je     884d2 <Java_com_adjust_sdk_sig_NativeLibHelper_nOnResume@@Base-0x327d1>
   8a163:	48 b8 34 4b 85 d9 16 	movabs rax,0xeaf3f316d9854b34
   8a16a:	f3 f3 ea 
   8a16d:	48 8b 8d e8 fe ff ff 	mov    rcx,QWORD PTR [rbp-0x118]
   8a174:	48 39 c1             	cmp    rcx,rax
   8a177:	0f 84 2b 47 00 00    	je     8e8a8 <Java_com_adjust_sdk_sig_NativeLibHelper_nOnResume@@Base-0x2c3fb>
   8a17d:	48 b8 e5 e4 19 96 4e 	movabs rax,0xed11664e9619e4e5
   8a184:	66 11 ed 
   8a187:	48 39 c1             	cmp    rcx,rax
   8a18a:	48 8b bd f8 fe ff ff 	mov    rdi,QWORD PTR [rbp-0x108]
   8a191:	48 8b b5 10 ff ff ff 	mov    rsi,QWORD PTR [rbp-0xf0]
   8a198:	4c 8b 8d 08 ff ff ff 	mov    r9,QWORD PTR [rbp-0xf8]
   8a19f:	4c 8b 9d 18 ff ff ff 	mov    r11,QWORD PTR [rbp-0xe8]
   8a1a6:	48 8b 9d 20 ff ff ff 	mov    rbx,QWORD PTR [rbp-0xe0]
   8a1ad:	44 8b 75 c0          	mov    r14d,DWORD PTR [rbp-0x40]
   8a1b1:	0f 84 fb 90 00 00    	je     932b2 <Java_com_adjust_sdk_sig_NativeLibHelper_nOnResume@@Base-0x279f1>
   8a1b7:	48 b8 32 74 4a cf 05 	movabs rax,0xedbe6a05cf4a7432
   8a1be:	6a be ed 
   8a1c1:	48 39 c1             	cmp    rcx,rax
   8a1c4:	4c 8b 85 00 ff ff ff 	mov    r8,QWORD PTR [rbp-0x100]
   8a1cb:	0f 84 bd 4d 00 00    	je     8ef8e <Java_com_adjust_sdk_sig_NativeLibHelper_nOnResume@@Base-0x2bd15>
   8a1d1:	48 b8 bd c5 c4 08 44 	movabs rax,0xedeb314408c4c5bd
   8a1d8:	31 eb ed 
   8a1db:	48 39 c1             	cmp    rcx,rax
   8a1de:	0f 84 4a 8b 00 00    	je     92d2e <Java_com_adjust_sdk_sig_NativeLibHelper_nOnResume@@Base-0x27f75>
   8a1e4:	48 b8 76 e9 b2 3e f7 	movabs rax,0xef472af73eb2e976
   8a1eb:	2a 47 ef 
   8a1ee:	48 39 c1             	cmp    rcx,rax
   8a1f1:	0f 84 68 60 00 00    	je     9025f <Java_com_adjust_sdk_sig_NativeLibHelper_nOnResume@@Base-0x2aa44>
   8a1f7:	48 b8 ed 30 ad 8e 7d 	movabs rax,0xf0a7d17d8ead30ed
   8a1fe:	d1 a7 f0 
   8a201:	48 39 c1             	cmp    rcx,rax
   8a204:	0f 84 73 4a 00 00    	je     8ec7d <Java_com_adjust_sdk_sig_NativeLibHelper_nOnResume@@Base-0x2c026>
   8a20a:	48 8b 85 48 ff ff ff 	mov    rax,QWORD PTR [rbp-0xb8]
   8a211:	48 89 85 58 ff ff ff 	mov    QWORD PTR [rbp-0xa8],rax
   8a218:	48 8b 85 40 ff ff ff 	mov    rax,QWORD PTR [rbp-0xc0]
   8a21f:	48 89 85 60 ff ff ff 	mov    QWORD PTR [rbp-0xa0],rax
   8a226:	48 8b 85 30 ff ff ff 	mov    rax,QWORD PTR [rbp-0xd0]
   8a22d:	48 89 85 68 ff ff ff 	mov    QWORD PTR [rbp-0x98],rax
   8a234:	44 89 75 c8          	mov    DWORD PTR [rbp-0x38],r14d
   8a238:	8b 45 c4             	mov    eax,DWORD PTR [rbp-0x3c]
   8a23b:	89 45 cc             	mov    DWORD PTR [rbp-0x34],eax
   8a23e:	48 8b 85 28 ff ff ff 	mov    rax,QWORD PTR [rbp-0xd8]
   8a245:	48 89 85 70 ff ff ff 	mov    QWORD PTR [rbp-0x90],rax
   8a24c:	48 8b 85 f0 fe ff ff 	mov    rax,QWORD PTR [rbp-0x110]
   8a253:	48 89 85 78 ff ff ff 	mov    QWORD PTR [rbp-0x88],rax
   8a25a:	48 8b 85 50 ff ff ff 	mov    rax,QWORD PTR [rbp-0xb0]
   8a261:	48 89 45 80          	mov    QWORD PTR [rbp-0x80],rax
   8a265:	48 89 5d 88          	mov    QWORD PTR [rbp-0x78],rbx
   8a269:	4c 89 5d 90          	mov    QWORD PTR [rbp-0x70],r11
   8a26d:	4c 89 4d 98          	mov    QWORD PTR [rbp-0x68],r9
   8a271:	48 89 75 a0          	mov    QWORD PTR [rbp-0x60],rsi
   8a275:	48 89 7d a8          	mov    QWORD PTR [rbp-0x58],rdi
   8a279:	4c 89 45 b0          	mov    QWORD PTR [rbp-0x50],r8
   8a27d:	48 8b 85 f8 f9 ff ff 	mov    rax,QWORD PTR [rbp-0x608]
   8a284:	48 89 45 b8          	mov    QWORD PTR [rbp-0x48],rax
   8a288:	48 ba e8 5c d9 eb 70 	movabs rdx,0xa7530370ebd95ce8
   8a28f:	03 53 a7 
   8a292:	49 bb 0b 9e 3d c8 94 	movabs r11,0xf1138394c83d9e0b
   8a299:	83 13 f1 
   8a29c:	4c 39 d9             	cmp    rcx,r11
   8a29f:	0f 84 2d e2 ff ff    	je     884d2 <Java_com_adjust_sdk_sig_NativeLibHelper_nOnResume@@Base-0x327d1>
   8a2a5:	48 b8 69 51 d1 69 23 	movabs rax,0xf37a002369d15169
   8a2ac:	00 7a f3 
   8a2af:	48 8b 8d e8 fe ff ff 	mov    rcx,QWORD PTR [rbp-0x118]
   8a2b6:	48 39 c1             	cmp    rcx,rax
   8a2b9:	0f 84 c1 3e 00 00    	je     8e180 <Java_com_adjust_sdk_sig_NativeLibHelper_nOnResume@@Base-0x2cb23>
   8a2bf:	48 b8 cf f9 7c 23 4a 	movabs rax,0xf3b0654a237cf9cf
   8a2c6:	65 b0 f3 
   8a2c9:	48 39 c1             	cmp    rcx,rax
   8a2cc:	4c 8b 85 00 ff ff ff 	mov    r8,QWORD PTR [rbp-0x100]
   8a2d3:	4c 8b bd f8 fe ff ff 	mov    r15,QWORD PTR [rbp-0x108]
   8a2da:	4c 8b a5 f0 fe ff ff 	mov    r12,QWORD PTR [rbp-0x110]
   8a2e1:	8b 5d c4             	mov    ebx,DWORD PTR [rbp-0x3c]
   8a2e4:	4c 8b b5 30 ff ff ff 	mov    r14,QWORD PTR [rbp-0xd0]
   8a2eb:	0f 84 16 7f 00 00    	je     92207 <Java_com_adjust_sdk_sig_NativeLibHelper_nOnResume@@Base-0x28a9c>
   8a2f1:	48 8b bd 48 ff ff ff 	mov    rdi,QWORD PTR [rbp-0xb8]
   8a2f8:	48 89 bd 58 ff ff ff 	mov    QWORD PTR [rbp-0xa8],rdi
   8a2ff:	4c 8b 95 40 ff ff ff 	mov    r10,QWORD PTR [rbp-0xc0]
   8a306:	4c 89 95 60 ff ff ff 	mov    QWORD PTR [rbp-0xa0],r10
   8a30d:	4c 89 b5 68 ff ff ff 	mov    QWORD PTR [rbp-0x98],r14
   8a314:	4d 89 f1             	mov    r9,r14
   8a317:	44 8b 75 c0          	mov    r14d,DWORD PTR [rbp-0x40]
   8a31b:	44 89 75 c8          	mov    DWORD PTR [rbp-0x38],r14d
   8a31f:	89 5d cc             	mov    DWORD PTR [rbp-0x34],ebx
   8a322:	48 8b 85 00 fa ff ff 	mov    rax,QWORD PTR [rbp-0x600]
   8a329:	48 89 85 70 ff ff ff 	mov    QWORD PTR [rbp-0x90],rax
   8a330:	4c 89 a5 78 ff ff ff 	mov    QWORD PTR [rbp-0x88],r12
   8a337:	48 8b 85 50 ff ff ff 	mov    rax,QWORD PTR [rbp-0xb0]
   8a33e:	48 89 45 80          	mov    QWORD PTR [rbp-0x80],rax
   8a342:	48 8b 9d 20 ff ff ff 	mov    rbx,QWORD PTR [rbp-0xe0]
   8a349:	48 89 5d 88          	mov    QWORD PTR [rbp-0x78],rbx
   8a34d:	4c 8b ad 18 ff ff ff 	mov    r13,QWORD PTR [rbp-0xe8]
   8a354:	4c 89 6d 90          	mov    QWORD PTR [rbp-0x70],r13
   8a358:	4c 8b a5 08 ff ff ff 	mov    r12,QWORD PTR [rbp-0xf8]
   8a35f:	4c 89 65 98          	mov    QWORD PTR [rbp-0x68],r12
   8a363:	48 8b b5 10 ff ff ff 	mov    rsi,QWORD PTR [rbp-0xf0]
   8a36a:	48 89 75 a0          	mov    QWORD PTR [rbp-0x60],rsi
   8a36e:	4c 89 7d a8          	mov    QWORD PTR [rbp-0x58],r15
   8a372:	4c 89 45 b0          	mov    QWORD PTR [rbp-0x50],r8
   8a376:	48 8b 85 38 ff ff ff 	mov    rax,QWORD PTR [rbp-0xc8]
   8a37d:	48 89 45 b8          	mov    QWORD PTR [rbp-0x48],rax
   8a381:	48 ba d1 5d 58 a3 3d 	movabs rdx,0x902353da3585dd1
   8a388:	35 02 09 
   8a38b:	49 bb 08 2c d9 a8 ec 	movabs r11,0xf3e551eca8d92c08
   8a392:	51 e5 f3 
   8a395:	4c 39 d9             	cmp    rcx,r11
   8a398:	4c 89 f9             	mov    rcx,r15
   8a39b:	4c 8b bd 28 ff ff ff 	mov    r15,QWORD PTR [rbp-0xd8]
   8a3a2:	0f 84 2a e1 ff ff    	je     884d2 <Java_com_adjust_sdk_sig_NativeLibHelper_nOnResume@@Base-0x327d1>
   8a3a8:	48 89 bd 58 ff ff ff 	mov    QWORD PTR [rbp-0xa8],rdi
   8a3af:	4c 89 95 60 ff ff ff 	mov    QWORD PTR [rbp-0xa0],r10
   8a3b6:	4c 89 8d 68 ff ff ff 	mov    QWORD PTR [rbp-0x98],r9
   8a3bd:	44 89 75 c8          	mov    DWORD PTR [rbp-0x38],r14d
   8a3c1:	8b 55 c4             	mov    edx,DWORD PTR [rbp-0x3c]
   8a3c4:	89 55 cc             	mov    DWORD PTR [rbp-0x34],edx
   8a3c7:	4c 89 bd 70 ff ff ff 	mov    QWORD PTR [rbp-0x90],r15
   8a3ce:	48 8b 95 f0 fe ff ff 	mov    rdx,QWORD PTR [rbp-0x110]
   8a3d5:	48 89 95 78 ff ff ff 	mov    QWORD PTR [rbp-0x88],rdx
   8a3dc:	48 8b 95 50 ff ff ff 	mov    rdx,QWORD PTR [rbp-0xb0]
   8a3e3:	48 89 55 80          	mov    QWORD PTR [rbp-0x80],rdx
   8a3e7:	48 89 5d 88          	mov    QWORD PTR [rbp-0x78],rbx
   8a3eb:	4c 89 6d 90          	mov    QWORD PTR [rbp-0x70],r13
   8a3ef:	4c 89 65 98          	mov    QWORD PTR [rbp-0x68],r12
   8a3f3:	48 89 75 a0          	mov    QWORD PTR [rbp-0x60],rsi
   8a3f7:	48 89 4d a8          	mov    QWORD PTR [rbp-0x58],rcx
   8a3fb:	4c 89 45 b0          	mov    QWORD PTR [rbp-0x50],r8
   8a3ff:	48 89 45 b8          	mov    QWORD PTR [rbp-0x48],rax
   8a403:	48 ba 80 39 c9 b2 15 	movabs rdx,0xe964c415b2c93980
   8a40a:	c4 64 e9 
   8a40d:	49 bb e0 24 06 6a 73 	movabs r11,0xf536f4736a0624e0
   8a414:	f4 36 f5 
   8a417:	4c 39 9d e8 fe ff ff 	cmp    QWORD PTR [rbp-0x118],r11
   8a41e:	0f 84 ae e0 ff ff    	je     884d2 <Java_com_adjust_sdk_sig_NativeLibHelper_nOnResume@@Base-0x327d1>
   8a424:	48 89 bd 58 ff ff ff 	mov    QWORD PTR [rbp-0xa8],rdi
   8a42b:	4c 89 95 60 ff ff ff 	mov    QWORD PTR [rbp-0xa0],r10
   8a432:	4c 89 8d 68 ff ff ff 	mov    QWORD PTR [rbp-0x98],r9
   8a439:	44 89 75 c8          	mov    DWORD PTR [rbp-0x38],r14d
   8a43d:	8b 55 c4             	mov    edx,DWORD PTR [rbp-0x3c]
   8a440:	89 55 cc             	mov    DWORD PTR [rbp-0x34],edx
   8a443:	4c 89 bd 70 ff ff ff 	mov    QWORD PTR [rbp-0x90],r15
   8a44a:	48 8b 95 f0 fe ff ff 	mov    rdx,QWORD PTR [rbp-0x110]
   8a451:	48 89 95 78 ff ff ff 	mov    QWORD PTR [rbp-0x88],rdx
   8a458:	48 8b 95 50 ff ff ff 	mov    rdx,QWORD PTR [rbp-0xb0]
   8a45f:	48 89 55 80          	mov    QWORD PTR [rbp-0x80],rdx
   8a463:	48 89 5d 88          	mov    QWORD PTR [rbp-0x78],rbx
   8a467:	4c 89 6d 90          	mov    QWORD PTR [rbp-0x70],r13
   8a46b:	4c 89 65 98          	mov    QWORD PTR [rbp-0x68],r12
   8a46f:	48 89 75 a0          	mov    QWORD PTR [rbp-0x60],rsi
   8a473:	48 89 4d a8          	mov    QWORD PTR [rbp-0x58],rcx
   8a477:	4c 89 45 b0          	mov    QWORD PTR [rbp-0x50],r8
   8a47b:	48 89 45 b8          	mov    QWORD PTR [rbp-0x48],rax
   8a47f:	48 ba d2 53 d5 1b ed 	movabs rdx,0xd6e3c6ed1bd553d2
   8a486:	c6 e3 d6 
   8a489:	49 bb 43 14 20 36 4c 	movabs r11,0xf665404c36201443
   8a490:	40 65 f6 
   8a493:	4c 39 9d e8 fe ff ff 	cmp    QWORD PTR [rbp-0x118],r11
   8a49a:	0f 84 32 e0 ff ff    	je     884d2 <Java_com_adjust_sdk_sig_NativeLibHelper_nOnResume@@Base-0x327d1>
   8a4a0:	48 b8 5b 2c da d8 d1 	movabs rax,0xf758efd1d8da2c5b
   8a4a7:	ef 58 f7 
   8a4aa:	4c 8b bd e8 fe ff ff 	mov    r15,QWORD PTR [rbp-0x118]
   8a4b1:	49 39 c7             	cmp    r15,rax
   8a4b4:	0f 84 32 89 00 00    	je     92dec <Java_com_adjust_sdk_sig_NativeLibHelper_nOnResume@@Base-0x27eb7>
   8a4ba:	48 b8 6e 90 69 5d c3 	movabs rax,0xf77138c35d69906e
   8a4c1:	38 71 f7 
   8a4c4:	49 39 c7             	cmp    r15,rax
   8a4c7:	48 8b 95 00 ff ff ff 	mov    rdx,QWORD PTR [rbp-0x100]
   8a4ce:	48 8b bd f8 fe ff ff 	mov    rdi,QWORD PTR [rbp-0x108]
   8a4d5:	48 8b b5 10 ff ff ff 	mov    rsi,QWORD PTR [rbp-0xf0]
   8a4dc:	48 8b 8d 08 ff ff ff 	mov    rcx,QWORD PTR [rbp-0xf8]
   8a4e3:	4c 8b 85 18 ff ff ff 	mov    r8,QWORD PTR [rbp-0xe8]
   8a4ea:	4c 8b 8d 20 ff ff ff 	mov    r9,QWORD PTR [rbp-0xe0]
   8a4f1:	4c 8b 9d f0 fe ff ff 	mov    r11,QWORD PTR [rbp-0x110]
   8a4f8:	48 8b 9d 28 ff ff ff 	mov    rbx,QWORD PTR [rbp-0xd8]
   8a4ff:	44 8b 55 c0          	mov    r10d,DWORD PTR [rbp-0x40]
   8a503:	4c 8b b5 30 ff ff ff 	mov    r14,QWORD PTR [rbp-0xd0]
   8a50a:	0f 84 2c 3e 00 00    	je     8e33c <Java_com_adjust_sdk_sig_NativeLibHelper_nOnResume@@Base-0x2c967>
   8a510:	48 8b 85 48 ff ff ff 	mov    rax,QWORD PTR [rbp-0xb8]
   8a517:	48 89 85 58 ff ff ff 	mov    QWORD PTR [rbp-0xa8],rax
   8a51e:	48 8b 85 40 ff ff ff 	mov    rax,QWORD PTR [rbp-0xc0]
   8a525:	48 89 85 60 ff ff ff 	mov    QWORD PTR [rbp-0xa0],rax
   8a52c:	4c 89 b5 68 ff ff ff 	mov    QWORD PTR [rbp-0x98],r14
   8a533:	44 89 55 c8          	mov    DWORD PTR [rbp-0x38],r10d
   8a537:	8b 45 c4             	mov    eax,DWORD PTR [rbp-0x3c]
   8a53a:	89 45 cc             	mov    DWORD PTR [rbp-0x34],eax
   8a53d:	48 89 9d 70 ff ff ff 	mov    QWORD PTR [rbp-0x90],rbx
   8a544:	4c 89 9d 78 ff ff ff 	mov    QWORD PTR [rbp-0x88],r11
   8a54b:	48 8b 85 50 ff ff ff 	mov    rax,QWORD PTR [rbp-0xb0]
   8a552:	48 89 45 80          	mov    QWORD PTR [rbp-0x80],rax
   8a556:	4c 89 4d 88          	mov    QWORD PTR [rbp-0x78],r9
   8a55a:	4c 89 45 90          	mov    QWORD PTR [rbp-0x70],r8
   8a55e:	48 89 4d 98          	mov    QWORD PTR [rbp-0x68],rcx
   8a562:	48 89 75 a0          	mov    QWORD PTR [rbp-0x60],rsi
   8a566:	48 89 7d a8          	mov    QWORD PTR [rbp-0x58],rdi
   8a56a:	48 89 55 b0          	mov    QWORD PTR [rbp-0x50],rdx
   8a56e:	48 8b 85 38 ff ff ff 	mov    rax,QWORD PTR [rbp-0xc8]
   8a575:	48 89 45 b8          	mov    QWORD PTR [rbp-0x48],rax
   8a579:	48 ba 60 d5 4e f7 60 	movabs rdx,0x765c3460f74ed560
   8a580:	34 5c 76 
   8a583:	49 bb 21 0e 0b 3f 7a 	movabs r11,0xf791c87a3f0b0e21
   8a58a:	c8 91 f7 
   8a58d:	4d 39 df             	cmp    r15,r11
   8a590:	0f 84 3c df ff ff    	je     884d2 <Java_com_adjust_sdk_sig_NativeLibHelper_nOnResume@@Base-0x327d1>
   8a596:	48 b8 93 44 8a e2 42 	movabs rax,0xf7962f42e28a4493
   8a59d:	2f 96 f7 
   8a5a0:	48 8b 8d e8 fe ff ff 	mov    rcx,QWORD PTR [rbp-0x118]
   8a5a7:	48 39 c1             	cmp    rcx,rax
   8a5aa:	0f 84 1e 61 00 00    	je     906ce <Java_com_adjust_sdk_sig_NativeLibHelper_nOnResume@@Base-0x2a5d5>
   8a5b0:	48 b8 4e 46 6f c7 ba 	movabs rax,0xf8a2e9bac76f464e
   8a5b7:	e9 a2 f8 
   8a5ba:	48 39 c1             	cmp    rcx,rax
   8a5bd:	4c 8b b5 00 ff ff ff 	mov    r14,QWORD PTR [rbp-0x100]
   8a5c4:	48 8b 9d f0 fe ff ff 	mov    rbx,QWORD PTR [rbp-0x110]
   8a5cb:	0f 84 c3 58 00 00    	je     8fe94 <Java_com_adjust_sdk_sig_NativeLibHelper_nOnResume@@Base-0x2ae0f>
   8a5d1:	48 b8 90 30 2f 8d 0f 	movabs rax,0xfaf27d0f8d2f3090
   8a5d8:	7d f2 fa 
   8a5db:	48 39 c1             	cmp    rcx,rax
   8a5de:	0f 84 24 4b 00 00    	je     8f108 <Java_com_adjust_sdk_sig_NativeLibHelper_nOnResume@@Base-0x2bb9b>
   8a5e4:	48 b8 d2 fb 38 8e c1 	movabs rax,0xfba3fec18e38fbd2
   8a5eb:	fe a3 fb 
   8a5ee:	48 39 c1             	cmp    rcx,rax
   8a5f1:	0f 84 b6 84 00 00    	je     92aad <Java_com_adjust_sdk_sig_NativeLibHelper_nOnResume@@Base-0x281f6>
   8a5f7:	48 8b 85 48 ff ff ff 	mov    rax,QWORD PTR [rbp-0xb8]
   8a5fe:	48 89 85 58 ff ff ff 	mov    QWORD PTR [rbp-0xa8],rax
   8a605:	48 8b 85 40 ff ff ff 	mov    rax,QWORD PTR [rbp-0xc0]
   8a60c:	48 89 85 60 ff ff ff 	mov    QWORD PTR [rbp-0xa0],rax
   8a613:	48 8b 85 30 ff ff ff 	mov    rax,QWORD PTR [rbp-0xd0]
   8a61a:	48 89 85 68 ff ff ff 	mov    QWORD PTR [rbp-0x98],rax
   8a621:	8b 45 c0             	mov    eax,DWORD PTR [rbp-0x40]
   8a624:	89 45 c8             	mov    DWORD PTR [rbp-0x38],eax
   8a627:	8b 45 c4             	mov    eax,DWORD PTR [rbp-0x3c]
   8a62a:	89 45 cc             	mov    DWORD PTR [rbp-0x34],eax
   8a62d:	48 8b 85 28 ff ff ff 	mov    rax,QWORD PTR [rbp-0xd8]
   8a634:	48 89 85 70 ff ff ff 	mov    QWORD PTR [rbp-0x90],rax
   8a63b:	48 89 9d 78 ff ff ff 	mov    QWORD PTR [rbp-0x88],rbx
   8a642:	48 8b 85 50 ff ff ff 	mov    rax,QWORD PTR [rbp-0xb0]
   8a649:	48 89 45 80          	mov    QWORD PTR [rbp-0x80],rax
   8a64d:	48 8b 85 20 ff ff ff 	mov    rax,QWORD PTR [rbp-0xe0]
   8a654:	48 89 45 88          	mov    QWORD PTR [rbp-0x78],rax
   8a658:	48 8b 85 18 ff ff ff 	mov    rax,QWORD PTR [rbp-0xe8]
   8a65f:	48 89 45 90          	mov    QWORD PTR [rbp-0x70],rax
   8a663:	48 8b 85 08 ff ff ff 	mov    rax,QWORD PTR [rbp-0xf8]
   8a66a:	48 89 45 98          	mov    QWORD PTR [rbp-0x68],rax
   8a66e:	48 8b 85 10 ff ff ff 	mov    rax,QWORD PTR [rbp-0xf0]
   8a675:	48 89 45 a0          	mov    QWORD PTR [rbp-0x60],rax
   8a679:	48 8b 85 f8 fe ff ff 	mov    rax,QWORD PTR [rbp-0x108]
   8a680:	48 89 45 a8          	mov    QWORD PTR [rbp-0x58],rax
   8a684:	4c 89 75 b0          	mov    QWORD PTR [rbp-0x50],r14
   8a688:	48 8b 85 38 ff ff ff 	mov    rax,QWORD PTR [rbp-0xc8]
   8a68f:	48 89 45 b8          	mov    QWORD PTR [rbp-0x48],rax
   8a693:	48 ba e9 6a dc c0 35 	movabs rdx,0xd461c435c0dc6ae9
   8a69a:	c4 61 d4 
   8a69d:	49 bb d9 77 6c c5 a2 	movabs r11,0xfcff3ea2c56c77d9
   8a6a4:	3e ff fc 
   8a6a7:	4c 39 d9             	cmp    rcx,r11
   8a6aa:	0f 84 22 de ff ff    	je     884d2 <Java_com_adjust_sdk_sig_NativeLibHelper_nOnResume@@Base-0x327d1>
   8a6b0:	48 b8 93 e2 dc 46 5e 	movabs rax,0xfd55eb5e46dce293
   8a6b7:	eb 55 fd 
   8a6ba:	48 8b 95 e8 fe ff ff 	mov    rdx,QWORD PTR [rbp-0x118]
   8a6c1:	48 39 c2             	cmp    rdx,rax
   8a6c4:	0f 84 83 48 00 00    	je     8ef4d <Java_com_adjust_sdk_sig_NativeLibHelper_nOnResume@@Base-0x2bd56>
   8a6ca:	48 8b 85 48 ff ff ff 	mov    rax,QWORD PTR [rbp-0xb8]
   8a6d1:	48 89 85 58 ff ff ff 	mov    QWORD PTR [rbp-0xa8],rax
   8a6d8:	48 8b 85 40 ff ff ff 	mov    rax,QWORD PTR [rbp-0xc0]
   8a6df:	48 89 85 60 ff ff ff 	mov    QWORD PTR [rbp-0xa0],rax
   8a6e6:	48 8b 85 30 ff ff ff 	mov    rax,QWORD PTR [rbp-0xd0]
   8a6ed:	48 89 85 68 ff ff ff 	mov    QWORD PTR [rbp-0x98],rax
   8a6f4:	8b 75 c0             	mov    esi,DWORD PTR [rbp-0x40]
   8a6f7:	89 75 c8             	mov    DWORD PTR [rbp-0x38],esi
   8a6fa:	8b 4d c4             	mov    ecx,DWORD PTR [rbp-0x3c]
   8a6fd:	89 4d cc             	mov    DWORD PTR [rbp-0x34],ecx
   8a700:	4c 8b bd 28 ff ff ff 	mov    r15,QWORD PTR [rbp-0xd8]
   8a707:	4c 89 bd 70 ff ff ff 	mov    QWORD PTR [rbp-0x90],r15
   8a70e:	4c 8b a5 f0 fe ff ff 	mov    r12,QWORD PTR [rbp-0x110]
   8a715:	4c 89 a5 78 ff ff ff 	mov    QWORD PTR [rbp-0x88],r12
   8a71c:	48 8b 85 50 ff ff ff 	mov    rax,QWORD PTR [rbp-0xb0]
   8a723:	48 89 45 80          	mov    QWORD PTR [rbp-0x80],rax
   8a727:	4c 8b b5 20 ff ff ff 	mov    r14,QWORD PTR [rbp-0xe0]
   8a72e:	4c 89 75 88          	mov    QWORD PTR [rbp-0x78],r14
   8a732:	48 89 d0             	mov    rax,rdx
   8a735:	4c 8b ad 18 ff ff ff 	mov    r13,QWORD PTR [rbp-0xe8]
   8a73c:	4c 89 6d 90          	mov    QWORD PTR [rbp-0x70],r13
   8a740:	48 8b 9d 08 ff ff ff 	mov    rbx,QWORD PTR [rbp-0xf8]
   8a747:	48 89 5d 98          	mov    QWORD PTR [rbp-0x68],rbx
   8a74b:	4c 8b 95 10 ff ff ff 	mov    r10,QWORD PTR [rbp-0xf0]
   8a752:	4c 89 55 a0          	mov    QWORD PTR [rbp-0x60],r10
   8a756:	48 8b bd f8 fe ff ff 	mov    rdi,QWORD PTR [rbp-0x108]
   8a75d:	48 89 7d a8          	mov    QWORD PTR [rbp-0x58],rdi
   8a761:	4c 8b 85 00 ff ff ff 	mov    r8,QWORD PTR [rbp-0x100]
   8a768:	4c 89 45 b0          	mov    QWORD PTR [rbp-0x50],r8
   8a76c:	4c 8b 8d 38 ff ff ff 	mov    r9,QWORD PTR [rbp-0xc8]
   8a773:	4c 89 4d b8          	mov    QWORD PTR [rbp-0x48],r9
   8a777:	48 ba 2e a6 22 03 d0 	movabs rdx,0xa32344d00322a62e
   8a77e:	44 23 a3 
   8a781:	49 bb a0 9c 25 4a 74 	movabs r11,0xff3cdb744a259ca0
   8a788:	db 3c ff 
   8a78b:	4c 39 d8             	cmp    rax,r11
   8a78e:	4c 89 c8             	mov    rax,r9
   8a791:	4d 89 d1             	mov    r9,r10
   8a794:	49 89 da             	mov    r10,rbx
   8a797:	4c 89 f3             	mov    rbx,r14
   8a79a:	41 89 ce             	mov    r14d,ecx
   8a79d:	89 f1                	mov    ecx,esi
   8a79f:	48 8b b5 30 ff ff ff 	mov    rsi,QWORD PTR [rbp-0xd0]
   8a7a6:	0f 84 26 dd ff ff    	je     884d2 <Java_com_adjust_sdk_sig_NativeLibHelper_nOnResume@@Base-0x327d1>
   8a7ac:	48 8b 95 48 ff ff ff 	mov    rdx,QWORD PTR [rbp-0xb8]
   8a7b3:	48 89 95 58 ff ff ff 	mov    QWORD PTR [rbp-0xa8],rdx
   8a7ba:	48 8b 95 40 ff ff ff 	mov    rdx,QWORD PTR [rbp-0xc0]
   8a7c1:	48 89 95 60 ff ff ff 	mov    QWORD PTR [rbp-0xa0],rdx
   8a7c8:	48 89 b5 68 ff ff ff 	mov    QWORD PTR [rbp-0x98],rsi
   8a7cf:	89 4d c8             	mov    DWORD PTR [rbp-0x38],ecx
   8a7d2:	44 89 75 cc          	mov    DWORD PTR [rbp-0x34],r14d
   8a7d6:	4c 89 bd 70 ff ff ff 	mov    QWORD PTR [rbp-0x90],r15
   8a7dd:	4c 89 a5 78 ff ff ff 	mov    QWORD PTR [rbp-0x88],r12
   8a7e4:	48 8b 95 50 ff ff ff 	mov    rdx,QWORD PTR [rbp-0xb0]
   8a7eb:	48 89 55 80          	mov    QWORD PTR [rbp-0x80],rdx
   8a7ef:	48 89 5d 88          	mov    QWORD PTR [rbp-0x78],rbx
   8a7f3:	4c 89 6d 90          	mov    QWORD PTR [rbp-0x70],r13
   8a7f7:	4c 89 55 98          	mov    QWORD PTR [rbp-0x68],r10
   8a7fb:	4c 89 4d a0          	mov    QWORD PTR [rbp-0x60],r9
   8a7ff:	48 89 7d a8          	mov    QWORD PTR [rbp-0x58],rdi
   8a803:	4c 89 45 b0          	mov    QWORD PTR [rbp-0x50],r8
   8a807:	48 89 45 b8          	mov    QWORD PTR [rbp-0x48],rax
   8a80b:	48 ba 97 f7 6b 18 a8 	movabs rdx,0xe01a64a8186bf797
   8a812:	64 1a e0 
   8a815:	49 bb f0 e7 82 cc 82 	movabs r11,0xff4d4e82cc82e7f0
   8a81c:	4e 4d ff 
   8a81f:	4c 39 9d e8 fe ff ff 	cmp    QWORD PTR [rbp-0x118],r11
   8a826:	0f 84 a6 dc ff ff    	je     884d2 <Java_com_adjust_sdk_sig_NativeLibHelper_nOnResume@@Base-0x327d1>
   8a82c:	48 8b 95 48 ff ff ff 	mov    rdx,QWORD PTR [rbp-0xb8]
   8a833:	48 89 95 58 ff ff ff 	mov    QWORD PTR [rbp-0xa8],rdx
   8a83a:	48 8b 95 40 ff ff ff 	mov    rdx,QWORD PTR [rbp-0xc0]
   8a841:	48 89 95 60 ff ff ff 	mov    QWORD PTR [rbp-0xa0],rdx
   8a848:	48 89 b5 68 ff ff ff 	mov    QWORD PTR [rbp-0x98],rsi
   8a84f:	89 4d c8             	mov    DWORD PTR [rbp-0x38],ecx
   8a852:	44 89 75 cc          	mov    DWORD PTR [rbp-0x34],r14d
   8a856:	4c 89 bd 70 ff ff ff 	mov    QWORD PTR [rbp-0x90],r15
   8a85d:	4c 89 a5 78 ff ff ff 	mov    QWORD PTR [rbp-0x88],r12
   8a864:	48 8b 95 50 ff ff ff 	mov    rdx,QWORD PTR [rbp-0xb0]
   8a86b:	48 89 55 80          	mov    QWORD PTR [rbp-0x80],rdx
   8a86f:	48 89 5d 88          	mov    QWORD PTR [rbp-0x78],rbx
   8a873:	4c 89 6d 90          	mov    QWORD PTR [rbp-0x70],r13
   8a877:	4c 89 55 98          	mov    QWORD PTR [rbp-0x68],r10
   8a87b:	4c 89 4d a0          	mov    QWORD PTR [rbp-0x60],r9
   8a87f:	48 89 7d a8          	mov    QWORD PTR [rbp-0x58],rdi
   8a883:	4c 89 45 b0          	mov    QWORD PTR [rbp-0x50],r8
   8a887:	48 89 45 b8          	mov    QWORD PTR [rbp-0x48],rax
   8a88b:	48 ba 4d 98 28 94 fb 	movabs rdx,0x869fa6fb9428984d
   8a892:	a6 9f 86 
   8a895:	49 bb 1b bd 5a 30 55 	movabs r11,0xff7e3955305abd1b
   8a89c:	39 7e ff 
   8a89f:	4c 39 9d e8 fe ff ff 	cmp    QWORD PTR [rbp-0x118],r11
   8a8a6:	0f 84 26 dc ff ff    	je     884d2 <Java_com_adjust_sdk_sig_NativeLibHelper_nOnResume@@Base-0x327d1>
   8a8ac:	48 b8 9e a3 f6 0a 4f 	movabs rax,0x94e94f0af6a39e
   8a8b3:	e9 94 00 
   8a8b6:	48 8b 8d e8 fe ff ff 	mov    rcx,QWORD PTR [rbp-0x118]
   8a8bd:	48 39 c1             	cmp    rcx,rax
   8a8c0:	0f 84 e0 72 00 00    	je     91ba6 <Java_com_adjust_sdk_sig_NativeLibHelper_nOnResume@@Base-0x290fd>
   8a8c6:	48 8b 85 48 ff ff ff 	mov    rax,QWORD PTR [rbp-0xb8]
   8a8cd:	48 89 85 58 ff ff ff 	mov    QWORD PTR [rbp-0xa8],rax
   8a8d4:	48 8b 85 40 ff ff ff 	mov    rax,QWORD PTR [rbp-0xc0]
   8a8db:	48 89 85 60 ff ff ff 	mov    QWORD PTR [rbp-0xa0],rax
   8a8e2:	48 8b 85 30 ff ff ff 	mov    rax,QWORD PTR [rbp-0xd0]
   8a8e9:	48 89 85 68 ff ff ff 	mov    QWORD PTR [rbp-0x98],rax
   8a8f0:	8b 45 c0             	mov    eax,DWORD PTR [rbp-0x40]
   8a8f3:	89 45 c8             	mov    DWORD PTR [rbp-0x38],eax
   8a8f6:	8b 45 c4             	mov    eax,DWORD PTR [rbp-0x3c]
   8a8f9:	89 45 cc             	mov    DWORD PTR [rbp-0x34],eax
   8a8fc:	48 8b 85 28 ff ff ff 	mov    rax,QWORD PTR [rbp-0xd8]
   8a903:	48 89 85 70 ff ff ff 	mov    QWORD PTR [rbp-0x90],rax
   8a90a:	48 8b 85 f0 fe ff ff 	mov    rax,QWORD PTR [rbp-0x110]
   8a911:	48 89 85 78 ff ff ff 	mov    QWORD PTR [rbp-0x88],rax
   8a918:	48 8b 85 50 ff ff ff 	mov    rax,QWORD PTR [rbp-0xb0]
   8a91f:	48 89 45 80          	mov    QWORD PTR [rbp-0x80],rax
   8a923:	48 8b 85 20 ff ff ff 	mov    rax,QWORD PTR [rbp-0xe0]
   8a92a:	48 89 45 88          	mov    QWORD PTR [rbp-0x78],rax
   8a92e:	48 8b 85 18 ff ff ff 	mov    rax,QWORD PTR [rbp-0xe8]
   8a935:	48 89 45 90          	mov    QWORD PTR [rbp-0x70],rax
   8a939:	48 8b 85 08 ff ff ff 	mov    rax,QWORD PTR [rbp-0xf8]
   8a940:	48 89 45 98          	mov    QWORD PTR [rbp-0x68],rax
   8a944:	48 8b 85 10 ff ff ff 	mov    rax,QWORD PTR [rbp-0xf0]
   8a94b:	48 89 45 a0          	mov    QWORD PTR [rbp-0x60],rax
   8a94f:	48 8b 85 f8 fe ff ff 	mov    rax,QWORD PTR [rbp-0x108]
   8a956:	48 89 45 a8          	mov    QWORD PTR [rbp-0x58],rax
   8a95a:	48 8b 85 00 ff ff ff 	mov    rax,QWORD PTR [rbp-0x100]
   8a961:	48 89 45 b0          	mov    QWORD PTR [rbp-0x50],rax
   8a965:	48 8b 85 38 ff ff ff 	mov    rax,QWORD PTR [rbp-0xc8]
   8a96c:	48 89 45 b8          	mov    QWORD PTR [rbp-0x48],rax
   8a970:	48 ba bd c5 c4 08 44 	movabs rdx,0xedeb314408c4c5bd
   8a977:	31 eb ed 
   8a97a:	49 bb fa 3c 50 6f 8a 	movabs r11,0x188458a6f503cfa
   8a981:	45 88 01 
   8a984:	4c 39 d9             	cmp    rcx,r11
   8a987:	0f 84 45 db ff ff    	je     884d2 <Java_com_adjust_sdk_sig_NativeLibHelper_nOnResume@@Base-0x327d1>
   8a98d:	48 b8 b0 f1 d6 f0 70 	movabs rax,0x20e1b70f0d6f1b0
   8a994:	1b 0e 02 
   8a997:	48 8b 8d e8 fe ff ff 	mov    rcx,QWORD PTR [rbp-0x118]
   8a99e:	48 39 c1             	cmp    rcx,rax
   8a9a1:	0f 84 3c 28 00 00    	je     8d1e3 <Java_com_adjust_sdk_sig_NativeLibHelper_nOnResume@@Base-0x2dac0>
   8a9a7:	48 8b 85 48 ff ff ff 	mov    rax,QWORD PTR [rbp-0xb8]
   8a9ae:	48 89 85 58 ff ff ff 	mov    QWORD PTR [rbp-0xa8],rax
   8a9b5:	48 8b 85 40 ff ff ff 	mov    rax,QWORD PTR [rbp-0xc0]
   8a9bc:	48 89 85 60 ff ff ff 	mov    QWORD PTR [rbp-0xa0],rax
   8a9c3:	48 8b 85 30 ff ff ff 	mov    rax,QWORD PTR [rbp-0xd0]
   8a9ca:	48 89 85 68 ff ff ff 	mov    QWORD PTR [rbp-0x98],rax
   8a9d1:	8b 45 c0             	mov    eax,DWORD PTR [rbp-0x40]
   8a9d4:	89 45 c8             	mov    DWORD PTR [rbp-0x38],eax
   8a9d7:	8b 45 c4             	mov    eax,DWORD PTR [rbp-0x3c]
   8a9da:	89 45 cc             	mov    DWORD PTR [rbp-0x34],eax
   8a9dd:	48 8b 85 28 ff ff ff 	mov    rax,QWORD PTR [rbp-0xd8]
   8a9e4:	48 89 85 70 ff ff ff 	mov    QWORD PTR [rbp-0x90],rax
   8a9eb:	48 8b 85 f0 fe ff ff 	mov    rax,QWORD PTR [rbp-0x110]
   8a9f2:	48 89 85 78 ff ff ff 	mov    QWORD PTR [rbp-0x88],rax
   8a9f9:	48 8b 85 50 ff ff ff 	mov    rax,QWORD PTR [rbp-0xb0]
   8aa00:	48 89 45 80          	mov    QWORD PTR [rbp-0x80],rax
   8aa04:	48 8b 85 20 ff ff ff 	mov    rax,QWORD PTR [rbp-0xe0]
   8aa0b:	48 89 45 88          	mov    QWORD PTR [rbp-0x78],rax
   8aa0f:	48 8b 85 18 ff ff ff 	mov    rax,QWORD PTR [rbp-0xe8]
   8aa16:	48 89 45 90          	mov    QWORD PTR [rbp-0x70],rax
   8aa1a:	48 8b 85 08 ff ff ff 	mov    rax,QWORD PTR [rbp-0xf8]
   8aa21:	48 89 45 98          	mov    QWORD PTR [rbp-0x68],rax
   8aa25:	48 8b 85 10 ff ff ff 	mov    rax,QWORD PTR [rbp-0xf0]
   8aa2c:	48 89 45 a0          	mov    QWORD PTR [rbp-0x60],rax
   8aa30:	48 8b 85 f8 fe ff ff 	mov    rax,QWORD PTR [rbp-0x108]
   8aa37:	48 89 45 a8          	mov    QWORD PTR [rbp-0x58],rax
   8aa3b:	48 8b 85 00 ff ff ff 	mov    rax,QWORD PTR [rbp-0x100]
   8aa42:	48 89 45 b0          	mov    QWORD PTR [rbp-0x50],rax
   8aa46:	48 8b 85 38 ff ff ff 	mov    rax,QWORD PTR [rbp-0xc8]
   8aa4d:	48 89 45 b8          	mov    QWORD PTR [rbp-0x48],rax
   8aa51:	48 ba 1e 35 84 91 6d 	movabs rdx,0xc9e62d6d9184351e
   8aa58:	2d e6 c9 
   8aa5b:	49 bb 1f 4d 73 70 60 	movabs r11,0x2fcd86070734d1f
   8aa62:	d8 fc 02 
   8aa65:	4c 39 d9             	cmp    rcx,r11
   8aa68:	0f 84 64 da ff ff    	je     884d2 <Java_com_adjust_sdk_sig_NativeLibHelper_nOnResume@@Base-0x327d1>
   8aa6e:	48 b8 6f 1b a3 86 a5 	movabs rax,0x4132fa586a31b6f
   8aa75:	2f 13 04 
   8aa78:	48 8b 8d e8 fe ff ff 	mov    rcx,QWORD PTR [rbp-0x118]
   8aa7f:	48 39 c1             	cmp    rcx,rax
   8aa82:	0f 84 d8 81 00 00    	je     92c60 <Java_com_adjust_sdk_sig_NativeLibHelper_nOnResume@@Base-0x28043>
   8aa88:	48 8b 85 48 ff ff ff 	mov    rax,QWORD PTR [rbp-0xb8]
   8aa8f:	48 89 85 58 ff ff ff 	mov    QWORD PTR [rbp-0xa8],rax
   8aa96:	48 8b 85 40 ff ff ff 	mov    rax,QWORD PTR [rbp-0xc0]
   8aa9d:	48 89 85 60 ff ff ff 	mov    QWORD PTR [rbp-0xa0],rax
   8aaa4:	48 8b 85 30 ff ff ff 	mov    rax,QWORD PTR [rbp-0xd0]
   8aaab:	48 89 85 68 ff ff ff 	mov    QWORD PTR [rbp-0x98],rax
   8aab2:	8b 45 c0             	mov    eax,DWORD PTR [rbp-0x40]
   8aab5:	89 45 c8             	mov    DWORD PTR [rbp-0x38],eax
   8aab8:	8b 45 c4             	mov    eax,DWORD PTR [rbp-0x3c]
   8aabb:	89 45 cc             	mov    DWORD PTR [rbp-0x34],eax
   8aabe:	48 8b 85 28 ff ff ff 	mov    rax,QWORD PTR [rbp-0xd8]
   8aac5:	48 89 85 70 ff ff ff 	mov    QWORD PTR [rbp-0x90],rax
   8aacc:	48 8b 85 f0 fe ff ff 	mov    rax,QWORD PTR [rbp-0x110]
   8aad3:	48 89 85 78 ff ff ff 	mov    QWORD PTR [rbp-0x88],rax
   8aada:	48 8b 85 50 ff ff ff 	mov    rax,QWORD PTR [rbp-0xb0]
   8aae1:	48 89 45 80          	mov    QWORD PTR [rbp-0x80],rax
   8aae5:	48 8b 85 20 ff ff ff 	mov    rax,QWORD PTR [rbp-0xe0]
   8aaec:	48 89 45 88          	mov    QWORD PTR [rbp-0x78],rax
   8aaf0:	48 8b 85 18 ff ff ff 	mov    rax,QWORD PTR [rbp-0xe8]
   8aaf7:	48 89 45 90          	mov    QWORD PTR [rbp-0x70],rax
   8aafb:	48 8b 85 08 ff ff ff 	mov    rax,QWORD PTR [rbp-0xf8]
   8ab02:	48 89 45 98          	mov    QWORD PTR [rbp-0x68],rax
   8ab06:	48 8b 85 10 ff ff ff 	mov    rax,QWORD PTR [rbp-0xf0]
   8ab0d:	48 89 45 a0          	mov    QWORD PTR [rbp-0x60],rax
   8ab11:	48 8b 85 f8 fe ff ff 	mov    rax,QWORD PTR [rbp-0x108]
   8ab18:	48 89 45 a8          	mov    QWORD PTR [rbp-0x58],rax
   8ab1c:	48 8b 85 00 ff ff ff 	mov    rax,QWORD PTR [rbp-0x100]
   8ab23:	48 89 45 b0          	mov    QWORD PTR [rbp-0x50],rax
   8ab27:	48 8b 85 38 ff ff ff 	mov    rax,QWORD PTR [rbp-0xc8]
   8ab2e:	48 89 45 b8          	mov    QWORD PTR [rbp-0x48],rax
   8ab32:	48 ba 8c 91 ed 4d e3 	movabs rdx,0xca44c2e34ded918c
   8ab39:	c2 44 ca 
   8ab3c:	49 bb ee 00 3d 9d ee 	movabs r11,0x4349fee9d3d00ee
   8ab43:	9f 34 04 
   8ab46:	4c 39 d9             	cmp    rcx,r11
   8ab49:	0f 84 83 d9 ff ff    	je     884d2 <Java_com_adjust_sdk_sig_NativeLibHelper_nOnResume@@Base-0x327d1>
   8ab4f:	48 b8 a7 7e 82 fa 27 	movabs rax,0x445a327fa827ea7
   8ab56:	a3 45 04 
   8ab59:	48 8b 8d e8 fe ff ff 	mov    rcx,QWORD PTR [rbp-0x118]
   8ab60:	48 39 c1             	cmp    rcx,rax
   8ab63:	0f 84 fa 77 00 00    	je     92363 <Java_com_adjust_sdk_sig_NativeLibHelper_nOnResume@@Base-0x28940>
   8ab69:	48 b8 59 81 f0 f4 e5 	movabs rax,0x4caeee5f4f08159
   8ab70:	ee ca 04 
   8ab73:	48 39 c1             	cmp    rcx,rax
   8ab76:	4c 8b b5 f8 fe ff ff 	mov    r14,QWORD PTR [rbp-0x108]
   8ab7d:	48 8b 9d f0 fe ff ff 	mov    rbx,QWORD PTR [rbp-0x110]
   8ab84:	0f 84 d7 50 00 00    	je     8fc61 <Java_com_adjust_sdk_sig_NativeLibHelper_nOnResume@@Base-0x2b042>
   8ab8a:	48 b8 64 df 97 01 5e 	movabs rax,0x4ebe15e0197df64
   8ab91:	e1 eb 04 
   8ab94:	48 39 c1             	cmp    rcx,rax
   8ab97:	0f 84 75 79 00 00    	je     92512 <Java_com_adjust_sdk_sig_NativeLibHelper_nOnResume@@Base-0x28791>
   8ab9d:	48 b8 56 dc c5 d4 e5 	movabs rax,0x55708e5d4c5dc56
   8aba4:	08 57 05 
   8aba7:	48 39 c1             	cmp    rcx,rax
   8abaa:	0f 84 ef 49 00 00    	je     8f59f <Java_com_adjust_sdk_sig_NativeLibHelper_nOnResume@@Base-0x2b704>
   8abb0:	48 8b 85 48 ff ff ff 	mov    rax,QWORD PTR [rbp-0xb8]
   8abb7:	48 89 85 58 ff ff ff 	mov    QWORD PTR [rbp-0xa8],rax
   8abbe:	48 8b 85 40 ff ff ff 	mov    rax,QWORD PTR [rbp-0xc0]
   8abc5:	48 89 85 60 ff ff ff 	mov    QWORD PTR [rbp-0xa0],rax
   8abcc:	48 8b 85 30 ff ff ff 	mov    rax,QWORD PTR [rbp-0xd0]
   8abd3:	48 89 85 68 ff ff ff 	mov    QWORD PTR [rbp-0x98],rax
   8abda:	8b 45 c0             	mov    eax,DWORD PTR [rbp-0x40]
   8abdd:	89 45 c8             	mov    DWORD PTR [rbp-0x38],eax
   8abe0:	8b 45 c4             	mov    eax,DWORD PTR [rbp-0x3c]
   8abe3:	89 45 cc             	mov    DWORD PTR [rbp-0x34],eax
   8abe6:	48 8b 85 28 ff ff ff 	mov    rax,QWORD PTR [rbp-0xd8]
   8abed:	48 89 85 70 ff ff ff 	mov    QWORD PTR [rbp-0x90],rax
   8abf4:	48 89 9d 78 ff ff ff 	mov    QWORD PTR [rbp-0x88],rbx
   8abfb:	48 8b 85 50 ff ff ff 	mov    rax,QWORD PTR [rbp-0xb0]
   8ac02:	48 89 45 80          	mov    QWORD PTR [rbp-0x80],rax
   8ac06:	48 8b 85 20 ff ff ff 	mov    rax,QWORD PTR [rbp-0xe0]
   8ac0d:	48 89 45 88          	mov    QWORD PTR [rbp-0x78],rax
   8ac11:	48 8b 85 18 ff ff ff 	mov    rax,QWORD PTR [rbp-0xe8]
   8ac18:	48 89 45 90          	mov    QWORD PTR [rbp-0x70],rax
   8ac1c:	48 8b 85 08 ff ff ff 	mov    rax,QWORD PTR [rbp-0xf8]
   8ac23:	48 89 45 98          	mov    QWORD PTR [rbp-0x68],rax
   8ac27:	48 8b 85 10 ff ff ff 	mov    rax,QWORD PTR [rbp-0xf0]
   8ac2e:	48 89 45 a0          	mov    QWORD PTR [rbp-0x60],rax
   8ac32:	4c 89 75 a8          	mov    QWORD PTR [rbp-0x58],r14
   8ac36:	48 8b 85 00 ff ff ff 	mov    rax,QWORD PTR [rbp-0x100]
   8ac3d:	48 89 45 b0          	mov    QWORD PTR [rbp-0x50],rax
   8ac41:	48 8b 85 38 ff ff ff 	mov    rax,QWORD PTR [rbp-0xc8]
   8ac48:	48 89 45 b8          	mov    QWORD PTR [rbp-0x48],rax
   8ac4c:	48 ba eb 47 c1 ae 5f 	movabs rdx,0x8b9aaa5faec147eb
   8ac53:	aa 9a 8b 
   8ac56:	49 bb b2 8f 11 2a 91 	movabs r11,0x7a52f912a118fb2
   8ac5d:	2f a5 07 
   8ac60:	4c 39 d9             	cmp    rcx,r11
   8ac63:	0f 84 69 d8 ff ff    	je     884d2 <Java_com_adjust_sdk_sig_NativeLibHelper_nOnResume@@Base-0x327d1>
   8ac69:	48 b8 1b e3 c3 9c e3 	movabs rax,0x7c530e39cc3e31b
   8ac70:	30 c5 07 
   8ac73:	48 8b 8d e8 fe ff ff 	mov    rcx,QWORD PTR [rbp-0x118]
   8ac7a:	48 39 c1             	cmp    rcx,rax
   8ac7d:	0f 84 f3 38 00 00    	je     8e576 <Java_com_adjust_sdk_sig_NativeLibHelper_nOnResume@@Base-0x2c72d>
   8ac83:	48 b8 cf ce d2 a5 37 	movabs rax,0x8962b37a5d2cecf
   8ac8a:	2b 96 08 
   8ac8d:	48 39 c1             	cmp    rcx,rax
   8ac90:	4c 8b b5 00 ff ff ff 	mov    r14,QWORD PTR [rbp-0x100]
   8ac97:	48 8b 9d f0 fe ff ff 	mov    rbx,QWORD PTR [rbp-0x110]
   8ac9e:	0f 84 13 3e 00 00    	je     8eab7 <Java_com_adjust_sdk_sig_NativeLibHelper_nOnResume@@Base-0x2c1ec>
   8aca4:	48 b8 d1 5d 58 a3 3d 	movabs rax,0x902353da3585dd1
   8acab:	35 02 09 
   8acae:	48 39 c1             	cmp    rcx,rax
   8acb1:	0f 84 ce 7f 00 00    	je     92c85 <Java_com_adjust_sdk_sig_NativeLibHelper_nOnResume@@Base-0x2801e>
   8acb7:	48 b8 30 a1 a2 cf 9a 	movabs rax,0x946509acfa2a130
   8acbe:	50 46 09 
   8acc1:	48 39 c1             	cmp    rcx,rax
   8acc4:	0f 84 cc 54 00 00    	je     90196 <Java_com_adjust_sdk_sig_NativeLibHelper_nOnResume@@Base-0x2ab0d>
   8acca:	48 b8 f8 f8 4e b0 ac 	movabs rax,0xa05b0acb04ef8f8
   8acd1:	b0 05 0a 
   8acd4:	48 39 c1             	cmp    rcx,rax
   8acd7:	0f 84 cc 53 00 00    	je     900a9 <Java_com_adjust_sdk_sig_NativeLibHelper_nOnResume@@Base-0x2abfa>
   8acdd:	48 8b 85 48 ff ff ff 	mov    rax,QWORD PTR [rbp-0xb8]
   8ace4:	48 89 85 58 ff ff ff 	mov    QWORD PTR [rbp-0xa8],rax
   8aceb:	48 8b 85 40 ff ff ff 	mov    rax,QWORD PTR [rbp-0xc0]
   8acf2:	48 89 85 60 ff ff ff 	mov    QWORD PTR [rbp-0xa0],rax
   8acf9:	48 8b 85 30 ff ff ff 	mov    rax,QWORD PTR [rbp-0xd0]
   8ad00:	48 89 85 68 ff ff ff 	mov    QWORD PTR [rbp-0x98],rax
   8ad07:	8b 45 c0             	mov    eax,DWORD PTR [rbp-0x40]
   8ad0a:	89 45 c8             	mov    DWORD PTR [rbp-0x38],eax
   8ad0d:	8b 45 c4             	mov    eax,DWORD PTR [rbp-0x3c]
   8ad10:	89 45 cc             	mov    DWORD PTR [rbp-0x34],eax
   8ad13:	48 8b 85 28 ff ff ff 	mov    rax,QWORD PTR [rbp-0xd8]
   8ad1a:	48 89 85 70 ff ff ff 	mov    QWORD PTR [rbp-0x90],rax
   8ad21:	48 89 9d 78 ff ff ff 	mov    QWORD PTR [rbp-0x88],rbx
   8ad28:	48 8b 85 50 ff ff ff 	mov    rax,QWORD PTR [rbp-0xb0]
   8ad2f:	48 89 45 80          	mov    QWORD PTR [rbp-0x80],rax
   8ad33:	48 8b 85 08 fa ff ff 	mov    rax,QWORD PTR [rbp-0x5f8]
   8ad3a:	48 89 45 88          	mov    QWORD PTR [rbp-0x78],rax
   8ad3e:	48 8b 85 18 ff ff ff 	mov    rax,QWORD PTR [rbp-0xe8]
   8ad45:	48 89 45 90          	mov    QWORD PTR [rbp-0x70],rax
   8ad49:	48 8b 85 08 ff ff ff 	mov    rax,QWORD PTR [rbp-0xf8]
   8ad50:	48 89 45 98          	mov    QWORD PTR [rbp-0x68],rax
   8ad54:	48 8b 85 10 ff ff ff 	mov    rax,QWORD PTR [rbp-0xf0]
   8ad5b:	48 89 45 a0          	mov    QWORD PTR [rbp-0x60],rax
   8ad5f:	48 8b 85 f8 fe ff ff 	mov    rax,QWORD PTR [rbp-0x108]
   8ad66:	48 89 45 a8          	mov    QWORD PTR [rbp-0x58],rax
   8ad6a:	4c 89 75 b0          	mov    QWORD PTR [rbp-0x50],r14
   8ad6e:	48 8b 85 38 ff ff ff 	mov    rax,QWORD PTR [rbp-0xc8]
   8ad75:	48 89 45 b8          	mov    QWORD PTR [rbp-0x48],rax
   8ad79:	48 ba d9 8a b5 1c ec 	movabs rdx,0xa1e0dcec1cb58ad9
   8ad80:	dc e0 a1 
   8ad83:	49 bb 95 b8 d7 d0 69 	movabs r11,0xa605b69d0d7b895
   8ad8a:	5b 60 0a 
   8ad8d:	4c 39 d9             	cmp    rcx,r11
   8ad90:	0f 84 3c d7 ff ff    	je     884d2 <Java_com_adjust_sdk_sig_NativeLibHelper_nOnResume@@Base-0x327d1>
   8ad96:	48 b8 9f 73 09 3b c1 	movabs rax,0xabcaec13b09739f
   8ad9d:	ae bc 0a 
   8ada0:	48 8b bd e8 fe ff ff 	mov    rdi,QWORD PTR [rbp-0x118]
   8ada7:	48 39 c7             	cmp    rdi,rax
   8adaa:	0f 84 d2 36 00 00    	je     8e482 <Java_com_adjust_sdk_sig_NativeLibHelper_nOnResume@@Base-0x2c821>
   8adb0:	48 b8 14 9b df 9f 53 	movabs rax,0xb999c539fdf9b14
   8adb7:	9c 99 0b 
   8adba:	48 39 c7             	cmp    rdi,rax
   8adbd:	48 8b 9d f0 fe ff ff 	mov    rbx,QWORD PTR [rbp-0x110]
   8adc4:	44 8b 75 c0          	mov    r14d,DWORD PTR [rbp-0x40]
   8adc8:	0f 84 74 2f 00 00    	je     8dd42 <Java_com_adjust_sdk_sig_NativeLibHelper_nOnResume@@Base-0x2cf61>
   8adce:	48 b8 01 7b 13 9c e8 	movabs rax,0xbdfd6e89c137b01
   8add5:	d6 df 0b 
   8add8:	48 39 c7             	cmp    rdi,rax
   8addb:	0f 84 74 70 00 00    	je     91e55 <Java_com_adjust_sdk_sig_NativeLibHelper_nOnResume@@Base-0x28e4e>
   8ade1:	48 b8 f4 d9 3e 97 66 	movabs rax,0xce29266973ed9f4
   8ade8:	92 e2 0c 
   8adeb:	48 39 c7             	cmp    rdi,rax
   8adee:	4c 8b 9d 00 ff ff ff 	mov    r11,QWORD PTR [rbp-0x100]
   8adf5:	0f 84 60 4d 00 00    	je     8fb5b <Java_com_adjust_sdk_sig_NativeLibHelper_nOnResume@@Base-0x2b148>
   8adfb:	48 b8 1c 60 7e a7 64 	movabs rax,0xce52164a77e601c
   8ae02:	21 e5 0c 
   8ae05:	48 39 c7             	cmp    rdi,rax
   8ae08:	0f 84 40 7a 00 00    	je     9284e <Java_com_adjust_sdk_sig_NativeLibHelper_nOnResume@@Base-0x28455>
   8ae0e:	48 8b 85 48 ff ff ff 	mov    rax,QWORD PTR [rbp-0xb8]
   8ae15:	48 89 85 58 ff ff ff 	mov    QWORD PTR [rbp-0xa8],rax
   8ae1c:	4c 8b 85 40 ff ff ff 	mov    r8,QWORD PTR [rbp-0xc0]
   8ae23:	4c 89 85 60 ff ff ff 	mov    QWORD PTR [rbp-0xa0],r8
   8ae2a:	4c 8b 95 30 ff ff ff 	mov    r10,QWORD PTR [rbp-0xd0]
   8ae31:	4c 89 95 68 ff ff ff 	mov    QWORD PTR [rbp-0x98],r10
   8ae38:	44 89 75 c8          	mov    DWORD PTR [rbp-0x38],r14d
   8ae3c:	44 8b 4d c4          	mov    r9d,DWORD PTR [rbp-0x3c]
   8ae40:	44 89 4d cc          	mov    DWORD PTR [rbp-0x34],r9d
   8ae44:	4c 8b bd 28 ff ff ff 	mov    r15,QWORD PTR [rbp-0xd8]
   8ae4b:	4c 89 bd 70 ff ff ff 	mov    QWORD PTR [rbp-0x90],r15
   8ae52:	48 89 9d 78 ff ff ff 	mov    QWORD PTR [rbp-0x88],rbx
   8ae59:	48 8b 85 50 ff ff ff 	mov    rax,QWORD PTR [rbp-0xb0]
   8ae60:	48 89 45 80          	mov    QWORD PTR [rbp-0x80],rax
   8ae64:	48 8b 9d 20 ff ff ff 	mov    rbx,QWORD PTR [rbp-0xe0]
   8ae6b:	48 89 5d 88          	mov    QWORD PTR [rbp-0x78],rbx
   8ae6f:	4c 8b ad 18 ff ff ff 	mov    r13,QWORD PTR [rbp-0xe8]
   8ae76:	4c 89 6d 90          	mov    QWORD PTR [rbp-0x70],r13
   8ae7a:	4c 8b a5 08 ff ff ff 	mov    r12,QWORD PTR [rbp-0xf8]
   8ae81:	4c 89 65 98          	mov    QWORD PTR [rbp-0x68],r12
   8ae85:	48 8b b5 10 ff ff ff 	mov    rsi,QWORD PTR [rbp-0xf0]
   8ae8c:	48 89 75 a0          	mov    QWORD PTR [rbp-0x60],rsi
   8ae90:	48 8b 85 f8 fe ff ff 	mov    rax,QWORD PTR [rbp-0x108]
   8ae97:	48 89 45 a8          	mov    QWORD PTR [rbp-0x58],rax
   8ae9b:	4c 89 5d b0          	mov    QWORD PTR [rbp-0x50],r11
   8ae9f:	48 8b 8d 38 ff ff ff 	mov    rcx,QWORD PTR [rbp-0xc8]
   8aea6:	48 89 4d b8          	mov    QWORD PTR [rbp-0x48],rcx
   8aeaa:	48 ba b2 be 30 95 b5 	movabs rdx,0x73db4fb59530beb2
   8aeb1:	4f db 73 
   8aeb4:	49 bb 83 80 a4 50 27 	movabs r11,0xd1e6b2750a48083
   8aebb:	6b 1e 0d 
   8aebe:	4c 39 df             	cmp    rdi,r11
   8aec1:	4c 89 c7             	mov    rdi,r8
   8aec4:	4c 8b 85 48 ff ff ff 	mov    r8,QWORD PTR [rbp-0xb8]
   8aecb:	0f 84 01 d6 ff ff    	je     884d2 <Java_com_adjust_sdk_sig_NativeLibHelper_nOnResume@@Base-0x327d1>
   8aed1:	4c 89 85 58 ff ff ff 	mov    QWORD PTR [rbp-0xa8],r8
   8aed8:	48 89 bd 60 ff ff ff 	mov    QWORD PTR [rbp-0xa0],rdi
   8aedf:	4c 89 95 68 ff ff ff 	mov    QWORD PTR [rbp-0x98],r10
   8aee6:	44 89 75 c8          	mov    DWORD PTR [rbp-0x38],r14d
   8aeea:	44 89 4d cc          	mov    DWORD PTR [rbp-0x34],r9d
   8aeee:	4c 89 bd 70 ff ff ff 	mov    QWORD PTR [rbp-0x90],r15
   8aef5:	48 8b 95 f0 fe ff ff 	mov    rdx,QWORD PTR [rbp-0x110]
   8aefc:	48 89 95 78 ff ff ff 	mov    QWORD PTR [rbp-0x88],rdx
   8af03:	48 8b 95 50 ff ff ff 	mov    rdx,QWORD PTR [rbp-0xb0]
   8af0a:	48 89 55 80          	mov    QWORD PTR [rbp-0x80],rdx
   8af0e:	48 89 5d 88          	mov    QWORD PTR [rbp-0x78],rbx
   8af12:	4c 89 6d 90          	mov    QWORD PTR [rbp-0x70],r13
   8af16:	4c 89 65 98          	mov    QWORD PTR [rbp-0x68],r12
   8af1a:	48 89 75 a0          	mov    QWORD PTR [rbp-0x60],rsi
   8af1e:	48 89 45 a8          	mov    QWORD PTR [rbp-0x58],rax
   8af22:	48 8b 95 00 ff ff ff 	mov    rdx,QWORD PTR [rbp-0x100]
   8af29:	48 89 55 b0          	mov    QWORD PTR [rbp-0x50],rdx
   8af2d:	48 89 4d b8          	mov    QWORD PTR [rbp-0x48],rcx
   8af31:	48 ba 8a 92 95 59 a2 	movabs rdx,0x6f0c04a25995928a
   8af38:	04 0c 6f 
   8af3b:	49 bb 94 c7 d1 0b 19 	movabs r11,0xdce51190bd1c794
   8af42:	51 ce 0d 
   8af45:	4c 39 9d e8 fe ff ff 	cmp    QWORD PTR [rbp-0x118],r11
   8af4c:	0f 84 80 d5 ff ff    	je     884d2 <Java_com_adjust_sdk_sig_NativeLibHelper_nOnResume@@Base-0x327d1>
   8af52:	4c 89 85 58 ff ff ff 	mov    QWORD PTR [rbp-0xa8],r8
   8af59:	48 89 bd 60 ff ff ff 	mov    QWORD PTR [rbp-0xa0],rdi
   8af60:	4c 89 95 68 ff ff ff 	mov    QWORD PTR [rbp-0x98],r10
   8af67:	44 89 75 c8          	mov    DWORD PTR [rbp-0x38],r14d
   8af6b:	44 89 4d cc          	mov    DWORD PTR [rbp-0x34],r9d
   8af6f:	4c 89 bd 70 ff ff ff 	mov    QWORD PTR [rbp-0x90],r15
   8af76:	48 8b 95 f0 fe ff ff 	mov    rdx,QWORD PTR [rbp-0x110]
   8af7d:	48 89 95 78 ff ff ff 	mov    QWORD PTR [rbp-0x88],rdx
   8af84:	48 8b 95 50 ff ff ff 	mov    rdx,QWORD PTR [rbp-0xb0]
   8af8b:	48 89 55 80          	mov    QWORD PTR [rbp-0x80],rdx
   8af8f:	48 89 5d 88          	mov    QWORD PTR [rbp-0x78],rbx
   8af93:	4c 89 6d 90          	mov    QWORD PTR [rbp-0x70],r13
   8af97:	4c 89 65 98          	mov    QWORD PTR [rbp-0x68],r12
   8af9b:	48 89 75 a0          	mov    QWORD PTR [rbp-0x60],rsi
   8af9f:	48 89 45 a8          	mov    QWORD PTR [rbp-0x58],rax
   8afa3:	48 8b 85 00 ff ff ff 	mov    rax,QWORD PTR [rbp-0x100]
   8afaa:	48 89 45 b0          	mov    QWORD PTR [rbp-0x50],rax
   8afae:	48 89 4d b8          	mov    QWORD PTR [rbp-0x48],rcx
   8afb2:	48 ba e0 2d bb fa 5a 	movabs rdx,0xcfc52f5afabb2de0
   8afb9:	2f c5 cf 
   8afbc:	49 bb 0a d4 aa c5 54 	movabs r11,0xf5d1254c5aad40a
   8afc3:	12 5d 0f 
   8afc6:	4c 39 9d e8 fe ff ff 	cmp    QWORD PTR [rbp-0x118],r11
   8afcd:	0f 84 ff d4 ff ff    	je     884d2 <Java_com_adjust_sdk_sig_NativeLibHelper_nOnResume@@Base-0x327d1>
   8afd3:	48 b8 27 c2 04 ed 8d 	movabs rax,0xfd48e8ded04c227
   8afda:	8e d4 0f 
   8afdd:	48 8b 8d e8 fe ff ff 	mov    rcx,QWORD PTR [rbp-0x118]
   8afe4:	48 39 c1             	cmp    rcx,rax
   8afe7:	0f 84 26 71 00 00    	je     92113 <Java_com_adjust_sdk_sig_NativeLibHelper_nOnResume@@Base-0x28b90>
   8afed:	48 b8 c1 7a 3d f1 21 	movabs rax,0x101c3c21f13d7ac1
   8aff4:	3c 1c 10 
   8aff7:	48 39 c1             	cmp    rcx,rax
   8affa:	4c 8b 8d f8 fe ff ff 	mov    r9,QWORD PTR [rbp-0x108]
   8b001:	48 8b 9d f0 fe ff ff 	mov    rbx,QWORD PTR [rbp-0x110]
   8b008:	44 8b 75 c0          	mov    r14d,DWORD PTR [rbp-0x40]
   8b00c:	0f 84 d7 38 00 00    	je     8e8e9 <Java_com_adjust_sdk_sig_NativeLibHelper_nOnResume@@Base-0x2c3ba>
   8b012:	48 b8 06 aa bc 28 d5 	movabs rax,0x105fedd528bcaa06
   8b019:	ed 5f 10 
   8b01c:	48 39 c1             	cmp    rcx,rax
   8b01f:	0f 84 c4 6b 00 00    	je     91be9 <Java_com_adjust_sdk_sig_NativeLibHelper_nOnResume@@Base-0x290ba>
   8b025:	48 b8 0c 52 6a 33 a4 	movabs rax,0x10d887a4336a520c
   8b02c:	87 d8 10 
   8b02f:	48 39 c1             	cmp    rcx,rax
   8b032:	0f 84 29 47 00 00    	je     8f761 <Java_com_adjust_sdk_sig_NativeLibHelper_nOnResume@@Base-0x2b542>
   8b038:	48 b8 a7 08 40 c5 70 	movabs rax,0x144d4470c54008a7
   8b03f:	44 4d 14 
   8b042:	48 39 c1             	cmp    rcx,rax
   8b045:	0f 84 e3 2e 00 00    	je     8df2e <Java_com_adjust_sdk_sig_NativeLibHelper_nOnResume@@Base-0x2cd75>
   8b04b:	48 b8 88 4f e1 93 51 	movabs rax,0x15f4265193e14f88
   8b052:	26 f4 15 
   8b055:	48 39 c1             	cmp    rcx,rax
   8b058:	0f 84 50 3d 00 00    	je     8edae <Java_com_adjust_sdk_sig_NativeLibHelper_nOnResume@@Base-0x2bef5>
   8b05e:	48 b8 3c 26 dc 03 c6 	movabs rax,0x180b13c603dc263c
   8b065:	13 0b 18 
   8b068:	48 39 c1             	cmp    rcx,rax
   8b06b:	4c 8b 9d 00 ff ff ff 	mov    r11,QWORD PTR [rbp-0x100]
   8b072:	0f 84 ba 6e 00 00    	je     91f32 <Java_com_adjust_sdk_sig_NativeLibHelper_nOnResume@@Base-0x28d71>
   8b078:	48 b8 a6 d8 70 ed e3 	movabs rax,0x1819a6e3ed70d8a6
   8b07f:	a6 19 18 
   8b082:	48 39 c1             	cmp    rcx,rax
   8b085:	0f 84 16 3c 00 00    	je     8eca1 <Java_com_adjust_sdk_sig_NativeLibHelper_nOnResume@@Base-0x2c002>
   8b08b:	48 b8 58 44 2e 3e 89 	movabs rax,0x18246e893e2e4458
   8b092:	6e 24 18 
   8b095:	48 39 c1             	cmp    rcx,rax
   8b098:	0f 84 42 7e 00 00    	je     92ee0 <Java_com_adjust_sdk_sig_NativeLibHelper_nOnResume@@Base-0x27dc3>
   8b09e:	4c 8b 85 48 ff ff ff 	mov    r8,QWORD PTR [rbp-0xb8]
   8b0a5:	4c 89 85 58 ff ff ff 	mov    QWORD PTR [rbp-0xa8],r8
   8b0ac:	4c 8b 95 40 ff ff ff 	mov    r10,QWORD PTR [rbp-0xc0]
   8b0b3:	4c 89 95 60 ff ff ff 	mov    QWORD PTR [rbp-0xa0],r10
   8b0ba:	48 8b 85 10 fa ff ff 	mov    rax,QWORD PTR [rbp-0x5f0]
   8b0c1:	48 89 85 68 ff ff ff 	mov    QWORD PTR [rbp-0x98],rax
   8b0c8:	44 89 75 c8          	mov    DWORD PTR [rbp-0x38],r14d
   8b0cc:	44 8b 75 c4          	mov    r14d,DWORD PTR [rbp-0x3c]
   8b0d0:	44 89 75 cc          	mov    DWORD PTR [rbp-0x34],r14d
   8b0d4:	4c 8b bd 28 ff ff ff 	mov    r15,QWORD PTR [rbp-0xd8]
   8b0db:	4c 89 bd 70 ff ff ff 	mov    QWORD PTR [rbp-0x90],r15
   8b0e2:	48 89 9d 78 ff ff ff 	mov    QWORD PTR [rbp-0x88],rbx
   8b0e9:	48 8b 85 50 ff ff ff 	mov    rax,QWORD PTR [rbp-0xb0]
   8b0f0:	48 89 45 80          	mov    QWORD PTR [rbp-0x80],rax
   8b0f4:	4c 8b a5 20 ff ff ff 	mov    r12,QWORD PTR [rbp-0xe0]
   8b0fb:	4c 89 65 88          	mov    QWORD PTR [rbp-0x78],r12
   8b0ff:	48 89 df             	mov    rdi,rbx
   8b102:	48 8b 9d 18 ff ff ff 	mov    rbx,QWORD PTR [rbp-0xe8]
   8b109:	48 89 5d 90          	mov    QWORD PTR [rbp-0x70],rbx
   8b10d:	4c 8b ad 08 ff ff ff 	mov    r13,QWORD PTR [rbp-0xf8]
   8b114:	4c 89 6d 98          	mov    QWORD PTR [rbp-0x68],r13
   8b118:	48 8b b5 10 ff ff ff 	mov    rsi,QWORD PTR [rbp-0xf0]
   8b11f:	48 89 75 a0          	mov    QWORD PTR [rbp-0x60],rsi
   8b123:	4c 89 4d a8          	mov    QWORD PTR [rbp-0x58],r9
   8b127:	4c 89 5d b0          	mov    QWORD PTR [rbp-0x50],r11
   8b12b:	48 8b 85 38 ff ff ff 	mov    rax,QWORD PTR [rbp-0xc8]
   8b132:	48 89 45 b8          	mov    QWORD PTR [rbp-0x48],rax
   8b136:	48 ba 7c ce 99 82 2b 	movabs rdx,0x7d94b62b8299ce7c
   8b13d:	b6 94 7d 
   8b140:	49 bb 70 2b 97 0d f7 	movabs r11,0x182d22f70d972b70
   8b147:	22 2d 18 
   8b14a:	4c 39 d9             	cmp    rcx,r11
   8b14d:	48 8b 8d 30 ff ff ff 	mov    rcx,QWORD PTR [rbp-0xd0]
   8b154:	0f 84 78 d3 ff ff    	je     884d2 <Java_com_adjust_sdk_sig_NativeLibHelper_nOnResume@@Base-0x327d1>
   8b15a:	4c 89 85 58 ff ff ff 	mov    QWORD PTR [rbp-0xa8],r8
   8b161:	4c 89 95 60 ff ff ff 	mov    QWORD PTR [rbp-0xa0],r10
   8b168:	48 89 8d 68 ff ff ff 	mov    QWORD PTR [rbp-0x98],rcx
   8b16f:	8b 8d 4c fe ff ff    	mov    ecx,DWORD PTR [rbp-0x1b4]
   8b175:	89 4d c8             	mov    DWORD PTR [rbp-0x38],ecx
   8b178:	44 89 75 cc          	mov    DWORD PTR [rbp-0x34],r14d
   8b17c:	4c 89 bd 70 ff ff ff 	mov    QWORD PTR [rbp-0x90],r15
   8b183:	48 89 bd 78 ff ff ff 	mov    QWORD PTR [rbp-0x88],rdi
   8b18a:	48 8b 8d 50 ff ff ff 	mov    rcx,QWORD PTR [rbp-0xb0]
   8b191:	48 89 4d 80          	mov    QWORD PTR [rbp-0x80],rcx
   8b195:	4c 89 65 88          	mov    QWORD PTR [rbp-0x78],r12
   8b199:	48 89 5d 90          	mov    QWORD PTR [rbp-0x70],rbx
   8b19d:	4c 89 6d 98          	mov    QWORD PTR [rbp-0x68],r13
   8b1a1:	48 89 75 a0          	mov    QWORD PTR [rbp-0x60],rsi
   8b1a5:	4c 89 4d a8          	mov    QWORD PTR [rbp-0x58],r9
   8b1a9:	48 8b 8d 00 ff ff ff 	mov    rcx,QWORD PTR [rbp-0x100]
   8b1b0:	48 89 4d b0          	mov    QWORD PTR [rbp-0x50],rcx
   8b1b4:	48 89 45 b8          	mov    QWORD PTR [rbp-0x48],rax
   8b1b8:	48 ba 5c 07 15 0e 07 	movabs rdx,0x376494070e15075c
   8b1bf:	94 64 37 
   8b1c2:	49 bb 3b 59 2a 1d 09 	movabs r11,0x1973e4091d2a593b
   8b1c9:	e4 73 19 
   8b1cc:	4c 39 9d e8 fe ff ff 	cmp    QWORD PTR [rbp-0x118],r11
   8b1d3:	0f 84 f9 d2 ff ff    	je     884d2 <Java_com_adjust_sdk_sig_NativeLibHelper_nOnResume@@Base-0x327d1>
   8b1d9:	48 b8 06 1c f1 e7 d3 	movabs rax,0x1a3506d3e7f11c06
   8b1e0:	06 35 1a 
   8b1e3:	4c 8b 95 e8 fe ff ff 	mov    r10,QWORD PTR [rbp-0x118]
   8b1ea:	49 39 c2             	cmp    r10,rax
   8b1ed:	0f 84 ae 31 00 00    	je     8e3a1 <Java_com_adjust_sdk_sig_NativeLibHelper_nOnResume@@Base-0x2c902>
   8b1f3:	48 b8 0f 29 a5 b6 72 	movabs rax,0x1a7e0372b6a5290f
   8b1fa:	03 7e 1a 
   8b1fd:	49 39 c2             	cmp    r10,rax
   8b200:	48 8b bd f8 fe ff ff 	mov    rdi,QWORD PTR [rbp-0x108]
   8b207:	48 8b b5 10 ff ff ff 	mov    rsi,QWORD PTR [rbp-0xf0]
   8b20e:	48 8b 8d 08 ff ff ff 	mov    rcx,QWORD PTR [rbp-0xf8]
   8b215:	4c 8b 85 18 ff ff ff 	mov    r8,QWORD PTR [rbp-0xe8]
   8b21c:	4c 8b 8d 20 ff ff ff 	mov    r9,QWORD PTR [rbp-0xe0]
   8b223:	4c 8b 9d f0 fe ff ff 	mov    r11,QWORD PTR [rbp-0x110]
   8b22a:	48 8b 9d 28 ff ff ff 	mov    rbx,QWORD PTR [rbp-0xd8]
   8b231:	44 8b 75 c0          	mov    r14d,DWORD PTR [rbp-0x40]
   8b235:	0f 84 19 72 00 00    	je     92454 <Java_com_adjust_sdk_sig_NativeLibHelper_nOnResume@@Base-0x2884f>
   8b23b:	48 8b 85 48 ff ff ff 	mov    rax,QWORD PTR [rbp-0xb8]
   8b242:	48 89 85 58 ff ff ff 	mov    QWORD PTR [rbp-0xa8],rax
   8b249:	48 8b 85 40 ff ff ff 	mov    rax,QWORD PTR [rbp-0xc0]
   8b250:	48 89 85 60 ff ff ff 	mov    QWORD PTR [rbp-0xa0],rax
   8b257:	48 8b 85 30 ff ff ff 	mov    rax,QWORD PTR [rbp-0xd0]
   8b25e:	48 89 85 68 ff ff ff 	mov    QWORD PTR [rbp-0x98],rax
   8b265:	44 89 75 c8          	mov    DWORD PTR [rbp-0x38],r14d
   8b269:	8b 45 c4             	mov    eax,DWORD PTR [rbp-0x3c]
   8b26c:	89 45 cc             	mov    DWORD PTR [rbp-0x34],eax
   8b26f:	48 89 9d 70 ff ff ff 	mov    QWORD PTR [rbp-0x90],rbx
   8b276:	4c 89 9d 78 ff ff ff 	mov    QWORD PTR [rbp-0x88],r11
   8b27d:	48 8b 85 50 ff ff ff 	mov    rax,QWORD PTR [rbp-0xb0]
   8b284:	48 89 45 80          	mov    QWORD PTR [rbp-0x80],rax
   8b288:	4c 89 4d 88          	mov    QWORD PTR [rbp-0x78],r9
   8b28c:	4c 89 45 90          	mov    QWORD PTR [rbp-0x70],r8
   8b290:	48 89 4d 98          	mov    QWORD PTR [rbp-0x68],rcx
   8b294:	48 89 75 a0          	mov    QWORD PTR [rbp-0x60],rsi
   8b298:	48 89 7d a8          	mov    QWORD PTR [rbp-0x58],rdi
   8b29c:	48 8b 85 00 ff ff ff 	mov    rax,QWORD PTR [rbp-0x100]
   8b2a3:	48 89 45 b0          	mov    QWORD PTR [rbp-0x50],rax
   8b2a7:	48 8b 85 38 ff ff ff 	mov    rax,QWORD PTR [rbp-0xc8]
   8b2ae:	48 89 45 b8          	mov    QWORD PTR [rbp-0x48],rax
   8b2b2:	48 ba df 68 44 d6 f2 	movabs rdx,0x4695a6f2d64468df
   8b2b9:	a6 95 46 
   8b2bc:	49 bb 16 1e c8 d4 e9 	movabs r11,0x1d618fe9d4c81e16
   8b2c3:	8f 61 1d 
   8b2c6:	4d 39 da             	cmp    r10,r11
   8b2c9:	0f 84 03 d2 ff ff    	je     884d2 <Java_com_adjust_sdk_sig_NativeLibHelper_nOnResume@@Base-0x327d1>
   8b2cf:	48 b8 d1 8c 6d 83 45 	movabs rax,0x1f21c945836d8cd1
   8b2d6:	c9 21 1f 
   8b2d9:	48 8b bd e8 fe ff ff 	mov    rdi,QWORD PTR [rbp-0x118]
   8b2e0:	48 39 c7             	cmp    rdi,rax
   8b2e3:	0f 84 89 3a 00 00    	je     8ed72 <Java_com_adjust_sdk_sig_NativeLibHelper_nOnResume@@Base-0x2bf31>
   8b2e9:	48 b8 28 22 00 8e 8e 	movabs rax,0x205fa38e8e002228
   8b2f0:	a3 5f 20 
   8b2f3:	48 39 c7             	cmp    rdi,rax
   8b2f6:	48 8b 95 00 ff ff ff 	mov    rdx,QWORD PTR [rbp-0x100]
   8b2fd:	4c 8b 9d f8 fe ff ff 	mov    r11,QWORD PTR [rbp-0x108]
   8b304:	48 8b 9d f0 fe ff ff 	mov    rbx,QWORD PTR [rbp-0x110]
   8b30b:	44 8b 75 c0          	mov    r14d,DWORD PTR [rbp-0x40]
   8b30f:	0f 84 d1 33 00 00    	je     8e6e6 <Java_com_adjust_sdk_sig_NativeLibHelper_nOnResume@@Base-0x2c5bd>
   8b315:	48 b8 6b ff a7 fe dd 	movabs rax,0x22eb73ddfea7ff6b
   8b31c:	73 eb 22 
   8b31f:	48 39 c7             	cmp    rdi,rax
   8b322:	0f 84 25 65 00 00    	je     9184d <Java_com_adjust_sdk_sig_NativeLibHelper_nOnResume@@Base-0x29456>
   8b328:	48 b8 88 b4 9b 72 6f 	movabs rax,0x233c3e6f729bb488
   8b32f:	3e 3c 23 
   8b332:	48 39 c7             	cmp    rdi,rax
   8b335:	0f 84 8d 40 00 00    	je     8f3c8 <Java_com_adjust_sdk_sig_NativeLibHelper_nOnResume@@Base-0x2b8db>
   8b33b:	48 b8 50 ea 03 3c 05 	movabs rax,0x261f23053c03ea50
   8b342:	23 1f 26 
   8b345:	48 39 c7             	cmp    rdi,rax
   8b348:	0f 84 42 78 00 00    	je     92b90 <Java_com_adjust_sdk_sig_NativeLibHelper_nOnResume@@Base-0x28113>
   8b34e:	48 b8 ec 99 57 54 86 	movabs rax,0x26565386545799ec
   8b355:	53 56 26 
   8b358:	48 39 c7             	cmp    rdi,rax
   8b35b:	0f 84 6f 6f 00 00    	je     922d0 <Java_com_adjust_sdk_sig_NativeLibHelper_nOnResume@@Base-0x289d3>
   8b361:	48 b8 30 c5 4c 07 35 	movabs rax,0x2761dd35074cc530
   8b368:	dd 61 27 
   8b36b:	48 39 c7             	cmp    rdi,rax
   8b36e:	0f 84 34 43 00 00    	je     8f6a8 <Java_com_adjust_sdk_sig_NativeLibHelper_nOnResume@@Base-0x2b5fb>
   8b374:	48 b8 6e 84 be 65 2d 	movabs rax,0x2b60a12d65be846e
   8b37b:	a1 60 2b 
   8b37e:	48 39 c7             	cmp    rdi,rax
   8b381:	0f 84 21 4f 00 00    	je     902a8 <Java_com_adjust_sdk_sig_NativeLibHelper_nOnResume@@Base-0x2a9fb>
   8b387:	48 8b 85 48 ff ff ff 	mov    rax,QWORD PTR [rbp-0xb8]
   8b38e:	48 89 85 58 ff ff ff 	mov    QWORD PTR [rbp-0xa8],rax
   8b395:	4c 8b 85 40 ff ff ff 	mov    r8,QWORD PTR [rbp-0xc0]
   8b39c:	4c 89 85 60 ff ff ff 	mov    QWORD PTR [rbp-0xa0],r8
   8b3a3:	4c 8b 95 30 ff ff ff 	mov    r10,QWORD PTR [rbp-0xd0]
   8b3aa:	4c 89 95 68 ff ff ff 	mov    QWORD PTR [rbp-0x98],r10
   8b3b1:	44 89 75 c8          	mov    DWORD PTR [rbp-0x38],r14d
   8b3b5:	44 8b 4d c4          	mov    r9d,DWORD PTR [rbp-0x3c]
   8b3b9:	44 89 4d cc          	mov    DWORD PTR [rbp-0x34],r9d
   8b3bd:	4c 8b bd 28 ff ff ff 	mov    r15,QWORD PTR [rbp-0xd8]
   8b3c4:	4c 89 bd 70 ff ff ff 	mov    QWORD PTR [rbp-0x90],r15
   8b3cb:	48 89 9d 78 ff ff ff 	mov    QWORD PTR [rbp-0x88],rbx
   8b3d2:	48 8b 85 50 ff ff ff 	mov    rax,QWORD PTR [rbp-0xb0]
   8b3d9:	48 89 45 80          	mov    QWORD PTR [rbp-0x80],rax
   8b3dd:	48 8b 9d 20 ff ff ff 	mov    rbx,QWORD PTR [rbp-0xe0]
   8b3e4:	48 89 5d 88          	mov    QWORD PTR [rbp-0x78],rbx
   8b3e8:	4c 8b ad 18 ff ff ff 	mov    r13,QWORD PTR [rbp-0xe8]
   8b3ef:	4c 89 6d 90          	mov    QWORD PTR [rbp-0x70],r13
   8b3f3:	4c 8b a5 08 ff ff ff 	mov    r12,QWORD PTR [rbp-0xf8]
   8b3fa:	4c 89 65 98          	mov    QWORD PTR [rbp-0x68],r12
   8b3fe:	48 8b b5 10 ff ff ff 	mov    rsi,QWORD PTR [rbp-0xf0]
   8b405:	48 89 75 a0          	mov    QWORD PTR [rbp-0x60],rsi
   8b409:	4c 89 5d a8          	mov    QWORD PTR [rbp-0x58],r11
   8b40d:	4c 89 d8             	mov    rax,r11
   8b410:	48 89 55 b0          	mov    QWORD PTR [rbp-0x50],rdx
   8b414:	48 8b 8d 38 ff ff ff 	mov    rcx,QWORD PTR [rbp-0xc8]
   8b41b:	48 89 4d b8          	mov    QWORD PTR [rbp-0x48],rcx
   8b41f:	48 ba eb 47 c1 ae 5f 	movabs rdx,0x8b9aaa5faec147eb
   8b426:	aa 9a 8b 
   8b429:	49 bb 4a 12 f1 9b c9 	movabs r11,0x2bc07cc99bf1124a
   8b430:	7c c0 2b 
   8b433:	4c 39 df             	cmp    rdi,r11
   8b436:	4c 89 c7             	mov    rdi,r8
   8b439:	4c 8b 85 48 ff ff ff 	mov    r8,QWORD PTR [rbp-0xb8]
   8b440:	0f 84 8c d0 ff ff    	je     884d2 <Java_com_adjust_sdk_sig_NativeLibHelper_nOnResume@@Base-0x327d1>
   8b446:	4c 89 85 58 ff ff ff 	mov    QWORD PTR [rbp-0xa8],r8
   8b44d:	48 89 bd 60 ff ff ff 	mov    QWORD PTR [rbp-0xa0],rdi
   8b454:	4c 89 95 68 ff ff ff 	mov    QWORD PTR [rbp-0x98],r10
   8b45b:	44 89 75 c8          	mov    DWORD PTR [rbp-0x38],r14d
   8b45f:	44 89 4d cc          	mov    DWORD PTR [rbp-0x34],r9d
   8b463:	4c 89 bd 70 ff ff ff 	mov    QWORD PTR [rbp-0x90],r15
   8b46a:	48 8b 95 f0 fe ff ff 	mov    rdx,QWORD PTR [rbp-0x110]
   8b471:	48 89 95 78 ff ff ff 	mov    QWORD PTR [rbp-0x88],rdx
   8b478:	48 8b 95 50 ff ff ff 	mov    rdx,QWORD PTR [rbp-0xb0]
   8b47f:	48 89 55 80          	mov    QWORD PTR [rbp-0x80],rdx
   8b483:	48 89 5d 88          	mov    QWORD PTR [rbp-0x78],rbx
   8b487:	4c 89 6d 90          	mov    QWORD PTR [rbp-0x70],r13
   8b48b:	4c 89 65 98          	mov    QWORD PTR [rbp-0x68],r12
   8b48f:	48 89 75 a0          	mov    QWORD PTR [rbp-0x60],rsi
   8b493:	48 89 45 a8          	mov    QWORD PTR [rbp-0x58],rax
   8b497:	48 8b 95 00 ff ff ff 	mov    rdx,QWORD PTR [rbp-0x100]
   8b49e:	48 89 55 b0          	mov    QWORD PTR [rbp-0x50],rdx
   8b4a2:	48 89 4d b8          	mov    QWORD PTR [rbp-0x48],rcx
   8b4a6:	48 ba 9d 53 22 37 d7 	movabs rdx,0xd483ead73722539d
   8b4ad:	ea 83 d4 
   8b4b0:	49 bb 24 36 e8 22 b2 	movabs r11,0x2c8080b222e83624
   8b4b7:	80 80 2c 
   8b4ba:	4c 39 9d e8 fe ff ff 	cmp    QWORD PTR [rbp-0x118],r11
   8b4c1:	0f 84 0b d0 ff ff    	je     884d2 <Java_com_adjust_sdk_sig_NativeLibHelper_nOnResume@@Base-0x327d1>
   8b4c7:	4c 89 85 58 ff ff ff 	mov    QWORD PTR [rbp-0xa8],r8
   8b4ce:	48 89 bd 60 ff ff ff 	mov    QWORD PTR [rbp-0xa0],rdi
   8b4d5:	4c 89 95 68 ff ff ff 	mov    QWORD PTR [rbp-0x98],r10
   8b4dc:	44 89 75 c8          	mov    DWORD PTR [rbp-0x38],r14d
   8b4e0:	44 89 4d cc          	mov    DWORD PTR [rbp-0x34],r9d
   8b4e4:	4c 89 bd 70 ff ff ff 	mov    QWORD PTR [rbp-0x90],r15
   8b4eb:	48 8b 95 f0 fe ff ff 	mov    rdx,QWORD PTR [rbp-0x110]
   8b4f2:	48 89 95 78 ff ff ff 	mov    QWORD PTR [rbp-0x88],rdx
   8b4f9:	48 8b 95 50 ff ff ff 	mov    rdx,QWORD PTR [rbp-0xb0]
   8b500:	48 89 55 80          	mov    QWORD PTR [rbp-0x80],rdx
   8b504:	48 89 5d 88          	mov    QWORD PTR [rbp-0x78],rbx
   8b508:	4c 89 6d 90          	mov    QWORD PTR [rbp-0x70],r13
   8b50c:	4c 89 65 98          	mov    QWORD PTR [rbp-0x68],r12
   8b510:	48 89 75 a0          	mov    QWORD PTR [rbp-0x60],rsi
   8b514:	48 89 45 a8          	mov    QWORD PTR [rbp-0x58],rax
   8b518:	48 8b 85 00 ff ff ff 	mov    rax,QWORD PTR [rbp-0x100]
   8b51f:	48 89 45 b0          	mov    QWORD PTR [rbp-0x50],rax
   8b523:	48 89 4d b8          	mov    QWORD PTR [rbp-0x48],rcx
   8b527:	48 ba cf f9 7c 23 4a 	movabs rdx,0xf3b0654a237cf9cf
   8b52e:	65 b0 f3 
   8b531:	49 bb 05 fb c8 5e 3c 	movabs r11,0x2ddb9c3c5ec8fb05
   8b538:	9c db 2d 
   8b53b:	4c 39 9d e8 fe ff ff 	cmp    QWORD PTR [rbp-0x118],r11
   8b542:	0f 84 8a cf ff ff    	je     884d2 <Java_com_adjust_sdk_sig_NativeLibHelper_nOnResume@@Base-0x327d1>
   8b548:	48 b8 b3 27 8f 63 d3 	movabs rax,0x2f096ad3638f27b3
   8b54f:	6a 09 2f 
   8b552:	4c 8b bd e8 fe ff ff 	mov    r15,QWORD PTR [rbp-0x118]
   8b559:	49 39 c7             	cmp    r15,rax
   8b55c:	0f 84 3b 61 00 00    	je     9169d <Java_com_adjust_sdk_sig_NativeLibHelper_nOnResume@@Base-0x29606>
   8b562:	48 b8 be 8f 92 43 d3 	movabs rax,0x2f0b86d343928fbe
   8b569:	86 0b 2f 
   8b56c:	49 39 c7             	cmp    r15,rax
   8b56f:	4c 8b 85 00 ff ff ff 	mov    r8,QWORD PTR [rbp-0x100]
   8b576:	48 8b bd f8 fe ff ff 	mov    rdi,QWORD PTR [rbp-0x108]
   8b57d:	48 8b b5 10 ff ff ff 	mov    rsi,QWORD PTR [rbp-0xf0]
   8b584:	48 8b 8d 08 ff ff ff 	mov    rcx,QWORD PTR [rbp-0xf8]
   8b58b:	4c 8b 8d 18 ff ff ff 	mov    r9,QWORD PTR [rbp-0xe8]
   8b592:	4c 8b 9d 20 ff ff ff 	mov    r11,QWORD PTR [rbp-0xe0]
   8b599:	48 8b 9d f0 fe ff ff 	mov    rbx,QWORD PTR [rbp-0x110]
   8b5a0:	44 8b 55 c0          	mov    r10d,DWORD PTR [rbp-0x40]
   8b5a4:	4c 8b b5 30 ff ff ff 	mov    r14,QWORD PTR [rbp-0xd0]
   8b5ab:	0f 84 e3 62 00 00    	je     91894 <Java_com_adjust_sdk_sig_NativeLibHelper_nOnResume@@Base-0x2940f>
   8b5b1:	48 8b 85 48 ff ff ff 	mov    rax,QWORD PTR [rbp-0xb8]
   8b5b8:	48 89 85 58 ff ff ff 	mov    QWORD PTR [rbp-0xa8],rax
   8b5bf:	48 8b 85 40 ff ff ff 	mov    rax,QWORD PTR [rbp-0xc0]
   8b5c6:	48 89 85 60 ff ff ff 	mov    QWORD PTR [rbp-0xa0],rax
   8b5cd:	4c 89 b5 68 ff ff ff 	mov    QWORD PTR [rbp-0x98],r14
   8b5d4:	44 89 55 c8          	mov    DWORD PTR [rbp-0x38],r10d
   8b5d8:	8b 45 c4             	mov    eax,DWORD PTR [rbp-0x3c]
   8b5db:	89 45 cc             	mov    DWORD PTR [rbp-0x34],eax
   8b5de:	48 8b 85 28 ff ff ff 	mov    rax,QWORD PTR [rbp-0xd8]
   8b5e5:	48 89 85 70 ff ff ff 	mov    QWORD PTR [rbp-0x90],rax
   8b5ec:	48 89 9d 78 ff ff ff 	mov    QWORD PTR [rbp-0x88],rbx
   8b5f3:	48 8b 85 50 ff ff ff 	mov    rax,QWORD PTR [rbp-0xb0]
   8b5fa:	48 89 45 80          	mov    QWORD PTR [rbp-0x80],rax
   8b5fe:	4c 89 5d 88          	mov    QWORD PTR [rbp-0x78],r11
   8b602:	4c 89 4d 90          	mov    QWORD PTR [rbp-0x70],r9
   8b606:	48 89 4d 98          	mov    QWORD PTR [rbp-0x68],rcx
   8b60a:	48 89 75 a0          	mov    QWORD PTR [rbp-0x60],rsi
   8b60e:	48 89 7d a8          	mov    QWORD PTR [rbp-0x58],rdi
   8b612:	4c 89 45 b0          	mov    QWORD PTR [rbp-0x50],r8
   8b616:	48 8b 85 38 ff ff ff 	mov    rax,QWORD PTR [rbp-0xc8]
   8b61d:	48 89 45 b8          	mov    QWORD PTR [rbp-0x48],rax
   8b621:	48 ba ec df c8 4d 10 	movabs rdx,0x7a9f83104dc8dfec
   8b628:	83 9f 7a 
   8b62b:	49 bb cc f1 79 49 7f 	movabs r11,0x3161e07f4979f1cc
   8b632:	e0 61 31 
   8b635:	4d 39 df             	cmp    r15,r11
   8b638:	0f 84 94 ce ff ff    	je     884d2 <Java_com_adjust_sdk_sig_NativeLibHelper_nOnResume@@Base-0x327d1>
   8b63e:	48 b8 a3 41 a2 27 84 	movabs rax,0x3199538427a241a3
   8b645:	53 99 31 
   8b648:	48 8b 8d e8 fe ff ff 	mov    rcx,QWORD PTR [rbp-0x118]
   8b64f:	48 39 c1             	cmp    rcx,rax
   8b652:	0f 84 d4 2f 00 00    	je     8e62c <Java_com_adjust_sdk_sig_NativeLibHelper_nOnResume@@Base-0x2c677>
   8b658:	48 8b 85 48 ff ff ff 	mov    rax,QWORD PTR [rbp-0xb8]
   8b65f:	48 89 85 58 ff ff ff 	mov    QWORD PTR [rbp-0xa8],rax
   8b666:	48 8b 85 40 ff ff ff 	mov    rax,QWORD PTR [rbp-0xc0]
   8b66d:	48 89 85 60 ff ff ff 	mov    QWORD PTR [rbp-0xa0],rax
   8b674:	48 8b 85 30 ff ff ff 	mov    rax,QWORD PTR [rbp-0xd0]
   8b67b:	48 89 85 68 ff ff ff 	mov    QWORD PTR [rbp-0x98],rax
   8b682:	8b 45 c0             	mov    eax,DWORD PTR [rbp-0x40]
   8b685:	89 45 c8             	mov    DWORD PTR [rbp-0x38],eax
   8b688:	8b 45 c4             	mov    eax,DWORD PTR [rbp-0x3c]
   8b68b:	89 45 cc             	mov    DWORD PTR [rbp-0x34],eax
   8b68e:	48 8b 85 28 ff ff ff 	mov    rax,QWORD PTR [rbp-0xd8]
   8b695:	48 89 85 70 ff ff ff 	mov    QWORD PTR [rbp-0x90],rax
   8b69c:	48 8b 85 f0 fe ff ff 	mov    rax,QWORD PTR [rbp-0x110]
   8b6a3:	48 89 85 78 ff ff ff 	mov    QWORD PTR [rbp-0x88],rax
   8b6aa:	48 8b 85 50 ff ff ff 	mov    rax,QWORD PTR [rbp-0xb0]
   8b6b1:	48 89 45 80          	mov    QWORD PTR [rbp-0x80],rax
   8b6b5:	48 8b 85 20 ff ff ff 	mov    rax,QWORD PTR [rbp-0xe0]
   8b6bc:	48 89 45 88          	mov    QWORD PTR [rbp-0x78],rax
   8b6c0:	48 8b 85 18 ff ff ff 	mov    rax,QWORD PTR [rbp-0xe8]
   8b6c7:	48 89 45 90          	mov    QWORD PTR [rbp-0x70],rax
   8b6cb:	48 8b 85 08 ff ff ff 	mov    rax,QWORD PTR [rbp-0xf8]
   8b6d2:	48 89 45 98          	mov    QWORD PTR [rbp-0x68],rax
   8b6d6:	48 8b 85 10 ff ff ff 	mov    rax,QWORD PTR [rbp-0xf0]
   8b6dd:	48 89 45 a0          	mov    QWORD PTR [rbp-0x60],rax
   8b6e1:	48 8b 85 f8 fe ff ff 	mov    rax,QWORD PTR [rbp-0x108]
   8b6e8:	48 89 45 a8          	mov    QWORD PTR [rbp-0x58],rax
   8b6ec:	48 8b 85 00 ff ff ff 	mov    rax,QWORD PTR [rbp-0x100]
   8b6f3:	48 89 45 b0          	mov    QWORD PTR [rbp-0x50],rax
   8b6f7:	48 8b 85 38 ff ff ff 	mov    rax,QWORD PTR [rbp-0xc8]
   8b6fe:	48 89 45 b8          	mov    QWORD PTR [rbp-0x48],rax
   8b702:	48 ba 76 e9 b2 3e f7 	movabs rdx,0xef472af73eb2e976
   8b709:	2a 47 ef 
   8b70c:	49 bb a4 9e 66 f8 10 	movabs r11,0x31c17410f8669ea4
   8b713:	74 c1 31 
   8b716:	4c 39 d9             	cmp    rcx,r11
   8b719:	0f 84 b3 cd ff ff    	je     884d2 <Java_com_adjust_sdk_sig_NativeLibHelper_nOnResume@@Base-0x327d1>
   8b71f:	48 b8 37 f7 64 1e 61 	movabs rax,0x31d52a611e64f737
   8b726:	2a d5 31 
   8b729:	48 8b 8d e8 fe ff ff 	mov    rcx,QWORD PTR [rbp-0x118]
   8b730:	48 39 c1             	cmp    rcx,rax
   8b733:	0f 84 e2 2e 00 00    	je     8e61b <Java_com_adjust_sdk_sig_NativeLibHelper_nOnResume@@Base-0x2c688>
   8b739:	48 b8 79 80 6f ca bb 	movabs rax,0x31e27cbbca6f8079
   8b740:	7c e2 31 
   8b743:	48 39 c1             	cmp    rcx,rax
   8b746:	4c 8b b5 f8 fe ff ff 	mov    r14,QWORD PTR [rbp-0x108]
   8b74d:	48 8b 9d f0 fe ff ff 	mov    rbx,QWORD PTR [rbp-0x110]
   8b754:	0f 84 5b 30 00 00    	je     8e7b5 <Java_com_adjust_sdk_sig_NativeLibHelper_nOnResume@@Base-0x2c4ee>
   8b75a:	48 b8 0d 16 7a c8 a1 	movabs rax,0x330abea1c87a160d
   8b761:	be 0a 33 
   8b764:	48 39 c1             	cmp    rcx,rax
   8b767:	0f 84 20 43 00 00    	je     8fa8d <Java_com_adjust_sdk_sig_NativeLibHelper_nOnResume@@Base-0x2b216>
   8b76d:	48 8b 85 48 ff ff ff 	mov    rax,QWORD PTR [rbp-0xb8]
   8b774:	48 89 85 58 ff ff ff 	mov    QWORD PTR [rbp-0xa8],rax
   8b77b:	48 8b 85 40 ff ff ff 	mov    rax,QWORD PTR [rbp-0xc0]
   8b782:	48 89 85 60 ff ff ff 	mov    QWORD PTR [rbp-0xa0],rax
   8b789:	48 8b 85 30 ff ff ff 	mov    rax,QWORD PTR [rbp-0xd0]
   8b790:	48 89 85 68 ff ff ff 	mov    QWORD PTR [rbp-0x98],rax
   8b797:	8b 45 c0             	mov    eax,DWORD PTR [rbp-0x40]
   8b79a:	89 45 c8             	mov    DWORD PTR [rbp-0x38],eax
   8b79d:	8b 45 c4             	mov    eax,DWORD PTR [rbp-0x3c]
   8b7a0:	89 45 cc             	mov    DWORD PTR [rbp-0x34],eax
   8b7a3:	48 8b 85 28 ff ff ff 	mov    rax,QWORD PTR [rbp-0xd8]
   8b7aa:	48 89 85 70 ff ff ff 	mov    QWORD PTR [rbp-0x90],rax
   8b7b1:	48 89 9d 78 ff ff ff 	mov    QWORD PTR [rbp-0x88],rbx
   8b7b8:	48 8b 85 50 ff ff ff 	mov    rax,QWORD PTR [rbp-0xb0]
   8b7bf:	48 89 45 80          	mov    QWORD PTR [rbp-0x80],rax
   8b7c3:	48 8b 85 20 ff ff ff 	mov    rax,QWORD PTR [rbp-0xe0]
   8b7ca:	48 89 45 88          	mov    QWORD PTR [rbp-0x78],rax
   8b7ce:	48 8b 85 18 ff ff ff 	mov    rax,QWORD PTR [rbp-0xe8]
   8b7d5:	48 89 45 90          	mov    QWORD PTR [rbp-0x70],rax
   8b7d9:	48 8b 85 08 ff ff ff 	mov    rax,QWORD PTR [rbp-0xf8]
   8b7e0:	48 89 45 98          	mov    QWORD PTR [rbp-0x68],rax
   8b7e4:	48 8b 85 10 ff ff ff 	mov    rax,QWORD PTR [rbp-0xf0]
   8b7eb:	48 89 45 a0          	mov    QWORD PTR [rbp-0x60],rax
   8b7ef:	4c 89 75 a8          	mov    QWORD PTR [rbp-0x58],r14
   8b7f3:	48 8b 85 00 ff ff ff 	mov    rax,QWORD PTR [rbp-0x100]
   8b7fa:	48 89 45 b0          	mov    QWORD PTR [rbp-0x50],rax
   8b7fe:	48 8b 85 38 ff ff ff 	mov    rax,QWORD PTR [rbp-0xc8]
   8b805:	48 89 45 b8          	mov    QWORD PTR [rbp-0x48],rax
   8b809:	48 ba e9 6a dc c0 35 	movabs rdx,0xd461c435c0dc6ae9
   8b810:	c4 61 d4 
   8b813:	49 bb 72 c3 f3 39 ec 	movabs r11,0x370ee1ec39f3c372
   8b81a:	e1 0e 37 
   8b81d:	4c 39 d9             	cmp    rcx,r11
   8b820:	0f 84 ac cc ff ff    	je     884d2 <Java_com_adjust_sdk_sig_NativeLibHelper_nOnResume@@Base-0x327d1>
   8b826:	48 b8 5c 07 15 0e 07 	movabs rax,0x376494070e15075c
   8b82d:	94 64 37 
   8b830:	4c 8b 8d e8 fe ff ff 	mov    r9,QWORD PTR [rbp-0x118]
   8b837:	49 39 c1             	cmp    r9,rax
   8b83a:	0f 84 04 5a 00 00    	je     91244 <Java_com_adjust_sdk_sig_NativeLibHelper_nOnResume@@Base-0x29a5f>
   8b840:	48 8b 85 48 ff ff ff 	mov    rax,QWORD PTR [rbp-0xb8]
   8b847:	48 89 85 58 ff ff ff 	mov    QWORD PTR [rbp-0xa8],rax
   8b84e:	48 8b 85 40 ff ff ff 	mov    rax,QWORD PTR [rbp-0xc0]
   8b855:	48 89 85 60 ff ff ff 	mov    QWORD PTR [rbp-0xa0],rax
   8b85c:	48 8b 85 30 ff ff ff 	mov    rax,QWORD PTR [rbp-0xd0]
   8b863:	48 89 85 68 ff ff ff 	mov    QWORD PTR [rbp-0x98],rax
   8b86a:	8b 75 c0             	mov    esi,DWORD PTR [rbp-0x40]
   8b86d:	89 75 c8             	mov    DWORD PTR [rbp-0x38],esi
   8b870:	8b 4d c4             	mov    ecx,DWORD PTR [rbp-0x3c]
   8b873:	89 4d cc             	mov    DWORD PTR [rbp-0x34],ecx
   8b876:	4c 8b ad 28 ff ff ff 	mov    r13,QWORD PTR [rbp-0xd8]
   8b87d:	4c 89 ad 70 ff ff ff 	mov    QWORD PTR [rbp-0x90],r13
   8b884:	4c 8b a5 f0 fe ff ff 	mov    r12,QWORD PTR [rbp-0x110]
   8b88b:	4c 89 a5 78 ff ff ff 	mov    QWORD PTR [rbp-0x88],r12
   8b892:	48 8b 85 50 ff ff ff 	mov    rax,QWORD PTR [rbp-0xb0]
   8b899:	48 89 45 80          	mov    QWORD PTR [rbp-0x80],rax
   8b89d:	4c 8b bd 20 ff ff ff 	mov    r15,QWORD PTR [rbp-0xe0]
   8b8a4:	4c 89 7d 88          	mov    QWORD PTR [rbp-0x78],r15
   8b8a8:	4c 8b b5 18 ff ff ff 	mov    r14,QWORD PTR [rbp-0xe8]
   8b8af:	4c 89 75 90          	mov    QWORD PTR [rbp-0x70],r14
   8b8b3:	48 8b 9d 08 ff ff ff 	mov    rbx,QWORD PTR [rbp-0xf8]
   8b8ba:	48 89 5d 98          	mov    QWORD PTR [rbp-0x68],rbx
   8b8be:	4c 8b 95 10 ff ff ff 	mov    r10,QWORD PTR [rbp-0xf0]
   8b8c5:	4c 89 55 a0          	mov    QWORD PTR [rbp-0x60],r10
   8b8c9:	4c 8b 85 f8 fe ff ff 	mov    r8,QWORD PTR [rbp-0x108]
   8b8d0:	4c 89 45 a8          	mov    QWORD PTR [rbp-0x58],r8
   8b8d4:	48 8b bd 00 ff ff ff 	mov    rdi,QWORD PTR [rbp-0x100]
   8b8db:	48 89 7d b0          	mov    QWORD PTR [rbp-0x50],rdi
   8b8df:	48 8b 85 38 ff ff ff 	mov    rax,QWORD PTR [rbp-0xc8]
   8b8e6:	48 89 45 b8          	mov    QWORD PTR [rbp-0x48],rax
   8b8ea:	48 ba 5b aa c1 31 b9 	movabs rdx,0x9bb834b931c1aa5b
   8b8f1:	34 b8 9b 
   8b8f4:	49 bb 99 6c a8 10 68 	movabs r11,0x3a1b636810a86c99
   8b8fb:	63 1b 3a 
   8b8fe:	4d 39 d9             	cmp    r9,r11
   8b901:	0f 84 cb cb ff ff    	je     884d2 <Java_com_adjust_sdk_sig_NativeLibHelper_nOnResume@@Base-0x327d1>
   8b907:	48 8b 95 48 ff ff ff 	mov    rdx,QWORD PTR [rbp-0xb8]
   8b90e:	48 89 95 58 ff ff ff 	mov    QWORD PTR [rbp-0xa8],rdx
   8b915:	48 8b 95 40 ff ff ff 	mov    rdx,QWORD PTR [rbp-0xc0]
   8b91c:	48 89 95 60 ff ff ff 	mov    QWORD PTR [rbp-0xa0],rdx
   8b923:	48 8b 95 30 ff ff ff 	mov    rdx,QWORD PTR [rbp-0xd0]
   8b92a:	48 89 95 68 ff ff ff 	mov    QWORD PTR [rbp-0x98],rdx
   8b931:	89 75 c8             	mov    DWORD PTR [rbp-0x38],esi
   8b934:	89 4d cc             	mov    DWORD PTR [rbp-0x34],ecx
   8b937:	4c 89 ad 70 ff ff ff 	mov    QWORD PTR [rbp-0x90],r13
   8b93e:	4c 89 a5 78 ff ff ff 	mov    QWORD PTR [rbp-0x88],r12
   8b945:	48 8b 95 50 ff ff ff 	mov    rdx,QWORD PTR [rbp-0xb0]
   8b94c:	48 89 55 80          	mov    QWORD PTR [rbp-0x80],rdx
   8b950:	4c 89 7d 88          	mov    QWORD PTR [rbp-0x78],r15
   8b954:	4c 89 75 90          	mov    QWORD PTR [rbp-0x70],r14
   8b958:	48 89 5d 98          	mov    QWORD PTR [rbp-0x68],rbx
   8b95c:	4c 89 55 a0          	mov    QWORD PTR [rbp-0x60],r10
   8b960:	4c 89 45 a8          	mov    QWORD PTR [rbp-0x58],r8
   8b964:	48 89 7d b0          	mov    QWORD PTR [rbp-0x50],rdi
   8b968:	48 89 45 b8          	mov    QWORD PTR [rbp-0x48],rax
   8b96c:	48 ba 1b d4 04 76 32 	movabs rdx,0xbfb923327604d41b
   8b973:	23 b9 bf 
   8b976:	49 bb ae f9 2b 2c 93 	movabs r11,0x3a87eb932c2bf9ae
   8b97d:	eb 87 3a 
   8b980:	4c 39 9d e8 fe ff ff 	cmp    QWORD PTR [rbp-0x118],r11
   8b987:	0f 84 45 cb ff ff    	je     884d2 <Java_com_adjust_sdk_sig_NativeLibHelper_nOnResume@@Base-0x327d1>
   8b98d:	48 8b 95 48 ff ff ff 	mov    rdx,QWORD PTR [rbp-0xb8]
   8b994:	48 89 95 58 ff ff ff 	mov    QWORD PTR [rbp-0xa8],rdx
   8b99b:	48 8b 95 40 ff ff ff 	mov    rdx,QWORD PTR [rbp-0xc0]
   8b9a2:	48 89 95 60 ff ff ff 	mov    QWORD PTR [rbp-0xa0],rdx
   8b9a9:	48 8b 95 30 ff ff ff 	mov    rdx,QWORD PTR [rbp-0xd0]
   8b9b0:	48 89 95 68 ff ff ff 	mov    QWORD PTR [rbp-0x98],rdx
   8b9b7:	89 75 c8             	mov    DWORD PTR [rbp-0x38],esi
   8b9ba:	89 4d cc             	mov    DWORD PTR [rbp-0x34],ecx
   8b9bd:	4c 89 ad 70 ff ff ff 	mov    QWORD PTR [rbp-0x90],r13
   8b9c4:	4c 89 a5 78 ff ff ff 	mov    QWORD PTR [rbp-0x88],r12
   8b9cb:	48 8b 95 50 ff ff ff 	mov    rdx,QWORD PTR [rbp-0xb0]
   8b9d2:	48 89 55 80          	mov    QWORD PTR [rbp-0x80],rdx
   8b9d6:	4c 89 7d 88          	mov    QWORD PTR [rbp-0x78],r15
   8b9da:	4c 89 75 90          	mov    QWORD PTR [rbp-0x70],r14
   8b9de:	48 89 5d 98          	mov    QWORD PTR [rbp-0x68],rbx
   8b9e2:	4c 89 55 a0          	mov    QWORD PTR [rbp-0x60],r10
   8b9e6:	4c 89 45 a8          	mov    QWORD PTR [rbp-0x58],r8
   8b9ea:	48 89 7d b0          	mov    QWORD PTR [rbp-0x50],rdi
   8b9ee:	48 89 45 b8          	mov    QWORD PTR [rbp-0x48],rax
   8b9f2:	48 ba 50 ea 03 3c 05 	movabs rdx,0x261f23053c03ea50
   8b9f9:	23 1f 26 
   8b9fc:	49 bb 93 ad 0c e0 f4 	movabs r11,0x3c4fbff4e00cad93
   8ba03:	bf 4f 3c 
   8ba06:	4c 39 9d e8 fe ff ff 	cmp    QWORD PTR [rbp-0x118],r11
   8ba0d:	0f 84 bf ca ff ff    	je     884d2 <Java_com_adjust_sdk_sig_NativeLibHelper_nOnResume@@Base-0x327d1>
   8ba13:	48 8b 95 48 ff ff ff 	mov    rdx,QWORD PTR [rbp-0xb8]
   8ba1a:	48 89 95 58 ff ff ff 	mov    QWORD PTR [rbp-0xa8],rdx
   8ba21:	48 8b 95 40 ff ff ff 	mov    rdx,QWORD PTR [rbp-0xc0]
   8ba28:	48 89 95 60 ff ff ff 	mov    QWORD PTR [rbp-0xa0],rdx
   8ba2f:	48 8b 95 30 ff ff ff 	mov    rdx,QWORD PTR [rbp-0xd0]
   8ba36:	48 89 95 68 ff ff ff 	mov    QWORD PTR [rbp-0x98],rdx
   8ba3d:	89 75 c8             	mov    DWORD PTR [rbp-0x38],esi
   8ba40:	89 4d cc             	mov    DWORD PTR [rbp-0x34],ecx
   8ba43:	4c 89 ad 70 ff ff ff 	mov    QWORD PTR [rbp-0x90],r13
   8ba4a:	4c 89 a5 78 ff ff ff 	mov    QWORD PTR [rbp-0x88],r12
   8ba51:	48 8b 95 50 ff ff ff 	mov    rdx,QWORD PTR [rbp-0xb0]
   8ba58:	48 89 55 80          	mov    QWORD PTR [rbp-0x80],rdx
   8ba5c:	4c 89 7d 88          	mov    QWORD PTR [rbp-0x78],r15
   8ba60:	4c 89 75 90          	mov    QWORD PTR [rbp-0x70],r14
   8ba64:	48 89 5d 98          	mov    QWORD PTR [rbp-0x68],rbx
   8ba68:	4c 89 55 a0          	mov    QWORD PTR [rbp-0x60],r10
   8ba6c:	4c 89 45 a8          	mov    QWORD PTR [rbp-0x58],r8
   8ba70:	48 89 7d b0          	mov    QWORD PTR [rbp-0x50],rdi
   8ba74:	48 89 45 b8          	mov    QWORD PTR [rbp-0x48],rax
   8ba78:	48 ba 79 80 6f ca bb 	movabs rdx,0x31e27cbbca6f8079
   8ba7f:	7c e2 31 
   8ba82:	49 bb 31 25 5c e3 c8 	movabs r11,0x3d5ad7c8e35c2531
   8ba89:	d7 5a 3d 
   8ba8c:	4c 39 9d e8 fe ff ff 	cmp    QWORD PTR [rbp-0x118],r11
   8ba93:	0f 84 39 ca ff ff    	je     884d2 <Java_com_adjust_sdk_sig_NativeLibHelper_nOnResume@@Base-0x327d1>
   8ba99:	48 8b 95 48 ff ff ff 	mov    rdx,QWORD PTR [rbp-0xb8]
   8baa0:	48 89 95 58 ff ff ff 	mov    QWORD PTR [rbp-0xa8],rdx
   8baa7:	48 8b 95 40 ff ff ff 	mov    rdx,QWORD PTR [rbp-0xc0]
   8baae:	48 89 95 60 ff ff ff 	mov    QWORD PTR [rbp-0xa0],rdx
   8bab5:	48 8b 95 30 ff ff ff 	mov    rdx,QWORD PTR [rbp-0xd0]
   8babc:	48 89 95 68 ff ff ff 	mov    QWORD PTR [rbp-0x98],rdx
   8bac3:	89 75 c8             	mov    DWORD PTR [rbp-0x38],esi
   8bac6:	89 4d cc             	mov    DWORD PTR [rbp-0x34],ecx
   8bac9:	4c 89 ad 70 ff ff ff 	mov    QWORD PTR [rbp-0x90],r13
   8bad0:	4c 89 a5 78 ff ff ff 	mov    QWORD PTR [rbp-0x88],r12
   8bad7:	48 8b 95 50 ff ff ff 	mov    rdx,QWORD PTR [rbp-0xb0]
   8bade:	48 89 55 80          	mov    QWORD PTR [rbp-0x80],rdx
   8bae2:	4c 89 7d 88          	mov    QWORD PTR [rbp-0x78],r15
   8bae6:	4c 89 75 90          	mov    QWORD PTR [rbp-0x70],r14
   8baea:	48 89 5d 98          	mov    QWORD PTR [rbp-0x68],rbx
   8baee:	4c 89 55 a0          	mov    QWORD PTR [rbp-0x60],r10
   8baf2:	4c 89 45 a8          	mov    QWORD PTR [rbp-0x58],r8
   8baf6:	48 89 7d b0          	mov    QWORD PTR [rbp-0x50],rdi
   8bafa:	48 89 45 b8          	mov    QWORD PTR [rbp-0x48],rax
   8bafe:	48 ba 2e a6 22 03 d0 	movabs rdx,0xa32344d00322a62e
   8bb05:	44 23 a3 
   8bb08:	49 bb 60 1f 39 67 64 	movabs r11,0x3e09f96467391f60
   8bb0f:	f9 09 3e 
   8bb12:	4c 39 9d e8 fe ff ff 	cmp    QWORD PTR [rbp-0x118],r11
   8bb19:	0f 84 b3 c9 ff ff    	je     884d2 <Java_com_adjust_sdk_sig_NativeLibHelper_nOnResume@@Base-0x327d1>
   8bb1f:	48 8b 95 48 ff ff ff 	mov    rdx,QWORD PTR [rbp-0xb8]
   8bb26:	48 89 95 58 ff ff ff 	mov    QWORD PTR [rbp-0xa8],rdx
   8bb2d:	48 8b 95 40 ff ff ff 	mov    rdx,QWORD PTR [rbp-0xc0]
   8bb34:	48 89 95 60 ff ff ff 	mov    QWORD PTR [rbp-0xa0],rdx
   8bb3b:	48 8b 95 30 ff ff ff 	mov    rdx,QWORD PTR [rbp-0xd0]
   8bb42:	48 89 95 68 ff ff ff 	mov    QWORD PTR [rbp-0x98],rdx
   8bb49:	89 75 c8             	mov    DWORD PTR [rbp-0x38],esi
   8bb4c:	89 4d cc             	mov    DWORD PTR [rbp-0x34],ecx
   8bb4f:	4c 89 ad 70 ff ff ff 	mov    QWORD PTR [rbp-0x90],r13
   8bb56:	4c 89 a5 78 ff ff ff 	mov    QWORD PTR [rbp-0x88],r12
   8bb5d:	48 8b 95 50 ff ff ff 	mov    rdx,QWORD PTR [rbp-0xb0]
   8bb64:	48 89 55 80          	mov    QWORD PTR [rbp-0x80],rdx
   8bb68:	4c 89 7d 88          	mov    QWORD PTR [rbp-0x78],r15
   8bb6c:	48 8b 95 18 fa ff ff 	mov    rdx,QWORD PTR [rbp-0x5e8]
   8bb73:	48 89 55 90          	mov    QWORD PTR [rbp-0x70],rdx
   8bb77:	48 89 5d 98          	mov    QWORD PTR [rbp-0x68],rbx
   8bb7b:	4c 89 55 a0          	mov    QWORD PTR [rbp-0x60],r10
   8bb7f:	4c 89 45 a8          	mov    QWORD PTR [rbp-0x58],r8
   8bb83:	48 89 7d b0          	mov    QWORD PTR [rbp-0x50],rdi
   8bb87:	48 89 45 b8          	mov    QWORD PTR [rbp-0x48],rax
   8bb8b:	48 ba 1b e3 c3 9c e3 	movabs rdx,0x7c530e39cc3e31b
   8bb92:	30 c5 07 
   8bb95:	49 bb 7f 58 fa 6d a4 	movabs r11,0x3f6f5fa46dfa587f
   8bb9c:	5f 6f 3f 
   8bb9f:	4c 39 9d e8 fe ff ff 	cmp    QWORD PTR [rbp-0x118],r11
   8bba6:	0f 84 26 c9 ff ff    	je     884d2 <Java_com_adjust_sdk_sig_NativeLibHelper_nOnResume@@Base-0x327d1>
   8bbac:	48 8b 95 48 ff ff ff 	mov    rdx,QWORD PTR [rbp-0xb8]
   8bbb3:	48 89 95 58 ff ff ff 	mov    QWORD PTR [rbp-0xa8],rdx
   8bbba:	48 8b 95 40 ff ff ff 	mov    rdx,QWORD PTR [rbp-0xc0]
   8bbc1:	48 89 95 60 ff ff ff 	mov    QWORD PTR [rbp-0xa0],rdx
   8bbc8:	48 8b 95 30 ff ff ff 	mov    rdx,QWORD PTR [rbp-0xd0]
   8bbcf:	48 89 95 68 ff ff ff 	mov    QWORD PTR [rbp-0x98],rdx
   8bbd6:	89 75 c8             	mov    DWORD PTR [rbp-0x38],esi
   8bbd9:	89 4d cc             	mov    DWORD PTR [rbp-0x34],ecx
   8bbdc:	4c 89 ad 70 ff ff ff 	mov    QWORD PTR [rbp-0x90],r13
   8bbe3:	4c 89 a5 78 ff ff ff 	mov    QWORD PTR [rbp-0x88],r12
   8bbea:	48 8b 95 50 ff ff ff 	mov    rdx,QWORD PTR [rbp-0xb0]
   8bbf1:	48 89 55 80          	mov    QWORD PTR [rbp-0x80],rdx
   8bbf5:	4c 89 7d 88          	mov    QWORD PTR [rbp-0x78],r15
   8bbf9:	4c 89 75 90          	mov    QWORD PTR [rbp-0x70],r14
   8bbfd:	48 89 5d 98          	mov    QWORD PTR [rbp-0x68],rbx
   8bc01:	4c 89 55 a0          	mov    QWORD PTR [rbp-0x60],r10
   8bc05:	4c 89 45 a8          	mov    QWORD PTR [rbp-0x58],r8
   8bc09:	48 89 7d b0          	mov    QWORD PTR [rbp-0x50],rdi
   8bc0d:	48 89 45 b8          	mov    QWORD PTR [rbp-0x48],rax
   8bc11:	48 ba b2 be 30 95 b5 	movabs rdx,0x73db4fb59530beb2
   8bc18:	4f db 73 
   8bc1b:	49 bb a9 b2 2e 4f 50 	movabs r11,0x4100c8504f2eb2a9
   8bc22:	c8 00 41 
   8bc25:	4c 39 9d e8 fe ff ff 	cmp    QWORD PTR [rbp-0x118],r11
   8bc2c:	0f 84 a0 c8 ff ff    	je     884d2 <Java_com_adjust_sdk_sig_NativeLibHelper_nOnResume@@Base-0x327d1>
   8bc32:	48 b8 7d 16 ed d8 4b 	movabs rax,0x416be64bd8ed167d
   8bc39:	e6 6b 41 
   8bc3c:	48 8b 95 e8 fe ff ff 	mov    rdx,QWORD PTR [rbp-0x118]
   8bc43:	48 39 c2             	cmp    rdx,rax
   8bc46:	0f 84 9c 36 00 00    	je     8f2e8 <Java_com_adjust_sdk_sig_NativeLibHelper_nOnResume@@Base-0x2b9bb>
   8bc4c:	48 8b b5 48 ff ff ff 	mov    rsi,QWORD PTR [rbp-0xb8]
   8bc53:	48 89 b5 58 ff ff ff 	mov    QWORD PTR [rbp-0xa8],rsi
   8bc5a:	48 8b 8d 40 ff ff ff 	mov    rcx,QWORD PTR [rbp-0xc0]
   8bc61:	48 89 8d 60 ff ff ff 	mov    QWORD PTR [rbp-0xa0],rcx
   8bc68:	4c 8b 95 30 ff ff ff 	mov    r10,QWORD PTR [rbp-0xd0]
   8bc6f:	4c 89 95 68 ff ff ff 	mov    QWORD PTR [rbp-0x98],r10
   8bc76:	8b 45 c0             	mov    eax,DWORD PTR [rbp-0x40]
   8bc79:	89 45 c8             	mov    DWORD PTR [rbp-0x38],eax
   8bc7c:	44 8b 75 c4          	mov    r14d,DWORD PTR [rbp-0x3c]
   8bc80:	44 89 75 cc          	mov    DWORD PTR [rbp-0x34],r14d
   8bc84:	4c 8b bd 28 ff ff ff 	mov    r15,QWORD PTR [rbp-0xd8]
   8bc8b:	4c 89 bd 70 ff ff ff 	mov    QWORD PTR [rbp-0x90],r15
   8bc92:	4c 8b ad f0 fe ff ff 	mov    r13,QWORD PTR [rbp-0x110]
   8bc99:	4c 89 ad 78 ff ff ff 	mov    QWORD PTR [rbp-0x88],r13
   8bca0:	48 8b 85 50 ff ff ff 	mov    rax,QWORD PTR [rbp-0xb0]
   8bca7:	48 89 45 80          	mov    QWORD PTR [rbp-0x80],rax
   8bcab:	4c 8b a5 20 ff ff ff 	mov    r12,QWORD PTR [rbp-0xe0]
   8bcb2:	4c 89 65 88          	mov    QWORD PTR [rbp-0x78],r12
   8bcb6:	48 8b 9d 18 ff ff ff 	mov    rbx,QWORD PTR [rbp-0xe8]
   8bcbd:	48 89 5d 90          	mov    QWORD PTR [rbp-0x70],rbx
   8bcc1:	48 8b 85 08 ff ff ff 	mov    rax,QWORD PTR [rbp-0xf8]
   8bcc8:	48 89 45 98          	mov    QWORD PTR [rbp-0x68],rax
   8bccc:	4c 8b 8d 10 ff ff ff 	mov    r9,QWORD PTR [rbp-0xf0]
   8bcd3:	4c 89 4d a0          	mov    QWORD PTR [rbp-0x60],r9
   8bcd7:	48 8b bd f8 fe ff ff 	mov    rdi,QWORD PTR [rbp-0x108]
   8bcde:	48 89 7d a8          	mov    QWORD PTR [rbp-0x58],rdi
   8bce2:	4c 8b 85 00 ff ff ff 	mov    r8,QWORD PTR [rbp-0x100]
   8bce9:	4c 89 45 b0          	mov    QWORD PTR [rbp-0x50],r8
   8bced:	48 8b 85 38 ff ff ff 	mov    rax,QWORD PTR [rbp-0xc8]
   8bcf4:	48 89 45 b8          	mov    QWORD PTR [rbp-0x48],rax
   8bcf8:	48 ba 1b d4 04 76 32 	movabs rdx,0xbfb923327604d41b
   8bcff:	23 b9 bf 
   8bd02:	49 bb 15 43 a9 74 4d 	movabs r11,0x4248ed4d74a94315
   8bd09:	ed 48 42 
   8bd0c:	4c 39 9d e8 fe ff ff 	cmp    QWORD PTR [rbp-0x118],r11
   8bd13:	0f 84 b9 c7 ff ff    	je     884d2 <Java_com_adjust_sdk_sig_NativeLibHelper_nOnResume@@Base-0x327d1>
   8bd19:	48 89 b5 58 ff ff ff 	mov    QWORD PTR [rbp-0xa8],rsi
   8bd20:	48 89 8d 60 ff ff ff 	mov    QWORD PTR [rbp-0xa0],rcx
   8bd27:	4c 89 95 68 ff ff ff 	mov    QWORD PTR [rbp-0x98],r10
   8bd2e:	8b 4d c0             	mov    ecx,DWORD PTR [rbp-0x40]
   8bd31:	89 4d c8             	mov    DWORD PTR [rbp-0x38],ecx
   8bd34:	44 89 75 cc          	mov    DWORD PTR [rbp-0x34],r14d
   8bd38:	4c 89 bd 70 ff ff ff 	mov    QWORD PTR [rbp-0x90],r15
   8bd3f:	4c 89 ad 78 ff ff ff 	mov    QWORD PTR [rbp-0x88],r13
   8bd46:	48 8b 95 50 ff ff ff 	mov    rdx,QWORD PTR [rbp-0xb0]
   8bd4d:	48 89 55 80          	mov    QWORD PTR [rbp-0x80],rdx
   8bd51:	4c 89 65 88          	mov    QWORD PTR [rbp-0x78],r12
   8bd55:	48 89 5d 90          	mov    QWORD PTR [rbp-0x70],rbx
   8bd59:	48 8b 8d 08 ff ff ff 	mov    rcx,QWORD PTR [rbp-0xf8]
   8bd60:	48 89 4d 98          	mov    QWORD PTR [rbp-0x68],rcx
   8bd64:	4c 89 4d a0          	mov    QWORD PTR [rbp-0x60],r9
   8bd68:	48 89 7d a8          	mov    QWORD PTR [rbp-0x58],rdi
   8bd6c:	4c 89 45 b0          	mov    QWORD PTR [rbp-0x50],r8
   8bd70:	48 89 45 b8          	mov    QWORD PTR [rbp-0x48],rax
   8bd74:	48 ba 06 1c f1 e7 d3 	movabs rdx,0x1a3506d3e7f11c06
   8bd7b:	06 35 1a 
   8bd7e:	49 bb bc 3f 76 1a 96 	movabs r11,0x429acd961a763fbc
   8bd85:	cd 9a 42 
   8bd88:	4c 39 9d e8 fe ff ff 	cmp    QWORD PTR [rbp-0x118],r11
   8bd8f:	0f 84 3d c7 ff ff    	je     884d2 <Java_com_adjust_sdk_sig_NativeLibHelper_nOnResume@@Base-0x327d1>
   8bd95:	48 b8 c0 6f 13 52 f7 	movabs rax,0x42b130f752136fc0
   8bd9c:	30 b1 42 
   8bd9f:	48 8b 8d e8 fe ff ff 	mov    rcx,QWORD PTR [rbp-0x118]
   8bda6:	48 39 c1             	cmp    rcx,rax
   8bda9:	0f 84 62 5b 00 00    	je     91911 <Java_com_adjust_sdk_sig_NativeLibHelper_nOnResume@@Base-0x29392>
   8bdaf:	48 b8 6a fc db 10 4f 	movabs rax,0x4472b14f10dbfc6a
   8bdb6:	b1 72 44 
   8bdb9:	48 39 c1             	cmp    rcx,rax
   8bdbc:	4c 8b 85 00 ff ff ff 	mov    r8,QWORD PTR [rbp-0x100]
   8bdc3:	4c 8b 8d f8 fe ff ff 	mov    r9,QWORD PTR [rbp-0x108]
   8bdca:	48 8b b5 10 ff ff ff 	mov    rsi,QWORD PTR [rbp-0xf0]
   8bdd1:	48 8b bd 08 ff ff ff 	mov    rdi,QWORD PTR [rbp-0xf8]
   8bdd8:	4c 8b 9d 18 ff ff ff 	mov    r11,QWORD PTR [rbp-0xe8]
   8bddf:	48 8b 9d 20 ff ff ff 	mov    rbx,QWORD PTR [rbp-0xe0]
   8bde6:	44 8b 55 c0          	mov    r10d,DWORD PTR [rbp-0x40]
   8bdea:	4c 8b b5 30 ff ff ff 	mov    r14,QWORD PTR [rbp-0xd0]
   8bdf1:	0f 84 c0 30 00 00    	je     8eeb7 <Java_com_adjust_sdk_sig_NativeLibHelper_nOnResume@@Base-0x2bdec>
   8bdf7:	48 b8 df 68 44 d6 f2 	movabs rax,0x4695a6f2d64468df
   8bdfe:	a6 95 46 
   8be01:	48 39 c1             	cmp    rcx,rax
   8be04:	0f 84 0e 42 00 00    	je     90018 <Java_com_adjust_sdk_sig_NativeLibHelper_nOnResume@@Base-0x2ac8b>
   8be0a:	48 8b 85 48 ff ff ff 	mov    rax,QWORD PTR [rbp-0xb8]
   8be11:	48 89 85 58 ff ff ff 	mov    QWORD PTR [rbp-0xa8],rax
   8be18:	48 8b 85 40 ff ff ff 	mov    rax,QWORD PTR [rbp-0xc0]
   8be1f:	48 89 85 60 ff ff ff 	mov    QWORD PTR [rbp-0xa0],rax
   8be26:	4c 89 b5 68 ff ff ff 	mov    QWORD PTR [rbp-0x98],r14
   8be2d:	44 89 55 c8          	mov    DWORD PTR [rbp-0x38],r10d
   8be31:	8b 45 c4             	mov    eax,DWORD PTR [rbp-0x3c]
   8be34:	89 45 cc             	mov    DWORD PTR [rbp-0x34],eax
   8be37:	48 8b 85 28 ff ff ff 	mov    rax,QWORD PTR [rbp-0xd8]
   8be3e:	48 89 85 70 ff ff ff 	mov    QWORD PTR [rbp-0x90],rax
   8be45:	48 8b 85 f0 fe ff ff 	mov    rax,QWORD PTR [rbp-0x110]
   8be4c:	48 89 85 78 ff ff ff 	mov    QWORD PTR [rbp-0x88],rax
   8be53:	48 8b 85 50 ff ff ff 	mov    rax,QWORD PTR [rbp-0xb0]
   8be5a:	48 89 45 80          	mov    QWORD PTR [rbp-0x80],rax
   8be5e:	48 89 5d 88          	mov    QWORD PTR [rbp-0x78],rbx
   8be62:	4c 89 5d 90          	mov    QWORD PTR [rbp-0x70],r11
   8be66:	48 89 7d 98          	mov    QWORD PTR [rbp-0x68],rdi
   8be6a:	48 89 75 a0          	mov    QWORD PTR [rbp-0x60],rsi
   8be6e:	4c 89 4d a8          	mov    QWORD PTR [rbp-0x58],r9
   8be72:	4c 89 45 b0          	mov    QWORD PTR [rbp-0x50],r8
   8be76:	48 8b 85 38 ff ff ff 	mov    rax,QWORD PTR [rbp-0xc8]
   8be7d:	48 89 45 b8          	mov    QWORD PTR [rbp-0x48],rax
   8be81:	48 ba 72 c3 f3 39 ec 	movabs rdx,0x370ee1ec39f3c372
   8be88:	e1 0e 37 
   8be8b:	49 bb 1d 9e bb 5b 06 	movabs r11,0x477719065bbb9e1d
   8be92:	19 77 47 
   8be95:	4c 39 d9             	cmp    rcx,r11
   8be98:	0f 84 34 c6 ff ff    	je     884d2 <Java_com_adjust_sdk_sig_NativeLibHelper_nOnResume@@Base-0x327d1>
   8be9e:	48 b8 ed 93 06 43 52 	movabs rax,0x4779ea52430693ed
   8bea5:	ea 79 47 
   8bea8:	48 8b 8d e8 fe ff ff 	mov    rcx,QWORD PTR [rbp-0x118]
   8beaf:	48 39 c1             	cmp    rcx,rax
   8beb2:	0f 84 8f 58 00 00    	je     91747 <Java_com_adjust_sdk_sig_NativeLibHelper_nOnResume@@Base-0x2955c>
   8beb8:	48 b8 bc aa d0 5a ba 	movabs rax,0x4c5051ba5ad0aabc
   8bebf:	51 50 4c 
   8bec2:	48 39 c1             	cmp    rcx,rax
   8bec5:	4c 8b bd f8 fe ff ff 	mov    r15,QWORD PTR [rbp-0x108]
   8becc:	4c 8b a5 10 ff ff ff 	mov    r12,QWORD PTR [rbp-0xf0]
   8bed3:	48 8b 9d 08 ff ff ff 	mov    rbx,QWORD PTR [rbp-0xf8]
   8beda:	4c 8b b5 18 ff ff ff 	mov    r14,QWORD PTR [rbp-0xe8]
   8bee1:	0f 84 d3 51 00 00    	je     910ba <Java_com_adjust_sdk_sig_NativeLibHelper_nOnResume@@Base-0x29be9>
   8bee7:	48 b8 d9 57 cf 59 9a 	movabs rax,0x4c6e949a59cf57d9
   8beee:	94 6e 4c 
   8bef1:	48 39 c1             	cmp    rcx,rax
   8bef4:	0f 84 f0 34 00 00    	je     8f3ea <Java_com_adjust_sdk_sig_NativeLibHelper_nOnResume@@Base-0x2b8b9>
   8befa:	48 8b 85 48 ff ff ff 	mov    rax,QWORD PTR [rbp-0xb8]
   8bf01:	48 89 85 58 ff ff ff 	mov    QWORD PTR [rbp-0xa8],rax
   8bf08:	48 8b 85 40 ff ff ff 	mov    rax,QWORD PTR [rbp-0xc0]
   8bf0f:	48 89 85 60 ff ff ff 	mov    QWORD PTR [rbp-0xa0],rax
   8bf16:	48 8b 85 30 ff ff ff 	mov    rax,QWORD PTR [rbp-0xd0]
   8bf1d:	48 89 85 68 ff ff ff 	mov    QWORD PTR [rbp-0x98],rax
   8bf24:	8b 45 c0             	mov    eax,DWORD PTR [rbp-0x40]
   8bf27:	89 45 c8             	mov    DWORD PTR [rbp-0x38],eax
   8bf2a:	8b 45 c4             	mov    eax,DWORD PTR [rbp-0x3c]
   8bf2d:	89 45 cc             	mov    DWORD PTR [rbp-0x34],eax
   8bf30:	48 8b 85 28 ff ff ff 	mov    rax,QWORD PTR [rbp-0xd8]
   8bf37:	48 89 85 70 ff ff ff 	mov    QWORD PTR [rbp-0x90],rax
   8bf3e:	48 8b 85 f0 fe ff ff 	mov    rax,QWORD PTR [rbp-0x110]
   8bf45:	48 89 85 78 ff ff ff 	mov    QWORD PTR [rbp-0x88],rax
   8bf4c:	48 8b 85 50 ff ff ff 	mov    rax,QWORD PTR [rbp-0xb0]
   8bf53:	48 89 45 80          	mov    QWORD PTR [rbp-0x80],rax
   8bf57:	48 8b 85 20 ff ff ff 	mov    rax,QWORD PTR [rbp-0xe0]
   8bf5e:	48 89 45 88          	mov    QWORD PTR [rbp-0x78],rax
   8bf62:	4c 89 75 90          	mov    QWORD PTR [rbp-0x70],r14
   8bf66:	48 89 5d 98          	mov    QWORD PTR [rbp-0x68],rbx
   8bf6a:	4c 89 65 a0          	mov    QWORD PTR [rbp-0x60],r12
   8bf6e:	4c 89 7d a8          	mov    QWORD PTR [rbp-0x58],r15
   8bf72:	48 8b 85 00 ff ff ff 	mov    rax,QWORD PTR [rbp-0x100]
   8bf79:	48 89 45 b0          	mov    QWORD PTR [rbp-0x50],rax
   8bf7d:	48 8b 85 38 ff ff ff 	mov    rax,QWORD PTR [rbp-0xc8]
   8bf84:	48 89 45 b8          	mov    QWORD PTR [rbp-0x48],rax
   8bf88:	48 ba 42 fb 9a fb 37 	movabs rdx,0xc9efd237fb9afb42
   8bf8f:	d2 ef c9 
   8bf92:	49 bb bb 1d ea a8 6c 	movabs r11,0x4f36386ca8ea1dbb
   8bf99:	38 36 4f 
   8bf9c:	4c 39 d9             	cmp    rcx,r11
   8bf9f:	0f 84 2d c5 ff ff    	je     884d2 <Java_com_adjust_sdk_sig_NativeLibHelper_nOnResume@@Base-0x327d1>
   8bfa5:	48 b8 45 ce a2 53 39 	movabs rax,0x4f84173953a2ce45
   8bfac:	17 84 4f 
   8bfaf:	4c 8b 95 e8 fe ff ff 	mov    r10,QWORD PTR [rbp-0x118]
   8bfb6:	49 39 c2             	cmp    r10,rax
   8bfb9:	0f 84 24 12 00 00    	je     8d1e3 <Java_com_adjust_sdk_sig_NativeLibHelper_nOnResume@@Base-0x2dac0>
   8bfbf:	48 b8 da 68 af e2 26 	movabs rax,0x4f885826e2af68da
   8bfc6:	58 88 4f 
   8bfc9:	49 39 c2             	cmp    r10,rax
   8bfcc:	4c 8b 85 00 ff ff ff 	mov    r8,QWORD PTR [rbp-0x100]
   8bfd3:	48 8b bd f8 fe ff ff 	mov    rdi,QWORD PTR [rbp-0x108]
   8bfda:	4c 8b a5 10 ff ff ff 	mov    r12,QWORD PTR [rbp-0xf0]
   8bfe1:	48 8b b5 08 ff ff ff 	mov    rsi,QWORD PTR [rbp-0xf8]
   8bfe8:	48 8b 8d 18 ff ff ff 	mov    rcx,QWORD PTR [rbp-0xe8]
   8bfef:	4c 8b 8d 20 ff ff ff 	mov    r9,QWORD PTR [rbp-0xe0]
   8bff6:	4c 8b 9d f0 fe ff ff 	mov    r11,QWORD PTR [rbp-0x110]
   8bffd:	48 8b 9d 28 ff ff ff 	mov    rbx,QWORD PTR [rbp-0xd8]
   8c004:	44 8b 75 c0          	mov    r14d,DWORD PTR [rbp-0x40]
   8c008:	0f 84 93 38 00 00    	je     8f8a1 <Java_com_adjust_sdk_sig_NativeLibHelper_nOnResume@@Base-0x2b402>
   8c00e:	48 b8 bc 97 a8 2b c4 	movabs rax,0x50263bc42ba897bc
   8c015:	3b 26 50 
   8c018:	49 39 c2             	cmp    r10,rax
   8c01b:	0f 84 f2 52 00 00    	je     91313 <Java_com_adjust_sdk_sig_NativeLibHelper_nOnResume@@Base-0x29990>
   8c021:	48 8b 85 48 ff ff ff 	mov    rax,QWORD PTR [rbp-0xb8]
   8c028:	48 89 85 58 ff ff ff 	mov    QWORD PTR [rbp-0xa8],rax
   8c02f:	48 8b 85 40 ff ff ff 	mov    rax,QWORD PTR [rbp-0xc0]
   8c036:	48 89 85 60 ff ff ff 	mov    QWORD PTR [rbp-0xa0],rax
   8c03d:	48 8b 85 30 ff ff ff 	mov    rax,QWORD PTR [rbp-0xd0]
   8c044:	48 89 85 68 ff ff ff 	mov    QWORD PTR [rbp-0x98],rax
   8c04b:	44 89 75 c8          	mov    DWORD PTR [rbp-0x38],r14d
   8c04f:	8b 45 c4             	mov    eax,DWORD PTR [rbp-0x3c]
   8c052:	89 45 cc             	mov    DWORD PTR [rbp-0x34],eax
   8c055:	48 89 9d 70 ff ff ff 	mov    QWORD PTR [rbp-0x90],rbx
   8c05c:	4c 89 9d 78 ff ff ff 	mov    QWORD PTR [rbp-0x88],r11
   8c063:	48 8b 85 50 ff ff ff 	mov    rax,QWORD PTR [rbp-0xb0]
   8c06a:	48 89 45 80          	mov    QWORD PTR [rbp-0x80],rax
   8c06e:	4c 89 4d 88          	mov    QWORD PTR [rbp-0x78],r9
   8c072:	48 89 4d 90          	mov    QWORD PTR [rbp-0x70],rcx
   8c076:	48 89 75 98          	mov    QWORD PTR [rbp-0x68],rsi
   8c07a:	48 8b 85 20 fa ff ff 	mov    rax,QWORD PTR [rbp-0x5e0]
   8c081:	48 89 45 a0          	mov    QWORD PTR [rbp-0x60],rax
   8c085:	48 89 7d a8          	mov    QWORD PTR [rbp-0x58],rdi
   8c089:	4c 89 45 b0          	mov    QWORD PTR [rbp-0x50],r8
   8c08d:	48 8b 85 38 ff ff ff 	mov    rax,QWORD PTR [rbp-0xc8]
   8c094:	48 89 45 b8          	mov    QWORD PTR [rbp-0x48],rax
   8c098:	48 ba 30 c5 4c 07 35 	movabs rdx,0x2761dd35074cc530
   8c09f:	dd 61 27 
   8c0a2:	49 bb e5 43 19 d5 1a 	movabs r11,0x5081e31ad51943e5
   8c0a9:	e3 81 50 
   8c0ac:	4d 39 da             	cmp    r10,r11
   8c0af:	0f 84 1d c4 ff ff    	je     884d2 <Java_com_adjust_sdk_sig_NativeLibHelper_nOnResume@@Base-0x327d1>
   8c0b5:	48 b8 2c 85 c5 06 f0 	movabs rax,0x511b92f006c5852c
   8c0bc:	92 1b 51 
   8c0bf:	48 8b 8d e8 fe ff ff 	mov    rcx,QWORD PTR [rbp-0x118]
   8c0c6:	48 39 c1             	cmp    rcx,rax
   8c0c9:	0f 84 d4 52 00 00    	je     913a3 <Java_com_adjust_sdk_sig_NativeLibHelper_nOnResume@@Base-0x29900>
   8c0cf:	48 8b 85 48 ff ff ff 	mov    rax,QWORD PTR [rbp-0xb8]
   8c0d6:	48 89 85 58 ff ff ff 	mov    QWORD PTR [rbp-0xa8],rax
   8c0dd:	48 8b 85 40 ff ff ff 	mov    rax,QWORD PTR [rbp-0xc0]
   8c0e4:	48 89 85 60 ff ff ff 	mov    QWORD PTR [rbp-0xa0],rax
   8c0eb:	48 8b 85 30 ff ff ff 	mov    rax,QWORD PTR [rbp-0xd0]
   8c0f2:	48 89 85 68 ff ff ff 	mov    QWORD PTR [rbp-0x98],rax
   8c0f9:	8b 45 c0             	mov    eax,DWORD PTR [rbp-0x40]
   8c0fc:	89 45 c8             	mov    DWORD PTR [rbp-0x38],eax
   8c0ff:	8b 45 c4             	mov    eax,DWORD PTR [rbp-0x3c]
   8c102:	89 45 cc             	mov    DWORD PTR [rbp-0x34],eax
   8c105:	48 8b 85 28 ff ff ff 	mov    rax,QWORD PTR [rbp-0xd8]
   8c10c:	48 89 85 70 ff ff ff 	mov    QWORD PTR [rbp-0x90],rax
   8c113:	48 8b 85 f0 fe ff ff 	mov    rax,QWORD PTR [rbp-0x110]
   8c11a:	48 89 85 78 ff ff ff 	mov    QWORD PTR [rbp-0x88],rax
   8c121:	48 8b 85 50 ff ff ff 	mov    rax,QWORD PTR [rbp-0xb0]
   8c128:	48 89 45 80          	mov    QWORD PTR [rbp-0x80],rax
   8c12c:	48 8b 85 20 ff ff ff 	mov    rax,QWORD PTR [rbp-0xe0]
   8c133:	48 89 45 88          	mov    QWORD PTR [rbp-0x78],rax
   8c137:	48 8b 85 18 ff ff ff 	mov    rax,QWORD PTR [rbp-0xe8]
   8c13e:	48 89 45 90          	mov    QWORD PTR [rbp-0x70],rax
   8c142:	48 8b 85 08 ff ff ff 	mov    rax,QWORD PTR [rbp-0xf8]
   8c149:	48 89 45 98          	mov    QWORD PTR [rbp-0x68],rax
   8c14d:	48 8b 85 10 ff ff ff 	mov    rax,QWORD PTR [rbp-0xf0]
   8c154:	48 89 45 a0          	mov    QWORD PTR [rbp-0x60],rax
   8c158:	48 8b 85 f8 fe ff ff 	mov    rax,QWORD PTR [rbp-0x108]
   8c15f:	48 89 45 a8          	mov    QWORD PTR [rbp-0x58],rax
   8c163:	48 8b 85 00 ff ff ff 	mov    rax,QWORD PTR [rbp-0x100]
   8c16a:	48 89 45 b0          	mov    QWORD PTR [rbp-0x50],rax
   8c16e:	48 8b 85 38 ff ff ff 	mov    rax,QWORD PTR [rbp-0xc8]
   8c175:	48 89 45 b8          	mov    QWORD PTR [rbp-0x48],rax
   8c179:	48 ba 93 44 8a e2 42 	movabs rdx,0xf7962f42e28a4493
   8c180:	2f 96 f7 
   8c183:	49 bb c1 33 21 eb 7f 	movabs r11,0x520fa37feb2133c1
   8c18a:	a3 0f 52 
   8c18d:	4c 39 d9             	cmp    rcx,r11
   8c190:	0f 84 3c c3 ff ff    	je     884d2 <Java_com_adjust_sdk_sig_NativeLibHelper_nOnResume@@Base-0x327d1>
   8c196:	48 b8 ac 79 f7 9e 30 	movabs rax,0x53017d309ef779ac
   8c19d:	7d 01 53 
   8c1a0:	48 8b 8d e8 fe ff ff 	mov    rcx,QWORD PTR [rbp-0x118]
   8c1a7:	48 39 c1             	cmp    rcx,rax
   8c1aa:	0f 84 11 48 00 00    	je     909c1 <Java_com_adjust_sdk_sig_NativeLibHelper_nOnResume@@Base-0x2a2e2>
   8c1b0:	48 b8 6f f0 4d 7c f0 	movabs rax,0x5573d5f07c4df06f
   8c1b7:	d5 73 55 
   8c1ba:	48 39 c1             	cmp    rcx,rax
   8c1bd:	4c 8b b5 f8 fe ff ff 	mov    r14,QWORD PTR [rbp-0x108]
   8c1c4:	48 8b 9d f0 fe ff ff 	mov    rbx,QWORD PTR [rbp-0x110]
   8c1cb:	0f 84 96 55 00 00    	je     91767 <Java_com_adjust_sdk_sig_NativeLibHelper_nOnResume@@Base-0x2953c>
   8c1d1:	48 b8 1c d8 48 ca c8 	movabs rax,0x5650eec8ca48d81c
   8c1d8:	ee 50 56 
   8c1db:	48 39 c1             	cmp    rcx,rax
   8c1de:	0f 84 e0 32 00 00    	je     8f4c4 <Java_com_adjust_sdk_sig_NativeLibHelper_nOnResume@@Base-0x2b7df>
   8c1e4:	48 b8 64 61 c9 c5 ee 	movabs rax,0x56a2ddeec5c96164
   8c1eb:	dd a2 56 
   8c1ee:	48 39 c1             	cmp    rcx,rax
   8c1f1:	0f 84 f4 52 00 00    	je     914eb <Java_com_adjust_sdk_sig_NativeLibHelper_nOnResume@@Base-0x297b8>
   8c1f7:	48 8b 85 48 ff ff ff 	mov    rax,QWORD PTR [rbp-0xb8]
   8c1fe:	48 89 85 58 ff ff ff 	mov    QWORD PTR [rbp-0xa8],rax
   8c205:	48 8b 85 40 ff ff ff 	mov    rax,QWORD PTR [rbp-0xc0]
   8c20c:	48 89 85 60 ff ff ff 	mov    QWORD PTR [rbp-0xa0],rax
   8c213:	48 8b 85 30 ff ff ff 	mov    rax,QWORD PTR [rbp-0xd0]
   8c21a:	48 89 85 68 ff ff ff 	mov    QWORD PTR [rbp-0x98],rax
   8c221:	8b 45 c0             	mov    eax,DWORD PTR [rbp-0x40]
   8c224:	89 45 c8             	mov    DWORD PTR [rbp-0x38],eax
   8c227:	8b 45 c4             	mov    eax,DWORD PTR [rbp-0x3c]
   8c22a:	89 45 cc             	mov    DWORD PTR [rbp-0x34],eax
   8c22d:	48 8b 85 28 ff ff ff 	mov    rax,QWORD PTR [rbp-0xd8]
   8c234:	48 89 85 70 ff ff ff 	mov    QWORD PTR [rbp-0x90],rax
   8c23b:	48 89 9d 78 ff ff ff 	mov    QWORD PTR [rbp-0x88],rbx
   8c242:	48 8b 85 50 ff ff ff 	mov    rax,QWORD PTR [rbp-0xb0]
   8c249:	48 89 45 80          	mov    QWORD PTR [rbp-0x80],rax
   8c24d:	48 8b 85 20 ff ff ff 	mov    rax,QWORD PTR [rbp-0xe0]
   8c254:	48 89 45 88          	mov    QWORD PTR [rbp-0x78],rax
   8c258:	48 8b 85 18 ff ff ff 	mov    rax,QWORD PTR [rbp-0xe8]
   8c25f:	48 89 45 90          	mov    QWORD PTR [rbp-0x70],rax
   8c263:	48 8b 85 28 fa ff ff 	mov    rax,QWORD PTR [rbp-0x5d8]
   8c26a:	48 89 45 98          	mov    QWORD PTR [rbp-0x68],rax
   8c26e:	48 8b 85 10 ff ff ff 	mov    rax,QWORD PTR [rbp-0xf0]
   8c275:	48 89 45 a0          	mov    QWORD PTR [rbp-0x60],rax
   8c279:	4c 89 75 a8          	mov    QWORD PTR [rbp-0x58],r14
   8c27d:	48 8b 85 00 ff ff ff 	mov    rax,QWORD PTR [rbp-0x100]
   8c284:	48 89 45 b0          	mov    QWORD PTR [rbp-0x50],rax
   8c288:	48 8b 85 38 ff ff ff 	mov    rax,QWORD PTR [rbp-0xc8]
   8c28f:	48 89 45 b8          	mov    QWORD PTR [rbp-0x48],rax
   8c293:	48 ba 8d 89 bc 56 f4 	movabs rdx,0xac8b8ff456bc898d
   8c29a:	8f 8b ac 
   8c29d:	49 bb 53 5f 6d e0 c7 	movabs r11,0x57e196c7e06d5f53
   8c2a4:	96 e1 57 
   8c2a7:	4c 39 d9             	cmp    rcx,r11
   8c2aa:	0f 84 22 c2 ff ff    	je     884d2 <Java_com_adjust_sdk_sig_NativeLibHelper_nOnResume@@Base-0x327d1>
   8c2b0:	48 b8 a5 39 f3 15 40 	movabs rax,0x5875444015f339a5
   8c2b7:	44 75 58 
   8c2ba:	4c 8b 95 e8 fe ff ff 	mov    r10,QWORD PTR [rbp-0x118]
   8c2c1:	49 39 c2             	cmp    r10,rax
   8c2c4:	0f 84 6f 48 00 00    	je     90b39 <Java_com_adjust_sdk_sig_NativeLibHelper_nOnResume@@Base-0x2a16a>
   8c2ca:	48 b8 19 ff ea 98 0a 	movabs rax,0x58820c0a98eaff19
   8c2d1:	0c 82 58 
   8c2d4:	49 39 c2             	cmp    r10,rax
   8c2d7:	4c 8b 85 00 ff ff ff 	mov    r8,QWORD PTR [rbp-0x100]
   8c2de:	48 8b bd f8 fe ff ff 	mov    rdi,QWORD PTR [rbp-0x108]
   8c2e5:	48 8b b5 10 ff ff ff 	mov    rsi,QWORD PTR [rbp-0xf0]
   8c2ec:	48 8b 8d 08 ff ff ff 	mov    rcx,QWORD PTR [rbp-0xf8]
   8c2f3:	4c 8b 8d 18 ff ff ff 	mov    r9,QWORD PTR [rbp-0xe8]
   8c2fa:	4c 8b 9d 20 ff ff ff 	mov    r11,QWORD PTR [rbp-0xe0]
   8c301:	48 8b 9d f0 fe ff ff 	mov    rbx,QWORD PTR [rbp-0x110]
   8c308:	44 8b 75 c0          	mov    r14d,DWORD PTR [rbp-0x40]
   8c30c:	0f 84 2e 4c 00 00    	je     90f40 <Java_com_adjust_sdk_sig_NativeLibHelper_nOnResume@@Base-0x29d63>
   8c312:	48 8b 85 48 ff ff ff 	mov    rax,QWORD PTR [rbp-0xb8]
   8c319:	48 89 85 58 ff ff ff 	mov    QWORD PTR [rbp-0xa8],rax
   8c320:	48 8b 85 40 ff ff ff 	mov    rax,QWORD PTR [rbp-0xc0]
   8c327:	48 89 85 60 ff ff ff 	mov    QWORD PTR [rbp-0xa0],rax
   8c32e:	48 8b 85 30 ff ff ff 	mov    rax,QWORD PTR [rbp-0xd0]
   8c335:	48 89 85 68 ff ff ff 	mov    QWORD PTR [rbp-0x98],rax
   8c33c:	44 89 75 c8          	mov    DWORD PTR [rbp-0x38],r14d
   8c340:	8b 45 c4             	mov    eax,DWORD PTR [rbp-0x3c]
   8c343:	89 45 cc             	mov    DWORD PTR [rbp-0x34],eax
   8c346:	48 8b 85 28 ff ff ff 	mov    rax,QWORD PTR [rbp-0xd8]
   8c34d:	48 89 85 70 ff ff ff 	mov    QWORD PTR [rbp-0x90],rax
   8c354:	48 89 9d 78 ff ff ff 	mov    QWORD PTR [rbp-0x88],rbx
   8c35b:	48 8b 85 50 ff ff ff 	mov    rax,QWORD PTR [rbp-0xb0]
   8c362:	48 89 45 80          	mov    QWORD PTR [rbp-0x80],rax
   8c366:	4c 89 5d 88          	mov    QWORD PTR [rbp-0x78],r11
   8c36a:	4c 89 4d 90          	mov    QWORD PTR [rbp-0x70],r9
   8c36e:	48 89 4d 98          	mov    QWORD PTR [rbp-0x68],rcx
   8c372:	48 89 75 a0          	mov    QWORD PTR [rbp-0x60],rsi
   8c376:	48 89 7d a8          	mov    QWORD PTR [rbp-0x58],rdi
   8c37a:	4c 89 45 b0          	mov    QWORD PTR [rbp-0x50],r8
   8c37e:	48 8b 85 38 ff ff ff 	mov    rax,QWORD PTR [rbp-0xc8]
   8c385:	48 89 45 b8          	mov    QWORD PTR [rbp-0x48],rax
   8c389:	48 ba 6f 1b a3 86 a5 	movabs rdx,0x4132fa586a31b6f
   8c390:	2f 13 04 
   8c393:	49 bb db d5 27 eb a1 	movabs r11,0x5995a1a1eb27d5db
   8c39a:	a1 95 59 
   8c39d:	4d 39 da             	cmp    r10,r11
   8c3a0:	0f 84 2c c1 ff ff    	je     884d2 <Java_com_adjust_sdk_sig_NativeLibHelper_nOnResume@@Base-0x327d1>
   8c3a6:	48 b8 87 3c 48 be b5 	movabs rax,0x5a4b5fb5be483c87
   8c3ad:	5f 4b 5a 
   8c3b0:	48 8b 95 e8 fe ff ff 	mov    rdx,QWORD PTR [rbp-0x118]
   8c3b7:	48 39 c2             	cmp    rdx,rax
   8c3ba:	0f 84 f5 46 00 00    	je     90ab5 <Java_com_adjust_sdk_sig_NativeLibHelper_nOnResume@@Base-0x2a1ee>
   8c3c0:	48 b8 a2 4d 8c f1 f3 	movabs rax,0x5a7641f3f18c4da2
   8c3c7:	41 76 5a 
   8c3ca:	48 39 c2             	cmp    rdx,rax
   8c3cd:	4c 8b 8d f8 fe ff ff 	mov    r9,QWORD PTR [rbp-0x108]
   8c3d4:	4c 8b a5 f0 fe ff ff 	mov    r12,QWORD PTR [rbp-0x110]
   8c3db:	4c 8b bd 28 ff ff ff 	mov    r15,QWORD PTR [rbp-0xd8]
   8c3e2:	44 8b 75 c4          	mov    r14d,DWORD PTR [rbp-0x3c]
   8c3e6:	0f 84 00 32 00 00    	je     8f5ec <Java_com_adjust_sdk_sig_NativeLibHelper_nOnResume@@Base-0x2b6b7>
   8c3ec:	48 b8 2b 70 88 d0 6b 	movabs rax,0x5bd3a76bd088702b
   8c3f3:	a7 d3 5b 
   8c3f6:	48 39 c2             	cmp    rdx,rax
   8c3f9:	0f 84 54 2d 00 00    	je     8f153 <Java_com_adjust_sdk_sig_NativeLibHelper_nOnResume@@Base-0x2bb50>
   8c3ff:	48 b8 74 15 51 30 35 	movabs rax,0x5bec243530511574
   8c406:	24 ec 5b 
   8c409:	48 39 c2             	cmp    rdx,rax
   8c40c:	0f 84 a3 4f 00 00    	je     913b5 <Java_com_adjust_sdk_sig_NativeLibHelper_nOnResume@@Base-0x298ee>
   8c412:	48 8b 8d 48 ff ff ff 	mov    rcx,QWORD PTR [rbp-0xb8]
   8c419:	48 89 8d 58 ff ff ff 	mov    QWORD PTR [rbp-0xa8],rcx
   8c420:	4c 8b 85 40 ff ff ff 	mov    r8,QWORD PTR [rbp-0xc0]
   8c427:	4c 89 85 60 ff ff ff 	mov    QWORD PTR [rbp-0xa0],r8
   8c42e:	4c 8b 95 30 ff ff ff 	mov    r10,QWORD PTR [rbp-0xd0]
   8c435:	4c 89 95 68 ff ff ff 	mov    QWORD PTR [rbp-0x98],r10
   8c43c:	8b 7d c0             	mov    edi,DWORD PTR [rbp-0x40]
   8c43f:	89 7d c8             	mov    DWORD PTR [rbp-0x38],edi
   8c442:	44 89 75 cc          	mov    DWORD PTR [rbp-0x34],r14d
   8c446:	4c 89 bd 70 ff ff ff 	mov    QWORD PTR [rbp-0x90],r15
   8c44d:	4c 89 a5 78 ff ff ff 	mov    QWORD PTR [rbp-0x88],r12
   8c454:	48 8b 85 50 ff ff ff 	mov    rax,QWORD PTR [rbp-0xb0]
   8c45b:	48 89 45 80          	mov    QWORD PTR [rbp-0x80],rax
   8c45f:	48 8b 9d 20 ff ff ff 	mov    rbx,QWORD PTR [rbp-0xe0]
   8c466:	48 89 5d 88          	mov    QWORD PTR [rbp-0x78],rbx
   8c46a:	48 89 d0             	mov    rax,rdx
   8c46d:	4c 8b ad 18 ff ff ff 	mov    r13,QWORD PTR [rbp-0xe8]
   8c474:	4c 89 6d 90          	mov    QWORD PTR [rbp-0x70],r13
   8c478:	4c 8b a5 08 ff ff ff 	mov    r12,QWORD PTR [rbp-0xf8]
   8c47f:	4c 89 65 98          	mov    QWORD PTR [rbp-0x68],r12
   8c483:	48 8b b5 10 ff ff ff 	mov    rsi,QWORD PTR [rbp-0xf0]
   8c48a:	48 89 75 a0          	mov    QWORD PTR [rbp-0x60],rsi
   8c48e:	4c 89 4d a8          	mov    QWORD PTR [rbp-0x58],r9
   8c492:	48 8b 95 30 fa ff ff 	mov    rdx,QWORD PTR [rbp-0x5d0]
   8c499:	48 89 55 b0          	mov    QWORD PTR [rbp-0x50],rdx
   8c49d:	4c 8b bd 38 ff ff ff 	mov    r15,QWORD PTR [rbp-0xc8]
   8c4a4:	4c 89 7d b8          	mov    QWORD PTR [rbp-0x48],r15
   8c4a8:	48 ba f6 fc 92 15 21 	movabs rdx,0xcf6124211592fcf6
   8c4af:	24 61 cf 
   8c4b2:	49 bb 3b da 58 9e 42 	movabs r11,0x60c8c0429e58da3b
   8c4b9:	c0 c8 60 
   8c4bc:	4c 39 d8             	cmp    rax,r11
   8c4bf:	48 8b 85 00 ff ff ff 	mov    rax,QWORD PTR [rbp-0x100]
   8c4c6:	0f 84 06 c0 ff ff    	je     884d2 <Java_com_adjust_sdk_sig_NativeLibHelper_nOnResume@@Base-0x327d1>
   8c4cc:	48 89 8d 58 ff ff ff 	mov    QWORD PTR [rbp-0xa8],rcx
   8c4d3:	4c 89 85 60 ff ff ff 	mov    QWORD PTR [rbp-0xa0],r8
   8c4da:	4c 89 95 68 ff ff ff 	mov    QWORD PTR [rbp-0x98],r10
   8c4e1:	89 7d c8             	mov    DWORD PTR [rbp-0x38],edi
   8c4e4:	44 89 75 cc          	mov    DWORD PTR [rbp-0x34],r14d
   8c4e8:	48 8b 95 28 ff ff ff 	mov    rdx,QWORD PTR [rbp-0xd8]
   8c4ef:	48 89 95 70 ff ff ff 	mov    QWORD PTR [rbp-0x90],rdx
   8c4f6:	48 8b 95 f0 fe ff ff 	mov    rdx,QWORD PTR [rbp-0x110]
   8c4fd:	48 89 95 78 ff ff ff 	mov    QWORD PTR [rbp-0x88],rdx
   8c504:	48 8b 95 50 ff ff ff 	mov    rdx,QWORD PTR [rbp-0xb0]
   8c50b:	48 89 55 80          	mov    QWORD PTR [rbp-0x80],rdx
   8c50f:	48 89 5d 88          	mov    QWORD PTR [rbp-0x78],rbx
   8c513:	4c 89 6d 90          	mov    QWORD PTR [rbp-0x70],r13
   8c517:	4c 89 65 98          	mov    QWORD PTR [rbp-0x68],r12
   8c51b:	48 89 75 a0          	mov    QWORD PTR [rbp-0x60],rsi
   8c51f:	4c 89 4d a8          	mov    QWORD PTR [rbp-0x58],r9
   8c523:	48 89 45 b0          	mov    QWORD PTR [rbp-0x50],rax
   8c527:	4c 89 7d b8          	mov    QWORD PTR [rbp-0x48],r15
   8c52b:	48 ba c1 7a 3d f1 21 	movabs rdx,0x101c3c21f13d7ac1
   8c532:	3c 1c 10 
   8c535:	49 bb 7f 96 b5 96 eb 	movabs r11,0x619448eb96b5967f
   8c53c:	48 94 61 
   8c53f:	4c 39 9d e8 fe ff ff 	cmp    QWORD PTR [rbp-0x118],r11
   8c546:	0f 84 86 bf ff ff    	je     884d2 <Java_com_adjust_sdk_sig_NativeLibHelper_nOnResume@@Base-0x327d1>
   8c54c:	48 89 8d 58 ff ff ff 	mov    QWORD PTR [rbp-0xa8],rcx
   8c553:	4c 89 85 60 ff ff ff 	mov    QWORD PTR [rbp-0xa0],r8
   8c55a:	4c 89 95 68 ff ff ff 	mov    QWORD PTR [rbp-0x98],r10
   8c561:	89 7d c8             	mov    DWORD PTR [rbp-0x38],edi
   8c564:	44 89 75 cc          	mov    DWORD PTR [rbp-0x34],r14d
   8c568:	48 8b 8d 28 ff ff ff 	mov    rcx,QWORD PTR [rbp-0xd8]
   8c56f:	48 89 8d 70 ff ff ff 	mov    QWORD PTR [rbp-0x90],rcx
   8c576:	48 8b 8d f0 fe ff ff 	mov    rcx,QWORD PTR [rbp-0x110]
   8c57d:	48 89 8d 78 ff ff ff 	mov    QWORD PTR [rbp-0x88],rcx
   8c584:	48 8b 95 50 ff ff ff 	mov    rdx,QWORD PTR [rbp-0xb0]
   8c58b:	48 89 55 80          	mov    QWORD PTR [rbp-0x80],rdx
   8c58f:	48 89 5d 88          	mov    QWORD PTR [rbp-0x78],rbx
   8c593:	4c 89 6d 90          	mov    QWORD PTR [rbp-0x70],r13
   8c597:	4c 89 65 98          	mov    QWORD PTR [rbp-0x68],r12
   8c59b:	48 89 75 a0          	mov    QWORD PTR [rbp-0x60],rsi
   8c59f:	4c 89 4d a8          	mov    QWORD PTR [rbp-0x58],r9
   8c5a3:	48 89 45 b0          	mov    QWORD PTR [rbp-0x50],rax
   8c5a7:	4c 89 7d b8          	mov    QWORD PTR [rbp-0x48],r15
   8c5ab:	48 ba c8 df 9e a4 a2 	movabs rdx,0xb4b588a2a49edfc8
   8c5b2:	88 b5 b4 
   8c5b5:	49 bb 77 36 53 95 58 	movabs r11,0x61b3165895533677
   8c5bc:	16 b3 61 
   8c5bf:	4c 39 9d e8 fe ff ff 	cmp    QWORD PTR [rbp-0x118],r11
   8c5c6:	0f 84 06 bf ff ff    	je     884d2 <Java_com_adjust_sdk_sig_NativeLibHelper_nOnResume@@Base-0x327d1>
   8c5cc:	48 b8 0e f4 72 d2 04 	movabs rax,0x61c21a04d272f40e
   8c5d3:	1a c2 61 
   8c5d6:	48 8b 8d e8 fe ff ff 	mov    rcx,QWORD PTR [rbp-0x118]
   8c5dd:	48 39 c1             	cmp    rcx,rax
   8c5e0:	0f 84 32 2c 00 00    	je     8f218 <Java_com_adjust_sdk_sig_NativeLibHelper_nOnResume@@Base-0x2ba8b>
   8c5e6:	48 b8 1e bc 4c d5 f9 	movabs rax,0x623d56f9d54cbc1e
   8c5ed:	56 3d 62 
   8c5f0:	48 39 c1             	cmp    rcx,rax
   8c5f3:	48 8b bd f8 fe ff ff 	mov    rdi,QWORD PTR [rbp-0x108]
   8c5fa:	48 8b b5 10 ff ff ff 	mov    rsi,QWORD PTR [rbp-0xf0]
   8c601:	4c 8b 8d 08 ff ff ff 	mov    r9,QWORD PTR [rbp-0xf8]
   8c608:	4c 8b 9d 18 ff ff ff 	mov    r11,QWORD PTR [rbp-0xe8]
   8c60f:	48 8b 9d 20 ff ff ff 	mov    rbx,QWORD PTR [rbp-0xe0]
   8c616:	44 8b 75 c0          	mov    r14d,DWORD PTR [rbp-0x40]
   8c61a:	0f 84 e4 37 00 00    	je     8fe04 <Java_com_adjust_sdk_sig_NativeLibHelper_nOnResume@@Base-0x2ae9f>
   8c620:	48 b8 96 e6 23 63 1d 	movabs rax,0x65ce351d6323e696
   8c627:	35 ce 65 
   8c62a:	48 39 c1             	cmp    rcx,rax
   8c62d:	4c 8b 85 00 ff ff ff 	mov    r8,QWORD PTR [rbp-0x100]
   8c634:	0f 84 fd 4d 00 00    	je     91437 <Java_com_adjust_sdk_sig_NativeLibHelper_nOnResume@@Base-0x2986c>
   8c63a:	48 8b 85 48 ff ff ff 	mov    rax,QWORD PTR [rbp-0xb8]
   8c641:	48 89 85 58 ff ff ff 	mov    QWORD PTR [rbp-0xa8],rax
   8c648:	48 8b 85 40 ff ff ff 	mov    rax,QWORD PTR [rbp-0xc0]
   8c64f:	48 89 85 60 ff ff ff 	mov    QWORD PTR [rbp-0xa0],rax
   8c656:	48 8b 85 30 ff ff ff 	mov    rax,QWORD PTR [rbp-0xd0]
   8c65d:	48 89 85 68 ff ff ff 	mov    QWORD PTR [rbp-0x98],rax
   8c664:	44 89 75 c8          	mov    DWORD PTR [rbp-0x38],r14d
   8c668:	8b 45 c4             	mov    eax,DWORD PTR [rbp-0x3c]
   8c66b:	89 45 cc             	mov    DWORD PTR [rbp-0x34],eax
   8c66e:	48 8b 85 28 ff ff ff 	mov    rax,QWORD PTR [rbp-0xd8]
   8c675:	48 89 85 70 ff ff ff 	mov    QWORD PTR [rbp-0x90],rax
   8c67c:	48 8b 85 f0 fe ff ff 	mov    rax,QWORD PTR [rbp-0x110]
   8c683:	48 89 85 78 ff ff ff 	mov    QWORD PTR [rbp-0x88],rax
   8c68a:	48 8b 85 50 ff ff ff 	mov    rax,QWORD PTR [rbp-0xb0]
   8c691:	48 89 45 80          	mov    QWORD PTR [rbp-0x80],rax
   8c695:	48 89 5d 88          	mov    QWORD PTR [rbp-0x78],rbx
   8c699:	4c 89 5d 90          	mov    QWORD PTR [rbp-0x70],r11
   8c69d:	4c 89 4d 98          	mov    QWORD PTR [rbp-0x68],r9
   8c6a1:	48 89 75 a0          	mov    QWORD PTR [rbp-0x60],rsi
   8c6a5:	48 89 7d a8          	mov    QWORD PTR [rbp-0x58],rdi
   8c6a9:	4c 89 45 b0          	mov    QWORD PTR [rbp-0x50],r8
   8c6ad:	48 8b 85 38 ff ff ff 	mov    rax,QWORD PTR [rbp-0xc8]
   8c6b4:	48 89 45 b8          	mov    QWORD PTR [rbp-0x48],rax
   8c6b8:	48 ba 1e bc 4c d5 f9 	movabs rdx,0x623d56f9d54cbc1e
   8c6bf:	56 3d 62 
   8c6c2:	49 bb 10 d5 3d e0 aa 	movabs r11,0x66b038aae03dd510
   8c6c9:	38 b0 66 
   8c6cc:	4c 39 d9             	cmp    rcx,r11
   8c6cf:	0f 84 fd bd ff ff    	je     884d2 <Java_com_adjust_sdk_sig_NativeLibHelper_nOnResume@@Base-0x327d1>
   8c6d5:	48 b8 e6 19 2b b3 27 	movabs rax,0x681ede27b32b19e6
   8c6dc:	de 1e 68 
   8c6df:	4c 8b 95 e8 fe ff ff 	mov    r10,QWORD PTR [rbp-0x118]
   8c6e6:	49 39 c2             	cmp    r10,rax
   8c6e9:	0f 84 07 44 00 00    	je     90af6 <Java_com_adjust_sdk_sig_NativeLibHelper_nOnResume@@Base-0x2a1ad>
   8c6ef:	48 b8 81 94 e9 77 ca 	movabs rax,0x687b95ca77e99481
   8c6f6:	95 7b 68 
   8c6f9:	49 39 c2             	cmp    r10,rax
   8c6fc:	48 8b bd f8 fe ff ff 	mov    rdi,QWORD PTR [rbp-0x108]
   8c703:	48 8b b5 10 ff ff ff 	mov    rsi,QWORD PTR [rbp-0xf0]
   8c70a:	48 8b 8d 08 ff ff ff 	mov    rcx,QWORD PTR [rbp-0xf8]
   8c711:	4c 8b 85 18 ff ff ff 	mov    r8,QWORD PTR [rbp-0xe8]
   8c718:	4c 8b 8d 20 ff ff ff 	mov    r9,QWORD PTR [rbp-0xe0]
   8c71f:	4c 8b 9d f0 fe ff ff 	mov    r11,QWORD PTR [rbp-0x110]
   8c726:	48 8b 9d 28 ff ff ff 	mov    rbx,QWORD PTR [rbp-0xd8]
   8c72d:	44 8b 75 c0          	mov    r14d,DWORD PTR [rbp-0x40]
   8c731:	0f 84 d5 31 00 00    	je     8f90c <Java_com_adjust_sdk_sig_NativeLibHelper_nOnResume@@Base-0x2b397>
   8c737:	48 8b 85 48 ff ff ff 	mov    rax,QWORD PTR [rbp-0xb8]
   8c73e:	48 89 85 58 ff ff ff 	mov    QWORD PTR [rbp-0xa8],rax
   8c745:	48 8b 85 40 ff ff ff 	mov    rax,QWORD PTR [rbp-0xc0]
   8c74c:	48 89 85 60 ff ff ff 	mov    QWORD PTR [rbp-0xa0],rax
   8c753:	48 8b 85 30 ff ff ff 	mov    rax,QWORD PTR [rbp-0xd0]
   8c75a:	48 89 85 68 ff ff ff 	mov    QWORD PTR [rbp-0x98],rax
   8c761:	44 89 75 c8          	mov    DWORD PTR [rbp-0x38],r14d
   8c765:	8b 45 c4             	mov    eax,DWORD PTR [rbp-0x3c]
   8c768:	89 45 cc             	mov    DWORD PTR [rbp-0x34],eax
   8c76b:	48 89 9d 70 ff ff ff 	mov    QWORD PTR [rbp-0x90],rbx
   8c772:	4c 89 9d 78 ff ff ff 	mov    QWORD PTR [rbp-0x88],r11
   8c779:	48 8b 85 50 ff ff ff 	mov    rax,QWORD PTR [rbp-0xb0]
   8c780:	48 89 45 80          	mov    QWORD PTR [rbp-0x80],rax
   8c784:	4c 89 4d 88          	mov    QWORD PTR [rbp-0x78],r9
   8c788:	4c 89 45 90          	mov    QWORD PTR [rbp-0x70],r8
   8c78c:	48 89 4d 98          	mov    QWORD PTR [rbp-0x68],rcx
   8c790:	48 89 75 a0          	mov    QWORD PTR [rbp-0x60],rsi
   8c794:	48 89 7d a8          	mov    QWORD PTR [rbp-0x58],rdi
   8c798:	48 8b 85 00 ff ff ff 	mov    rax,QWORD PTR [rbp-0x100]
   8c79f:	48 89 45 b0          	mov    QWORD PTR [rbp-0x50],rax
   8c7a3:	48 8b 85 38 ff ff ff 	mov    rax,QWORD PTR [rbp-0xc8]
   8c7aa:	48 89 45 b8          	mov    QWORD PTR [rbp-0x48],rax
   8c7ae:	48 ba 93 44 8a e2 42 	movabs rdx,0xf7962f42e28a4493
   8c7b5:	2f 96 f7 
   8c7b8:	49 bb a1 40 4f 93 5a 	movabs r11,0x68f71c5a934f40a1
   8c7bf:	1c f7 68 
   8c7c2:	4d 39 da             	cmp    r10,r11
   8c7c5:	0f 84 07 bd ff ff    	je     884d2 <Java_com_adjust_sdk_sig_NativeLibHelper_nOnResume@@Base-0x327d1>
   8c7cb:	48 b8 34 c7 70 73 ac 	movabs rax,0x6908b4ac7370c734
   8c7d2:	b4 08 69 
   8c7d5:	4c 8b 95 e8 fe ff ff 	mov    r10,QWORD PTR [rbp-0x118]
   8c7dc:	49 39 c2             	cmp    r10,rax
   8c7df:	0f 84 5c 34 00 00    	je     8fc41 <Java_com_adjust_sdk_sig_NativeLibHelper_nOnResume@@Base-0x2b062>
   8c7e5:	48 b8 be 26 53 f4 95 	movabs rax,0x69ef4595f45326be
   8c7ec:	45 ef 69 
   8c7ef:	49 39 c2             	cmp    r10,rax
   8c7f2:	48 8b 85 00 ff ff ff 	mov    rax,QWORD PTR [rbp-0x100]
   8c7f9:	48 8b bd f8 fe ff ff 	mov    rdi,QWORD PTR [rbp-0x108]
   8c800:	48 8b b5 10 ff ff ff 	mov    rsi,QWORD PTR [rbp-0xf0]
   8c807:	48 8b 8d 08 ff ff ff 	mov    rcx,QWORD PTR [rbp-0xf8]
   8c80e:	4c 8b 85 18 ff ff ff 	mov    r8,QWORD PTR [rbp-0xe8]
   8c815:	4c 8b 8d 20 ff ff ff 	mov    r9,QWORD PTR [rbp-0xe0]
   8c81c:	4c 8b 9d f0 fe ff ff 	mov    r11,QWORD PTR [rbp-0x110]
   8c823:	48 8b 9d 28 ff ff ff 	mov    rbx,QWORD PTR [rbp-0xd8]
   8c82a:	44 8b 75 c0          	mov    r14d,DWORD PTR [rbp-0x40]
   8c82e:	0f 84 8d 40 00 00    	je     908c1 <Java_com_adjust_sdk_sig_NativeLibHelper_nOnResume@@Base-0x2a3e2>
   8c834:	48 8b 95 48 ff ff ff 	mov    rdx,QWORD PTR [rbp-0xb8]
   8c83b:	48 89 95 58 ff ff ff 	mov    QWORD PTR [rbp-0xa8],rdx
   8c842:	48 8b 95 40 ff ff ff 	mov    rdx,QWORD PTR [rbp-0xc0]
   8c849:	48 89 95 60 ff ff ff 	mov    QWORD PTR [rbp-0xa0],rdx
   8c850:	48 8b 95 30 ff ff ff 	mov    rdx,QWORD PTR [rbp-0xd0]
   8c857:	48 89 95 68 ff ff ff 	mov    QWORD PTR [rbp-0x98],rdx
   8c85e:	44 89 75 c8          	mov    DWORD PTR [rbp-0x38],r14d
   8c862:	8b 55 c4             	mov    edx,DWORD PTR [rbp-0x3c]
   8c865:	89 55 cc             	mov    DWORD PTR [rbp-0x34],edx
   8c868:	48 89 9d 70 ff ff ff 	mov    QWORD PTR [rbp-0x90],rbx
   8c86f:	4c 89 9d 78 ff ff ff 	mov    QWORD PTR [rbp-0x88],r11
   8c876:	48 8b 95 50 ff ff ff 	mov    rdx,QWORD PTR [rbp-0xb0]
   8c87d:	48 89 55 80          	mov    QWORD PTR [rbp-0x80],rdx
   8c881:	4c 89 4d 88          	mov    QWORD PTR [rbp-0x78],r9
   8c885:	4c 89 45 90          	mov    QWORD PTR [rbp-0x70],r8
   8c889:	48 89 4d 98          	mov    QWORD PTR [rbp-0x68],rcx
   8c88d:	48 89 75 a0          	mov    QWORD PTR [rbp-0x60],rsi
   8c891:	48 89 7d a8          	mov    QWORD PTR [rbp-0x58],rdi
   8c895:	48 89 45 b0          	mov    QWORD PTR [rbp-0x50],rax
   8c899:	48 8b 85 38 ff ff ff 	mov    rax,QWORD PTR [rbp-0xc8]
   8c8a0:	48 89 45 b8          	mov    QWORD PTR [rbp-0x48],rax
   8c8a4:	48 ba a1 36 32 59 37 	movabs rdx,0xdd444637593236a1
   8c8ab:	46 44 dd 
   8c8ae:	49 bb f1 93 4f 8a e8 	movabs r11,0x6ade94e88a4f93f1
   8c8b5:	94 de 6a 
   8c8b8:	4d 39 da             	cmp    r10,r11
   8c8bb:	0f 84 11 bc ff ff    	je     884d2 <Java_com_adjust_sdk_sig_NativeLibHelper_nOnResume@@Base-0x327d1>
   8c8c1:	48 b8 f2 52 0d 7b 1b 	movabs rax,0x6afa281b7b0d52f2
   8c8c8:	28 fa 6a 
   8c8cb:	48 8b 8d e8 fe ff ff 	mov    rcx,QWORD PTR [rbp-0x118]
   8c8d2:	48 39 c1             	cmp    rcx,rax
   8c8d5:	0f 84 d0 2e 00 00    	je     8f7ab <Java_com_adjust_sdk_sig_NativeLibHelper_nOnResume@@Base-0x2b4f8>
   8c8db:	48 b8 f0 c6 b0 80 c3 	movabs rax,0x6bde47c380b0c6f0
   8c8e2:	47 de 6b 
   8c8e5:	48 39 c1             	cmp    rcx,rax
   8c8e8:	4c 8b 85 00 ff ff ff 	mov    r8,QWORD PTR [rbp-0x100]
   8c8ef:	48 8b 95 f8 fe ff ff 	mov    rdx,QWORD PTR [rbp-0x108]
   8c8f6:	48 8b b5 10 ff ff ff 	mov    rsi,QWORD PTR [rbp-0xf0]
   8c8fd:	48 8b 8d 08 ff ff ff 	mov    rcx,QWORD PTR [rbp-0xf8]
   8c904:	4c 8b 8d 18 ff ff ff 	mov    r9,QWORD PTR [rbp-0xe8]
   8c90b:	4c 8b 9d 20 ff ff ff 	mov    r11,QWORD PTR [rbp-0xe0]
   8c912:	4c 8b ad f0 fe ff ff 	mov    r13,QWORD PTR [rbp-0x110]
   8c919:	44 8b 55 c0          	mov    r10d,DWORD PTR [rbp-0x40]
   8c91d:	48 8b bd 30 ff ff ff 	mov    rdi,QWORD PTR [rbp-0xd0]
   8c924:	4c 8b b5 40 ff ff ff 	mov    r14,QWORD PTR [rbp-0xc0]
   8c92b:	0f 84 61 3e 00 00    	je     90792 <Java_com_adjust_sdk_sig_NativeLibHelper_nOnResume@@Base-0x2a511>
   8c931:	48 8b 9d 48 ff ff ff 	mov    rbx,QWORD PTR [rbp-0xb8]
   8c938:	48 89 9d 58 ff ff ff 	mov    QWORD PTR [rbp-0xa8],rbx
   8c93f:	4c 89 b5 60 ff ff ff 	mov    QWORD PTR [rbp-0xa0],r14
   8c946:	48 89 bd 68 ff ff ff 	mov    QWORD PTR [rbp-0x98],rdi
   8c94d:	44 89 55 c8          	mov    DWORD PTR [rbp-0x38],r10d
   8c951:	4d 89 f2             	mov    r10,r14
   8c954:	44 8b 75 c4          	mov    r14d,DWORD PTR [rbp-0x3c]
   8c958:	44 89 75 cc          	mov    DWORD PTR [rbp-0x34],r14d
   8c95c:	4c 8b bd 28 ff ff ff 	mov    r15,QWORD PTR [rbp-0xd8]
   8c963:	4c 89 bd 70 ff ff ff 	mov    QWORD PTR [rbp-0x90],r15
   8c96a:	4c 89 ad 78 ff ff ff 	mov    QWORD PTR [rbp-0x88],r13
   8c971:	48 8b 85 50 ff ff ff 	mov    rax,QWORD PTR [rbp-0xb0]
   8c978:	48 89 45 80          	mov    QWORD PTR [rbp-0x80],rax
   8c97c:	4c 89 5d 88          	mov    QWORD PTR [rbp-0x78],r11
   8c980:	4c 89 4d 90          	mov    QWORD PTR [rbp-0x70],r9
   8c984:	48 89 4d 98          	mov    QWORD PTR [rbp-0x68],rcx
   8c988:	48 89 75 a0          	mov    QWORD PTR [rbp-0x60],rsi
   8c98c:	48 89 55 a8          	mov    QWORD PTR [rbp-0x58],rdx
   8c990:	4d 89 dc             	mov    r12,r11
   8c993:	4c 89 45 b0          	mov    QWORD PTR [rbp-0x50],r8
   8c997:	48 8b 85 38 ff ff ff 	mov    rax,QWORD PTR [rbp-0xc8]
   8c99e:	48 89 45 b8          	mov    QWORD PTR [rbp-0x48],rax
   8c9a2:	48 ba 8c 91 ed 4d e3 	movabs rdx,0xca44c2e34ded918c
   8c9a9:	c2 44 ca 
   8c9ac:	49 bb fb 1a d1 a0 85 	movabs r11,0x6d163885a0d11afb
   8c9b3:	38 16 6d 
   8c9b6:	4c 39 9d e8 fe ff ff 	cmp    QWORD PTR [rbp-0x118],r11
   8c9bd:	0f 84 0f bb ff ff    	je     884d2 <Java_com_adjust_sdk_sig_NativeLibHelper_nOnResume@@Base-0x327d1>
   8c9c3:	4c 89 cf             	mov    rdi,r9
   8c9c6:	48 89 9d 58 ff ff ff 	mov    QWORD PTR [rbp-0xa8],rbx
   8c9cd:	4c 89 95 60 ff ff ff 	mov    QWORD PTR [rbp-0xa0],r10
   8c9d4:	48 8b 95 30 ff ff ff 	mov    rdx,QWORD PTR [rbp-0xd0]
   8c9db:	48 89 95 68 ff ff ff 	mov    QWORD PTR [rbp-0x98],rdx
   8c9e2:	8b 55 c0             	mov    edx,DWORD PTR [rbp-0x40]
   8c9e5:	89 55 c8             	mov    DWORD PTR [rbp-0x38],edx
   8c9e8:	44 89 75 cc          	mov    DWORD PTR [rbp-0x34],r14d
   8c9ec:	4c 89 bd 70 ff ff ff 	mov    QWORD PTR [rbp-0x90],r15
   8c9f3:	4c 89 ad 78 ff ff ff 	mov    QWORD PTR [rbp-0x88],r13
   8c9fa:	48 8b 95 50 ff ff ff 	mov    rdx,QWORD PTR [rbp-0xb0]
   8ca01:	48 89 55 80          	mov    QWORD PTR [rbp-0x80],rdx
   8ca05:	4c 89 65 88          	mov    QWORD PTR [rbp-0x78],r12
   8ca09:	4c 89 4d 90          	mov    QWORD PTR [rbp-0x70],r9
   8ca0d:	48 89 4d 98          	mov    QWORD PTR [rbp-0x68],rcx
   8ca11:	48 89 75 a0          	mov    QWORD PTR [rbp-0x60],rsi
   8ca15:	48 8b 8d f8 fe ff ff 	mov    rcx,QWORD PTR [rbp-0x108]
   8ca1c:	48 89 4d a8          	mov    QWORD PTR [rbp-0x58],rcx
   8ca20:	4c 89 45 b0          	mov    QWORD PTR [rbp-0x50],r8
   8ca24:	48 89 45 b8          	mov    QWORD PTR [rbp-0x48],rax
   8ca28:	48 ba 74 15 51 30 35 	movabs rdx,0x5bec243530511574
   8ca2f:	24 ec 5b 
   8ca32:	49 bb 9d 7d 22 13 a9 	movabs r11,0x6d6d9fa913227d9d
   8ca39:	9f 6d 6d 
   8ca3c:	4c 39 9d e8 fe ff ff 	cmp    QWORD PTR [rbp-0x118],r11
   8ca43:	0f 84 89 ba ff ff    	je     884d2 <Java_com_adjust_sdk_sig_NativeLibHelper_nOnResume@@Base-0x327d1>
   8ca49:	48 b8 8a 92 95 59 a2 	movabs rax,0x6f0c04a25995928a
   8ca50:	04 0c 6f 
   8ca53:	4c 8b a5 e8 fe ff ff 	mov    r12,QWORD PTR [rbp-0x118]
   8ca5a:	49 39 c4             	cmp    r12,rax
   8ca5d:	0f 84 1e 2d 00 00    	je     8f781 <Java_com_adjust_sdk_sig_NativeLibHelper_nOnResume@@Base-0x2b522>
   8ca63:	48 b8 aa 88 e4 ac 8d 	movabs rax,0x6f2dfb8dace488aa
   8ca6a:	fb 2d 6f 
   8ca6d:	49 39 c4             	cmp    r12,rax
   8ca70:	48 8b 95 00 ff ff ff 	mov    rdx,QWORD PTR [rbp-0x100]
   8ca77:	4c 8b 8d f8 fe ff ff 	mov    r9,QWORD PTR [rbp-0x108]
   8ca7e:	4c 8b 9d 10 ff ff ff 	mov    r11,QWORD PTR [rbp-0xf0]
   8ca85:	48 8b b5 08 ff ff ff 	mov    rsi,QWORD PTR [rbp-0xf8]
   8ca8c:	48 8b 8d 18 ff ff ff 	mov    rcx,QWORD PTR [rbp-0xe8]
   8ca93:	48 8b 9d 20 ff ff ff 	mov    rbx,QWORD PTR [rbp-0xe0]
   8ca9a:	44 8b 75 c0          	mov    r14d,DWORD PTR [rbp-0x40]
   8ca9e:	0f 84 5a 45 00 00    	je     90ffe <Java_com_adjust_sdk_sig_NativeLibHelper_nOnResume@@Base-0x29ca5>
   8caa4:	48 b8 f3 3f e7 5b ef 	movabs rax,0x70c232ef5be73ff3
   8caab:	32 c2 70 
   8caae:	49 39 c4             	cmp    r12,rax
   8cab1:	0f 84 4c 3b 00 00    	je     90603 <Java_com_adjust_sdk_sig_NativeLibHelper_nOnResume@@Base-0x2a6a0>
   8cab7:	48 b8 8b 5f bd 79 17 	movabs rax,0x7241771779bd5f8b
   8cabe:	77 41 72 
   8cac1:	49 39 c4             	cmp    r12,rax
   8cac4:	0f 84 3b 2a 00 00    	je     8f505 <Java_com_adjust_sdk_sig_NativeLibHelper_nOnResume@@Base-0x2b79e>
   8caca:	48 8b bd 48 ff ff ff 	mov    rdi,QWORD PTR [rbp-0xb8]
   8cad1:	48 89 bd 58 ff ff ff 	mov    QWORD PTR [rbp-0xa8],rdi
   8cad8:	4c 8b 85 40 ff ff ff 	mov    r8,QWORD PTR [rbp-0xc0]
   8cadf:	4c 89 85 60 ff ff ff 	mov    QWORD PTR [rbp-0xa0],r8
   8cae6:	4c 8b 95 30 ff ff ff 	mov    r10,QWORD PTR [rbp-0xd0]
   8caed:	4c 89 95 68 ff ff ff 	mov    QWORD PTR [rbp-0x98],r10
   8caf4:	44 89 75 c8          	mov    DWORD PTR [rbp-0x38],r14d
   8caf8:	44 8b 7d c4          	mov    r15d,DWORD PTR [rbp-0x3c]
   8cafc:	44 89 7d cc          	mov    DWORD PTR [rbp-0x34],r15d
   8cb00:	4c 8b ad 28 ff ff ff 	mov    r13,QWORD PTR [rbp-0xd8]
   8cb07:	4c 89 ad 70 ff ff ff 	mov    QWORD PTR [rbp-0x90],r13
   8cb0e:	48 8b 85 38 fa ff ff 	mov    rax,QWORD PTR [rbp-0x5c8]
   8cb15:	48 89 85 78 ff ff ff 	mov    QWORD PTR [rbp-0x88],rax
   8cb1c:	48 8b 85 50 ff ff ff 	mov    rax,QWORD PTR [rbp-0xb0]
   8cb23:	48 89 45 80          	mov    QWORD PTR [rbp-0x80],rax
   8cb27:	48 89 5d 88          	mov    QWORD PTR [rbp-0x78],rbx
   8cb2b:	48 89 4d 90          	mov    QWORD PTR [rbp-0x70],rcx
   8cb2f:	48 89 75 98          	mov    QWORD PTR [rbp-0x68],rsi
   8cb33:	4c 89 5d a0          	mov    QWORD PTR [rbp-0x60],r11
   8cb37:	4c 89 4d a8          	mov    QWORD PTR [rbp-0x58],r9
   8cb3b:	48 89 55 b0          	mov    QWORD PTR [rbp-0x50],rdx
   8cb3f:	48 8b 85 38 ff ff ff 	mov    rax,QWORD PTR [rbp-0xc8]
   8cb46:	48 89 45 b8          	mov    QWORD PTR [rbp-0x48],rax
   8cb4a:	48 ba 09 57 3d 3b c0 	movabs rdx,0xd21af8c03b3d5709
   8cb51:	f8 1a d2 
   8cb54:	49 bb c5 ec 3d d8 e3 	movabs r11,0x727a2de3d83decc5
   8cb5b:	2d 7a 72 
   8cb5e:	4d 39 dc             	cmp    r12,r11
   8cb61:	4c 8b a5 f0 fe ff ff 	mov    r12,QWORD PTR [rbp-0x110]
   8cb68:	0f 84 64 b9 ff ff    	je     884d2 <Java_com_adjust_sdk_sig_NativeLibHelper_nOnResume@@Base-0x327d1>
   8cb6e:	48 89 bd 58 ff ff ff 	mov    QWORD PTR [rbp-0xa8],rdi
   8cb75:	4c 89 85 60 ff ff ff 	mov    QWORD PTR [rbp-0xa0],r8
   8cb7c:	4c 89 95 68 ff ff ff 	mov    QWORD PTR [rbp-0x98],r10
   8cb83:	44 89 75 c8          	mov    DWORD PTR [rbp-0x38],r14d
   8cb87:	44 89 7d cc          	mov    DWORD PTR [rbp-0x34],r15d
   8cb8b:	4c 89 ad 70 ff ff ff 	mov    QWORD PTR [rbp-0x90],r13
   8cb92:	4c 89 a5 78 ff ff ff 	mov    QWORD PTR [rbp-0x88],r12
   8cb99:	48 8b 95 50 ff ff ff 	mov    rdx,QWORD PTR [rbp-0xb0]
   8cba0:	48 89 55 80          	mov    QWORD PTR [rbp-0x80],rdx
   8cba4:	48 89 5d 88          	mov    QWORD PTR [rbp-0x78],rbx
   8cba8:	48 89 4d 90          	mov    QWORD PTR [rbp-0x70],rcx
   8cbac:	48 89 75 98          	mov    QWORD PTR [rbp-0x68],rsi
   8cbb0:	48 8b 95 10 ff ff ff 	mov    rdx,QWORD PTR [rbp-0xf0]
   8cbb7:	48 89 55 a0          	mov    QWORD PTR [rbp-0x60],rdx
   8cbbb:	48 8b 95 f8 fe ff ff 	mov    rdx,QWORD PTR [rbp-0x108]
   8cbc2:	48 89 55 a8          	mov    QWORD PTR [rbp-0x58],rdx
   8cbc6:	48 8b 95 00 ff ff ff 	mov    rdx,QWORD PTR [rbp-0x100]
   8cbcd:	48 89 55 b0          	mov    QWORD PTR [rbp-0x50],rdx
   8cbd1:	48 89 45 b8          	mov    QWORD PTR [rbp-0x48],rax
   8cbd5:	48 ba a1 36 32 59 37 	movabs rdx,0xdd444637593236a1
   8cbdc:	46 44 dd 
   8cbdf:	49 bb 46 72 81 09 75 	movabs r11,0x73607f7509817246
   8cbe6:	7f 60 73 
   8cbe9:	4c 39 9d e8 fe ff ff 	cmp    QWORD PTR [rbp-0x118],r11
   8cbf0:	0f 84 dc b8 ff ff    	je     884d2 <Java_com_adjust_sdk_sig_NativeLibHelper_nOnResume@@Base-0x327d1>
   8cbf6:	48 89 bd 58 ff ff ff 	mov    QWORD PTR [rbp-0xa8],rdi
   8cbfd:	4c 89 85 60 ff ff ff 	mov    QWORD PTR [rbp-0xa0],r8
   8cc04:	4c 89 95 68 ff ff ff 	mov    QWORD PTR [rbp-0x98],r10
   8cc0b:	44 89 75 c8          	mov    DWORD PTR [rbp-0x38],r14d
   8cc0f:	44 89 7d cc          	mov    DWORD PTR [rbp-0x34],r15d
   8cc13:	4c 89 ad 70 ff ff ff 	mov    QWORD PTR [rbp-0x90],r13
   8cc1a:	4c 89 a5 78 ff ff ff 	mov    QWORD PTR [rbp-0x88],r12
   8cc21:	48 8b 95 50 ff ff ff 	mov    rdx,QWORD PTR [rbp-0xb0]
   8cc28:	48 89 55 80          	mov    QWORD PTR [rbp-0x80],rdx
   8cc2c:	48 89 5d 88          	mov    QWORD PTR [rbp-0x78],rbx
   8cc30:	48 89 4d 90          	mov    QWORD PTR [rbp-0x70],rcx
   8cc34:	48 89 75 98          	mov    QWORD PTR [rbp-0x68],rsi
   8cc38:	48 8b 95 10 ff ff ff 	mov    rdx,QWORD PTR [rbp-0xf0]
   8cc3f:	48 89 55 a0          	mov    QWORD PTR [rbp-0x60],rdx
   8cc43:	48 8b 95 f8 fe ff ff 	mov    rdx,QWORD PTR [rbp-0x108]
   8cc4a:	48 89 55 a8          	mov    QWORD PTR [rbp-0x58],rdx
   8cc4e:	48 8b 95 00 ff ff ff 	mov    rdx,QWORD PTR [rbp-0x100]
   8cc55:	48 89 55 b0          	mov    QWORD PTR [rbp-0x50],rdx
   8cc59:	48 89 45 b8          	mov    QWORD PTR [rbp-0x48],rax
   8cc5d:	48 ba 1d 9e bb 5b 06 	movabs rdx,0x477719065bbb9e1d
   8cc64:	19 77 47 
   8cc67:	49 bb b2 be 30 95 b5 	movabs r11,0x73db4fb59530beb2
   8cc6e:	4f db 73 
   8cc71:	4c 39 9d e8 fe ff ff 	cmp    QWORD PTR [rbp-0x118],r11
   8cc78:	0f 84 54 b8 ff ff    	je     884d2 <Java_com_adjust_sdk_sig_NativeLibHelper_nOnResume@@Base-0x327d1>
   8cc7e:	48 89 bd 58 ff ff ff 	mov    QWORD PTR [rbp-0xa8],rdi
   8cc85:	4c 89 85 60 ff ff ff 	mov    QWORD PTR [rbp-0xa0],r8
   8cc8c:	4c 89 95 68 ff ff ff 	mov    QWORD PTR [rbp-0x98],r10
   8cc93:	44 89 75 c8          	mov    DWORD PTR [rbp-0x38],r14d
   8cc97:	44 89 7d cc          	mov    DWORD PTR [rbp-0x34],r15d
   8cc9b:	4c 89 ad 70 ff ff ff 	mov    QWORD PTR [rbp-0x90],r13
   8cca2:	4c 89 a5 78 ff ff ff 	mov    QWORD PTR [rbp-0x88],r12
   8cca9:	48 8b 95 50 ff ff ff 	mov    rdx,QWORD PTR [rbp-0xb0]
   8ccb0:	48 89 55 80          	mov    QWORD PTR [rbp-0x80],rdx
   8ccb4:	48 89 5d 88          	mov    QWORD PTR [rbp-0x78],rbx
   8ccb8:	48 89 4d 90          	mov    QWORD PTR [rbp-0x70],rcx
   8ccbc:	48 89 75 98          	mov    QWORD PTR [rbp-0x68],rsi
   8ccc0:	48 8b 8d 10 ff ff ff 	mov    rcx,QWORD PTR [rbp-0xf0]
   8ccc7:	48 89 4d a0          	mov    QWORD PTR [rbp-0x60],rcx
   8cccb:	48 8b 8d f8 fe ff ff 	mov    rcx,QWORD PTR [rbp-0x108]
   8ccd2:	48 89 4d a8          	mov    QWORD PTR [rbp-0x58],rcx
   8ccd6:	48 8b 8d 00 ff ff ff 	mov    rcx,QWORD PTR [rbp-0x100]
   8ccdd:	48 89 4d b0          	mov    QWORD PTR [rbp-0x50],rcx
   8cce1:	48 89 45 b8          	mov    QWORD PTR [rbp-0x48],rax
   8cce5:	48 ba 74 15 51 30 35 	movabs rdx,0x5bec243530511574
   8ccec:	24 ec 5b 
   8ccef:	49 bb 86 9d cb 3d f5 	movabs r11,0x74574ff53dcb9d86
   8ccf6:	4f 57 74 
   8ccf9:	4c 39 9d e8 fe ff ff 	cmp    QWORD PTR [rbp-0x118],r11
   8cd00:	0f 84 cc b7 ff ff    	je     884d2 <Java_com_adjust_sdk_sig_NativeLibHelper_nOnResume@@Base-0x327d1>
   8cd06:	48 b8 8f f8 ef d0 f1 	movabs rax,0x754eb2f1d0eff88f
   8cd0d:	b2 4e 75 
   8cd10:	48 8b b5 e8 fe ff ff 	mov    rsi,QWORD PTR [rbp-0x118]
   8cd17:	48 39 c6             	cmp    rsi,rax
   8cd1a:	0f 84 03 30 00 00    	je     8fd23 <Java_com_adjust_sdk_sig_NativeLibHelper_nOnResume@@Base-0x2af80>
   8cd20:	48 b8 60 d5 4e f7 60 	movabs rax,0x765c3460f74ed560
   8cd27:	34 5c 76 
   8cd2a:	48 39 c6             	cmp    rsi,rax
   8cd2d:	4c 8b b5 f8 fe ff ff 	mov    r14,QWORD PTR [rbp-0x108]
   8cd34:	48 8b 85 f0 fe ff ff 	mov    rax,QWORD PTR [rbp-0x110]
   8cd3b:	48 8b 9d 28 ff ff ff 	mov    rbx,QWORD PTR [rbp-0xd8]
   8cd42:	0f 84 fd 31 00 00    	je     8ff45 <Java_com_adjust_sdk_sig_NativeLibHelper_nOnResume@@Base-0x2ad5e>
   8cd48:	48 8b 8d 48 ff ff ff 	mov    rcx,QWORD PTR [rbp-0xb8]
   8cd4f:	48 89 8d 58 ff ff ff 	mov    QWORD PTR [rbp-0xa8],rcx
   8cd56:	48 8b 8d 40 ff ff ff 	mov    rcx,QWORD PTR [rbp-0xc0]
   8cd5d:	48 89 8d 60 ff ff ff 	mov    QWORD PTR [rbp-0xa0],rcx
   8cd64:	48 8b 8d 30 ff ff ff 	mov    rcx,QWORD PTR [rbp-0xd0]
   8cd6b:	48 89 8d 68 ff ff ff 	mov    QWORD PTR [rbp-0x98],rcx
   8cd72:	8b 4d c0             	mov    ecx,DWORD PTR [rbp-0x40]
   8cd75:	89 4d c8             	mov    DWORD PTR [rbp-0x38],ecx
   8cd78:	8b 4d c4             	mov    ecx,DWORD PTR [rbp-0x3c]
   8cd7b:	89 4d cc             	mov    DWORD PTR [rbp-0x34],ecx
   8cd7e:	48 89 9d 70 ff ff ff 	mov    QWORD PTR [rbp-0x90],rbx
   8cd85:	48 89 85 78 ff ff ff 	mov    QWORD PTR [rbp-0x88],rax
   8cd8c:	48 8b 85 50 ff ff ff 	mov    rax,QWORD PTR [rbp-0xb0]
   8cd93:	48 89 45 80          	mov    QWORD PTR [rbp-0x80],rax
   8cd97:	48 8b 85 20 ff ff ff 	mov    rax,QWORD PTR [rbp-0xe0]
   8cd9e:	48 89 45 88          	mov    QWORD PTR [rbp-0x78],rax
   8cda2:	48 8b 85 18 ff ff ff 	mov    rax,QWORD PTR [rbp-0xe8]
   8cda9:	48 89 45 90          	mov    QWORD PTR [rbp-0x70],rax
   8cdad:	48 8b 85 08 ff ff ff 	mov    rax,QWORD PTR [rbp-0xf8]
   8cdb4:	48 89 45 98          	mov    QWORD PTR [rbp-0x68],rax
   8cdb8:	48 8b 85 10 ff ff ff 	mov    rax,QWORD PTR [rbp-0xf0]
   8cdbf:	48 89 45 a0          	mov    QWORD PTR [rbp-0x60],rax
   8cdc3:	4c 89 75 a8          	mov    QWORD PTR [rbp-0x58],r14
   8cdc7:	48 8b 85 00 ff ff ff 	mov    rax,QWORD PTR [rbp-0x100]
   8cdce:	48 89 45 b0          	mov    QWORD PTR [rbp-0x50],rax
   8cdd2:	48 8b 85 38 ff ff ff 	mov    rax,QWORD PTR [rbp-0xc8]
   8cdd9:	48 89 45 b8          	mov    QWORD PTR [rbp-0x48],rax
   8cddd:	48 ba a7 08 40 c5 70 	movabs rdx,0x144d4470c54008a7
   8cde4:	44 4d 14 
   8cde7:	49 bb 36 63 91 67 8b 	movabs r11,0x771cfe8b67916336
   8cdee:	fe 1c 77 
   8cdf1:	4c 39 de             	cmp    rsi,r11
   8cdf4:	0f 84 d8 b6 ff ff    	je     884d2 <Java_com_adjust_sdk_sig_NativeLibHelper_nOnResume@@Base-0x327d1>
   8cdfa:	48 b8 02 b9 9d af 10 	movabs rax,0x783c1810af9db902
   8ce01:	18 3c 78 
   8ce04:	48 8b 8d e8 fe ff ff 	mov    rcx,QWORD PTR [rbp-0x118]
   8ce0b:	48 39 c1             	cmp    rcx,rax
   8ce0e:	0f 84 b4 3e 00 00    	je     90cc8 <Java_com_adjust_sdk_sig_NativeLibHelper_nOnResume@@Base-0x29fdb>
   8ce14:	48 b8 ea a6 d7 23 79 	movabs rax,0x78722b7923d7a6ea
   8ce1b:	2b 72 78 
   8ce1e:	48 39 c1             	cmp    rcx,rax
   8ce21:	48 8b bd f8 fe ff ff 	mov    rdi,QWORD PTR [rbp-0x108]
   8ce28:	48 8b b5 10 ff ff ff 	mov    rsi,QWORD PTR [rbp-0xf0]
   8ce2f:	4c 8b 85 08 ff ff ff 	mov    r8,QWORD PTR [rbp-0xf8]
   8ce36:	4c 8b 8d 18 ff ff ff 	mov    r9,QWORD PTR [rbp-0xe8]
   8ce3d:	4c 8b 9d 20 ff ff ff 	mov    r11,QWORD PTR [rbp-0xe0]
   8ce44:	48 8b 9d f0 fe ff ff 	mov    rbx,QWORD PTR [rbp-0x110]
   8ce4b:	44 8b 55 c0          	mov    r10d,DWORD PTR [rbp-0x40]
   8ce4f:	4c 8b b5 30 ff ff ff 	mov    r14,QWORD PTR [rbp-0xd0]
   8ce56:	0f 84 cc 3d 00 00    	je     90c28 <Java_com_adjust_sdk_sig_NativeLibHelper_nOnResume@@Base-0x2a07b>
   8ce5c:	48 b8 64 35 5e 41 eb 	movabs rax,0x79a00deb415e3564
   8ce63:	0d a0 79 
   8ce66:	48 39 c1             	cmp    rcx,rax
   8ce69:	48 8b 95 00 ff ff ff 	mov    rdx,QWORD PTR [rbp-0x100]
   8ce70:	0f 84 54 2b 00 00    	je     8f9ca <Java_com_adjust_sdk_sig_NativeLibHelper_nOnResume@@Base-0x2b2d9>
   8ce76:	48 8b 85 48 ff ff ff 	mov    rax,QWORD PTR [rbp-0xb8]
   8ce7d:	48 89 85 58 ff ff ff 	mov    QWORD PTR [rbp-0xa8],rax
   8ce84:	48 8b 85 40 ff ff ff 	mov    rax,QWORD PTR [rbp-0xc0]
   8ce8b:	48 89 85 60 ff ff ff 	mov    QWORD PTR [rbp-0xa0],rax
   8ce92:	4c 89 b5 68 ff ff ff 	mov    QWORD PTR [rbp-0x98],r14
   8ce99:	44 89 55 c8          	mov    DWORD PTR [rbp-0x38],r10d
   8ce9d:	8b 45 c4             	mov    eax,DWORD PTR [rbp-0x3c]
   8cea0:	89 45 cc             	mov    DWORD PTR [rbp-0x34],eax
   8cea3:	48 8b 85 28 ff ff ff 	mov    rax,QWORD PTR [rbp-0xd8]
   8ceaa:	48 89 85 70 ff ff ff 	mov    QWORD PTR [rbp-0x90],rax
   8ceb1:	48 89 9d 78 ff ff ff 	mov    QWORD PTR [rbp-0x88],rbx
   8ceb8:	48 8b 85 50 ff ff ff 	mov    rax,QWORD PTR [rbp-0xb0]
   8cebf:	48 89 45 80          	mov    QWORD PTR [rbp-0x80],rax
   8cec3:	4c 89 5d 88          	mov    QWORD PTR [rbp-0x78],r11
   8cec7:	4c 89 4d 90          	mov    QWORD PTR [rbp-0x70],r9
   8cecb:	4c 89 45 98          	mov    QWORD PTR [rbp-0x68],r8
   8cecf:	48 89 75 a0          	mov    QWORD PTR [rbp-0x60],rsi
   8ced3:	48 89 7d a8          	mov    QWORD PTR [rbp-0x58],rdi
   8ced7:	48 89 55 b0          	mov    QWORD PTR [rbp-0x50],rdx
   8cedb:	48 8b 85 38 ff ff ff 	mov    rax,QWORD PTR [rbp-0xc8]
   8cee2:	48 89 45 b8          	mov    QWORD PTR [rbp-0x48],rax
   8cee6:	48 ba 74 15 51 30 35 	movabs rdx,0x5bec243530511574
   8ceed:	24 ec 5b 
   8cef0:	49 bb b3 d6 7e 77 94 	movabs r11,0x79d49194777ed6b3
   8cef7:	91 d4 79 
   8cefa:	4c 39 d9             	cmp    rcx,r11
   8cefd:	0f 84 cf b5 ff ff    	je     884d2 <Java_com_adjust_sdk_sig_NativeLibHelper_nOnResume@@Base-0x327d1>
   8cf03:	48 b8 2b 02 19 f1 2b 	movabs rax,0x7a86af2bf119022b
   8cf0a:	af 86 7a 
   8cf0d:	48 8b 8d e8 fe ff ff 	mov    rcx,QWORD PTR [rbp-0x118]
   8cf14:	48 39 c1             	cmp    rcx,rax
   8cf17:	0f 84 54 32 00 00    	je     90171 <Java_com_adjust_sdk_sig_NativeLibHelper_nOnResume@@Base-0x2ab32>
   8cf1d:	48 b8 ec df c8 4d 10 	movabs rax,0x7a9f83104dc8dfec
   8cf24:	83 9f 7a 
   8cf27:	48 39 c1             	cmp    rcx,rax
   8cf2a:	4c 8b 85 00 ff ff ff 	mov    r8,QWORD PTR [rbp-0x100]
   8cf31:	48 8b bd f8 fe ff ff 	mov    rdi,QWORD PTR [rbp-0x108]
   8cf38:	48 8b b5 10 ff ff ff 	mov    rsi,QWORD PTR [rbp-0xf0]
   8cf3f:	4c 8b 8d 08 ff ff ff 	mov    r9,QWORD PTR [rbp-0xf8]
   8cf46:	4c 8b 9d 18 ff ff ff 	mov    r11,QWORD PTR [rbp-0xe8]
   8cf4d:	48 8b 9d 20 ff ff ff 	mov    rbx,QWORD PTR [rbp-0xe0]
   8cf54:	44 8b 55 c0          	mov    r10d,DWORD PTR [rbp-0x40]
   8cf58:	4c 8b b5 30 ff ff ff 	mov    r14,QWORD PTR [rbp-0xd0]
   8cf5f:	0f 84 0c 3a 00 00    	je     90971 <Java_com_adjust_sdk_sig_NativeLibHelper_nOnResume@@Base-0x2a332>
   8cf65:	48 8b 85 48 ff ff ff 	mov    rax,QWORD PTR [rbp-0xb8]
   8cf6c:	48 89 85 58 ff ff ff 	mov    QWORD PTR [rbp-0xa8],rax
   8cf73:	48 8b 85 40 ff ff ff 	mov    rax,QWORD PTR [rbp-0xc0]
   8cf7a:	48 89 85 60 ff ff ff 	mov    QWORD PTR [rbp-0xa0],rax
   8cf81:	4c 89 b5 68 ff ff ff 	mov    QWORD PTR [rbp-0x98],r14
   8cf88:	44 89 55 c8          	mov    DWORD PTR [rbp-0x38],r10d
   8cf8c:	8b 45 c4             	mov    eax,DWORD PTR [rbp-0x3c]
   8cf8f:	89 45 cc             	mov    DWORD PTR [rbp-0x34],eax
   8cf92:	48 8b 85 28 ff ff ff 	mov    rax,QWORD PTR [rbp-0xd8]
   8cf99:	48 89 85 70 ff ff ff 	mov    QWORD PTR [rbp-0x90],rax
   8cfa0:	48 8b 85 f0 fe ff ff 	mov    rax,QWORD PTR [rbp-0x110]
   8cfa7:	48 89 85 78 ff ff ff 	mov    QWORD PTR [rbp-0x88],rax
   8cfae:	48 8b 85 50 ff ff ff 	mov    rax,QWORD PTR [rbp-0xb0]
   8cfb5:	48 89 45 80          	mov    QWORD PTR [rbp-0x80],rax
   8cfb9:	48 89 5d 88          	mov    QWORD PTR [rbp-0x78],rbx
   8cfbd:	4c 89 5d 90          	mov    QWORD PTR [rbp-0x70],r11
   8cfc1:	4c 89 4d 98          	mov    QWORD PTR [rbp-0x68],r9
   8cfc5:	48 89 75 a0          	mov    QWORD PTR [rbp-0x60],rsi
   8cfc9:	48 89 7d a8          	mov    QWORD PTR [rbp-0x58],rdi
   8cfcd:	4c 89 45 b0          	mov    QWORD PTR [rbp-0x50],r8
   8cfd1:	48 8b 85 38 ff ff ff 	mov    rax,QWORD PTR [rbp-0xc8]
   8cfd8:	48 89 45 b8          	mov    QWORD PTR [rbp-0x48],rax
   8cfdc:	48 ba 1c 60 7e a7 64 	movabs rdx,0xce52164a77e601c
   8cfe3:	21 e5 0c 
   8cfe6:	49 bb 15 93 b7 34 21 	movabs r11,0x7d83582134b79315
   8cfed:	58 83 7d 
   8cff0:	4c 39 d9             	cmp    rcx,r11
   8cff3:	0f 84 d9 b4 ff ff    	je     884d2 <Java_com_adjust_sdk_sig_NativeLibHelper_nOnResume@@Base-0x327d1>
   8cff9:	48 b8 7c ce 99 82 2b 	movabs rax,0x7d94b62b8299ce7c
   8d000:	b6 94 7d 
   8d003:	4c 8b a5 e8 fe ff ff 	mov    r12,QWORD PTR [rbp-0x118]
   8d00a:	49 39 c4             	cmp    r12,rax
   8d00d:	0f 84 1f 35 00 00    	je     90532 <Java_com_adjust_sdk_sig_NativeLibHelper_nOnResume@@Base-0x2a771>
   8d013:	48 b8 20 8a 7c 7e a1 	movabs rax,0x7dc8d8a17e7c8a20
   8d01a:	d8 c8 7d 
   8d01d:	49 39 c4             	cmp    r12,rax
   8d020:	48 8b 85 00 ff ff ff 	mov    rax,QWORD PTR [rbp-0x100]
   8d027:	48 8b 95 f8 fe ff ff 	mov    rdx,QWORD PTR [rbp-0x108]
   8d02e:	48 8b b5 10 ff ff ff 	mov    rsi,QWORD PTR [rbp-0xf0]
   8d035:	48 8b 8d 08 ff ff ff 	mov    rcx,QWORD PTR [rbp-0xf8]
   8d03c:	48 8b bd 18 ff ff ff 	mov    rdi,QWORD PTR [rbp-0xe8]
   8d043:	4c 8b 85 20 ff ff ff 	mov    r8,QWORD PTR [rbp-0xe0]
   8d04a:	4c 8b 8d f0 fe ff ff 	mov    r9,QWORD PTR [rbp-0x110]
   8d051:	4c 8b 9d 28 ff ff ff 	mov    r11,QWORD PTR [rbp-0xd8]
   8d058:	8b 5d c4             	mov    ebx,DWORD PTR [rbp-0x3c]
   8d05b:	44 8b 55 c0          	mov    r10d,DWORD PTR [rbp-0x40]
   8d05f:	4c 8b b5 30 ff ff ff 	mov    r14,QWORD PTR [rbp-0xd0]
   8d066:	0f 84 87 36 00 00    	je     906f3 <Java_com_adjust_sdk_sig_NativeLibHelper_nOnResume@@Base-0x2a5b0>
   8d06c:	4c 8b bd 48 ff ff ff 	mov    r15,QWORD PTR [rbp-0xb8]
   8d073:	4c 89 bd 58 ff ff ff 	mov    QWORD PTR [rbp-0xa8],r15
   8d07a:	4c 8b bd 40 ff ff ff 	mov    r15,QWORD PTR [rbp-0xc0]
   8d081:	4c 89 bd 60 ff ff ff 	mov    QWORD PTR [rbp-0xa0],r15
   8d088:	4c 89 b5 68 ff ff ff 	mov    QWORD PTR [rbp-0x98],r14
   8d08f:	44 89 55 c8          	mov    DWORD PTR [rbp-0x38],r10d
   8d093:	89 5d cc             	mov    DWORD PTR [rbp-0x34],ebx
   8d096:	4c 89 9d 70 ff ff ff 	mov    QWORD PTR [rbp-0x90],r11
   8d09d:	4c 89 8d 78 ff ff ff 	mov    QWORD PTR [rbp-0x88],r9
   8d0a4:	4c 8b 8d 50 ff ff ff 	mov    r9,QWORD PTR [rbp-0xb0]
   8d0ab:	4c 89 4d 80          	mov    QWORD PTR [rbp-0x80],r9
   8d0af:	4c 89 45 88          	mov    QWORD PTR [rbp-0x78],r8
   8d0b3:	48 89 7d 90          	mov    QWORD PTR [rbp-0x70],rdi
   8d0b7:	48 89 4d 98          	mov    QWORD PTR [rbp-0x68],rcx
   8d0bb:	48 89 75 a0          	mov    QWORD PTR [rbp-0x60],rsi
   8d0bf:	48 89 55 a8          	mov    QWORD PTR [rbp-0x58],rdx
   8d0c3:	48 89 45 b0          	mov    QWORD PTR [rbp-0x50],rax
   8d0c7:	48 8b 85 38 ff ff ff 	mov    rax,QWORD PTR [rbp-0xc8]
   8d0ce:	48 89 45 b8          	mov    QWORD PTR [rbp-0x48],rax
   8d0d2:	48 ba d1 8c 6d 83 45 	movabs rdx,0x1f21c945836d8cd1
   8d0d9:	c9 21 1f 
   8d0dc:	49 bb 97 20 a9 b6 75 	movabs r11,0x7e024a75b6a92097
   8d0e3:	4a 02 7e 
   8d0e6:	4d 39 dc             	cmp    r12,r11
   8d0e9:	0f 84 e3 b3 ff ff    	je     884d2 <Java_com_adjust_sdk_sig_NativeLibHelper_nOnResume@@Base-0x327d1>
   8d0ef:	48 b8 92 28 97 f8 f0 	movabs rax,0x7f347af0f8972892
   8d0f6:	7a 34 7f 
   8d0f9:	4c 8b 95 e8 fe ff ff 	mov    r10,QWORD PTR [rbp-0x118]
   8d100:	49 39 c2             	cmp    r10,rax
   8d103:	0f 84 ee 36 00 00    	je     907f7 <Java_com_adjust_sdk_sig_NativeLibHelper_nOnResume@@Base-0x2a4ac>
   8d109:	48 b8 ea bf 5c d2 69 	movabs rax,0x7f552969d25cbfea
   8d110:	29 55 7f 
   8d113:	49 39 c2             	cmp    r10,rax
   8d116:	48 8b 85 f8 fe ff ff 	mov    rax,QWORD PTR [rbp-0x108]
   8d11d:	48 8b b5 10 ff ff ff 	mov    rsi,QWORD PTR [rbp-0xf0]
   8d124:	48 8b 8d 08 ff ff ff 	mov    rcx,QWORD PTR [rbp-0xf8]
   8d12b:	48 8b bd 18 ff ff ff 	mov    rdi,QWORD PTR [rbp-0xe8]
   8d132:	4c 8b 85 20 ff ff ff 	mov    r8,QWORD PTR [rbp-0xe0]
   8d139:	4c 8b 8d f0 fe ff ff 	mov    r9,QWORD PTR [rbp-0x110]
   8d140:	4c 8b 9d 28 ff ff ff 	mov    r11,QWORD PTR [rbp-0xd8]
   8d147:	8b 5d c4             	mov    ebx,DWORD PTR [rbp-0x3c]
   8d14a:	44 8b 75 c0          	mov    r14d,DWORD PTR [rbp-0x40]
   8d14e:	0f 84 59 32 00 00    	je     903ad <Java_com_adjust_sdk_sig_NativeLibHelper_nOnResume@@Base-0x2a8f6>
   8d154:	48 8b 95 48 ff ff ff 	mov    rdx,QWORD PTR [rbp-0xb8]
   8d15b:	48 89 95 58 ff ff ff 	mov    QWORD PTR [rbp-0xa8],rdx
   8d162:	48 8b 95 40 ff ff ff 	mov    rdx,QWORD PTR [rbp-0xc0]
   8d169:	48 89 95 60 ff ff ff 	mov    QWORD PTR [rbp-0xa0],rdx
   8d170:	48 8b 95 30 ff ff ff 	mov    rdx,QWORD PTR [rbp-0xd0]
   8d177:	48 89 95 68 ff ff ff 	mov    QWORD PTR [rbp-0x98],rdx
   8d17e:	44 89 75 c8          	mov    DWORD PTR [rbp-0x38],r14d
   8d182:	4c 89 9d 70 ff ff ff 	mov    QWORD PTR [rbp-0x90],r11
   8d189:	4c 89 8d 78 ff ff ff 	mov    QWORD PTR [rbp-0x88],r9
   8d190:	48 8b 95 50 ff ff ff 	mov    rdx,QWORD PTR [rbp-0xb0]
   8d197:	48 89 55 80          	mov    QWORD PTR [rbp-0x80],rdx
   8d19b:	4c 89 45 88          	mov    QWORD PTR [rbp-0x78],r8
   8d19f:	48 89 7d 90          	mov    QWORD PTR [rbp-0x70],rdi
   8d1a3:	48 89 4d 98          	mov    QWORD PTR [rbp-0x68],rcx
   8d1a7:	48 89 75 a0          	mov    QWORD PTR [rbp-0x60],rsi
   8d1ab:	48 89 45 a8          	mov    QWORD PTR [rbp-0x58],rax
   8d1af:	48 8b 85 00 ff ff ff 	mov    rax,QWORD PTR [rbp-0x100]
   8d1b6:	48 89 45 b0          	mov    QWORD PTR [rbp-0x50],rax
   8d1ba:	48 8b 85 38 ff ff ff 	mov    rax,QWORD PTR [rbp-0xc8]
   8d1c1:	48 89 45 b8          	mov    QWORD PTR [rbp-0x48],rax
   8d1c5:	89 5d cc             	mov    DWORD PTR [rbp-0x34],ebx
   8d1c8:	4c 89 d2             	mov    rdx,r10
   8d1cb:	49 bb 11 7d 83 2e ac 	movabs r11,0x278790ac2e837d11
   8d1d2:	90 87 27 
   8d1d5:	4d 39 da             	cmp    r10,r11
   8d1d8:	0f 85 f4 b2 ff ff    	jne    884d2 <Java_com_adjust_sdk_sig_NativeLibHelper_nOnResume@@Base-0x327d1>
   8d1de:	e9 7d 6d 00 00       	jmp    93f60 <Java_com_adjust_sdk_sig_NativeLibHelper_nOnResume@@Base-0x26d43>
   8d1e3:	48 8b 85 b8 fe ff ff 	mov    rax,QWORD PTR [rbp-0x148]
   8d1ea:	c7 00 1d 00 00 00    	mov    DWORD PTR [rax],0x1d
   8d1f0:	48 8b 85 48 ff ff ff 	mov    rax,QWORD PTR [rbp-0xb8]
   8d1f7:	48 89 85 58 ff ff ff 	mov    QWORD PTR [rbp-0xa8],rax
   8d1fe:	48 8b 85 40 ff ff ff 	mov    rax,QWORD PTR [rbp-0xc0]
   8d205:	48 89 85 60 ff ff ff 	mov    QWORD PTR [rbp-0xa0],rax
   8d20c:	48 8b 85 30 ff ff ff 	mov    rax,QWORD PTR [rbp-0xd0]
   8d213:	48 89 85 68 ff ff ff 	mov    QWORD PTR [rbp-0x98],rax
   8d21a:	8b 45 c0             	mov    eax,DWORD PTR [rbp-0x40]
   8d21d:	89 45 c8             	mov    DWORD PTR [rbp-0x38],eax
   8d220:	8b 45 c4             	mov    eax,DWORD PTR [rbp-0x3c]
   8d223:	89 45 cc             	mov    DWORD PTR [rbp-0x34],eax
   8d226:	48 8b 85 28 ff ff ff 	mov    rax,QWORD PTR [rbp-0xd8]
   8d22d:	48 89 85 70 ff ff ff 	mov    QWORD PTR [rbp-0x90],rax
   8d234:	48 8b 85 f0 fe ff ff 	mov    rax,QWORD PTR [rbp-0x110]
   8d23b:	48 89 85 78 ff ff ff 	mov    QWORD PTR [rbp-0x88],rax
   8d242:	48 8b 85 50 ff ff ff 	mov    rax,QWORD PTR [rbp-0xb0]
   8d249:	48 89 45 80          	mov    QWORD PTR [rbp-0x80],rax
   8d24d:	48 8b 85 20 ff ff ff 	mov    rax,QWORD PTR [rbp-0xe0]
   8d254:	48 89 45 88          	mov    QWORD PTR [rbp-0x78],rax
   8d258:	48 8b 85 18 ff ff ff 	mov    rax,QWORD PTR [rbp-0xe8]
   8d25f:	48 89 45 90          	mov    QWORD PTR [rbp-0x70],rax
   8d263:	48 8b 85 08 ff ff ff 	mov    rax,QWORD PTR [rbp-0xf8]
   8d26a:	48 89 45 98          	mov    QWORD PTR [rbp-0x68],rax
   8d26e:	48 8b 85 10 ff ff ff 	mov    rax,QWORD PTR [rbp-0xf0]
   8d275:	48 89 45 a0          	mov    QWORD PTR [rbp-0x60],rax
   8d279:	48 8b 85 f8 fe ff ff 	mov    rax,QWORD PTR [rbp-0x108]
   8d280:	48 89 45 a8          	mov    QWORD PTR [rbp-0x58],rax
   8d284:	48 8b 85 00 ff ff ff 	mov    rax,QWORD PTR [rbp-0x100]
   8d28b:	48 89 45 b0          	mov    QWORD PTR [rbp-0x50],rax
   8d28f:	48 8b 85 38 ff ff ff 	mov    rax,QWORD PTR [rbp-0xc8]
   8d296:	48 89 45 b8          	mov    QWORD PTR [rbp-0x48],rax
   8d29a:	48 ba 74 15 51 30 35 	movabs rdx,0x5bec243530511574
   8d2a1:	24 ec 5b 
   8d2a4:	e9 29 b2 ff ff       	jmp    884d2 <Java_com_adjust_sdk_sig_NativeLibHelper_nOnResume@@Base-0x327d1>
   8d2a9:	4c 8b 95 30 fc ff ff 	mov    r10,QWORD PTR [rbp-0x3d0]
   8d2b0:	41 8a 02             	mov    al,BYTE PTR [r10]
   8d2b3:	48 8b 95 28 fc ff ff 	mov    rdx,QWORD PTR [rbp-0x3d8]
   8d2ba:	88 02                	mov    BYTE PTR [rdx],al
   8d2bc:	48 8b 85 48 ff ff ff 	mov    rax,QWORD PTR [rbp-0xb8]
   8d2c3:	48 89 85 58 ff ff ff 	mov    QWORD PTR [rbp-0xa8],rax
   8d2ca:	48 8b 85 40 ff ff ff 	mov    rax,QWORD PTR [rbp-0xc0]
   8d2d1:	48 89 85 60 ff ff ff 	mov    QWORD PTR [rbp-0xa0],rax
   8d2d8:	48 8b 85 30 ff ff ff 	mov    rax,QWORD PTR [rbp-0xd0]
   8d2df:	48 89 85 68 ff ff ff 	mov    QWORD PTR [rbp-0x98],rax
   8d2e6:	8b 45 c0             	mov    eax,DWORD PTR [rbp-0x40]
   8d2e9:	89 45 c8             	mov    DWORD PTR [rbp-0x38],eax
   8d2ec:	8b 45 c4             	mov    eax,DWORD PTR [rbp-0x3c]
   8d2ef:	89 45 cc             	mov    DWORD PTR [rbp-0x34],eax
   8d2f2:	48 8b 85 28 ff ff ff 	mov    rax,QWORD PTR [rbp-0xd8]
   8d2f9:	48 89 85 70 ff ff ff 	mov    QWORD PTR [rbp-0x90],rax
   8d300:	48 8b 85 f0 fe ff ff 	mov    rax,QWORD PTR [rbp-0x110]
   8d307:	48 89 85 78 ff ff ff 	mov    QWORD PTR [rbp-0x88],rax
   8d30e:	48 8b 85 50 ff ff ff 	mov    rax,QWORD PTR [rbp-0xb0]
   8d315:	48 89 45 80          	mov    QWORD PTR [rbp-0x80],rax
   8d319:	48 8b 85 20 ff ff ff 	mov    rax,QWORD PTR [rbp-0xe0]
   8d320:	48 89 45 88          	mov    QWORD PTR [rbp-0x78],rax
   8d324:	48 8b 85 18 ff ff ff 	mov    rax,QWORD PTR [rbp-0xe8]
   8d32b:	48 89 45 90          	mov    QWORD PTR [rbp-0x70],rax
   8d32f:	48 8b 85 08 ff ff ff 	mov    rax,QWORD PTR [rbp-0xf8]
   8d336:	48 89 45 98          	mov    QWORD PTR [rbp-0x68],rax
   8d33a:	48 8b 85 10 ff ff ff 	mov    rax,QWORD PTR [rbp-0xf0]
   8d341:	48 89 45 a0          	mov    QWORD PTR [rbp-0x60],rax
   8d345:	48 8b 85 f8 fe ff ff 	mov    rax,QWORD PTR [rbp-0x108]
   8d34c:	48 89 45 a8          	mov    QWORD PTR [rbp-0x58],rax
   8d350:	48 8b 85 00 ff ff ff 	mov    rax,QWORD PTR [rbp-0x100]
   8d357:	48 89 45 b0          	mov    QWORD PTR [rbp-0x50],rax
   8d35b:	48 8b 85 38 ff ff ff 	mov    rax,QWORD PTR [rbp-0xc8]
   8d362:	48 89 45 b8          	mov    QWORD PTR [rbp-0x48],rax
   8d366:	49 ff c2             	inc    r10
   8d369:	4c 89 95 b8 fc ff ff 	mov    QWORD PTR [rbp-0x348],r10
   8d370:	48 ff c2             	inc    rdx
   8d373:	48 89 95 b0 fc ff ff 	mov    QWORD PTR [rbp-0x350],rdx
   8d37a:	48 8b 95 20 fc ff ff 	mov    rdx,QWORD PTR [rbp-0x3e0]
   8d381:	48 ff ca             	dec    rdx
   8d384:	48 89 95 a8 fc ff ff 	mov    QWORD PTR [rbp-0x358],rdx
   8d38b:	48 ba 9f 73 09 3b c1 	movabs rdx,0xabcaec13b09739f
   8d392:	ae bc 0a 
   8d395:	e9 38 b1 ff ff       	jmp    884d2 <Java_com_adjust_sdk_sig_NativeLibHelper_nOnResume@@Base-0x327d1>
   8d39a:	48 8b b5 08 ff ff ff 	mov    rsi,QWORD PTR [rbp-0xf8]
   8d3a1:	80 3e 00             	cmp    BYTE PTR [rsi],0x0
   8d3a4:	48 ba 53 5f 6d e0 c7 	movabs rdx,0x57e196c7e06d5f53
   8d3ab:	96 e1 57 
   8d3ae:	48 b8 87 3c 48 be b5 	movabs rax,0x5a4b5fb5be483c87
   8d3b5:	5f 4b 5a 
   8d3b8:	48 0f 44 d0          	cmove  rdx,rax
   8d3bc:	48 8b 85 48 ff ff ff 	mov    rax,QWORD PTR [rbp-0xb8]
   8d3c3:	48 89 85 58 ff ff ff 	mov    QWORD PTR [rbp-0xa8],rax
   8d3ca:	48 8b 85 40 ff ff ff 	mov    rax,QWORD PTR [rbp-0xc0]
   8d3d1:	48 89 85 60 ff ff ff 	mov    QWORD PTR [rbp-0xa0],rax
   8d3d8:	48 8b 85 30 ff ff ff 	mov    rax,QWORD PTR [rbp-0xd0]
   8d3df:	48 89 85 68 ff ff ff 	mov    QWORD PTR [rbp-0x98],rax
   8d3e6:	8b 45 c0             	mov    eax,DWORD PTR [rbp-0x40]
   8d3e9:	89 45 c8             	mov    DWORD PTR [rbp-0x38],eax
   8d3ec:	8b 45 c4             	mov    eax,DWORD PTR [rbp-0x3c]
   8d3ef:	89 45 cc             	mov    DWORD PTR [rbp-0x34],eax
   8d3f2:	48 8b 85 28 ff ff ff 	mov    rax,QWORD PTR [rbp-0xd8]
   8d3f9:	48 89 85 70 ff ff ff 	mov    QWORD PTR [rbp-0x90],rax
   8d400:	48 89 9d 78 ff ff ff 	mov    QWORD PTR [rbp-0x88],rbx
   8d407:	48 8b 85 50 ff ff ff 	mov    rax,QWORD PTR [rbp-0xb0]
   8d40e:	48 89 45 80          	mov    QWORD PTR [rbp-0x80],rax
   8d412:	48 8b 85 20 ff ff ff 	mov    rax,QWORD PTR [rbp-0xe0]
   8d419:	48 89 45 88          	mov    QWORD PTR [rbp-0x78],rax
   8d41d:	48 8b 85 18 ff ff ff 	mov    rax,QWORD PTR [rbp-0xe8]
   8d424:	48 89 45 90          	mov    QWORD PTR [rbp-0x70],rax
   8d428:	48 8d 4e 01          	lea    rcx,[rsi+0x1]
   8d42c:	48 89 8d 28 fa ff ff 	mov    QWORD PTR [rbp-0x5d8],rcx
   8d433:	48 89 b5 f0 fa ff ff 	mov    QWORD PTR [rbp-0x510],rsi
   8d43a:	48 89 75 98          	mov    QWORD PTR [rbp-0x68],rsi
   8d43e:	48 8b 85 10 ff ff ff 	mov    rax,QWORD PTR [rbp-0xf0]
   8d445:	48 89 45 a0          	mov    QWORD PTR [rbp-0x60],rax
   8d449:	4c 89 75 a8          	mov    QWORD PTR [rbp-0x58],r14
   8d44d:	4c 89 45 b0          	mov    QWORD PTR [rbp-0x50],r8
   8d451:	4c 89 4d b8          	mov    QWORD PTR [rbp-0x48],r9
   8d455:	e9 78 b0 ff ff       	jmp    884d2 <Java_com_adjust_sdk_sig_NativeLibHelper_nOnResume@@Base-0x327d1>
   8d45a:	48 8b bd e0 fe ff ff 	mov    rdi,QWORD PTR [rbp-0x120]
   8d461:	48 8b 07             	mov    rax,QWORD PTR [rdi]
   8d464:	48 8b b5 c8 fa ff ff 	mov    rsi,QWORD PTR [rbp-0x538]
   8d46b:	4d 89 cf             	mov    r15,r9
   8d46e:	ff 90 b8 00 00 00    	call   QWORD PTR [rax+0xb8]
   8d474:	48 8b 85 48 ff ff ff 	mov    rax,QWORD PTR [rbp-0xb8]
   8d47b:	48 89 85 58 ff ff ff 	mov    QWORD PTR [rbp-0xa8],rax
   8d482:	48 8b 85 40 ff ff ff 	mov    rax,QWORD PTR [rbp-0xc0]
   8d489:	48 89 85 60 ff ff ff 	mov    QWORD PTR [rbp-0xa0],rax
   8d490:	48 8b 85 30 ff ff ff 	mov    rax,QWORD PTR [rbp-0xd0]
   8d497:	48 89 85 68 ff ff ff 	mov    QWORD PTR [rbp-0x98],rax
   8d49e:	8b 45 c0             	mov    eax,DWORD PTR [rbp-0x40]
   8d4a1:	89 45 c8             	mov    DWORD PTR [rbp-0x38],eax
   8d4a4:	8b 45 c4             	mov    eax,DWORD PTR [rbp-0x3c]
   8d4a7:	89 45 cc             	mov    DWORD PTR [rbp-0x34],eax
   8d4aa:	48 8b 85 28 ff ff ff 	mov    rax,QWORD PTR [rbp-0xd8]
   8d4b1:	48 89 85 70 ff ff ff 	mov    QWORD PTR [rbp-0x90],rax
   8d4b8:	48 89 9d 78 ff ff ff 	mov    QWORD PTR [rbp-0x88],rbx
   8d4bf:	48 8b 85 50 ff ff ff 	mov    rax,QWORD PTR [rbp-0xb0]
   8d4c6:	48 89 45 80          	mov    QWORD PTR [rbp-0x80],rax
   8d4ca:	48 8b 85 20 ff ff ff 	mov    rax,QWORD PTR [rbp-0xe0]
   8d4d1:	48 89 45 88          	mov    QWORD PTR [rbp-0x78],rax
   8d4d5:	48 8b 85 18 ff ff ff 	mov    rax,QWORD PTR [rbp-0xe8]
   8d4dc:	48 89 45 90          	mov    QWORD PTR [rbp-0x70],rax
   8d4e0:	48 8b 85 08 ff ff ff 	mov    rax,QWORD PTR [rbp-0xf8]
   8d4e7:	48 89 45 98          	mov    QWORD PTR [rbp-0x68],rax
   8d4eb:	48 8b 85 10 ff ff ff 	mov    rax,QWORD PTR [rbp-0xf0]
   8d4f2:	48 89 45 a0          	mov    QWORD PTR [rbp-0x60],rax
   8d4f6:	48 8b 85 f8 fe ff ff 	mov    rax,QWORD PTR [rbp-0x108]
   8d4fd:	48 89 45 a8          	mov    QWORD PTR [rbp-0x58],rax
   8d501:	4c 89 75 b0          	mov    QWORD PTR [rbp-0x50],r14
   8d505:	4c 89 7d b8          	mov    QWORD PTR [rbp-0x48],r15
   8d509:	48 ba e0 2d bb fa 5a 	movabs rdx,0xcfc52f5afabb2de0
   8d510:	2f c5 cf 
   8d513:	e9 ba af ff ff       	jmp    884d2 <Java_com_adjust_sdk_sig_NativeLibHelper_nOnResume@@Base-0x327d1>
   8d518:	48 8b 95 60 fa ff ff 	mov    rdx,QWORD PTR [rbp-0x5a0]
   8d51f:	4c 8b 95 e0 fc ff ff 	mov    r10,QWORD PTR [rbp-0x320]
   8d526:	41 c6 04 12 00       	mov    BYTE PTR [r10+rdx*1],0x0
   8d52b:	48 8b 85 48 ff ff ff 	mov    rax,QWORD PTR [rbp-0xb8]
   8d532:	48 89 85 58 ff ff ff 	mov    QWORD PTR [rbp-0xa8],rax
   8d539:	48 8b 85 40 ff ff ff 	mov    rax,QWORD PTR [rbp-0xc0]
   8d540:	48 89 85 60 ff ff ff 	mov    QWORD PTR [rbp-0xa0],rax
   8d547:	48 8b 85 30 ff ff ff 	mov    rax,QWORD PTR [rbp-0xd0]
   8d54e:	48 89 85 68 ff ff ff 	mov    QWORD PTR [rbp-0x98],rax
   8d555:	8b 45 c0             	mov    eax,DWORD PTR [rbp-0x40]
   8d558:	89 45 c8             	mov    DWORD PTR [rbp-0x38],eax
   8d55b:	8b 45 c4             	mov    eax,DWORD PTR [rbp-0x3c]
   8d55e:	89 45 cc             	mov    DWORD PTR [rbp-0x34],eax
   8d561:	48 8b 85 28 ff ff ff 	mov    rax,QWORD PTR [rbp-0xd8]
   8d568:	48 89 85 70 ff ff ff 	mov    QWORD PTR [rbp-0x90],rax
   8d56f:	48 89 9d 78 ff ff ff 	mov    QWORD PTR [rbp-0x88],rbx
   8d576:	48 8b 85 50 ff ff ff 	mov    rax,QWORD PTR [rbp-0xb0]
   8d57d:	48 89 45 80          	mov    QWORD PTR [rbp-0x80],rax
   8d581:	48 8b 85 20 ff ff ff 	mov    rax,QWORD PTR [rbp-0xe0]
   8d588:	48 89 45 88          	mov    QWORD PTR [rbp-0x78],rax
   8d58c:	48 8b 85 18 ff ff ff 	mov    rax,QWORD PTR [rbp-0xe8]
   8d593:	48 89 45 90          	mov    QWORD PTR [rbp-0x70],rax
   8d597:	48 8b 85 08 ff ff ff 	mov    rax,QWORD PTR [rbp-0xf8]
   8d59e:	48 89 45 98          	mov    QWORD PTR [rbp-0x68],rax
   8d5a2:	48 8b 85 10 ff ff ff 	mov    rax,QWORD PTR [rbp-0xf0]
   8d5a9:	48 89 45 a0          	mov    QWORD PTR [rbp-0x60],rax
   8d5ad:	4c 89 75 a8          	mov    QWORD PTR [rbp-0x58],r14
   8d5b1:	4c 89 45 b0          	mov    QWORD PTR [rbp-0x50],r8
   8d5b5:	4c 89 4d b8          	mov    QWORD PTR [rbp-0x48],r9
   8d5b9:	4c 8b 9d d0 fe ff ff 	mov    r11,QWORD PTR [rbp-0x130]
   8d5c0:	4c 89 9d c8 fd ff ff 	mov    QWORD PTR [rbp-0x238],r11
   8d5c7:	4c 89 95 d8 fd ff ff 	mov    QWORD PTR [rbp-0x228],r10
   8d5ce:	e9 e1 23 00 00       	jmp    8f9b4 <Java_com_adjust_sdk_sig_NativeLibHelper_nOnResume@@Base-0x2b2ef>
   8d5d3:	48 8b 8d 20 ff ff ff 	mov    rcx,QWORD PTR [rbp-0xe0]
   8d5da:	80 39 00             	cmp    BYTE PTR [rcx],0x0
   8d5dd:	48 ba 95 b8 d7 d0 69 	movabs rdx,0xa605b69d0d7b895
   8d5e4:	5b 60 0a 
   8d5e7:	48 b8 2b 70 88 d0 6b 	movabs rax,0x5bd3a76bd088702b
   8d5ee:	a7 d3 5b 
   8d5f1:	48 0f 44 d0          	cmove  rdx,rax
   8d5f5:	48 8b 85 48 ff ff ff 	mov    rax,QWORD PTR [rbp-0xb8]
   8d5fc:	48 89 85 58 ff ff ff 	mov    QWORD PTR [rbp-0xa8],rax
   8d603:	48 8b 85 40 ff ff ff 	mov    rax,QWORD PTR [rbp-0xc0]
   8d60a:	48 89 85 60 ff ff ff 	mov    QWORD PTR [rbp-0xa0],rax
   8d611:	48 8b 85 30 ff ff ff 	mov    rax,QWORD PTR [rbp-0xd0]
   8d618:	48 89 85 68 ff ff ff 	mov    QWORD PTR [rbp-0x98],rax
   8d61f:	8b 45 c0             	mov    eax,DWORD PTR [rbp-0x40]
   8d622:	89 45 c8             	mov    DWORD PTR [rbp-0x38],eax
   8d625:	8b 45 c4             	mov    eax,DWORD PTR [rbp-0x3c]
   8d628:	89 45 cc             	mov    DWORD PTR [rbp-0x34],eax
   8d62b:	48 8b 85 28 ff ff ff 	mov    rax,QWORD PTR [rbp-0xd8]
   8d632:	48 89 85 70 ff ff ff 	mov    QWORD PTR [rbp-0x90],rax
   8d639:	48 89 9d 78 ff ff ff 	mov    QWORD PTR [rbp-0x88],rbx
   8d640:	48 8b 85 50 ff ff ff 	mov    rax,QWORD PTR [rbp-0xb0]
   8d647:	48 89 45 80          	mov    QWORD PTR [rbp-0x80],rax
   8d64b:	48 8d 41 01          	lea    rax,[rcx+0x1]
   8d64f:	48 89 85 08 fa ff ff 	mov    QWORD PTR [rbp-0x5f8],rax
   8d656:	48 89 4d 88          	mov    QWORD PTR [rbp-0x78],rcx
   8d65a:	48 89 8d f8 fa ff ff 	mov    QWORD PTR [rbp-0x508],rcx
   8d661:	e9 e7 66 00 00       	jmp    93d4d <Java_com_adjust_sdk_sig_NativeLibHelper_nOnResume@@Base-0x26f56>
   8d666:	48 8b 95 70 fa ff ff 	mov    rdx,QWORD PTR [rbp-0x590]
   8d66d:	4c 8b 95 f0 fc ff ff 	mov    r10,QWORD PTR [rbp-0x310]
   8d674:	41 c6 04 12 00       	mov    BYTE PTR [r10+rdx*1],0x0
   8d679:	48 8b 85 48 ff ff ff 	mov    rax,QWORD PTR [rbp-0xb8]
   8d680:	48 89 85 58 ff ff ff 	mov    QWORD PTR [rbp-0xa8],rax
   8d687:	48 8b 85 40 ff ff ff 	mov    rax,QWORD PTR [rbp-0xc0]
   8d68e:	48 89 85 60 ff ff ff 	mov    QWORD PTR [rbp-0xa0],rax
   8d695:	48 8b 85 30 ff ff ff 	mov    rax,QWORD PTR [rbp-0xd0]
   8d69c:	48 89 85 68 ff ff ff 	mov    QWORD PTR [rbp-0x98],rax
   8d6a3:	8b 45 c0             	mov    eax,DWORD PTR [rbp-0x40]
   8d6a6:	89 45 c8             	mov    DWORD PTR [rbp-0x38],eax
   8d6a9:	8b 45 c4             	mov    eax,DWORD PTR [rbp-0x3c]
   8d6ac:	89 45 cc             	mov    DWORD PTR [rbp-0x34],eax
   8d6af:	4c 89 ad 70 ff ff ff 	mov    QWORD PTR [rbp-0x90],r13
   8d6b6:	4c 89 a5 78 ff ff ff 	mov    QWORD PTR [rbp-0x88],r12
   8d6bd:	48 8b 85 50 ff ff ff 	mov    rax,QWORD PTR [rbp-0xb0]
   8d6c4:	48 89 45 80          	mov    QWORD PTR [rbp-0x80],rax
   8d6c8:	48 8b 85 20 ff ff ff 	mov    rax,QWORD PTR [rbp-0xe0]
   8d6cf:	48 89 45 88          	mov    QWORD PTR [rbp-0x78],rax
   8d6d3:	48 8b 85 18 ff ff ff 	mov    rax,QWORD PTR [rbp-0xe8]
   8d6da:	48 89 45 90          	mov    QWORD PTR [rbp-0x70],rax
   8d6de:	48 8b 85 08 ff ff ff 	mov    rax,QWORD PTR [rbp-0xf8]
   8d6e5:	48 89 45 98          	mov    QWORD PTR [rbp-0x68],rax
   8d6e9:	48 8b 85 10 ff ff ff 	mov    rax,QWORD PTR [rbp-0xf0]
   8d6f0:	48 89 45 a0          	mov    QWORD PTR [rbp-0x60],rax
   8d6f4:	4c 89 4d a8          	mov    QWORD PTR [rbp-0x58],r9
   8d6f8:	4c 89 5d b0          	mov    QWORD PTR [rbp-0x50],r11
   8d6fc:	48 8b 85 38 ff ff ff 	mov    rax,QWORD PTR [rbp-0xc8]
   8d703:	48 89 45 b8          	mov    QWORD PTR [rbp-0x48],rax
   8d707:	4c 8b 9d d0 fe ff ff 	mov    r11,QWORD PTR [rbp-0x130]
   8d70e:	4c 89 9d a0 fd ff ff 	mov    QWORD PTR [rbp-0x260],r11
   8d715:	4c 89 95 a8 fd ff ff 	mov    QWORD PTR [rbp-0x258],r10
   8d71c:	e9 6d 50 00 00       	jmp    9278e <Java_com_adjust_sdk_sig_NativeLibHelper_nOnResume@@Base-0x28515>
   8d721:	48 8b 85 28 fb ff ff 	mov    rax,QWORD PTR [rbp-0x4d8]
   8d728:	48 2b 85 c8 fe ff ff 	sub    rax,QWORD PTR [rbp-0x138]
   8d72f:	48 89 85 80 fa ff ff 	mov    QWORD PTR [rbp-0x580],rax
   8d736:	48 8d 78 01          	lea    rdi,[rax+0x1]
   8d73a:	e8 11 51 0a 00       	call   132850 <malloc@plt>
   8d73f:	48 89 85 08 fd ff ff 	mov    QWORD PTR [rbp-0x2f8],rax
   8d746:	48 85 c0             	test   rax,rax
   8d749:	48 ba c8 34 c7 ac 56 	movabs rdx,0xadb40456acc734c8
   8d750:	04 b4 ad 
   8d753:	48 b8 7d 52 9f db a5 	movabs rax,0x954f5da5db9f527d
   8d75a:	5d 4f 95 
   8d75d:	e9 86 65 00 00       	jmp    93ce8 <Java_com_adjust_sdk_sig_NativeLibHelper_nOnResume@@Base-0x26fbb>
   8d762:	48 8b 85 d8 fe ff ff 	mov    rax,QWORD PTR [rbp-0x128]
   8d769:	48 83 60 18 00       	and    QWORD PTR [rax+0x18],0x0
   8d76e:	e9 d5 0b 00 00       	jmp    8e348 <Java_com_adjust_sdk_sig_NativeLibHelper_nOnResume@@Base-0x2c95b>
   8d773:	48 b8 2e 2e 2e 2e 2e 	movabs rax,0x2e2e2e2e2e2e2e2e
   8d77a:	2e 2e 2e 
   8d77d:	48 31 05 74 e8 0a 00 	xor    QWORD PTR [rip+0xae874],rax        # 13bff8 <write@plt+0x9478>
   8d784:	f2 0f 10 05 74 e8 0a 	movsd  xmm0,QWORD PTR [rip+0xae874]        # 13c000 <write@plt+0x9480>
   8d78b:	00 
   8d78c:	0f 57 05 7d 62 f7 ff 	xorps  xmm0,XMMWORD PTR [rip+0xfffffffffff7627d]        # 3a10 <Java_com_adjust_sdk_sig_NativeLibHelper_nOnResume@@Base-0xb7293>
   8d793:	f3 0f 11 05 65 e8 0a 	movss  DWORD PTR [rip+0xae865],xmm0        # 13c000 <write@plt+0x9480>
   8d79a:	00 
   8d79b:	c6 05 f7 15 0b 00 01 	mov    BYTE PTR [rip+0xb15f7],0x1        # 13ed99 <write@plt+0xc219>
   8d7a2:	48 8b 85 48 ff ff ff 	mov    rax,QWORD PTR [rbp-0xb8]
   8d7a9:	48 89 85 58 ff ff ff 	mov    QWORD PTR [rbp-0xa8],rax
   8d7b0:	48 8b 85 40 ff ff ff 	mov    rax,QWORD PTR [rbp-0xc0]
   8d7b7:	48 89 85 60 ff ff ff 	mov    QWORD PTR [rbp-0xa0],rax
   8d7be:	48 8b 85 30 ff ff ff 	mov    rax,QWORD PTR [rbp-0xd0]
   8d7c5:	48 89 85 68 ff ff ff 	mov    QWORD PTR [rbp-0x98],rax
   8d7cc:	44 89 5d c8          	mov    DWORD PTR [rbp-0x38],r11d
   8d7d0:	89 7d cc             	mov    DWORD PTR [rbp-0x34],edi
   8d7d3:	4c 89 ad 70 ff ff ff 	mov    QWORD PTR [rbp-0x90],r13
   8d7da:	48 89 8d 78 ff ff ff 	mov    QWORD PTR [rbp-0x88],rcx
   8d7e1:	48 8b 85 50 ff ff ff 	mov    rax,QWORD PTR [rbp-0xb0]
   8d7e8:	48 89 45 80          	mov    QWORD PTR [rbp-0x80],rax
   8d7ec:	48 8b 85 20 ff ff ff 	mov    rax,QWORD PTR [rbp-0xe0]
   8d7f3:	48 89 45 88          	mov    QWORD PTR [rbp-0x78],rax
   8d7f7:	48 8b 85 18 ff ff ff 	mov    rax,QWORD PTR [rbp-0xe8]
   8d7fe:	48 89 45 90          	mov    QWORD PTR [rbp-0x70],rax
   8d802:	48 89 55 98          	mov    QWORD PTR [rbp-0x68],rdx
   8d806:	4c 89 4d a0          	mov    QWORD PTR [rbp-0x60],r9
   8d80a:	4c 89 75 a8          	mov    QWORD PTR [rbp-0x58],r14
   8d80e:	4c 89 45 b0          	mov    QWORD PTR [rbp-0x50],r8
   8d812:	48 8b 85 38 ff ff ff 	mov    rax,QWORD PTR [rbp-0xc8]
   8d819:	48 89 45 b8          	mov    QWORD PTR [rbp-0x48],rax
   8d81d:	48 ba 42 fb 9a fb 37 	movabs rdx,0xc9efd237fb9afb42
   8d824:	d2 ef c9 
   8d827:	e9 a6 ac ff ff       	jmp    884d2 <Java_com_adjust_sdk_sig_NativeLibHelper_nOnResume@@Base-0x327d1>
   8d82c:	4c 8b 95 88 fd ff ff 	mov    r10,QWORD PTR [rbp-0x278]
   8d833:	4d 85 d2             	test   r10,r10
   8d836:	48 ba a7 7e 82 fa 27 	movabs rdx,0x445a327fa827ea7
   8d83d:	a3 45 04 
   8d840:	48 b8 30 8d 3b 74 46 	movabs rax,0xe49d0646743b8d30
   8d847:	06 9d e4 
   8d84a:	48 0f 44 d0          	cmove  rdx,rax
   8d84e:	48 8b 85 48 ff ff ff 	mov    rax,QWORD PTR [rbp-0xb8]
   8d855:	48 89 85 58 ff ff ff 	mov    QWORD PTR [rbp-0xa8],rax
   8d85c:	48 8b 85 40 ff ff ff 	mov    rax,QWORD PTR [rbp-0xc0]
   8d863:	48 89 85 60 ff ff ff 	mov    QWORD PTR [rbp-0xa0],rax
   8d86a:	48 8b 85 30 ff ff ff 	mov    rax,QWORD PTR [rbp-0xd0]
   8d871:	48 89 85 68 ff ff ff 	mov    QWORD PTR [rbp-0x98],rax
   8d878:	8b 45 c0             	mov    eax,DWORD PTR [rbp-0x40]
   8d87b:	89 45 c8             	mov    DWORD PTR [rbp-0x38],eax
   8d87e:	8b 45 c4             	mov    eax,DWORD PTR [rbp-0x3c]
   8d881:	89 45 cc             	mov    DWORD PTR [rbp-0x34],eax
   8d884:	48 8b 85 28 ff ff ff 	mov    rax,QWORD PTR [rbp-0xd8]
   8d88b:	48 89 85 70 ff ff ff 	mov    QWORD PTR [rbp-0x90],rax
   8d892:	48 89 9d 78 ff ff ff 	mov    QWORD PTR [rbp-0x88],rbx
   8d899:	48 8b 85 50 ff ff ff 	mov    rax,QWORD PTR [rbp-0xb0]
   8d8a0:	48 89 45 80          	mov    QWORD PTR [rbp-0x80],rax
   8d8a4:	48 8b 85 20 ff ff ff 	mov    rax,QWORD PTR [rbp-0xe0]
   8d8ab:	48 89 45 88          	mov    QWORD PTR [rbp-0x78],rax
   8d8af:	48 8b 85 18 ff ff ff 	mov    rax,QWORD PTR [rbp-0xe8]
   8d8b6:	48 89 45 90          	mov    QWORD PTR [rbp-0x70],rax
   8d8ba:	48 8b 85 08 ff ff ff 	mov    rax,QWORD PTR [rbp-0xf8]
   8d8c1:	48 89 45 98          	mov    QWORD PTR [rbp-0x68],rax
   8d8c5:	48 8b 85 10 ff ff ff 	mov    rax,QWORD PTR [rbp-0xf0]
   8d8cc:	48 89 45 a0          	mov    QWORD PTR [rbp-0x60],rax
   8d8d0:	48 8b 85 f8 fe ff ff 	mov    rax,QWORD PTR [rbp-0x108]
   8d8d7:	48 89 45 a8          	mov    QWORD PTR [rbp-0x58],rax
   8d8db:	48 8b 85 00 ff ff ff 	mov    rax,QWORD PTR [rbp-0x100]
   8d8e2:	48 89 45 b0          	mov    QWORD PTR [rbp-0x50],rax
   8d8e6:	48 8b 85 38 ff ff ff 	mov    rax,QWORD PTR [rbp-0xc8]
   8d8ed:	48 89 45 b8          	mov    QWORD PTR [rbp-0x48],rax
   8d8f1:	4c 89 95 d8 fb ff ff 	mov    QWORD PTR [rbp-0x428],r10
   8d8f8:	4c 8b 95 78 fd ff ff 	mov    r10,QWORD PTR [rbp-0x288]
   8d8ff:	4c 89 95 e0 fb ff ff 	mov    QWORD PTR [rbp-0x420],r10
   8d906:	4c 8b 95 70 fd ff ff 	mov    r10,QWORD PTR [rbp-0x290]
   8d90d:	4c 89 95 e8 fb ff ff 	mov    QWORD PTR [rbp-0x418],r10
   8d914:	e9 b9 ab ff ff       	jmp    884d2 <Java_com_adjust_sdk_sig_NativeLibHelper_nOnResume@@Base-0x327d1>
   8d919:	48 8b 95 98 fa ff ff 	mov    rdx,QWORD PTR [rbp-0x568]
   8d920:	4c 8b 95 20 fd ff ff 	mov    r10,QWORD PTR [rbp-0x2e0]
   8d927:	41 c6 04 12 00       	mov    BYTE PTR [r10+rdx*1],0x0
   8d92c:	48 8b 85 48 ff ff ff 	mov    rax,QWORD PTR [rbp-0xb8]
   8d933:	48 89 85 58 ff ff ff 	mov    QWORD PTR [rbp-0xa8],rax
   8d93a:	48 8b 85 40 ff ff ff 	mov    rax,QWORD PTR [rbp-0xc0]
   8d941:	48 89 85 60 ff ff ff 	mov    QWORD PTR [rbp-0xa0],rax
   8d948:	48 8b 85 30 ff ff ff 	mov    rax,QWORD PTR [rbp-0xd0]
   8d94f:	48 89 85 68 ff ff ff 	mov    QWORD PTR [rbp-0x98],rax
   8d956:	8b 45 c0             	mov    eax,DWORD PTR [rbp-0x40]
   8d959:	89 45 c8             	mov    DWORD PTR [rbp-0x38],eax
   8d95c:	44 89 75 cc          	mov    DWORD PTR [rbp-0x34],r14d
   8d960:	4c 89 bd 70 ff ff ff 	mov    QWORD PTR [rbp-0x90],r15
   8d967:	4c 89 85 78 ff ff ff 	mov    QWORD PTR [rbp-0x88],r8
   8d96e:	48 8b 85 50 ff ff ff 	mov    rax,QWORD PTR [rbp-0xb0]
   8d975:	48 89 45 80          	mov    QWORD PTR [rbp-0x80],rax
   8d979:	48 8b 85 20 ff ff ff 	mov    rax,QWORD PTR [rbp-0xe0]
   8d980:	48 89 45 88          	mov    QWORD PTR [rbp-0x78],rax
   8d984:	48 8b 85 18 ff ff ff 	mov    rax,QWORD PTR [rbp-0xe8]
   8d98b:	48 89 45 90          	mov    QWORD PTR [rbp-0x70],rax
   8d98f:	4c 89 5d 98          	mov    QWORD PTR [rbp-0x68],r11
   8d993:	4c 89 4d a0          	mov    QWORD PTR [rbp-0x60],r9
   8d997:	48 89 4d a8          	mov    QWORD PTR [rbp-0x58],rcx
   8d99b:	48 89 75 b0          	mov    QWORD PTR [rbp-0x50],rsi
   8d99f:	48 8b 85 38 ff ff ff 	mov    rax,QWORD PTR [rbp-0xc8]
   8d9a6:	48 89 45 b8          	mov    QWORD PTR [rbp-0x48],rax
   8d9aa:	48 89 95 40 fd ff ff 	mov    QWORD PTR [rbp-0x2c0],rdx
   8d9b1:	4c 89 95 48 fd ff ff 	mov    QWORD PTR [rbp-0x2b8],r10
   8d9b8:	48 8b 95 d0 fe ff ff 	mov    rdx,QWORD PTR [rbp-0x130]
   8d9bf:	48 89 95 50 fd ff ff 	mov    QWORD PTR [rbp-0x2b0],rdx
   8d9c6:	48 ba c0 6f 13 52 f7 	movabs rdx,0x42b130f752136fc0
   8d9cd:	30 b1 42 
   8d9d0:	e9 fd aa ff ff       	jmp    884d2 <Java_com_adjust_sdk_sig_NativeLibHelper_nOnResume@@Base-0x327d1>
   8d9d5:	c6 05 bc 13 0b 00 00 	mov    BYTE PTR [rip+0xb13bc],0x0        # 13ed98 <write@plt+0xc218>
   8d9dc:	48 8b 85 d8 fe ff ff 	mov    rax,QWORD PTR [rbp-0x128]
   8d9e3:	48 8b 8d 10 fd ff ff 	mov    rcx,QWORD PTR [rbp-0x2f0]
   8d9ea:	48 89 48 50          	mov    QWORD PTR [rax+0x50],rcx
   8d9ee:	48 8d 3d 03 e6 0a 00 	lea    rdi,[rip+0xae603]        # 13bff8 <write@plt+0x9478>
   8d9f5:	4c 8b ad d0 fe ff ff 	mov    r13,QWORD PTR [rbp-0x130]
   8d9fc:	4c 89 ee             	mov    rsi,r13
   8d9ff:	e8 fe 3f 03 00       	call   c1a02 <Java_com_adjust_sdk_sig_NativeLibHelper_nSign@@Base+0x6357>
   8da04:	48 8b 85 48 ff ff ff 	mov    rax,QWORD PTR [rbp-0xb8]
   8da0b:	48 89 85 58 ff ff ff 	mov    QWORD PTR [rbp-0xa8],rax
   8da12:	48 8b 85 30 ff ff ff 	mov    rax,QWORD PTR [rbp-0xd0]
   8da19:	48 89 85 68 ff ff ff 	mov    QWORD PTR [rbp-0x98],rax
   8da20:	8b 45 c0             	mov    eax,DWORD PTR [rbp-0x40]
   8da23:	89 45 c8             	mov    DWORD PTR [rbp-0x38],eax
   8da26:	8b 45 c4             	mov    eax,DWORD PTR [rbp-0x3c]
   8da29:	89 45 cc             	mov    DWORD PTR [rbp-0x34],eax
   8da2c:	48 8b 85 28 ff ff ff 	mov    rax,QWORD PTR [rbp-0xd8]
   8da33:	48 89 85 70 ff ff ff 	mov    QWORD PTR [rbp-0x90],rax
   8da3a:	48 89 9d 78 ff ff ff 	mov    QWORD PTR [rbp-0x88],rbx
   8da41:	48 8b 85 50 ff ff ff 	mov    rax,QWORD PTR [rbp-0xb0]
   8da48:	48 89 45 80          	mov    QWORD PTR [rbp-0x80],rax
   8da4c:	48 8b 85 20 ff ff ff 	mov    rax,QWORD PTR [rbp-0xe0]
   8da53:	48 89 45 88          	mov    QWORD PTR [rbp-0x78],rax
   8da57:	48 8b 85 18 ff ff ff 	mov    rax,QWORD PTR [rbp-0xe8]
   8da5e:	48 89 45 90          	mov    QWORD PTR [rbp-0x70],rax
   8da62:	48 8b 85 08 ff ff ff 	mov    rax,QWORD PTR [rbp-0xf8]
   8da69:	48 89 45 98          	mov    QWORD PTR [rbp-0x68],rax
   8da6d:	48 8b 85 10 ff ff ff 	mov    rax,QWORD PTR [rbp-0xf0]
   8da74:	48 89 45 a0          	mov    QWORD PTR [rbp-0x60],rax
   8da78:	48 8b 85 f8 fe ff ff 	mov    rax,QWORD PTR [rbp-0x108]
   8da7f:	48 89 45 a8          	mov    QWORD PTR [rbp-0x58],rax
   8da83:	4c 89 75 b0          	mov    QWORD PTR [rbp-0x50],r14
   8da87:	48 8b 85 38 ff ff ff 	mov    rax,QWORD PTR [rbp-0xc8]
   8da8e:	48 89 45 b8          	mov    QWORD PTR [rbp-0x48],rax
   8da92:	4c 89 ad 60 ff ff ff 	mov    QWORD PTR [rbp-0xa0],r13
   8da99:	48 ba b6 59 31 e4 b7 	movabs rdx,0xdeed7cb7e43159b6
   8daa0:	7c ed de 
   8daa3:	e9 2a aa ff ff       	jmp    884d2 <Java_com_adjust_sdk_sig_NativeLibHelper_nOnResume@@Base-0x327d1>
   8daa8:	4c 8b 95 00 fc ff ff 	mov    r10,QWORD PTR [rbp-0x400]
   8daaf:	41 8a 02             	mov    al,BYTE PTR [r10]
   8dab2:	48 8b 95 f8 fb ff ff 	mov    rdx,QWORD PTR [rbp-0x408]
   8dab9:	88 02                	mov    BYTE PTR [rdx],al
   8dabb:	48 8b 85 48 ff ff ff 	mov    rax,QWORD PTR [rbp-0xb8]
   8dac2:	48 89 85 58 ff ff ff 	mov    QWORD PTR [rbp-0xa8],rax
   8dac9:	48 8b 85 40 ff ff ff 	mov    rax,QWORD PTR [rbp-0xc0]
   8dad0:	48 89 85 60 ff ff ff 	mov    QWORD PTR [rbp-0xa0],rax
   8dad7:	48 8b 85 30 ff ff ff 	mov    rax,QWORD PTR [rbp-0xd0]
   8dade:	48 89 85 68 ff ff ff 	mov    QWORD PTR [rbp-0x98],rax
   8dae5:	8b 45 c0             	mov    eax,DWORD PTR [rbp-0x40]
   8dae8:	89 45 c8             	mov    DWORD PTR [rbp-0x38],eax
   8daeb:	44 89 75 cc          	mov    DWORD PTR [rbp-0x34],r14d
   8daef:	4c 89 bd 70 ff ff ff 	mov    QWORD PTR [rbp-0x90],r15
   8daf6:	4c 89 85 78 ff ff ff 	mov    QWORD PTR [rbp-0x88],r8
   8dafd:	48 8b 85 50 ff ff ff 	mov    rax,QWORD PTR [rbp-0xb0]
   8db04:	48 89 45 80          	mov    QWORD PTR [rbp-0x80],rax
   8db08:	48 8b 85 20 ff ff ff 	mov    rax,QWORD PTR [rbp-0xe0]
   8db0f:	48 89 45 88          	mov    QWORD PTR [rbp-0x78],rax
   8db13:	48 8b 85 18 ff ff ff 	mov    rax,QWORD PTR [rbp-0xe8]
   8db1a:	48 89 45 90          	mov    QWORD PTR [rbp-0x70],rax
   8db1e:	4c 89 5d 98          	mov    QWORD PTR [rbp-0x68],r11
   8db22:	4c 89 4d a0          	mov    QWORD PTR [rbp-0x60],r9
   8db26:	48 89 4d a8          	mov    QWORD PTR [rbp-0x58],rcx
   8db2a:	48 89 75 b0          	mov    QWORD PTR [rbp-0x50],rsi
   8db2e:	48 8b 85 38 ff ff ff 	mov    rax,QWORD PTR [rbp-0xc8]
   8db35:	48 89 45 b8          	mov    QWORD PTR [rbp-0x48],rax
   8db39:	49 ff c2             	inc    r10
   8db3c:	4c 89 95 58 fd ff ff 	mov    QWORD PTR [rbp-0x2a8],r10
   8db43:	48 ff c2             	inc    rdx
   8db46:	48 89 95 60 fd ff ff 	mov    QWORD PTR [rbp-0x2a0],rdx
   8db4d:	48 8b 95 f0 fb ff ff 	mov    rdx,QWORD PTR [rbp-0x410]
   8db54:	48 ff ca             	dec    rdx
   8db57:	e9 40 55 00 00       	jmp    9309c <Java_com_adjust_sdk_sig_NativeLibHelper_nOnResume@@Base-0x27c07>
   8db5c:	31 c0                	xor    eax,eax
   8db5e:	b1 01                	mov    cl,0x1
   8db60:	f0 0f b0 0d 1c 14 0b 	lock cmpxchg BYTE PTR [rip+0xb141c],cl        # 13ef84 <write@plt+0xc404>
   8db67:	00 
   8db68:	48 ba a0 9c 25 4a 74 	movabs rdx,0xff3cdb744a259ca0
   8db6f:	db 3c ff 
   8db72:	48 b8 fe 6b ca 4c ec 	movabs rax,0x8c4c36ec4cca6bfe
   8db79:	36 4c 8c 
   8db7c:	e9 67 61 00 00       	jmp    93ce8 <Java_com_adjust_sdk_sig_NativeLibHelper_nOnResume@@Base-0x26fbb>
   8db81:	0f 28 05 38 f7 0a 00 	movaps xmm0,XMMWORD PTR [rip+0xaf738]        # 13d2c0 <write@plt+0xa740>
   8db88:	0f 57 05 61 53 f7 ff 	xorps  xmm0,XMMWORD PTR [rip+0xfffffffffff75361]        # 2ef0 <Java_com_adjust_sdk_sig_NativeLibHelper_nOnResume@@Base-0xb7db3>
   8db8f:	0f 29 05 2a f7 0a 00 	movaps XMMWORD PTR [rip+0xaf72a],xmm0        # 13d2c0 <write@plt+0xa740>
   8db96:	0f 28 05 33 f7 0a 00 	movaps xmm0,XMMWORD PTR [rip+0xaf733]        # 13d2d0 <write@plt+0xa750>
   8db9d:	0f 57 05 4c 5d f7 ff 	xorps  xmm0,XMMWORD PTR [rip+0xfffffffffff75d4c]        # 38f0 <Java_com_adjust_sdk_sig_NativeLibHelper_nOnResume@@Base-0xb73b3>
   8dba4:	f3 0f 11 05 24 f7 0a 	movss  DWORD PTR [rip+0xaf724],xmm0        # 13d2d0 <write@plt+0xa750>
   8dbab:	00 
   8dbac:	80 35 21 f7 0a 00 47 	xor    BYTE PTR [rip+0xaf721],0x47        # 13d2d4 <write@plt+0xa754>
   8dbb3:	80 35 1b f7 0a 00 47 	xor    BYTE PTR [rip+0xaf71b],0x47        # 13d2d5 <write@plt+0xa755>
   8dbba:	80 35 15 f7 0a 00 47 	xor    BYTE PTR [rip+0xaf715],0x47        # 13d2d6 <write@plt+0xa756>
   8dbc1:	c6 05 bd 13 0b 00 01 	mov    BYTE PTR [rip+0xb13bd],0x1        # 13ef85 <write@plt+0xc405>
   8dbc8:	48 8b 85 48 ff ff ff 	mov    rax,QWORD PTR [rbp-0xb8]
   8dbcf:	48 89 85 58 ff ff ff 	mov    QWORD PTR [rbp-0xa8],rax
   8dbd6:	48 8b 85 40 ff ff ff 	mov    rax,QWORD PTR [rbp-0xc0]
   8dbdd:	48 89 85 60 ff ff ff 	mov    QWORD PTR [rbp-0xa0],rax
   8dbe4:	48 8b 85 30 ff ff ff 	mov    rax,QWORD PTR [rbp-0xd0]
   8dbeb:	48 89 85 68 ff ff ff 	mov    QWORD PTR [rbp-0x98],rax
   8dbf2:	8b 45 c0             	mov    eax,DWORD PTR [rbp-0x40]
   8dbf5:	89 45 c8             	mov    DWORD PTR [rbp-0x38],eax
   8dbf8:	8b 45 c4             	mov    eax,DWORD PTR [rbp-0x3c]
   8dbfb:	89 45 cc             	mov    DWORD PTR [rbp-0x34],eax
   8dbfe:	48 8b 85 28 ff ff ff 	mov    rax,QWORD PTR [rbp-0xd8]
   8dc05:	48 89 85 70 ff ff ff 	mov    QWORD PTR [rbp-0x90],rax
   8dc0c:	48 89 9d 78 ff ff ff 	mov    QWORD PTR [rbp-0x88],rbx
   8dc13:	48 8b 85 50 ff ff ff 	mov    rax,QWORD PTR [rbp-0xb0]
   8dc1a:	48 89 45 80          	mov    QWORD PTR [rbp-0x80],rax
   8dc1e:	48 8b 85 20 ff ff ff 	mov    rax,QWORD PTR [rbp-0xe0]
   8dc25:	48 89 45 88          	mov    QWORD PTR [rbp-0x78],rax
   8dc29:	48 8b 85 18 ff ff ff 	mov    rax,QWORD PTR [rbp-0xe8]
   8dc30:	48 89 45 90          	mov    QWORD PTR [rbp-0x70],rax
   8dc34:	48 8b 85 08 ff ff ff 	mov    rax,QWORD PTR [rbp-0xf8]
   8dc3b:	48 89 45 98          	mov    QWORD PTR [rbp-0x68],rax
   8dc3f:	48 8b 85 10 ff ff ff 	mov    rax,QWORD PTR [rbp-0xf0]
   8dc46:	48 89 45 a0          	mov    QWORD PTR [rbp-0x60],rax
   8dc4a:	48 8b 85 f8 fe ff ff 	mov    rax,QWORD PTR [rbp-0x108]
   8dc51:	48 89 45 a8          	mov    QWORD PTR [rbp-0x58],rax
   8dc55:	48 8b 85 00 ff ff ff 	mov    rax,QWORD PTR [rbp-0x100]
   8dc5c:	48 89 45 b0          	mov    QWORD PTR [rbp-0x50],rax
   8dc60:	48 8b 85 38 ff ff ff 	mov    rax,QWORD PTR [rbp-0xc8]
   8dc67:	48 89 45 b8          	mov    QWORD PTR [rbp-0x48],rax
   8dc6b:	48 ba 06 1c f1 e7 d3 	movabs rdx,0x1a3506d3e7f11c06
   8dc72:	06 35 1a 
   8dc75:	e9 58 a8 ff ff       	jmp    884d2 <Java_com_adjust_sdk_sig_NativeLibHelper_nOnResume@@Base-0x327d1>
   8dc7a:	4c 8b 95 b0 fd ff ff 	mov    r10,QWORD PTR [rbp-0x250]
   8dc81:	4d 85 d2             	test   r10,r10
   8dc84:	48 ba ba e1 cb c7 27 	movabs rdx,0xcab4ad27c7cbe1ba
   8dc8b:	ad b4 ca 
   8dc8e:	48 b8 6b ea 84 b8 02 	movabs rax,0x8e4fb002b884ea6b
   8dc95:	b0 4f 8e 
   8dc98:	48 0f 44 d0          	cmove  rdx,rax
   8dc9c:	48 8b 85 48 ff ff ff 	mov    rax,QWORD PTR [rbp-0xb8]
   8dca3:	48 89 85 58 ff ff ff 	mov    QWORD PTR [rbp-0xa8],rax
   8dcaa:	48 8b 85 40 ff ff ff 	mov    rax,QWORD PTR [rbp-0xc0]
   8dcb1:	48 89 85 60 ff ff ff 	mov    QWORD PTR [rbp-0xa0],rax
   8dcb8:	48 8b 85 30 ff ff ff 	mov    rax,QWORD PTR [rbp-0xd0]
   8dcbf:	48 89 85 68 ff ff ff 	mov    QWORD PTR [rbp-0x98],rax
   8dcc6:	8b 45 c0             	mov    eax,DWORD PTR [rbp-0x40]
   8dcc9:	89 45 c8             	mov    DWORD PTR [rbp-0x38],eax
   8dccc:	44 89 75 cc          	mov    DWORD PTR [rbp-0x34],r14d
   8dcd0:	4c 89 bd 70 ff ff ff 	mov    QWORD PTR [rbp-0x90],r15
   8dcd7:	4c 89 85 78 ff ff ff 	mov    QWORD PTR [rbp-0x88],r8
   8dcde:	48 8b 85 50 ff ff ff 	mov    rax,QWORD PTR [rbp-0xb0]
   8dce5:	48 89 45 80          	mov    QWORD PTR [rbp-0x80],rax
   8dce9:	48 8b 85 20 ff ff ff 	mov    rax,QWORD PTR [rbp-0xe0]
   8dcf0:	48 89 45 88          	mov    QWORD PTR [rbp-0x78],rax
   8dcf4:	48 8b 85 18 ff ff ff 	mov    rax,QWORD PTR [rbp-0xe8]
   8dcfb:	48 89 45 90          	mov    QWORD PTR [rbp-0x70],rax
   8dcff:	4c 89 5d 98          	mov    QWORD PTR [rbp-0x68],r11
   8dd03:	4c 89 4d a0          	mov    QWORD PTR [rbp-0x60],r9
   8dd07:	48 89 4d a8          	mov    QWORD PTR [rbp-0x58],rcx
   8dd0b:	48 89 75 b0          	mov    QWORD PTR [rbp-0x50],rsi
   8dd0f:	48 8b 85 38 ff ff ff 	mov    rax,QWORD PTR [rbp-0xc8]
   8dd16:	48 89 45 b8          	mov    QWORD PTR [rbp-0x48],rax
   8dd1a:	4c 89 95 a0 fb ff ff 	mov    QWORD PTR [rbp-0x460],r10
   8dd21:	4c 8b 95 a8 fd ff ff 	mov    r10,QWORD PTR [rbp-0x258]
   8dd28:	4c 89 95 a8 fb ff ff 	mov    QWORD PTR [rbp-0x458],r10
   8dd2f:	4c 8b 95 a0 fd ff ff 	mov    r10,QWORD PTR [rbp-0x260]
   8dd36:	4c 89 95 b0 fb ff ff 	mov    QWORD PTR [rbp-0x450],r10
   8dd3d:	e9 90 a7 ff ff       	jmp    884d2 <Java_com_adjust_sdk_sig_NativeLibHelper_nOnResume@@Base-0x327d1>
   8dd42:	48 8b 85 38 fb ff ff 	mov    rax,QWORD PTR [rbp-0x4c8]
   8dd49:	48 2b 85 c8 fe ff ff 	sub    rax,QWORD PTR [rbp-0x138]
   8dd50:	48 89 85 88 fa ff ff 	mov    QWORD PTR [rbp-0x578],rax
   8dd57:	48 8d 78 01          	lea    rdi,[rax+0x1]
   8dd5b:	e8 f0 4a 0a 00       	call   132850 <malloc@plt>
   8dd60:	48 89 85 10 fd ff ff 	mov    QWORD PTR [rbp-0x2f0],rax
   8dd67:	48 85 c0             	test   rax,rax
   8dd6a:	48 ba 1b e5 48 c3 d6 	movabs rdx,0xe84332d6c348e51b
   8dd71:	32 43 e8 
   8dd74:	48 b8 6e 90 69 5d c3 	movabs rax,0xf77138c35d69906e
   8dd7b:	38 71 f7 
   8dd7e:	48 0f 44 d0          	cmove  rdx,rax
   8dd82:	e9 ed 40 00 00       	jmp    91e74 <Java_com_adjust_sdk_sig_NativeLibHelper_nOnResume@@Base-0x28e2f>
   8dd87:	0f 28 05 d2 e3 0a 00 	movaps xmm0,XMMWORD PTR [rip+0xae3d2]        # 13c160 <write@plt+0x95e0>
   8dd8e:	0f 57 05 ab 5b f7 ff 	xorps  xmm0,XMMWORD PTR [rip+0xfffffffffff75bab]        # 3940 <Java_com_adjust_sdk_sig_NativeLibHelper_nOnResume@@Base-0xb7363>
   8dd95:	0f 29 05 c4 e3 0a 00 	movaps XMMWORD PTR [rip+0xae3c4],xmm0        # 13c160 <write@plt+0x95e0>
   8dd9c:	c6 05 28 10 0b 00 01 	mov    BYTE PTR [rip+0xb1028],0x1        # 13edcb <write@plt+0xc24b>
   8dda3:	48 8b 85 48 ff ff ff 	mov    rax,QWORD PTR [rbp-0xb8]
   8ddaa:	48 89 85 58 ff ff ff 	mov    QWORD PTR [rbp-0xa8],rax
   8ddb1:	48 8b 85 40 ff ff ff 	mov    rax,QWORD PTR [rbp-0xc0]
   8ddb8:	48 89 85 60 ff ff ff 	mov    QWORD PTR [rbp-0xa0],rax
   8ddbf:	48 8b 85 30 ff ff ff 	mov    rax,QWORD PTR [rbp-0xd0]
   8ddc6:	48 89 85 68 ff ff ff 	mov    QWORD PTR [rbp-0x98],rax
   8ddcd:	8b 45 c0             	mov    eax,DWORD PTR [rbp-0x40]
   8ddd0:	89 45 c8             	mov    DWORD PTR [rbp-0x38],eax
   8ddd3:	8b 45 c4             	mov    eax,DWORD PTR [rbp-0x3c]
   8ddd6:	89 45 cc             	mov    DWORD PTR [rbp-0x34],eax
   8ddd9:	48 8b 85 28 ff ff ff 	mov    rax,QWORD PTR [rbp-0xd8]
   8dde0:	48 89 85 70 ff ff ff 	mov    QWORD PTR [rbp-0x90],rax
   8dde7:	48 89 9d 78 ff ff ff 	mov    QWORD PTR [rbp-0x88],rbx
   8ddee:	48 8b 85 50 ff ff ff 	mov    rax,QWORD PTR [rbp-0xb0]
   8ddf5:	48 89 45 80          	mov    QWORD PTR [rbp-0x80],rax
   8ddf9:	48 8b 85 20 ff ff ff 	mov    rax,QWORD PTR [rbp-0xe0]
   8de00:	48 89 45 88          	mov    QWORD PTR [rbp-0x78],rax
   8de04:	48 8b 85 18 ff ff ff 	mov    rax,QWORD PTR [rbp-0xe8]
   8de0b:	48 89 45 90          	mov    QWORD PTR [rbp-0x70],rax
   8de0f:	48 8b 85 08 ff ff ff 	mov    rax,QWORD PTR [rbp-0xf8]
   8de16:	48 89 45 98          	mov    QWORD PTR [rbp-0x68],rax
   8de1a:	48 8b 85 10 ff ff ff 	mov    rax,QWORD PTR [rbp-0xf0]
   8de21:	48 89 45 a0          	mov    QWORD PTR [rbp-0x60],rax
   8de25:	48 8b 85 f8 fe ff ff 	mov    rax,QWORD PTR [rbp-0x108]
   8de2c:	48 89 45 a8          	mov    QWORD PTR [rbp-0x58],rax
   8de30:	4c 89 75 b0          	mov    QWORD PTR [rbp-0x50],r14
   8de34:	48 8b 85 38 ff ff ff 	mov    rax,QWORD PTR [rbp-0xc8]
   8de3b:	48 89 45 b8          	mov    QWORD PTR [rbp-0x48],rax
   8de3f:	48 ba 4d 98 28 94 fb 	movabs rdx,0x869fa6fb9428984d
   8de46:	a6 9f 86 
   8de49:	e9 84 a6 ff ff       	jmp    884d2 <Java_com_adjust_sdk_sig_NativeLibHelper_nOnResume@@Base-0x327d1>
   8de4e:	4c 8b 95 60 fb ff ff 	mov    r10,QWORD PTR [rbp-0x4a0]
   8de55:	41 8a 02             	mov    al,BYTE PTR [r10]
   8de58:	48 8b 95 58 fb ff ff 	mov    rdx,QWORD PTR [rbp-0x4a8]
   8de5f:	88 02                	mov    BYTE PTR [rdx],al
   8de61:	48 8b 85 48 ff ff ff 	mov    rax,QWORD PTR [rbp-0xb8]
   8de68:	48 89 85 58 ff ff ff 	mov    QWORD PTR [rbp-0xa8],rax
   8de6f:	48 8b 85 40 ff ff ff 	mov    rax,QWORD PTR [rbp-0xc0]
   8de76:	48 89 85 60 ff ff ff 	mov    QWORD PTR [rbp-0xa0],rax
   8de7d:	48 8b 85 30 ff ff ff 	mov    rax,QWORD PTR [rbp-0xd0]
   8de84:	48 89 85 68 ff ff ff 	mov    QWORD PTR [rbp-0x98],rax
   8de8b:	8b 45 c0             	mov    eax,DWORD PTR [rbp-0x40]
   8de8e:	89 45 c8             	mov    DWORD PTR [rbp-0x38],eax
   8de91:	8b 45 c4             	mov    eax,DWORD PTR [rbp-0x3c]
   8de94:	89 45 cc             	mov    DWORD PTR [rbp-0x34],eax
   8de97:	48 8b 85 28 ff ff ff 	mov    rax,QWORD PTR [rbp-0xd8]
   8de9e:	48 89 85 70 ff ff ff 	mov    QWORD PTR [rbp-0x90],rax
   8dea5:	48 8b 85 f0 fe ff ff 	mov    rax,QWORD PTR [rbp-0x110]
   8deac:	48 89 85 78 ff ff ff 	mov    QWORD PTR [rbp-0x88],rax
   8deb3:	48 8b 85 50 ff ff ff 	mov    rax,QWORD PTR [rbp-0xb0]
   8deba:	48 89 45 80          	mov    QWORD PTR [rbp-0x80],rax
   8debe:	48 8b 85 20 ff ff ff 	mov    rax,QWORD PTR [rbp-0xe0]
   8dec5:	48 89 45 88          	mov    QWORD PTR [rbp-0x78],rax
   8dec9:	48 8b 85 18 ff ff ff 	mov    rax,QWORD PTR [rbp-0xe8]
   8ded0:	48 89 45 90          	mov    QWORD PTR [rbp-0x70],rax
   8ded4:	48 8b 85 08 ff ff ff 	mov    rax,QWORD PTR [rbp-0xf8]
   8dedb:	48 89 45 98          	mov    QWORD PTR [rbp-0x68],rax
   8dedf:	48 8b 85 10 ff ff ff 	mov    rax,QWORD PTR [rbp-0xf0]
   8dee6:	48 89 45 a0          	mov    QWORD PTR [rbp-0x60],rax
   8deea:	48 8b 85 f8 fe ff ff 	mov    rax,QWORD PTR [rbp-0x108]
   8def1:	48 89 45 a8          	mov    QWORD PTR [rbp-0x58],rax
   8def5:	48 8b 85 00 ff ff ff 	mov    rax,QWORD PTR [rbp-0x100]
   8defc:	48 89 45 b0          	mov    QWORD PTR [rbp-0x50],rax
   8df00:	48 8b 85 38 ff ff ff 	mov    rax,QWORD PTR [rbp-0xc8]
   8df07:	48 89 45 b8          	mov    QWORD PTR [rbp-0x48],rax
   8df0b:	49 ff c2             	inc    r10
   8df0e:	4c 89 95 e8 fd ff ff 	mov    QWORD PTR [rbp-0x218],r10
   8df15:	48 ff c2             	inc    rdx
   8df18:	48 89 95 f0 fd ff ff 	mov    QWORD PTR [rbp-0x210],rdx
   8df1f:	48 8b 95 50 fb ff ff 	mov    rdx,QWORD PTR [rbp-0x4b0]
   8df26:	48 ff ca             	dec    rdx
   8df29:	e9 2e 0e 00 00       	jmp    8ed5c <Java_com_adjust_sdk_sig_NativeLibHelper_nOnResume@@Base-0x2bf47>
   8df2e:	c6 05 4d 10 0b 00 00 	mov    BYTE PTR [rip+0xb104d],0x0        # 13ef82 <write@plt+0xc402>
   8df35:	48 8b 85 d8 fe ff ff 	mov    rax,QWORD PTR [rbp-0x128]
   8df3c:	48 8b 8d 08 fd ff ff 	mov    rcx,QWORD PTR [rbp-0x2f8]
   8df43:	48 89 48 10          	mov    QWORD PTR [rax+0x10],rcx
   8df47:	48 8d 3d 62 f3 0a 00 	lea    rdi,[rip+0xaf362]        # 13d2b0 <write@plt+0xa730>
   8df4e:	4c 8b ad d0 fe ff ff 	mov    r13,QWORD PTR [rbp-0x130]
   8df55:	4c 89 ee             	mov    rsi,r13
   8df58:	4d 89 cf             	mov    r15,r9
   8df5b:	e8 a2 3a 03 00       	call   c1a02 <Java_com_adjust_sdk_sig_NativeLibHelper_nSign@@Base+0x6357>
   8df60:	48 8b 85 40 ff ff ff 	mov    rax,QWORD PTR [rbp-0xc0]
   8df67:	48 89 85 60 ff ff ff 	mov    QWORD PTR [rbp-0xa0],rax
   8df6e:	48 8b 85 30 ff ff ff 	mov    rax,QWORD PTR [rbp-0xd0]
   8df75:	48 89 85 68 ff ff ff 	mov    QWORD PTR [rbp-0x98],rax
   8df7c:	44 89 75 c8          	mov    DWORD PTR [rbp-0x38],r14d
   8df80:	8b 45 c4             	mov    eax,DWORD PTR [rbp-0x3c]
   8df83:	89 45 cc             	mov    DWORD PTR [rbp-0x34],eax
   8df86:	48 8b 85 28 ff ff ff 	mov    rax,QWORD PTR [rbp-0xd8]
   8df8d:	48 89 85 70 ff ff ff 	mov    QWORD PTR [rbp-0x90],rax
   8df94:	48 89 9d 78 ff ff ff 	mov    QWORD PTR [rbp-0x88],rbx
   8df9b:	48 8b 85 50 ff ff ff 	mov    rax,QWORD PTR [rbp-0xb0]
   8dfa2:	48 89 45 80          	mov    QWORD PTR [rbp-0x80],rax
   8dfa6:	48 8b 85 20 ff ff ff 	mov    rax,QWORD PTR [rbp-0xe0]
   8dfad:	48 89 45 88          	mov    QWORD PTR [rbp-0x78],rax
   8dfb1:	48 8b 85 18 ff ff ff 	mov    rax,QWORD PTR [rbp-0xe8]
   8dfb8:	48 89 45 90          	mov    QWORD PTR [rbp-0x70],rax
   8dfbc:	48 8b 85 08 ff ff ff 	mov    rax,QWORD PTR [rbp-0xf8]
   8dfc3:	48 89 45 98          	mov    QWORD PTR [rbp-0x68],rax
   8dfc7:	48 8b 85 10 ff ff ff 	mov    rax,QWORD PTR [rbp-0xf0]
   8dfce:	48 89 45 a0          	mov    QWORD PTR [rbp-0x60],rax
   8dfd2:	4c 89 7d a8          	mov    QWORD PTR [rbp-0x58],r15
   8dfd6:	48 8b 85 00 ff ff ff 	mov    rax,QWORD PTR [rbp-0x100]
   8dfdd:	48 89 45 b0          	mov    QWORD PTR [rbp-0x50],rax
   8dfe1:	48 8b 85 38 ff ff ff 	mov    rax,QWORD PTR [rbp-0xc8]
   8dfe8:	48 89 45 b8          	mov    QWORD PTR [rbp-0x48],rax
   8dfec:	4c 89 ad 58 ff ff ff 	mov    QWORD PTR [rbp-0xa8],r13
   8dff3:	48 ba 6a fc db 10 4f 	movabs rdx,0x4472b14f10dbfc6a
   8dffa:	b1 72 44 
   8dffd:	e9 d0 a4 ff ff       	jmp    884d2 <Java_com_adjust_sdk_sig_NativeLibHelper_nOnResume@@Base-0x327d1>
   8e002:	48 8b 95 68 fa ff ff 	mov    rdx,QWORD PTR [rbp-0x598]
   8e009:	4c 8b 95 e8 fc ff ff 	mov    r10,QWORD PTR [rbp-0x318]
   8e010:	41 c6 04 12 00       	mov    BYTE PTR [r10+rdx*1],0x0
   8e015:	48 8b 85 48 ff ff ff 	mov    rax,QWORD PTR [rbp-0xb8]
   8e01c:	48 89 85 58 ff ff ff 	mov    QWORD PTR [rbp-0xa8],rax
   8e023:	48 8b 85 40 ff ff ff 	mov    rax,QWORD PTR [rbp-0xc0]
   8e02a:	48 89 85 60 ff ff ff 	mov    QWORD PTR [rbp-0xa0],rax
   8e031:	48 8b 85 30 ff ff ff 	mov    rax,QWORD PTR [rbp-0xd0]
   8e038:	48 89 85 68 ff ff ff 	mov    QWORD PTR [rbp-0x98],rax
   8e03f:	8b 45 c0             	mov    eax,DWORD PTR [rbp-0x40]
   8e042:	89 45 c8             	mov    DWORD PTR [rbp-0x38],eax
   8e045:	8b 45 c4             	mov    eax,DWORD PTR [rbp-0x3c]
   8e048:	89 45 cc             	mov    DWORD PTR [rbp-0x34],eax
   8e04b:	48 8b 85 28 ff ff ff 	mov    rax,QWORD PTR [rbp-0xd8]
   8e052:	48 89 85 70 ff ff ff 	mov    QWORD PTR [rbp-0x90],rax
   8e059:	48 8b 85 f0 fe ff ff 	mov    rax,QWORD PTR [rbp-0x110]
   8e060:	48 89 85 78 ff ff ff 	mov    QWORD PTR [rbp-0x88],rax
   8e067:	48 8b 85 50 ff ff ff 	mov    rax,QWORD PTR [rbp-0xb0]
   8e06e:	48 89 45 80          	mov    QWORD PTR [rbp-0x80],rax
   8e072:	48 8b 85 20 ff ff ff 	mov    rax,QWORD PTR [rbp-0xe0]
   8e079:	48 89 45 88          	mov    QWORD PTR [rbp-0x78],rax
   8e07d:	48 8b 85 18 ff ff ff 	mov    rax,QWORD PTR [rbp-0xe8]
   8e084:	48 89 45 90          	mov    QWORD PTR [rbp-0x70],rax
   8e088:	48 8b 85 08 ff ff ff 	mov    rax,QWORD PTR [rbp-0xf8]
   8e08f:	48 89 45 98          	mov    QWORD PTR [rbp-0x68],rax
   8e093:	48 8b 85 10 ff ff ff 	mov    rax,QWORD PTR [rbp-0xf0]
   8e09a:	48 89 45 a0          	mov    QWORD PTR [rbp-0x60],rax
   8e09e:	48 8b 85 f8 fe ff ff 	mov    rax,QWORD PTR [rbp-0x108]
   8e0a5:	48 89 45 a8          	mov    QWORD PTR [rbp-0x58],rax
   8e0a9:	48 8b 85 00 ff ff ff 	mov    rax,QWORD PTR [rbp-0x100]
   8e0b0:	48 89 45 b0          	mov    QWORD PTR [rbp-0x50],rax
   8e0b4:	48 8b 85 38 ff ff ff 	mov    rax,QWORD PTR [rbp-0xc8]
   8e0bb:	48 89 45 b8          	mov    QWORD PTR [rbp-0x48],rax
   8e0bf:	4c 8b 9d d0 fe ff ff 	mov    r11,QWORD PTR [rbp-0x130]
   8e0c6:	4c 89 9d b8 fd ff ff 	mov    QWORD PTR [rbp-0x248],r11
   8e0cd:	4c 89 95 c0 fd ff ff 	mov    QWORD PTR [rbp-0x240],r10
   8e0d4:	e9 0f 2f 00 00       	jmp    90fe8 <Java_com_adjust_sdk_sig_NativeLibHelper_nOnResume@@Base-0x29cbb>
   8e0d9:	80 3b 00             	cmp    BYTE PTR [rbx],0x0
   8e0dc:	48 ba c5 ec 3d d8 e3 	movabs rdx,0x727a2de3d83decc5
   8e0e3:	2d 7a 72 
   8e0e6:	48 b8 6b ff a7 fe dd 	movabs rax,0x22eb73ddfea7ff6b
   8e0ed:	73 eb 22 
   8e0f0:	48 0f 44 d0          	cmove  rdx,rax
   8e0f4:	48 8b 85 48 ff ff ff 	mov    rax,QWORD PTR [rbp-0xb8]
   8e0fb:	48 89 85 58 ff ff ff 	mov    QWORD PTR [rbp-0xa8],rax
   8e102:	48 8b 85 40 ff ff ff 	mov    rax,QWORD PTR [rbp-0xc0]
   8e109:	48 89 85 60 ff ff ff 	mov    QWORD PTR [rbp-0xa0],rax
   8e110:	48 8b 85 30 ff ff ff 	mov    rax,QWORD PTR [rbp-0xd0]
   8e117:	48 89 85 68 ff ff ff 	mov    QWORD PTR [rbp-0x98],rax
   8e11e:	44 89 75 c8          	mov    DWORD PTR [rbp-0x38],r14d
   8e122:	8b 45 c4             	mov    eax,DWORD PTR [rbp-0x3c]
   8e125:	89 45 cc             	mov    DWORD PTR [rbp-0x34],eax
   8e128:	48 8b 85 28 ff ff ff 	mov    rax,QWORD PTR [rbp-0xd8]
   8e12f:	48 89 85 70 ff ff ff 	mov    QWORD PTR [rbp-0x90],rax
   8e136:	48 8b 85 50 ff ff ff 	mov    rax,QWORD PTR [rbp-0xb0]
   8e13d:	48 89 45 80          	mov    QWORD PTR [rbp-0x80],rax
   8e141:	48 8b 85 20 ff ff ff 	mov    rax,QWORD PTR [rbp-0xe0]
   8e148:	48 89 45 88          	mov    QWORD PTR [rbp-0x78],rax
   8e14c:	48 8b 85 18 ff ff ff 	mov    rax,QWORD PTR [rbp-0xe8]
   8e153:	48 89 45 90          	mov    QWORD PTR [rbp-0x70],rax
   8e157:	48 8b 85 08 ff ff ff 	mov    rax,QWORD PTR [rbp-0xf8]
   8e15e:	48 89 45 98          	mov    QWORD PTR [rbp-0x68],rax
   8e162:	48 8d 73 01          	lea    rsi,[rbx+0x1]
   8e166:	48 89 b5 38 fa ff ff 	mov    QWORD PTR [rbp-0x5c8],rsi
   8e16d:	48 89 9d 78 ff ff ff 	mov    QWORD PTR [rbp-0x88],rbx
   8e174:	48 89 9d 20 fb ff ff 	mov    QWORD PTR [rbp-0x4e0],rbx
   8e17b:	e9 74 0f 00 00       	jmp    8f0f4 <Java_com_adjust_sdk_sig_NativeLibHelper_nOnResume@@Base-0x2bbaf>
   8e180:	4c 8b 85 f8 fe ff ff 	mov    r8,QWORD PTR [rbp-0x108]
   8e187:	41 80 38 00          	cmp    BYTE PTR [r8],0x0
   8e18b:	48 ba c3 e7 21 9a df 	movabs rdx,0xe89920df9a21e7c3
   8e192:	20 99 e8 
   8e195:	48 b8 34 4b 85 d9 16 	movabs rax,0xeaf3f316d9854b34
   8e19c:	f3 f3 ea 
   8e19f:	48 0f 44 d0          	cmove  rdx,rax
   8e1a3:	48 8b 85 48 ff ff ff 	mov    rax,QWORD PTR [rbp-0xb8]
   8e1aa:	48 89 85 58 ff ff ff 	mov    QWORD PTR [rbp-0xa8],rax
   8e1b1:	48 8b 85 40 ff ff ff 	mov    rax,QWORD PTR [rbp-0xc0]
   8e1b8:	48 89 85 60 ff ff ff 	mov    QWORD PTR [rbp-0xa0],rax
   8e1bf:	48 8b 85 30 ff ff ff 	mov    rax,QWORD PTR [rbp-0xd0]
   8e1c6:	48 89 85 68 ff ff ff 	mov    QWORD PTR [rbp-0x98],rax
   8e1cd:	8b 45 c0             	mov    eax,DWORD PTR [rbp-0x40]
   8e1d0:	89 45 c8             	mov    DWORD PTR [rbp-0x38],eax
   8e1d3:	8b 45 c4             	mov    eax,DWORD PTR [rbp-0x3c]
   8e1d6:	89 45 cc             	mov    DWORD PTR [rbp-0x34],eax
   8e1d9:	48 8b 85 28 ff ff ff 	mov    rax,QWORD PTR [rbp-0xd8]
   8e1e0:	48 89 85 70 ff ff ff 	mov    QWORD PTR [rbp-0x90],rax
   8e1e7:	48 8b 85 f0 fe ff ff 	mov    rax,QWORD PTR [rbp-0x110]
   8e1ee:	48 89 85 78 ff ff ff 	mov    QWORD PTR [rbp-0x88],rax
   8e1f5:	48 8b 85 50 ff ff ff 	mov    rax,QWORD PTR [rbp-0xb0]
   8e1fc:	48 89 45 80          	mov    QWORD PTR [rbp-0x80],rax
   8e200:	48 8b 85 20 ff ff ff 	mov    rax,QWORD PTR [rbp-0xe0]
   8e207:	48 89 45 88          	mov    QWORD PTR [rbp-0x78],rax
   8e20b:	48 8b 85 18 ff ff ff 	mov    rax,QWORD PTR [rbp-0xe8]
   8e212:	48 89 45 90          	mov    QWORD PTR [rbp-0x70],rax
   8e216:	48 8b 85 08 ff ff ff 	mov    rax,QWORD PTR [rbp-0xf8]
   8e21d:	48 89 45 98          	mov    QWORD PTR [rbp-0x68],rax
   8e221:	48 8b 85 10 ff ff ff 	mov    rax,QWORD PTR [rbp-0xf0]
   8e228:	48 89 45 a0          	mov    QWORD PTR [rbp-0x60],rax
   8e22c:	49 8d 78 01          	lea    rdi,[r8+0x1]
   8e230:	48 89 bd f0 f9 ff ff 	mov    QWORD PTR [rbp-0x610],rdi
   8e237:	4c 89 85 10 fb ff ff 	mov    QWORD PTR [rbp-0x4f0],r8
   8e23e:	4c 89 45 a8          	mov    QWORD PTR [rbp-0x58],r8
   8e242:	e9 fe 5c 00 00       	jmp    93f45 <Java_com_adjust_sdk_sig_NativeLibHelper_nOnResume@@Base-0x26d5e>
   8e247:	48 8b 85 d8 fe ff ff 	mov    rax,QWORD PTR [rbp-0x128]
   8e24e:	48 83 60 38 00       	and    QWORD PTR [rax+0x38],0x0
   8e253:	e9 16 57 00 00       	jmp    9396e <Java_com_adjust_sdk_sig_NativeLibHelper_nOnResume@@Base-0x27335>
   8e258:	48 8b 85 88 fe ff ff 	mov    rax,QWORD PTR [rbp-0x178]
   8e25f:	48 8b 00             	mov    rax,QWORD PTR [rax]
   8e262:	48 89 85 a8 fa ff ff 	mov    QWORD PTR [rbp-0x558],rax
   8e269:	48 85 c0             	test   rax,rax
   8e26c:	48 ba f8 f8 4e b0 ac 	movabs rdx,0xa05b0acb04ef8f8
   8e273:	b0 05 0a 
   8e276:	48 b8 97 20 a9 b6 75 	movabs rax,0x7e024a75b6a92097
   8e27d:	4a 02 7e 
   8e280:	48 0f 44 d0          	cmove  rdx,rax
   8e284:	e9 92 55 00 00       	jmp    9381b <Java_com_adjust_sdk_sig_NativeLibHelper_nOnResume@@Base-0x27488>
   8e289:	48 8b 85 78 fe ff ff 	mov    rax,QWORD PTR [rbp-0x188]
   8e290:	48 83 20 00          	and    QWORD PTR [rax],0x0
   8e294:	48 8b 85 a0 fe ff ff 	mov    rax,QWORD PTR [rbp-0x160]
   8e29b:	48 8b 00             	mov    rax,QWORD PTR [rax]
   8e29e:	48 89 85 b8 fa ff ff 	mov    QWORD PTR [rbp-0x548],rax
   8e2a5:	48 85 c0             	test   rax,rax
   8e2a8:	48 b9 e0 24 06 6a 73 	movabs rcx,0xf536f4736a0624e0
   8e2af:	f4 36 f5 
   8e2b2:	49 89 d0             	mov    r8,rdx
   8e2b5:	48 89 ca             	mov    rdx,rcx
   8e2b8:	48 b8 fe 93 7a d7 59 	movabs rax,0xa159ac59d77a93fe
   8e2bf:	ac 59 a1 
   8e2c2:	48 0f 45 d0          	cmovne rdx,rax
   8e2c6:	48 83 bd e0 fe ff ff 	cmp    QWORD PTR [rbp-0x120],0x0
   8e2cd:	00 
   8e2ce:	48 0f 44 d1          	cmove  rdx,rcx
   8e2d2:	48 8b 85 48 ff ff ff 	mov    rax,QWORD PTR [rbp-0xb8]
   8e2d9:	48 89 85 58 ff ff ff 	mov    QWORD PTR [rbp-0xa8],rax
   8e2e0:	48 8b 85 40 ff ff ff 	mov    rax,QWORD PTR [rbp-0xc0]
   8e2e7:	48 89 85 60 ff ff ff 	mov    QWORD PTR [rbp-0xa0],rax
   8e2ee:	4c 89 b5 68 ff ff ff 	mov    QWORD PTR [rbp-0x98],r14
   8e2f5:	44 89 55 c8          	mov    DWORD PTR [rbp-0x38],r10d
   8e2f9:	89 5d cc             	mov    DWORD PTR [rbp-0x34],ebx
   8e2fc:	48 89 bd 70 ff ff ff 	mov    QWORD PTR [rbp-0x90],rdi
   8e303:	48 89 b5 78 ff ff ff 	mov    QWORD PTR [rbp-0x88],rsi
   8e30a:	48 8b 85 50 ff ff ff 	mov    rax,QWORD PTR [rbp-0xb0]
   8e311:	48 89 45 80          	mov    QWORD PTR [rbp-0x80],rax
   8e315:	48 8b 85 20 ff ff ff 	mov    rax,QWORD PTR [rbp-0xe0]
   8e31c:	48 89 45 88          	mov    QWORD PTR [rbp-0x78],rax
   8e320:	48 8b 85 18 ff ff ff 	mov    rax,QWORD PTR [rbp-0xe8]
   8e327:	48 89 45 90          	mov    QWORD PTR [rbp-0x70],rax
   8e32b:	4c 89 5d 98          	mov    QWORD PTR [rbp-0x68],r11
   8e32f:	4c 89 4d a0          	mov    QWORD PTR [rbp-0x60],r9
   8e333:	4c 89 7d a8          	mov    QWORD PTR [rbp-0x58],r15
   8e337:	e9 a7 4a 00 00       	jmp    92de3 <Java_com_adjust_sdk_sig_NativeLibHelper_nOnResume@@Base-0x27ec0>
   8e33c:	48 8b 85 d8 fe ff ff 	mov    rax,QWORD PTR [rbp-0x128]
   8e343:	48 83 60 50 00       	and    QWORD PTR [rax+0x50],0x0
   8e348:	48 8b 85 48 ff ff ff 	mov    rax,QWORD PTR [rbp-0xb8]
   8e34f:	48 89 85 58 ff ff ff 	mov    QWORD PTR [rbp-0xa8],rax
   8e356:	48 8b 85 40 ff ff ff 	mov    rax,QWORD PTR [rbp-0xc0]
   8e35d:	48 89 85 60 ff ff ff 	mov    QWORD PTR [rbp-0xa0],rax
   8e364:	4c 89 b5 68 ff ff ff 	mov    QWORD PTR [rbp-0x98],r14
   8e36b:	44 89 55 c8          	mov    DWORD PTR [rbp-0x38],r10d
   8e36f:	48 89 9d 70 ff ff ff 	mov    QWORD PTR [rbp-0x90],rbx
   8e376:	4c 89 9d 78 ff ff ff 	mov    QWORD PTR [rbp-0x88],r11
   8e37d:	48 8b 85 50 ff ff ff 	mov    rax,QWORD PTR [rbp-0xb0]
   8e384:	48 89 45 80          	mov    QWORD PTR [rbp-0x80],rax
   8e388:	4c 89 4d 88          	mov    QWORD PTR [rbp-0x78],r9
   8e38c:	4c 89 45 90          	mov    QWORD PTR [rbp-0x70],r8
   8e390:	48 89 4d 98          	mov    QWORD PTR [rbp-0x68],rcx
   8e394:	48 89 75 a0          	mov    QWORD PTR [rbp-0x60],rsi
   8e398:	48 89 7d a8          	mov    QWORD PTR [rbp-0x58],rdi
   8e39c:	e9 b9 3f 00 00       	jmp    9235a <Java_com_adjust_sdk_sig_NativeLibHelper_nOnResume@@Base-0x28949>
   8e3a1:	c6 05 dc 0b 0b 00 00 	mov    BYTE PTR [rip+0xb0bdc],0x0        # 13ef84 <write@plt+0xc404>
   8e3a8:	48 8b 85 d8 fe ff ff 	mov    rax,QWORD PTR [rbp-0x128]
   8e3af:	48 8b 8d 18 fd ff ff 	mov    rcx,QWORD PTR [rbp-0x2e8]
   8e3b6:	48 89 48 40          	mov    QWORD PTR [rax+0x40],rcx
   8e3ba:	48 8d 3d ff ee 0a 00 	lea    rdi,[rip+0xaeeff]        # 13d2c0 <write@plt+0xa740>
   8e3c1:	48 8b 9d d0 fe ff ff 	mov    rbx,QWORD PTR [rbp-0x130]
   8e3c8:	48 89 de             	mov    rsi,rbx
   8e3cb:	e8 32 36 03 00       	call   c1a02 <Java_com_adjust_sdk_sig_NativeLibHelper_nSign@@Base+0x6357>
   8e3d0:	48 8b 85 48 ff ff ff 	mov    rax,QWORD PTR [rbp-0xb8]
   8e3d7:	48 89 85 58 ff ff ff 	mov    QWORD PTR [rbp-0xa8],rax
   8e3de:	48 8b 85 40 ff ff ff 	mov    rax,QWORD PTR [rbp-0xc0]
   8e3e5:	48 89 85 60 ff ff ff 	mov    QWORD PTR [rbp-0xa0],rax
   8e3ec:	8b 45 c0             	mov    eax,DWORD PTR [rbp-0x40]
   8e3ef:	89 45 c8             	mov    DWORD PTR [rbp-0x38],eax
   8e3f2:	8b 45 c4             	mov    eax,DWORD PTR [rbp-0x3c]
   8e3f5:	89 45 cc             	mov    DWORD PTR [rbp-0x34],eax
   8e3f8:	48 8b 85 28 ff ff ff 	mov    rax,QWORD PTR [rbp-0xd8]
   8e3ff:	48 89 85 70 ff ff ff 	mov    QWORD PTR [rbp-0x90],rax
   8e406:	48 8b 85 f0 fe ff ff 	mov    rax,QWORD PTR [rbp-0x110]
   8e40d:	48 89 85 78 ff ff ff 	mov    QWORD PTR [rbp-0x88],rax
   8e414:	48 8b 85 50 ff ff ff 	mov    rax,QWORD PTR [rbp-0xb0]
   8e41b:	48 89 45 80          	mov    QWORD PTR [rbp-0x80],rax
   8e41f:	48 8b 85 20 ff ff ff 	mov    rax,QWORD PTR [rbp-0xe0]
   8e426:	48 89 45 88          	mov    QWORD PTR [rbp-0x78],rax
   8e42a:	48 8b 85 18 ff ff ff 	mov    rax,QWORD PTR [rbp-0xe8]
   8e431:	48 89 45 90          	mov    QWORD PTR [rbp-0x70],rax
   8e435:	48 8b 85 08 ff ff ff 	mov    rax,QWORD PTR [rbp-0xf8]
   8e43c:	48 89 45 98          	mov    QWORD PTR [rbp-0x68],rax
   8e440:	48 8b 85 10 ff ff ff 	mov    rax,QWORD PTR [rbp-0xf0]
   8e447:	48 89 45 a0          	mov    QWORD PTR [rbp-0x60],rax
   8e44b:	48 8b 85 f8 fe ff ff 	mov    rax,QWORD PTR [rbp-0x108]
   8e452:	48 89 45 a8          	mov    QWORD PTR [rbp-0x58],rax
   8e456:	48 8b 85 00 ff ff ff 	mov    rax,QWORD PTR [rbp-0x100]
   8e45d:	48 89 45 b0          	mov    QWORD PTR [rbp-0x50],rax
   8e461:	48 8b 85 38 ff ff ff 	mov    rax,QWORD PTR [rbp-0xc8]
   8e468:	48 89 45 b8          	mov    QWORD PTR [rbp-0x48],rax
   8e46c:	48 89 9d 68 ff ff ff 	mov    QWORD PTR [rbp-0x98],rbx
   8e473:	48 ba 7c ce 99 82 2b 	movabs rdx,0x7d94b62b8299ce7c
   8e47a:	b6 94 7d 
   8e47d:	e9 50 a0 ff ff       	jmp    884d2 <Java_com_adjust_sdk_sig_NativeLibHelper_nOnResume@@Base-0x327d1>
   8e482:	4c 8b 95 a8 fc ff ff 	mov    r10,QWORD PTR [rbp-0x358]
   8e489:	4d 85 d2             	test   r10,r10
   8e48c:	48 ba c1 cc 22 b1 1d 	movabs rdx,0x93a4c81db122ccc1
   8e493:	c8 a4 93 
   8e496:	48 b8 60 1f 39 67 64 	movabs rax,0x3e09f96467391f60
   8e49d:	f9 09 3e 
   8e4a0:	48 0f 44 d0          	cmove  rdx,rax
   8e4a4:	48 8b 85 48 ff ff ff 	mov    rax,QWORD PTR [rbp-0xb8]
   8e4ab:	48 89 85 58 ff ff ff 	mov    QWORD PTR [rbp-0xa8],rax
   8e4b2:	48 8b 85 40 ff ff ff 	mov    rax,QWORD PTR [rbp-0xc0]
   8e4b9:	48 89 85 60 ff ff ff 	mov    QWORD PTR [rbp-0xa0],rax
   8e4c0:	48 8b 85 30 ff ff ff 	mov    rax,QWORD PTR [rbp-0xd0]
   8e4c7:	48 89 85 68 ff ff ff 	mov    QWORD PTR [rbp-0x98],rax
   8e4ce:	8b 45 c0             	mov    eax,DWORD PTR [rbp-0x40]
   8e4d1:	89 45 c8             	mov    DWORD PTR [rbp-0x38],eax
   8e4d4:	8b 45 c4             	mov    eax,DWORD PTR [rbp-0x3c]
   8e4d7:	89 45 cc             	mov    DWORD PTR [rbp-0x34],eax
   8e4da:	48 8b 85 28 ff ff ff 	mov    rax,QWORD PTR [rbp-0xd8]
   8e4e1:	48 89 85 70 ff ff ff 	mov    QWORD PTR [rbp-0x90],rax
   8e4e8:	48 8b 85 f0 fe ff ff 	mov    rax,QWORD PTR [rbp-0x110]
   8e4ef:	48 89 85 78 ff ff ff 	mov    QWORD PTR [rbp-0x88],rax
   8e4f6:	48 8b 85 50 ff ff ff 	mov    rax,QWORD PTR [rbp-0xb0]
   8e4fd:	48 89 45 80          	mov    QWORD PTR [rbp-0x80],rax
   8e501:	48 8b 85 20 ff ff ff 	mov    rax,QWORD PTR [rbp-0xe0]
   8e508:	48 89 45 88          	mov    QWORD PTR [rbp-0x78],rax
   8e50c:	48 8b 85 18 ff ff ff 	mov    rax,QWORD PTR [rbp-0xe8]
   8e513:	48 89 45 90          	mov    QWORD PTR [rbp-0x70],rax
   8e517:	48 8b 85 08 ff ff ff 	mov    rax,QWORD PTR [rbp-0xf8]
   8e51e:	48 89 45 98          	mov    QWORD PTR [rbp-0x68],rax
   8e522:	48 8b 85 10 ff ff ff 	mov    rax,QWORD PTR [rbp-0xf0]
   8e529:	48 89 45 a0          	mov    QWORD PTR [rbp-0x60],rax
   8e52d:	48 8b 85 f8 fe ff ff 	mov    rax,QWORD PTR [rbp-0x108]
   8e534:	48 89 45 a8          	mov    QWORD PTR [rbp-0x58],rax
   8e538:	48 8b 85 00 ff ff ff 	mov    rax,QWORD PTR [rbp-0x100]
   8e53f:	48 89 45 b0          	mov    QWORD PTR [rbp-0x50],rax
   8e543:	48 8b 85 38 ff ff ff 	mov    rax,QWORD PTR [rbp-0xc8]
   8e54a:	48 89 45 b8          	mov    QWORD PTR [rbp-0x48],rax
   8e54e:	4c 89 95 20 fc ff ff 	mov    QWORD PTR [rbp-0x3e0],r10
   8e555:	4c 8b 95 b0 fc ff ff 	mov    r10,QWORD PTR [rbp-0x350]
   8e55c:	4c 89 95 28 fc ff ff 	mov    QWORD PTR [rbp-0x3d8],r10
   8e563:	4c 8b 95 b8 fc ff ff 	mov    r10,QWORD PTR [rbp-0x348]
   8e56a:	4c 89 95 30 fc ff ff 	mov    QWORD PTR [rbp-0x3d0],r10
   8e571:	e9 5c 9f ff ff       	jmp    884d2 <Java_com_adjust_sdk_sig_NativeLibHelper_nOnResume@@Base-0x327d1>
   8e576:	48 8b 8d 18 ff ff ff 	mov    rcx,QWORD PTR [rbp-0xe8]
   8e57d:	80 39 00             	cmp    BYTE PTR [rcx],0x0
   8e580:	48 ba 7f 58 fa 6d a4 	movabs rdx,0x3f6f5fa46dfa587f
   8e587:	5f 6f 3f 
   8e58a:	48 b8 6e 84 be 65 2d 	movabs rax,0x2b60a12d65be846e
   8e591:	a1 60 2b 
   8e594:	48 0f 44 d0          	cmove  rdx,rax
   8e598:	48 8b 85 48 ff ff ff 	mov    rax,QWORD PTR [rbp-0xb8]
   8e59f:	48 89 85 58 ff ff ff 	mov    QWORD PTR [rbp-0xa8],rax
   8e5a6:	48 8b 85 40 ff ff ff 	mov    rax,QWORD PTR [rbp-0xc0]
   8e5ad:	48 89 85 60 ff ff ff 	mov    QWORD PTR [rbp-0xa0],rax
   8e5b4:	48 8b 85 30 ff ff ff 	mov    rax,QWORD PTR [rbp-0xd0]
   8e5bb:	48 89 85 68 ff ff ff 	mov    QWORD PTR [rbp-0x98],rax
   8e5c2:	8b 45 c0             	mov    eax,DWORD PTR [rbp-0x40]
   8e5c5:	89 45 c8             	mov    DWORD PTR [rbp-0x38],eax
   8e5c8:	8b 45 c4             	mov    eax,DWORD PTR [rbp-0x3c]
   8e5cb:	89 45 cc             	mov    DWORD PTR [rbp-0x34],eax
   8e5ce:	48 8b 85 28 ff ff ff 	mov    rax,QWORD PTR [rbp-0xd8]
   8e5d5:	48 89 85 70 ff ff ff 	mov    QWORD PTR [rbp-0x90],rax
   8e5dc:	48 8b 85 f0 fe ff ff 	mov    rax,QWORD PTR [rbp-0x110]
   8e5e3:	48 89 85 78 ff ff ff 	mov    QWORD PTR [rbp-0x88],rax
   8e5ea:	48 8b 85 50 ff ff ff 	mov    rax,QWORD PTR [rbp-0xb0]
   8e5f1:	48 89 45 80          	mov    QWORD PTR [rbp-0x80],rax
   8e5f5:	48 8b 85 20 ff ff ff 	mov    rax,QWORD PTR [rbp-0xe0]
   8e5fc:	48 89 45 88          	mov    QWORD PTR [rbp-0x78],rax
   8e600:	48 8d 41 01          	lea    rax,[rcx+0x1]
   8e604:	48 89 85 18 fa ff ff 	mov    QWORD PTR [rbp-0x5e8],rax
   8e60b:	48 89 8d e8 fa ff ff 	mov    QWORD PTR [rbp-0x518],rcx
   8e612:	48 89 4d 90          	mov    QWORD PTR [rbp-0x70],rcx
   8e616:	e9 09 59 00 00       	jmp    93f24 <Java_com_adjust_sdk_sig_NativeLibHelper_nOnResume@@Base-0x26d7f>
   8e61b:	48 8b 85 d8 fe ff ff 	mov    rax,QWORD PTR [rbp-0x128]
   8e622:	48 83 60 40 00       	and    QWORD PTR [rax+0x40],0x0
   8e627:	e9 7d 30 00 00       	jmp    916a9 <Java_com_adjust_sdk_sig_NativeLibHelper_nOnResume@@Base-0x295fa>
   8e62c:	48 8b 85 48 ff ff ff 	mov    rax,QWORD PTR [rbp-0xb8]
   8e633:	48 89 85 58 ff ff ff 	mov    QWORD PTR [rbp-0xa8],rax
   8e63a:	48 8b 85 40 ff ff ff 	mov    rax,QWORD PTR [rbp-0xc0]
   8e641:	48 89 85 60 ff ff ff 	mov    QWORD PTR [rbp-0xa0],rax
   8e648:	48 8b 85 30 ff ff ff 	mov    rax,QWORD PTR [rbp-0xd0]
   8e64f:	48 89 85 68 ff ff ff 	mov    QWORD PTR [rbp-0x98],rax
   8e656:	8b 45 c4             	mov    eax,DWORD PTR [rbp-0x3c]
   8e659:	89 45 cc             	mov    DWORD PTR [rbp-0x34],eax
   8e65c:	48 8b 85 28 ff ff ff 	mov    rax,QWORD PTR [rbp-0xd8]
   8e663:	48 89 85 70 ff ff ff 	mov    QWORD PTR [rbp-0x90],rax
   8e66a:	48 8b 85 f0 fe ff ff 	mov    rax,QWORD PTR [rbp-0x110]
   8e671:	48 89 85 78 ff ff ff 	mov    QWORD PTR [rbp-0x88],rax
   8e678:	48 8b 85 50 ff ff ff 	mov    rax,QWORD PTR [rbp-0xb0]
   8e67f:	48 89 45 80          	mov    QWORD PTR [rbp-0x80],rax
   8e683:	48 8b 85 20 ff ff ff 	mov    rax,QWORD PTR [rbp-0xe0]
   8e68a:	48 89 45 88          	mov    QWORD PTR [rbp-0x78],rax
   8e68e:	48 8b 85 18 ff ff ff 	mov    rax,QWORD PTR [rbp-0xe8]
   8e695:	48 89 45 90          	mov    QWORD PTR [rbp-0x70],rax
   8e699:	48 8b 85 08 ff ff ff 	mov    rax,QWORD PTR [rbp-0xf8]
   8e6a0:	48 89 45 98          	mov    QWORD PTR [rbp-0x68],rax
   8e6a4:	48 8b 85 10 ff ff ff 	mov    rax,QWORD PTR [rbp-0xf0]
   8e6ab:	48 89 45 a0          	mov    QWORD PTR [rbp-0x60],rax
   8e6af:	48 8b 85 f8 fe ff ff 	mov    rax,QWORD PTR [rbp-0x108]
   8e6b6:	48 89 45 a8          	mov    QWORD PTR [rbp-0x58],rax
   8e6ba:	48 8b 85 00 ff ff ff 	mov    rax,QWORD PTR [rbp-0x100]
   8e6c1:	48 89 45 b0          	mov    QWORD PTR [rbp-0x50],rax
   8e6c5:	48 8b 85 38 ff ff ff 	mov    rax,QWORD PTR [rbp-0xc8]
   8e6cc:	48 89 45 b8          	mov    QWORD PTR [rbp-0x48],rax
   8e6d0:	c7 45 c8 00 00 00 00 	mov    DWORD PTR [rbp-0x38],0x0
   8e6d7:	48 ba 5c 07 15 0e 07 	movabs rdx,0x376494070e15075c
   8e6de:	94 64 37 
   8e6e1:	e9 ec 9d ff ff       	jmp    884d2 <Java_com_adjust_sdk_sig_NativeLibHelper_nOnResume@@Base-0x327d1>
   8e6e6:	0f 28 05 73 d9 0a 00 	movaps xmm0,XMMWORD PTR [rip+0xad973]        # 13c060 <write@plt+0x94e0>
   8e6ed:	0f 57 05 9c 50 f7 ff 	xorps  xmm0,XMMWORD PTR [rip+0xfffffffffff7509c]        # 3790 <Java_com_adjust_sdk_sig_NativeLibHelper_nOnResume@@Base-0xb7513>
   8e6f4:	0f 29 05 65 d9 0a 00 	movaps XMMWORD PTR [rip+0xad965],xmm0        # 13c060 <write@plt+0x94e0>
   8e6fb:	48 b8 b5 b5 b5 b5 b5 	movabs rax,0xb5b5b5b5b5b5b5b5
   8e702:	b5 b5 b5 
   8e705:	48 31 05 64 d9 0a 00 	xor    QWORD PTR [rip+0xad964],rax        # 13c070 <write@plt+0x94f0>
   8e70c:	c6 05 9a 06 0b 00 01 	mov    BYTE PTR [rip+0xb069a],0x1        # 13edad <write@plt+0xc22d>
   8e713:	48 8b 85 48 ff ff ff 	mov    rax,QWORD PTR [rbp-0xb8]
   8e71a:	48 89 85 58 ff ff ff 	mov    QWORD PTR [rbp-0xa8],rax
   8e721:	48 8b 85 40 ff ff ff 	mov    rax,QWORD PTR [rbp-0xc0]
   8e728:	48 89 85 60 ff ff ff 	mov    QWORD PTR [rbp-0xa0],rax
   8e72f:	48 8b 85 30 ff ff ff 	mov    rax,QWORD PTR [rbp-0xd0]
   8e736:	48 89 85 68 ff ff ff 	mov    QWORD PTR [rbp-0x98],rax
   8e73d:	44 89 75 c8          	mov    DWORD PTR [rbp-0x38],r14d
   8e741:	8b 45 c4             	mov    eax,DWORD PTR [rbp-0x3c]
   8e744:	89 45 cc             	mov    DWORD PTR [rbp-0x34],eax
   8e747:	48 8b 85 28 ff ff ff 	mov    rax,QWORD PTR [rbp-0xd8]
   8e74e:	48 89 85 70 ff ff ff 	mov    QWORD PTR [rbp-0x90],rax
   8e755:	48 89 9d 78 ff ff ff 	mov    QWORD PTR [rbp-0x88],rbx
   8e75c:	48 8b 85 50 ff ff ff 	mov    rax,QWORD PTR [rbp-0xb0]
   8e763:	48 89 45 80          	mov    QWORD PTR [rbp-0x80],rax
   8e767:	48 8b 85 20 ff ff ff 	mov    rax,QWORD PTR [rbp-0xe0]
   8e76e:	48 89 45 88          	mov    QWORD PTR [rbp-0x78],rax
   8e772:	48 8b 85 18 ff ff ff 	mov    rax,QWORD PTR [rbp-0xe8]
   8e779:	48 89 45 90          	mov    QWORD PTR [rbp-0x70],rax
   8e77d:	48 8b 85 08 ff ff ff 	mov    rax,QWORD PTR [rbp-0xf8]
   8e784:	48 89 45 98          	mov    QWORD PTR [rbp-0x68],rax
   8e788:	48 8b 85 10 ff ff ff 	mov    rax,QWORD PTR [rbp-0xf0]
   8e78f:	48 89 45 a0          	mov    QWORD PTR [rbp-0x60],rax
   8e793:	4c 89 5d a8          	mov    QWORD PTR [rbp-0x58],r11
   8e797:	48 89 55 b0          	mov    QWORD PTR [rbp-0x50],rdx
   8e79b:	48 8b 85 38 ff ff ff 	mov    rax,QWORD PTR [rbp-0xc8]
   8e7a2:	48 89 45 b8          	mov    QWORD PTR [rbp-0x48],rax
   8e7a6:	48 ba 9d 53 22 37 d7 	movabs rdx,0xd483ead73722539d
   8e7ad:	ea 83 d4 
   8e7b0:	e9 1d 9d ff ff       	jmp    884d2 <Java_com_adjust_sdk_sig_NativeLibHelper_nOnResume@@Base-0x327d1>
   8e7b5:	c6 05 02 06 0b 00 00 	mov    BYTE PTR [rip+0xb0602],0x0        # 13edbe <write@plt+0xc23e>
   8e7bc:	48 8b 85 d8 fe ff ff 	mov    rax,QWORD PTR [rbp-0x128]
   8e7c3:	48 8b 8d d0 fc ff ff 	mov    rcx,QWORD PTR [rbp-0x330]
   8e7ca:	48 89 48 18          	mov    QWORD PTR [rax+0x18],rcx
   8e7ce:	48 8d 3d 1b d9 0a 00 	lea    rdi,[rip+0xad91b]        # 13c0f0 <write@plt+0x9570>
   8e7d5:	4c 8b bd d0 fe ff ff 	mov    r15,QWORD PTR [rbp-0x130]
   8e7dc:	4c 89 fe             	mov    rsi,r15
   8e7df:	e8 1e 32 03 00       	call   c1a02 <Java_com_adjust_sdk_sig_NativeLibHelper_nSign@@Base+0x6357>
   8e7e4:	48 8b 85 48 ff ff ff 	mov    rax,QWORD PTR [rbp-0xb8]
   8e7eb:	48 89 85 58 ff ff ff 	mov    QWORD PTR [rbp-0xa8],rax
   8e7f2:	48 8b 85 40 ff ff ff 	mov    rax,QWORD PTR [rbp-0xc0]
   8e7f9:	48 89 85 60 ff ff ff 	mov    QWORD PTR [rbp-0xa0],rax
   8e800:	48 8b 85 30 ff ff ff 	mov    rax,QWORD PTR [rbp-0xd0]
   8e807:	48 89 85 68 ff ff ff 	mov    QWORD PTR [rbp-0x98],rax
   8e80e:	8b 45 c0             	mov    eax,DWORD PTR [rbp-0x40]
   8e811:	89 45 c8             	mov    DWORD PTR [rbp-0x38],eax
   8e814:	8b 45 c4             	mov    eax,DWORD PTR [rbp-0x3c]
   8e817:	89 45 cc             	mov    DWORD PTR [rbp-0x34],eax
   8e81a:	48 8b 85 28 ff ff ff 	mov    rax,QWORD PTR [rbp-0xd8]
   8e821:	48 89 85 70 ff ff ff 	mov    QWORD PTR [rbp-0x90],rax
   8e828:	48 89 9d 78 ff ff ff 	mov    QWORD PTR [rbp-0x88],rbx
   8e82f:	48 8b 85 50 ff ff ff 	mov    rax,QWORD PTR [rbp-0xb0]
   8e836:	48 89 45 80          	mov    QWORD PTR [rbp-0x80],rax
   8e83a:	48 8b 85 20 ff ff ff 	mov    rax,QWORD PTR [rbp-0xe0]
   8e841:	48 89 45 88          	mov    QWORD PTR [rbp-0x78],rax
   8e845:	48 8b 85 18 ff ff ff 	mov    rax,QWORD PTR [rbp-0xe8]
   8e84c:	48 89 45 90          	mov    QWORD PTR [rbp-0x70],rax
   8e850:	48 8b 85 08 ff ff ff 	mov    rax,QWORD PTR [rbp-0xf8]
   8e857:	48 89 45 98          	mov    QWORD PTR [rbp-0x68],rax
   8e85b:	4c 89 75 a8          	mov    QWORD PTR [rbp-0x58],r14
   8e85f:	48 8b 85 00 ff ff ff 	mov    rax,QWORD PTR [rbp-0x100]
   8e866:	48 89 45 b0          	mov    QWORD PTR [rbp-0x50],rax
   8e86a:	48 8b 85 38 ff ff ff 	mov    rax,QWORD PTR [rbp-0xc8]
   8e871:	48 89 45 b8          	mov    QWORD PTR [rbp-0x48],rax
   8e875:	4c 89 7d a0          	mov    QWORD PTR [rbp-0x60],r15
   8e879:	48 ba 30 c5 4c 07 35 	movabs rdx,0x2761dd35074cc530
   8e880:	dd 61 27 
   8e883:	e9 4a 9c ff ff       	jmp    884d2 <Java_com_adjust_sdk_sig_NativeLibHelper_nOnResume@@Base-0x327d1>
   8e888:	80 3d 42 05 0b 00 00 	cmp    BYTE PTR [rip+0xb0542],0x0        # 13edd1 <write@plt+0xc251>
   8e88f:	48 ba 1f ac f6 73 ec 	movabs rdx,0x9fe44eec73f6ac1f
   8e896:	4e e4 9f 
   8e899:	48 b8 d4 55 80 39 03 	movabs rax,0xea53ba03398055d4
   8e8a0:	ba 53 ea 
   8e8a3:	e9 25 48 00 00       	jmp    930cd <Java_com_adjust_sdk_sig_NativeLibHelper_nOnResume@@Base-0x27bd6>
   8e8a8:	48 8b 85 10 fb ff ff 	mov    rax,QWORD PTR [rbp-0x4f0]
   8e8af:	48 2b 85 c8 fe ff ff 	sub    rax,QWORD PTR [rbp-0x138]
   8e8b6:	48 89 85 50 fa ff ff 	mov    QWORD PTR [rbp-0x5b0],rax
   8e8bd:	48 8d 78 01          	lea    rdi,[rax+0x1]
   8e8c1:	e8 8a 3f 0a 00       	call   132850 <malloc@plt>
   8e8c6:	48 89 85 d0 fc ff ff 	mov    QWORD PTR [rbp-0x330],rax
   8e8cd:	48 85 c0             	test   rax,rax
   8e8d0:	48 ba 32 74 4a cf 05 	movabs rdx,0xedbe6a05cf4a7432
   8e8d7:	6a be ed 
   8e8da:	48 b8 0a e0 50 57 e4 	movabs rax,0xe9c451e45750e00a
   8e8e1:	51 c4 e9 
   8e8e4:	e9 c4 55 00 00       	jmp    93ead <Java_com_adjust_sdk_sig_NativeLibHelper_nOnResume@@Base-0x26df6>
   8e8e9:	c6 05 9a 06 0b 00 00 	mov    BYTE PTR [rip+0xb069a],0x0        # 13ef8a <write@plt+0xc40a>
   8e8f0:	48 8b 85 98 fe ff ff 	mov    rax,QWORD PTR [rbp-0x168]
   8e8f7:	48 8b 10             	mov    rdx,QWORD PTR [rax]
   8e8fa:	4c 8b a5 b8 fe ff ff 	mov    r12,QWORD PTR [rbp-0x148]
   8e901:	4c 89 e7             	mov    rdi,r12
   8e904:	48 8b b5 e0 fe ff ff 	mov    rsi,QWORD PTR [rbp-0x120]
   8e90b:	48 8d 0d de e9 0a 00 	lea    rcx,[rip+0xae9de]        # 13d2f0 <write@plt+0xa770>
   8e912:	4c 8b 85 98 fc ff ff 	mov    r8,QWORD PTR [rbp-0x368]
   8e919:	4d 89 cf             	mov    r15,r9
   8e91c:	e8 41 ba 01 00       	call   aa362 <Java_com_adjust_sdk_sig_NativeLibHelper_nOnResume@@Base-0x10941>
   8e921:	41 83 3c 24 00       	cmp    DWORD PTR [r12],0x0
   8e926:	48 ba b0 f1 d6 f0 70 	movabs rdx,0x20e1b70f0d6f1b0
   8e92d:	1b 0e 02 
   8e930:	48 b8 66 01 ad fb 8f 	movabs rax,0xd465d68ffbad0166
   8e937:	d6 65 d4 
   8e93a:	48 0f 44 d0          	cmove  rdx,rax
   8e93e:	48 8b 85 48 ff ff ff 	mov    rax,QWORD PTR [rbp-0xb8]
   8e945:	48 89 85 58 ff ff ff 	mov    QWORD PTR [rbp-0xa8],rax
   8e94c:	48 8b 85 40 ff ff ff 	mov    rax,QWORD PTR [rbp-0xc0]
   8e953:	48 89 85 60 ff ff ff 	mov    QWORD PTR [rbp-0xa0],rax
   8e95a:	48 8b 85 30 ff ff ff 	mov    rax,QWORD PTR [rbp-0xd0]
   8e961:	48 89 85 68 ff ff ff 	mov    QWORD PTR [rbp-0x98],rax
   8e968:	44 89 75 c8          	mov    DWORD PTR [rbp-0x38],r14d
   8e96c:	8b 45 c4             	mov    eax,DWORD PTR [rbp-0x3c]
   8e96f:	89 45 cc             	mov    DWORD PTR [rbp-0x34],eax
   8e972:	48 8b 85 28 ff ff ff 	mov    rax,QWORD PTR [rbp-0xd8]
   8e979:	48 89 85 70 ff ff ff 	mov    QWORD PTR [rbp-0x90],rax
   8e980:	48 89 9d 78 ff ff ff 	mov    QWORD PTR [rbp-0x88],rbx
   8e987:	48 8b 85 50 ff ff ff 	mov    rax,QWORD PTR [rbp-0xb0]
   8e98e:	48 89 45 80          	mov    QWORD PTR [rbp-0x80],rax
   8e992:	48 8b 85 20 ff ff ff 	mov    rax,QWORD PTR [rbp-0xe0]
   8e999:	48 89 45 88          	mov    QWORD PTR [rbp-0x78],rax
   8e99d:	48 8b 85 18 ff ff ff 	mov    rax,QWORD PTR [rbp-0xe8]
   8e9a4:	48 89 45 90          	mov    QWORD PTR [rbp-0x70],rax
   8e9a8:	48 8b 85 08 ff ff ff 	mov    rax,QWORD PTR [rbp-0xf8]
   8e9af:	48 89 45 98          	mov    QWORD PTR [rbp-0x68],rax
   8e9b3:	48 8b 85 10 ff ff ff 	mov    rax,QWORD PTR [rbp-0xf0]
   8e9ba:	48 89 45 a0          	mov    QWORD PTR [rbp-0x60],rax
   8e9be:	e9 b6 27 00 00       	jmp    91179 <Java_com_adjust_sdk_sig_NativeLibHelper_nOnResume@@Base-0x29b2a>
   8e9c3:	4c 8b 95 28 fd ff ff 	mov    r10,QWORD PTR [rbp-0x2d8]
   8e9ca:	4d 85 d2             	test   r10,r10
   8e9cd:	48 ba a7 ce 10 3e ac 	movabs rdx,0x9c4639ac3e10cea7
   8e9d4:	39 46 9c 
   8e9d7:	48 b8 a4 9e 66 f8 10 	movabs rax,0x31c17410f8669ea4
   8e9de:	74 c1 31 
   8e9e1:	48 0f 44 d0          	cmove  rdx,rax
   8e9e5:	48 8b 85 48 ff ff ff 	mov    rax,QWORD PTR [rbp-0xb8]
   8e9ec:	48 89 85 58 ff ff ff 	mov    QWORD PTR [rbp-0xa8],rax
   8e9f3:	48 8b 85 40 ff ff ff 	mov    rax,QWORD PTR [rbp-0xc0]
   8e9fa:	48 89 85 60 ff ff ff 	mov    QWORD PTR [rbp-0xa0],rax
   8ea01:	48 8b 85 30 ff ff ff 	mov    rax,QWORD PTR [rbp-0xd0]
   8ea08:	48 89 85 68 ff ff ff 	mov    QWORD PTR [rbp-0x98],rax
   8ea0f:	8b 45 c0             	mov    eax,DWORD PTR [rbp-0x40]
   8ea12:	89 45 c8             	mov    DWORD PTR [rbp-0x38],eax
   8ea15:	8b 45 c4             	mov    eax,DWORD PTR [rbp-0x3c]
   8ea18:	89 45 cc             	mov    DWORD PTR [rbp-0x34],eax
   8ea1b:	48 8b 85 28 ff ff ff 	mov    rax,QWORD PTR [rbp-0xd8]
   8ea22:	48 89 85 70 ff ff ff 	mov    QWORD PTR [rbp-0x90],rax
   8ea29:	48 8b 85 f0 fe ff ff 	mov    rax,QWORD PTR [rbp-0x110]
   8ea30:	48 89 85 78 ff ff ff 	mov    QWORD PTR [rbp-0x88],rax
   8ea37:	48 8b 85 50 ff ff ff 	mov    rax,QWORD PTR [rbp-0xb0]
   8ea3e:	48 89 45 80          	mov    QWORD PTR [rbp-0x80],rax
   8ea42:	48 8b 85 20 ff ff ff 	mov    rax,QWORD PTR [rbp-0xe0]
   8ea49:	48 89 45 88          	mov    QWORD PTR [rbp-0x78],rax
   8ea4d:	48 8b 85 18 ff ff ff 	mov    rax,QWORD PTR [rbp-0xe8]
   8ea54:	48 89 45 90          	mov    QWORD PTR [rbp-0x70],rax
   8ea58:	48 8b 85 08 ff ff ff 	mov    rax,QWORD PTR [rbp-0xf8]
   8ea5f:	48 89 45 98          	mov    QWORD PTR [rbp-0x68],rax
   8ea63:	48 8b 85 10 ff ff ff 	mov    rax,QWORD PTR [rbp-0xf0]
   8ea6a:	48 89 45 a0          	mov    QWORD PTR [rbp-0x60],rax
   8ea6e:	48 8b 85 f8 fe ff ff 	mov    rax,QWORD PTR [rbp-0x108]
   8ea75:	48 89 45 a8          	mov    QWORD PTR [rbp-0x58],rax
   8ea79:	48 8b 85 00 ff ff ff 	mov    rax,QWORD PTR [rbp-0x100]
   8ea80:	48 89 45 b0          	mov    QWORD PTR [rbp-0x50],rax
   8ea84:	48 8b 85 38 ff ff ff 	mov    rax,QWORD PTR [rbp-0xc8]
   8ea8b:	48 89 45 b8          	mov    QWORD PTR [rbp-0x48],rax
   8ea8f:	4c 89 95 08 fc ff ff 	mov    QWORD PTR [rbp-0x3f8],r10
   8ea96:	4c 8b 95 30 fd ff ff 	mov    r10,QWORD PTR [rbp-0x2d0]
   8ea9d:	4c 89 95 10 fc ff ff 	mov    QWORD PTR [rbp-0x3f0],r10
   8eaa4:	4c 8b 95 38 fd ff ff 	mov    r10,QWORD PTR [rbp-0x2c8]
   8eaab:	4c 89 95 18 fc ff ff 	mov    QWORD PTR [rbp-0x3e8],r10
   8eab2:	e9 1b 9a ff ff       	jmp    884d2 <Java_com_adjust_sdk_sig_NativeLibHelper_nOnResume@@Base-0x327d1>
   8eab7:	0f 28 05 12 d6 0a 00 	movaps xmm0,XMMWORD PTR [rip+0xad612]        # 13c0d0 <write@plt+0x9550>
   8eabe:	0f 57 05 cb 49 f7 ff 	xorps  xmm0,XMMWORD PTR [rip+0xfffffffffff749cb]        # 3490 <Java_com_adjust_sdk_sig_NativeLibHelper_nOnResume@@Base-0xb7813>
   8eac5:	0f 29 05 04 d6 0a 00 	movaps XMMWORD PTR [rip+0xad604],xmm0        # 13c0d0 <write@plt+0x9550>
   8eacc:	80 35 0d d6 0a 00 11 	xor    BYTE PTR [rip+0xad60d],0x11        # 13c0e0 <write@plt+0x9560>
   8ead3:	c6 05 e1 02 0b 00 01 	mov    BYTE PTR [rip+0xb02e1],0x1        # 13edbb <write@plt+0xc23b>
   8eada:	48 8b 85 48 ff ff ff 	mov    rax,QWORD PTR [rbp-0xb8]
   8eae1:	48 89 85 58 ff ff ff 	mov    QWORD PTR [rbp-0xa8],rax
   8eae8:	48 8b 85 40 ff ff ff 	mov    rax,QWORD PTR [rbp-0xc0]
   8eaef:	48 89 85 60 ff ff ff 	mov    QWORD PTR [rbp-0xa0],rax
   8eaf6:	48 8b 85 30 ff ff ff 	mov    rax,QWORD PTR [rbp-0xd0]
   8eafd:	48 89 85 68 ff ff ff 	mov    QWORD PTR [rbp-0x98],rax
   8eb04:	8b 45 c0             	mov    eax,DWORD PTR [rbp-0x40]
   8eb07:	89 45 c8             	mov    DWORD PTR [rbp-0x38],eax
   8eb0a:	8b 45 c4             	mov    eax,DWORD PTR [rbp-0x3c]
   8eb0d:	89 45 cc             	mov    DWORD PTR [rbp-0x34],eax
   8eb10:	48 8b 85 28 ff ff ff 	mov    rax,QWORD PTR [rbp-0xd8]
   8eb17:	48 89 85 70 ff ff ff 	mov    QWORD PTR [rbp-0x90],rax
   8eb1e:	48 89 9d 78 ff ff ff 	mov    QWORD PTR [rbp-0x88],rbx
   8eb25:	48 8b 85 50 ff ff ff 	mov    rax,QWORD PTR [rbp-0xb0]
   8eb2c:	48 89 45 80          	mov    QWORD PTR [rbp-0x80],rax
   8eb30:	48 8b 85 20 ff ff ff 	mov    rax,QWORD PTR [rbp-0xe0]
   8eb37:	48 89 45 88          	mov    QWORD PTR [rbp-0x78],rax
   8eb3b:	48 8b 85 18 ff ff ff 	mov    rax,QWORD PTR [rbp-0xe8]
   8eb42:	48 89 45 90          	mov    QWORD PTR [rbp-0x70],rax
   8eb46:	48 8b 85 08 ff ff ff 	mov    rax,QWORD PTR [rbp-0xf8]
   8eb4d:	48 89 45 98          	mov    QWORD PTR [rbp-0x68],rax
   8eb51:	48 8b 85 10 ff ff ff 	mov    rax,QWORD PTR [rbp-0xf0]
   8eb58:	48 89 45 a0          	mov    QWORD PTR [rbp-0x60],rax
   8eb5c:	48 8b 85 f8 fe ff ff 	mov    rax,QWORD PTR [rbp-0x108]
   8eb63:	48 89 45 a8          	mov    QWORD PTR [rbp-0x58],rax
   8eb67:	4c 89 75 b0          	mov    QWORD PTR [rbp-0x50],r14
   8eb6b:	48 8b 85 38 ff ff ff 	mov    rax,QWORD PTR [rbp-0xc8]
   8eb72:	48 89 45 b8          	mov    QWORD PTR [rbp-0x48],rax
   8eb76:	48 ba 50 ea 03 3c 05 	movabs rdx,0x261f23053c03ea50
   8eb7d:	23 1f 26 
   8eb80:	e9 4d 99 ff ff       	jmp    884d2 <Java_com_adjust_sdk_sig_NativeLibHelper_nOnResume@@Base-0x327d1>
   8eb85:	31 c0                	xor    eax,eax
   8eb87:	b1 01                	mov    cl,0x1
   8eb89:	f0 0f b0 0d 39 02 0b 	lock cmpxchg BYTE PTR [rip+0xb0239],cl        # 13edca <write@plt+0xc24a>
   8eb90:	00 
   8eb91:	48 ba 1f 4d 73 70 60 	movabs rdx,0x2fcd86070734d1f
   8eb98:	d8 fc 02 
   8eb9b:	48 b8 68 bb 13 fe be 	movabs rax,0xa8ab60befe13bb68
   8eba2:	60 ab a8 
   8eba5:	e9 3e 51 00 00       	jmp    93ce8 <Java_com_adjust_sdk_sig_NativeLibHelper_nOnResume@@Base-0x26fbb>
   8ebaa:	c6 05 ff 01 0b 00 00 	mov    BYTE PTR [rip+0xb01ff],0x0        # 13edb0 <write@plt+0xc230>
   8ebb1:	48 8b 85 d8 fe ff ff 	mov    rax,QWORD PTR [rbp-0x128]
   8ebb8:	48 8b 8d c8 fc ff ff 	mov    rcx,QWORD PTR [rbp-0x338]
   8ebbf:	48 89 48 08          	mov    QWORD PTR [rax+0x8],rcx
   8ebc3:	48 8d 3d b6 d4 0a 00 	lea    rdi,[rip+0xad4b6]        # 13c080 <write@plt+0x9500>
   8ebca:	4c 8b bd d0 fe ff ff 	mov    r15,QWORD PTR [rbp-0x130]
   8ebd1:	4c 89 fe             	mov    rsi,r15
   8ebd4:	e8 29 2e 03 00       	call   c1a02 <Java_com_adjust_sdk_sig_NativeLibHelper_nSign@@Base+0x6357>
   8ebd9:	48 8b 85 48 ff ff ff 	mov    rax,QWORD PTR [rbp-0xb8]
   8ebe0:	48 89 85 58 ff ff ff 	mov    QWORD PTR [rbp-0xa8],rax
   8ebe7:	48 8b 85 40 ff ff ff 	mov    rax,QWORD PTR [rbp-0xc0]
   8ebee:	48 89 85 60 ff ff ff 	mov    QWORD PTR [rbp-0xa0],rax
   8ebf5:	48 8b 85 30 ff ff ff 	mov    rax,QWORD PTR [rbp-0xd0]
   8ebfc:	48 89 85 68 ff ff ff 	mov    QWORD PTR [rbp-0x98],rax
   8ec03:	8b 45 c0             	mov    eax,DWORD PTR [rbp-0x40]
   8ec06:	89 45 c8             	mov    DWORD PTR [rbp-0x38],eax
   8ec09:	8b 45 c4             	mov    eax,DWORD PTR [rbp-0x3c]
   8ec0c:	89 45 cc             	mov    DWORD PTR [rbp-0x34],eax
   8ec0f:	48 8b 85 28 ff ff ff 	mov    rax,QWORD PTR [rbp-0xd8]
   8ec16:	48 89 85 70 ff ff ff 	mov    QWORD PTR [rbp-0x90],rax
   8ec1d:	48 89 9d 78 ff ff ff 	mov    QWORD PTR [rbp-0x88],rbx
   8ec24:	48 8b 85 50 ff ff ff 	mov    rax,QWORD PTR [rbp-0xb0]
   8ec2b:	48 89 45 80          	mov    QWORD PTR [rbp-0x80],rax
   8ec2f:	48 8b 85 20 ff ff ff 	mov    rax,QWORD PTR [rbp-0xe0]
   8ec36:	48 89 45 88          	mov    QWORD PTR [rbp-0x78],rax
   8ec3a:	48 8b 85 18 ff ff ff 	mov    rax,QWORD PTR [rbp-0xe8]
   8ec41:	48 89 45 90          	mov    QWORD PTR [rbp-0x70],rax
   8ec45:	48 8b 85 08 ff ff ff 	mov    rax,QWORD PTR [rbp-0xf8]
   8ec4c:	48 89 45 98          	mov    QWORD PTR [rbp-0x68],rax
   8ec50:	48 8b 85 10 ff ff ff 	mov    rax,QWORD PTR [rbp-0xf0]
   8ec57:	48 89 45 a0          	mov    QWORD PTR [rbp-0x60],rax
   8ec5b:	4c 89 75 b0          	mov    QWORD PTR [rbp-0x50],r14
   8ec5f:	48 8b 85 38 ff ff ff 	mov    rax,QWORD PTR [rbp-0xc8]
   8ec66:	48 89 45 b8          	mov    QWORD PTR [rbp-0x48],rax
   8ec6a:	4c 89 7d a8          	mov    QWORD PTR [rbp-0x58],r15
   8ec6e:	48 ba 69 51 d1 69 23 	movabs rdx,0xf37a002369d15169
   8ec75:	00 7a f3 
   8ec78:	e9 55 98 ff ff       	jmp    884d2 <Java_com_adjust_sdk_sig_NativeLibHelper_nOnResume@@Base-0x327d1>
   8ec7d:	80 3d 29 01 0b 00 00 	cmp    BYTE PTR [rip+0xb0129],0x0        # 13edad <write@plt+0xc22d>
   8ec84:	48 ba 28 22 00 8e 8e 	movabs rdx,0x205fa38e8e002228
   8ec8b:	a3 5f 20 
   8ec8e:	48 b8 24 36 e8 22 b2 	movabs rax,0x2c8080b222e83624
   8ec95:	80 80 2c 
   8ec98:	48 0f 45 d0          	cmovne rdx,rax
   8ec9c:	e9 d3 40 00 00       	jmp    92d74 <Java_com_adjust_sdk_sig_NativeLibHelper_nOnResume@@Base-0x27f2f>
   8eca1:	48 8b 95 58 fa ff ff 	mov    rdx,QWORD PTR [rbp-0x5a8]
   8eca8:	4c 8b 95 d8 fc ff ff 	mov    r10,QWORD PTR [rbp-0x328]
   8ecaf:	41 c6 04 12 00       	mov    BYTE PTR [r10+rdx*1],0x0
   8ecb4:	48 8b 85 48 ff ff ff 	mov    rax,QWORD PTR [rbp-0xb8]
   8ecbb:	48 89 85 58 ff ff ff 	mov    QWORD PTR [rbp-0xa8],rax
   8ecc2:	48 8b 85 40 ff ff ff 	mov    rax,QWORD PTR [rbp-0xc0]
   8ecc9:	48 89 85 60 ff ff ff 	mov    QWORD PTR [rbp-0xa0],rax
   8ecd0:	48 8b 85 30 ff ff ff 	mov    rax,QWORD PTR [rbp-0xd0]
   8ecd7:	48 89 85 68 ff ff ff 	mov    QWORD PTR [rbp-0x98],rax
   8ecde:	44 89 75 c8          	mov    DWORD PTR [rbp-0x38],r14d
   8ece2:	8b 45 c4             	mov    eax,DWORD PTR [rbp-0x3c]
   8ece5:	89 45 cc             	mov    DWORD PTR [rbp-0x34],eax
   8ece8:	48 8b 85 28 ff ff ff 	mov    rax,QWORD PTR [rbp-0xd8]
   8ecef:	48 89 85 70 ff ff ff 	mov    QWORD PTR [rbp-0x90],rax
   8ecf6:	48 89 9d 78 ff ff ff 	mov    QWORD PTR [rbp-0x88],rbx
   8ecfd:	48 8b 85 50 ff ff ff 	mov    rax,QWORD PTR [rbp-0xb0]
   8ed04:	48 89 45 80          	mov    QWORD PTR [rbp-0x80],rax
   8ed08:	48 8b 85 20 ff ff ff 	mov    rax,QWORD PTR [rbp-0xe0]
   8ed0f:	48 89 45 88          	mov    QWORD PTR [rbp-0x78],rax
   8ed13:	48 8b 85 18 ff ff ff 	mov    rax,QWORD PTR [rbp-0xe8]
   8ed1a:	48 89 45 90          	mov    QWORD PTR [rbp-0x70],rax
   8ed1e:	48 8b 85 08 ff ff ff 	mov    rax,QWORD PTR [rbp-0xf8]
   8ed25:	48 89 45 98          	mov    QWORD PTR [rbp-0x68],rax
   8ed29:	48 8b 85 10 ff ff ff 	mov    rax,QWORD PTR [rbp-0xf0]
   8ed30:	48 89 45 a0          	mov    QWORD PTR [rbp-0x60],rax
   8ed34:	4c 89 4d a8          	mov    QWORD PTR [rbp-0x58],r9
   8ed38:	4c 89 5d b0          	mov    QWORD PTR [rbp-0x50],r11
   8ed3c:	48 8b 85 38 ff ff ff 	mov    rax,QWORD PTR [rbp-0xc8]
   8ed43:	48 89 45 b8          	mov    QWORD PTR [rbp-0x48],rax
   8ed47:	4c 8b 9d d0 fe ff ff 	mov    r11,QWORD PTR [rbp-0x130]
   8ed4e:	4c 89 9d e8 fd ff ff 	mov    QWORD PTR [rbp-0x218],r11
   8ed55:	4c 89 95 f0 fd ff ff 	mov    QWORD PTR [rbp-0x210],r10
   8ed5c:	48 89 95 f8 fd ff ff 	mov    QWORD PTR [rbp-0x208],rdx
   8ed63:	48 ba 6f f0 4d 7c f0 	movabs rdx,0x5573d5f07c4df06f
   8ed6a:	d5 73 55 
   8ed6d:	e9 60 97 ff ff       	jmp    884d2 <Java_com_adjust_sdk_sig_NativeLibHelper_nOnResume@@Base-0x327d1>
   8ed72:	48 8b 85 78 fe ff ff 	mov    rax,QWORD PTR [rbp-0x188]
   8ed79:	48 8b 00             	mov    rax,QWORD PTR [rax]
   8ed7c:	48 89 85 b0 fa ff ff 	mov    QWORD PTR [rbp-0x550],rax
   8ed83:	48 85 c0             	test   rax,rax
   8ed86:	48 b8 98 72 60 6a f1 	movabs rax,0xe64074f16a607298
   8ed8d:	74 40 e6 
   8ed90:	48 89 c2             	mov    rdx,rax
   8ed93:	48 b9 a2 4d 8c f1 f3 	movabs rcx,0x5a7641f3f18c4da2
   8ed9a:	41 76 5a 
   8ed9d:	48 0f 45 d1          	cmovne rdx,rcx
   8eda1:	48 83 bd e0 fe ff ff 	cmp    QWORD PTR [rbp-0x120],0x0
   8eda8:	00 
   8eda9:	e9 ff 50 00 00       	jmp    93ead <Java_com_adjust_sdk_sig_NativeLibHelper_nOnResume@@Base-0x26df6>
   8edae:	4c 8b 95 28 fe ff ff 	mov    r10,QWORD PTR [rbp-0x1d8]
   8edb5:	4d 85 d2             	test   r10,r10
   8edb8:	48 ba d2 fb 38 8e c1 	movabs rdx,0xfba3fec18e38fbd2
   8edbf:	fe a3 fb 
   8edc2:	48 b8 54 5f c0 67 00 	movabs rax,0xcec9d40067c05f54
   8edc9:	d4 c9 ce 
   8edcc:	48 0f 44 d0          	cmove  rdx,rax
   8edd0:	48 8b 85 48 ff ff ff 	mov    rax,QWORD PTR [rbp-0xb8]
   8edd7:	48 89 85 58 ff ff ff 	mov    QWORD PTR [rbp-0xa8],rax
   8edde:	48 8b 85 40 ff ff ff 	mov    rax,QWORD PTR [rbp-0xc0]
   8ede5:	48 89 85 60 ff ff ff 	mov    QWORD PTR [rbp-0xa0],rax
   8edec:	48 8b 85 30 ff ff ff 	mov    rax,QWORD PTR [rbp-0xd0]
   8edf3:	48 89 85 68 ff ff ff 	mov    QWORD PTR [rbp-0x98],rax
   8edfa:	44 89 75 c8          	mov    DWORD PTR [rbp-0x38],r14d
   8edfe:	8b 45 c4             	mov    eax,DWORD PTR [rbp-0x3c]
   8ee01:	89 45 cc             	mov    DWORD PTR [rbp-0x34],eax
   8ee04:	48 8b 85 28 ff ff ff 	mov    rax,QWORD PTR [rbp-0xd8]
   8ee0b:	48 89 85 70 ff ff ff 	mov    QWORD PTR [rbp-0x90],rax
   8ee12:	48 89 9d 78 ff ff ff 	mov    QWORD PTR [rbp-0x88],rbx
   8ee19:	48 8b 85 50 ff ff ff 	mov    rax,QWORD PTR [rbp-0xb0]
   8ee20:	48 89 45 80          	mov    QWORD PTR [rbp-0x80],rax
   8ee24:	48 8b 85 20 ff ff ff 	mov    rax,QWORD PTR [rbp-0xe0]
   8ee2b:	48 89 45 88          	mov    QWORD PTR [rbp-0x78],rax
   8ee2f:	48 8b 85 18 ff ff ff 	mov    rax,QWORD PTR [rbp-0xe8]
   8ee36:	48 89 45 90          	mov    QWORD PTR [rbp-0x70],rax
   8ee3a:	48 8b 85 08 ff ff ff 	mov    rax,QWORD PTR [rbp-0xf8]
   8ee41:	48 89 45 98          	mov    QWORD PTR [rbp-0x68],rax
   8ee45:	48 8b 85 10 ff ff ff 	mov    rax,QWORD PTR [rbp-0xf0]
   8ee4c:	48 89 45 a0          	mov    QWORD PTR [rbp-0x60],rax
   8ee50:	4c 89 4d a8          	mov    QWORD PTR [rbp-0x58],r9
   8ee54:	48 8b 85 00 ff ff ff 	mov    rax,QWORD PTR [rbp-0x100]
   8ee5b:	48 89 45 b0          	mov    QWORD PTR [rbp-0x50],rax
   8ee5f:	48 8b 85 38 ff ff ff 	mov    rax,QWORD PTR [rbp-0xc8]
   8ee66:	48 89 45 b8          	mov    QWORD PTR [rbp-0x48],rax
   8ee6a:	4c 89 95 30 fb ff ff 	mov    QWORD PTR [rbp-0x4d0],r10
   8ee71:	4c 8b 95 20 fe ff ff 	mov    r10,QWORD PTR [rbp-0x1e0]
   8ee78:	4c 89 95 40 fb ff ff 	mov    QWORD PTR [rbp-0x4c0],r10
   8ee7f:	4c 8b 95 10 fe ff ff 	mov    r10,QWORD PTR [rbp-0x1f0]
   8ee86:	4c 89 95 48 fb ff ff 	mov    QWORD PTR [rbp-0x4b8],r10
   8ee8d:	e9 40 96 ff ff       	jmp    884d2 <Java_com_adjust_sdk_sig_NativeLibHelper_nOnResume@@Base-0x327d1>
   8ee92:	31 c0                	xor    eax,eax
   8ee94:	b1 01                	mov    cl,0x1
   8ee96:	f0 0f b0 0d ec 00 0b 	lock cmpxchg BYTE PTR [rip+0xb00ec],cl        # 13ef8a <write@plt+0xc40a>
   8ee9d:	00 
   8ee9e:	48 ba f0 e7 82 cc 82 	movabs rdx,0xff4d4e82cc82e7f0
   8eea5:	4e 4d ff 
   8eea8:	48 b8 06 aa bc 28 d5 	movabs rax,0x105fedd528bcaa06
   8eeaf:	ed 5f 10 
   8eeb2:	e9 f6 4f 00 00       	jmp    93ead <Java_com_adjust_sdk_sig_NativeLibHelper_nOnResume@@Base-0x26df6>
   8eeb7:	48 8b 8d 48 ff ff ff 	mov    rcx,QWORD PTR [rbp-0xb8]
   8eebe:	80 39 00             	cmp    BYTE PTR [rcx],0x0
   8eec1:	48 ba 11 5b a2 b0 37 	movabs rdx,0xc33d0f37b0a25b11
   8eec8:	0f 3d c3 
   8eecb:	48 b8 14 9b df 9f 53 	movabs rax,0xb999c539fdf9b14
   8eed2:	9c 99 0b 
   8eed5:	48 0f 44 d0          	cmove  rdx,rax
   8eed9:	48 8b 85 40 ff ff ff 	mov    rax,QWORD PTR [rbp-0xc0]
   8eee0:	48 89 85 60 ff ff ff 	mov    QWORD PTR [rbp-0xa0],rax
   8eee7:	4c 89 b5 68 ff ff ff 	mov    QWORD PTR [rbp-0x98],r14
   8eeee:	44 89 55 c8          	mov    DWORD PTR [rbp-0x38],r10d
   8eef2:	8b 45 c4             	mov    eax,DWORD PTR [rbp-0x3c]
   8eef5:	89 45 cc             	mov    DWORD PTR [rbp-0x34],eax
   8eef8:	48 8b 85 28 ff ff ff 	mov    rax,QWORD PTR [rbp-0xd8]
   8eeff:	48 89 85 70 ff ff ff 	mov    QWORD PTR [rbp-0x90],rax
   8ef06:	48 8b 85 f0 fe ff ff 	mov    rax,QWORD PTR [rbp-0x110]
   8ef0d:	48 89 85 78 ff ff ff 	mov    QWORD PTR [rbp-0x88],rax
   8ef14:	48 8b 85 50 ff ff ff 	mov    rax,QWORD PTR [rbp-0xb0]
   8ef1b:	48 89 45 80          	mov    QWORD PTR [rbp-0x80],rax
   8ef1f:	48 89 5d 88          	mov    QWORD PTR [rbp-0x78],rbx
   8ef23:	4c 89 5d 90          	mov    QWORD PTR [rbp-0x70],r11
   8ef27:	48 89 7d 98          	mov    QWORD PTR [rbp-0x68],rdi
   8ef2b:	48 89 75 a0          	mov    QWORD PTR [rbp-0x60],rsi
   8ef2f:	48 8d 79 01          	lea    rdi,[rcx+0x1]
   8ef33:	48 89 bd e8 f9 ff ff 	mov    QWORD PTR [rbp-0x618],rdi
   8ef3a:	48 89 8d 58 ff ff ff 	mov    QWORD PTR [rbp-0xa8],rcx
   8ef41:	48 89 8d 38 fb ff ff 	mov    QWORD PTR [rbp-0x4c8],rcx
   8ef48:	e9 53 11 00 00       	jmp    900a0 <Java_com_adjust_sdk_sig_NativeLibHelper_nOnResume@@Base-0x2ac03>
   8ef4d:	48 8b 85 70 fb ff ff 	mov    rax,QWORD PTR [rbp-0x490]
   8ef54:	48 2b 85 c8 fe ff ff 	sub    rax,QWORD PTR [rbp-0x138]
   8ef5b:	48 89 85 90 fa ff ff 	mov    QWORD PTR [rbp-0x570],rax
   8ef62:	48 8d 78 01          	lea    rdi,[rax+0x1]
   8ef66:	e8 e5 38 0a 00       	call   132850 <malloc@plt>
   8ef6b:	48 89 85 18 fd ff ff 	mov    QWORD PTR [rbp-0x2e8],rax
   8ef72:	48 85 c0             	test   rax,rax
   8ef75:	48 ba be 26 53 f4 95 	movabs rdx,0x69ef4595f45326be
   8ef7c:	45 ef 69 
   8ef7f:	48 b8 37 f7 64 1e 61 	movabs rax,0x31d52a611e64f737
   8ef86:	2a d5 31 
   8ef89:	e9 1f 4f 00 00       	jmp    93ead <Java_com_adjust_sdk_sig_NativeLibHelper_nOnResume@@Base-0x26df6>
   8ef8e:	48 8b 95 50 fa ff ff 	mov    rdx,QWORD PTR [rbp-0x5b0]
   8ef95:	4c 8b 95 d0 fc ff ff 	mov    r10,QWORD PTR [rbp-0x330]
   8ef9c:	41 c6 04 12 00       	mov    BYTE PTR [r10+rdx*1],0x0
   8efa1:	48 8b 85 48 ff ff ff 	mov    rax,QWORD PTR [rbp-0xb8]
   8efa8:	48 89 85 58 ff ff ff 	mov    QWORD PTR [rbp-0xa8],rax
   8efaf:	48 8b 85 40 ff ff ff 	mov    rax,QWORD PTR [rbp-0xc0]
   8efb6:	48 89 85 60 ff ff ff 	mov    QWORD PTR [rbp-0xa0],rax
   8efbd:	48 8b 85 30 ff ff ff 	mov    rax,QWORD PTR [rbp-0xd0]
   8efc4:	48 89 85 68 ff ff ff 	mov    QWORD PTR [rbp-0x98],rax
   8efcb:	44 89 75 c8          	mov    DWORD PTR [rbp-0x38],r14d
   8efcf:	8b 45 c4             	mov    eax,DWORD PTR [rbp-0x3c]
   8efd2:	89 45 cc             	mov    DWORD PTR [rbp-0x34],eax
   8efd5:	48 8b 85 28 ff ff ff 	mov    rax,QWORD PTR [rbp-0xd8]
   8efdc:	48 89 85 70 ff ff ff 	mov    QWORD PTR [rbp-0x90],rax
   8efe3:	48 8b 85 f0 fe ff ff 	mov    rax,QWORD PTR [rbp-0x110]
   8efea:	48 89 85 78 ff ff ff 	mov    QWORD PTR [rbp-0x88],rax
   8eff1:	48 8b 85 50 ff ff ff 	mov    rax,QWORD PTR [rbp-0xb0]
   8eff8:	48 89 45 80          	mov    QWORD PTR [rbp-0x80],rax
   8effc:	48 89 5d 88          	mov    QWORD PTR [rbp-0x78],rbx
   8f000:	4c 89 5d 90          	mov    QWORD PTR [rbp-0x70],r11
   8f004:	4c 89 4d 98          	mov    QWORD PTR [rbp-0x68],r9
   8f008:	48 89 75 a0          	mov    QWORD PTR [rbp-0x60],rsi
   8f00c:	48 89 7d a8          	mov    QWORD PTR [rbp-0x58],rdi
   8f010:	4c 89 45 b0          	mov    QWORD PTR [rbp-0x50],r8
   8f014:	48 8b 85 38 ff ff ff 	mov    rax,QWORD PTR [rbp-0xc8]
   8f01b:	48 89 45 b8          	mov    QWORD PTR [rbp-0x48],rax
   8f01f:	4c 8b 9d d0 fe ff ff 	mov    r11,QWORD PTR [rbp-0x130]
   8f026:	4c 89 9d 00 fe ff ff 	mov    QWORD PTR [rbp-0x200],r11
   8f02d:	4c 89 95 08 fe ff ff 	mov    QWORD PTR [rbp-0x1f8],r10
   8f034:	e9 ad 4a 00 00       	jmp    93ae6 <Java_com_adjust_sdk_sig_NativeLibHelper_nOnResume@@Base-0x271bd>
   8f039:	48 8b 85 b0 fe ff ff 	mov    rax,QWORD PTR [rbp-0x150]
   8f040:	48 83 20 00          	and    QWORD PTR [rax],0x0
   8f044:	48 8b 85 90 fe ff ff 	mov    rax,QWORD PTR [rbp-0x170]
   8f04b:	48 8b 00             	mov    rax,QWORD PTR [rax]
   8f04e:	48 89 85 d0 fa ff ff 	mov    QWORD PTR [rbp-0x530],rax
   8f055:	48 85 c0             	test   rax,rax
   8f058:	48 b9 94 c7 d1 0b 19 	movabs rcx,0xdce51190bd1c794
   8f05f:	51 ce 0d 
   8f062:	48 89 ca             	mov    rdx,rcx
   8f065:	48 b8 41 c2 5f f2 db 	movabs rax,0xa9e2e1dbf25fc241
   8f06c:	e1 e2 a9 
   8f06f:	48 0f 45 d0          	cmovne rdx,rax
   8f073:	48 83 bd e0 fe ff ff 	cmp    QWORD PTR [rbp-0x120],0x0
   8f07a:	00 
   8f07b:	48 0f 44 d1          	cmove  rdx,rcx
   8f07f:	48 8b 85 48 ff ff ff 	mov    rax,QWORD PTR [rbp-0xb8]
   8f086:	48 89 85 58 ff ff ff 	mov    QWORD PTR [rbp-0xa8],rax
   8f08d:	48 8b 85 40 ff ff ff 	mov    rax,QWORD PTR [rbp-0xc0]
   8f094:	48 89 85 60 ff ff ff 	mov    QWORD PTR [rbp-0xa0],rax
   8f09b:	48 8b 85 30 ff ff ff 	mov    rax,QWORD PTR [rbp-0xd0]
   8f0a2:	48 89 85 68 ff ff ff 	mov    QWORD PTR [rbp-0x98],rax
   8f0a9:	44 89 75 c8          	mov    DWORD PTR [rbp-0x38],r14d
   8f0ad:	8b 45 c4             	mov    eax,DWORD PTR [rbp-0x3c]
   8f0b0:	89 45 cc             	mov    DWORD PTR [rbp-0x34],eax
   8f0b3:	48 8b 85 28 ff ff ff 	mov    rax,QWORD PTR [rbp-0xd8]
   8f0ba:	48 89 85 70 ff ff ff 	mov    QWORD PTR [rbp-0x90],rax
   8f0c1:	48 89 9d 78 ff ff ff 	mov    QWORD PTR [rbp-0x88],rbx
   8f0c8:	48 8b 85 50 ff ff ff 	mov    rax,QWORD PTR [rbp-0xb0]
   8f0cf:	48 89 45 80          	mov    QWORD PTR [rbp-0x80],rax
   8f0d3:	48 8b 85 20 ff ff ff 	mov    rax,QWORD PTR [rbp-0xe0]
   8f0da:	48 89 45 88          	mov    QWORD PTR [rbp-0x78],rax
   8f0de:	48 8b 85 18 ff ff ff 	mov    rax,QWORD PTR [rbp-0xe8]
   8f0e5:	48 89 45 90          	mov    QWORD PTR [rbp-0x70],rax
   8f0e9:	48 8b 85 08 ff ff ff 	mov    rax,QWORD PTR [rbp-0xf8]
   8f0f0:	48 89 45 98          	mov    QWORD PTR [rbp-0x68],rax
   8f0f4:	48 8b 85 10 ff ff ff 	mov    rax,QWORD PTR [rbp-0xf0]
   8f0fb:	48 89 45 a0          	mov    QWORD PTR [rbp-0x60],rax
   8f0ff:	4c 89 4d a8          	mov    QWORD PTR [rbp-0x58],r9
   8f103:	e9 f5 37 00 00       	jmp    928fd <Java_com_adjust_sdk_sig_NativeLibHelper_nOnResume@@Base-0x283a6>
   8f108:	48 8b 85 b0 fe ff ff 	mov    rax,QWORD PTR [rbp-0x150]
   8f10f:	48 8b 10             	mov    rdx,QWORD PTR [rax]
   8f112:	4c 8b bd c0 fe ff ff 	mov    r15,QWORD PTR [rbp-0x140]
   8f119:	4c 89 ff             	mov    rdi,r15
   8f11c:	48 8b b5 e0 fe ff ff 	mov    rsi,QWORD PTR [rbp-0x120]
   8f123:	48 8b 8d 80 fe ff ff 	mov    rcx,QWORD PTR [rbp-0x180]
   8f12a:	4c 8b 85 60 fe ff ff 	mov    r8,QWORD PTR [rbp-0x1a0]
   8f131:	e8 aa 79 00 00       	call   96ae0 <Java_com_adjust_sdk_sig_NativeLibHelper_nOnResume@@Base-0x241c3>
   8f136:	41 83 3f 00          	cmp    DWORD PTR [r15],0x0
   8f13a:	48 ba 0d a4 f9 fa ef 	movabs rdx,0xe6ef1feffaf9a40d
   8f141:	1f ef e6 
   8f144:	48 b8 97 3c cd 79 b0 	movabs rax,0xd390d4b079cd3c97
   8f14b:	d4 90 d3 
   8f14e:	e9 95 4b 00 00       	jmp    93ce8 <Java_com_adjust_sdk_sig_NativeLibHelper_nOnResume@@Base-0x26fbb>
   8f153:	48 8b 85 f8 fa ff ff 	mov    rax,QWORD PTR [rbp-0x508]
   8f15a:	48 2b 85 c8 fe ff ff 	sub    rax,QWORD PTR [rbp-0x138]
   8f161:	48 89 85 70 fa ff ff 	mov    QWORD PTR [rbp-0x590],rax
   8f168:	48 8d 78 01          	lea    rdi,[rax+0x1]
   8f16c:	4c 89 cb             	mov    rbx,r9
   8f16f:	e8 dc 36 0a 00       	call   132850 <malloc@plt>
   8f174:	48 89 85 f0 fc ff ff 	mov    QWORD PTR [rbp-0x310],rax
   8f17b:	48 85 c0             	test   rax,rax
   8f17e:	48 ba d6 ca c6 a0 cb 	movabs rdx,0x84a558cba0c6cad6
   8f185:	58 a5 84 
   8f188:	48 b8 77 ed 62 21 3a 	movabs rax,0x8406bd3a2162ed77
   8f18f:	bd 06 84 
   8f192:	48 0f 44 d0          	cmove  rdx,rax
   8f196:	48 8b 85 48 ff ff ff 	mov    rax,QWORD PTR [rbp-0xb8]
   8f19d:	48 89 85 58 ff ff ff 	mov    QWORD PTR [rbp-0xa8],rax
   8f1a4:	48 8b 85 40 ff ff ff 	mov    rax,QWORD PTR [rbp-0xc0]
   8f1ab:	48 89 85 60 ff ff ff 	mov    QWORD PTR [rbp-0xa0],rax
   8f1b2:	48 8b 85 30 ff ff ff 	mov    rax,QWORD PTR [rbp-0xd0]
   8f1b9:	48 89 85 68 ff ff ff 	mov    QWORD PTR [rbp-0x98],rax
   8f1c0:	8b 45 c0             	mov    eax,DWORD PTR [rbp-0x40]
   8f1c3:	89 45 c8             	mov    DWORD PTR [rbp-0x38],eax
   8f1c6:	44 89 75 cc          	mov    DWORD PTR [rbp-0x34],r14d
   8f1ca:	4c 89 bd 70 ff ff ff 	mov    QWORD PTR [rbp-0x90],r15
   8f1d1:	4c 89 a5 78 ff ff ff 	mov    QWORD PTR [rbp-0x88],r12
   8f1d8:	48 8b 85 50 ff ff ff 	mov    rax,QWORD PTR [rbp-0xb0]
   8f1df:	48 89 45 80          	mov    QWORD PTR [rbp-0x80],rax
   8f1e3:	48 8b 85 20 ff ff ff 	mov    rax,QWORD PTR [rbp-0xe0]
   8f1ea:	48 89 45 88          	mov    QWORD PTR [rbp-0x78],rax
   8f1ee:	48 8b 85 18 ff ff ff 	mov    rax,QWORD PTR [rbp-0xe8]
   8f1f5:	48 89 45 90          	mov    QWORD PTR [rbp-0x70],rax
   8f1f9:	48 8b 85 08 ff ff ff 	mov    rax,QWORD PTR [rbp-0xf8]
   8f200:	48 89 45 98          	mov    QWORD PTR [rbp-0x68],rax
   8f204:	48 8b 85 10 ff ff ff 	mov    rax,QWORD PTR [rbp-0xf0]
   8f20b:	48 89 45 a0          	mov    QWORD PTR [rbp-0x60],rax
   8f20f:	48 89 5d a8          	mov    QWORD PTR [rbp-0x58],rbx
   8f213:	e9 2d 4d 00 00       	jmp    93f45 <Java_com_adjust_sdk_sig_NativeLibHelper_nOnResume@@Base-0x26d5e>
   8f218:	48 8b bd e0 fe ff ff 	mov    rdi,QWORD PTR [rbp-0x120]
   8f21f:	48 8b 07             	mov    rax,QWORD PTR [rdi]
   8f222:	48 8b b5 c0 fa ff ff 	mov    rsi,QWORD PTR [rbp-0x540]
   8f229:	ff 90 b8 00 00 00    	call   QWORD PTR [rax+0xb8]
   8f22f:	48 8b 85 48 ff ff ff 	mov    rax,QWORD PTR [rbp-0xb8]
   8f236:	48 89 85 58 ff ff ff 	mov    QWORD PTR [rbp-0xa8],rax
   8f23d:	48 8b 85 40 ff ff ff 	mov    rax,QWORD PTR [rbp-0xc0]
   8f244:	48 89 85 60 ff ff ff 	mov    QWORD PTR [rbp-0xa0],rax
   8f24b:	48 8b 85 30 ff ff ff 	mov    rax,QWORD PTR [rbp-0xd0]
   8f252:	48 89 85 68 ff ff ff 	mov    QWORD PTR [rbp-0x98],rax
   8f259:	8b 45 c0             	mov    eax,DWORD PTR [rbp-0x40]
   8f25c:	89 45 c8             	mov    DWORD PTR [rbp-0x38],eax
   8f25f:	8b 45 c4             	mov    eax,DWORD PTR [rbp-0x3c]
   8f262:	89 45 cc             	mov    DWORD PTR [rbp-0x34],eax
   8f265:	48 8b 85 28 ff ff ff 	mov    rax,QWORD PTR [rbp-0xd8]
   8f26c:	48 89 85 70 ff ff ff 	mov    QWORD PTR [rbp-0x90],rax
   8f273:	48 8b 85 f0 fe ff ff 	mov    rax,QWORD PTR [rbp-0x110]
   8f27a:	48 89 85 78 ff ff ff 	mov    QWORD PTR [rbp-0x88],rax
   8f281:	48 8b 85 50 ff ff ff 	mov    rax,QWORD PTR [rbp-0xb0]
   8f288:	48 89 45 80          	mov    QWORD PTR [rbp-0x80],rax
   8f28c:	48 8b 85 20 ff ff ff 	mov    rax,QWORD PTR [rbp-0xe0]
   8f293:	48 89 45 88          	mov    QWORD PTR [rbp-0x78],rax
   8f297:	48 8b 85 18 ff ff ff 	mov    rax,QWORD PTR [rbp-0xe8]
   8f29e:	48 89 45 90          	mov    QWORD PTR [rbp-0x70],rax
   8f2a2:	48 8b 85 08 ff ff ff 	mov    rax,QWORD PTR [rbp-0xf8]
   8f2a9:	48 89 45 98          	mov    QWORD PTR [rbp-0x68],rax
   8f2ad:	48 8b 85 10 ff ff ff 	mov    rax,QWORD PTR [rbp-0xf0]
   8f2b4:	48 89 45 a0          	mov    QWORD PTR [rbp-0x60],rax
   8f2b8:	48 8b 85 f8 fe ff ff 	mov    rax,QWORD PTR [rbp-0x108]
   8f2bf:	48 89 45 a8          	mov    QWORD PTR [rbp-0x58],rax
   8f2c3:	48 8b 85 00 ff ff ff 	mov    rax,QWORD PTR [rbp-0x100]
   8f2ca:	48 89 45 b0          	mov    QWORD PTR [rbp-0x50],rax
   8f2ce:	48 8b 85 38 ff ff ff 	mov    rax,QWORD PTR [rbp-0xc8]
   8f2d5:	48 89 45 b8          	mov    QWORD PTR [rbp-0x48],rax
   8f2d9:	48 ba bd c5 c4 08 44 	movabs rdx,0xedeb314408c4c5bd
   8f2e0:	31 eb ed 
   8f2e3:	e9 ea 91 ff ff       	jmp    884d2 <Java_com_adjust_sdk_sig_NativeLibHelper_nOnResume@@Base-0x327d1>
   8f2e8:	c6 05 b1 fa 0a 00 00 	mov    BYTE PTR [rip+0xafab1],0x0        # 13eda0 <write@plt+0xc220>
   8f2ef:	48 8b 85 d8 fe ff ff 	mov    rax,QWORD PTR [rbp-0x128]
   8f2f6:	48 8b 8d e8 fc ff ff 	mov    rcx,QWORD PTR [rbp-0x318]
   8f2fd:	48 89 08             	mov    QWORD PTR [rax],rcx
   8f300:	48 8d 3d 11 cd 0a 00 	lea    rdi,[rip+0xacd11]        # 13c018 <write@plt+0x9498>
   8f307:	48 8b 9d d0 fe ff ff 	mov    rbx,QWORD PTR [rbp-0x130]
   8f30e:	48 89 de             	mov    rsi,rbx
   8f311:	e8 ec 26 03 00       	call   c1a02 <Java_com_adjust_sdk_sig_NativeLibHelper_nSign@@Base+0x6357>
   8f316:	48 8b 85 48 ff ff ff 	mov    rax,QWORD PTR [rbp-0xb8]
   8f31d:	48 89 85 58 ff ff ff 	mov    QWORD PTR [rbp-0xa8],rax
   8f324:	48 8b 85 40 ff ff ff 	mov    rax,QWORD PTR [rbp-0xc0]
   8f32b:	48 89 85 60 ff ff ff 	mov    QWORD PTR [rbp-0xa0],rax
   8f332:	48 8b 85 30 ff ff ff 	mov    rax,QWORD PTR [rbp-0xd0]
   8f339:	48 89 85 68 ff ff ff 	mov    QWORD PTR [rbp-0x98],rax
   8f340:	8b 45 c0             	mov    eax,DWORD PTR [rbp-0x40]
   8f343:	89 45 c8             	mov    DWORD PTR [rbp-0x38],eax
   8f346:	8b 45 c4             	mov    eax,DWORD PTR [rbp-0x3c]
   8f349:	89 45 cc             	mov    DWORD PTR [rbp-0x34],eax
   8f34c:	48 8b 85 28 ff ff ff 	mov    rax,QWORD PTR [rbp-0xd8]
   8f353:	48 89 85 70 ff ff ff 	mov    QWORD PTR [rbp-0x90],rax
   8f35a:	48 8b 85 f0 fe ff ff 	mov    rax,QWORD PTR [rbp-0x110]
   8f361:	48 89 85 78 ff ff ff 	mov    QWORD PTR [rbp-0x88],rax
   8f368:	48 8b 85 50 ff ff ff 	mov    rax,QWORD PTR [rbp-0xb0]
   8f36f:	48 89 45 80          	mov    QWORD PTR [rbp-0x80],rax
   8f373:	48 8b 85 18 ff ff ff 	mov    rax,QWORD PTR [rbp-0xe8]
   8f37a:	48 89 45 90          	mov    QWORD PTR [rbp-0x70],rax
   8f37e:	48 8b 85 08 ff ff ff 	mov    rax,QWORD PTR [rbp-0xf8]
   8f385:	48 89 45 98          	mov    QWORD PTR [rbp-0x68],rax
   8f389:	48 8b 85 10 ff ff ff 	mov    rax,QWORD PTR [rbp-0xf0]
   8f390:	48 89 45 a0          	mov    QWORD PTR [rbp-0x60],rax
   8f394:	48 8b 85 f8 fe ff ff 	mov    rax,QWORD PTR [rbp-0x108]
   8f39b:	48 89 45 a8          	mov    QWORD PTR [rbp-0x58],rax
   8f39f:	48 8b 85 00 ff ff ff 	mov    rax,QWORD PTR [rbp-0x100]
   8f3a6:	48 89 45 b0          	mov    QWORD PTR [rbp-0x50],rax
   8f3aa:	48 8b 85 38 ff ff ff 	mov    rax,QWORD PTR [rbp-0xc8]
   8f3b1:	48 89 45 b8          	mov    QWORD PTR [rbp-0x48],rax
   8f3b5:	48 89 5d 88          	mov    QWORD PTR [rbp-0x78],rbx
   8f3b9:	48 ba d9 8a b5 1c ec 	movabs rdx,0xa1e0dcec1cb58ad9
   8f3c0:	dc e0 a1 
   8f3c3:	e9 0a 91 ff ff       	jmp    884d2 <Java_com_adjust_sdk_sig_NativeLibHelper_nOnResume@@Base-0x327d1>
   8f3c8:	48 8b 85 d8 fe ff ff 	mov    rax,QWORD PTR [rbp-0x128]
   8f3cf:	48 83 60 28 00       	and    QWORD PTR [rax+0x28],0x0
   8f3d4:	e9 03 2f 00 00       	jmp    922dc <Java_com_adjust_sdk_sig_NativeLibHelper_nOnResume@@Base-0x289c7>
   8f3d9:	48 8b 85 d8 fe ff ff 	mov    rax,QWORD PTR [rbp-0x128]
   8f3e0:	48 83 60 58 00       	and    QWORD PTR [rax+0x58],0x0
   8f3e5:	e9 bf 22 00 00       	jmp    916a9 <Java_com_adjust_sdk_sig_NativeLibHelper_nOnResume@@Base-0x295fa>
   8f3ea:	48 8b 85 c0 fb ff ff 	mov    rax,QWORD PTR [rbp-0x440]
   8f3f1:	48 2b 85 c8 fe ff ff 	sub    rax,QWORD PTR [rbp-0x138]
   8f3f8:	48 89 85 98 fa ff ff 	mov    QWORD PTR [rbp-0x568],rax
   8f3ff:	48 8d 78 01          	lea    rdi,[rax+0x1]
   8f403:	e8 48 34 0a 00       	call   132850 <malloc@plt>
   8f408:	48 89 85 20 fd ff ff 	mov    QWORD PTR [rbp-0x2e0],rax
   8f40f:	48 85 c0             	test   rax,rax
   8f412:	48 ba ec bd fa 79 0f 	movabs rdx,0xc130b50f79fabdec
   8f419:	b5 30 c1 
   8f41c:	48 b8 ec 99 57 54 86 	movabs rax,0x26565386545799ec
   8f423:	53 56 26 
   8f426:	e9 d6 1c 00 00       	jmp    91101 <Java_com_adjust_sdk_sig_NativeLibHelper_nOnResume@@Base-0x29ba2>
   8f42b:	48 8b 85 d8 fe ff ff 	mov    rax,QWORD PTR [rbp-0x128]
   8f432:	48 83 60 30 00       	and    QWORD PTR [rax+0x30],0x0
   8f437:	48 8b 85 48 ff ff ff 	mov    rax,QWORD PTR [rbp-0xb8]
   8f43e:	48 89 85 58 ff ff ff 	mov    QWORD PTR [rbp-0xa8],rax
   8f445:	48 8b 85 40 ff ff ff 	mov    rax,QWORD PTR [rbp-0xc0]
   8f44c:	48 89 85 60 ff ff ff 	mov    QWORD PTR [rbp-0xa0],rax
   8f453:	48 8b 85 30 ff ff ff 	mov    rax,QWORD PTR [rbp-0xd0]
   8f45a:	48 89 85 68 ff ff ff 	mov    QWORD PTR [rbp-0x98],rax
   8f461:	8b 45 c0             	mov    eax,DWORD PTR [rbp-0x40]
   8f464:	89 45 c8             	mov    DWORD PTR [rbp-0x38],eax
   8f467:	48 8b 85 28 ff ff ff 	mov    rax,QWORD PTR [rbp-0xd8]
   8f46e:	48 89 85 70 ff ff ff 	mov    QWORD PTR [rbp-0x90],rax
   8f475:	48 89 9d 78 ff ff ff 	mov    QWORD PTR [rbp-0x88],rbx
   8f47c:	48 8b 85 50 ff ff ff 	mov    rax,QWORD PTR [rbp-0xb0]
   8f483:	48 89 45 80          	mov    QWORD PTR [rbp-0x80],rax
   8f487:	48 8b 85 20 ff ff ff 	mov    rax,QWORD PTR [rbp-0xe0]
   8f48e:	48 89 45 88          	mov    QWORD PTR [rbp-0x78],rax
   8f492:	48 8b 85 18 ff ff ff 	mov    rax,QWORD PTR [rbp-0xe8]
   8f499:	48 89 45 90          	mov    QWORD PTR [rbp-0x70],rax
   8f49d:	48 8b 85 08 ff ff ff 	mov    rax,QWORD PTR [rbp-0xf8]
   8f4a4:	48 89 45 98          	mov    QWORD PTR [rbp-0x68],rax
   8f4a8:	48 8b 85 10 ff ff ff 	mov    rax,QWORD PTR [rbp-0xf0]
   8f4af:	48 89 45 a0          	mov    QWORD PTR [rbp-0x60],rax
   8f4b3:	4c 89 75 a8          	mov    QWORD PTR [rbp-0x58],r14
   8f4b7:	4c 89 45 b0          	mov    QWORD PTR [rbp-0x50],r8
   8f4bb:	4c 89 4d b8          	mov    QWORD PTR [rbp-0x48],r9
   8f4bf:	e9 0d 45 00 00       	jmp    939d1 <Java_com_adjust_sdk_sig_NativeLibHelper_nOnResume@@Base-0x272d2>
   8f4c4:	48 8b 85 18 fb ff ff 	mov    rax,QWORD PTR [rbp-0x4e8]
   8f4cb:	48 2b 85 c8 fe ff ff 	sub    rax,QWORD PTR [rbp-0x138]
   8f4d2:	48 89 85 48 fa ff ff 	mov    QWORD PTR [rbp-0x5b8],rax
   8f4d9:	48 8d 78 01          	lea    rdi,[rax+0x1]
   8f4dd:	e8 6e 33 0a 00       	call   132850 <malloc@plt>
   8f4e2:	48 89 85 c8 fc ff ff 	mov    QWORD PTR [rbp-0x338],rax
   8f4e9:	48 85 c0             	test   rax,rax
   8f4ec:	48 ba 30 a1 a2 cf 9a 	movabs rdx,0x946509acfa2a130
   8f4f3:	50 46 09 
   8f4f6:	48 b8 53 03 86 a9 85 	movabs rax,0xca61d785a9860353
   8f4fd:	d7 61 ca 
   8f500:	e9 28 20 00 00       	jmp    9152d <Java_com_adjust_sdk_sig_NativeLibHelper_nOnResume@@Base-0x29776>
   8f505:	80 3d 8d f8 0a 00 00 	cmp    BYTE PTR [rip+0xaf88d],0x0        # 13ed99 <write@plt+0xc219>
   8f50c:	48 89 d7             	mov    rdi,rdx
   8f50f:	48 ba 97 6c c5 17 25 	movabs rdx,0xe2adcf2517c56c97
   8f516:	cf ad e2 
   8f519:	48 b8 bb 1d ea a8 6c 	movabs rax,0x4f36386ca8ea1dbb
   8f520:	38 36 4f 
   8f523:	48 0f 45 d0          	cmovne rdx,rax
   8f527:	48 8b 85 48 ff ff ff 	mov    rax,QWORD PTR [rbp-0xb8]
   8f52e:	48 89 85 58 ff ff ff 	mov    QWORD PTR [rbp-0xa8],rax
   8f535:	48 8b 85 40 ff ff ff 	mov    rax,QWORD PTR [rbp-0xc0]
   8f53c:	48 89 85 60 ff ff ff 	mov    QWORD PTR [rbp-0xa0],rax
   8f543:	48 8b 85 30 ff ff ff 	mov    rax,QWORD PTR [rbp-0xd0]
   8f54a:	48 89 85 68 ff ff ff 	mov    QWORD PTR [rbp-0x98],rax
   8f551:	44 89 75 c8          	mov    DWORD PTR [rbp-0x38],r14d
   8f555:	8b 45 c4             	mov    eax,DWORD PTR [rbp-0x3c]
   8f558:	89 45 cc             	mov    DWORD PTR [rbp-0x34],eax
   8f55b:	48 8b 85 28 ff ff ff 	mov    rax,QWORD PTR [rbp-0xd8]
   8f562:	48 89 85 70 ff ff ff 	mov    QWORD PTR [rbp-0x90],rax
   8f569:	48 8b 85 f0 fe ff ff 	mov    rax,QWORD PTR [rbp-0x110]
   8f570:	48 89 85 78 ff ff ff 	mov    QWORD PTR [rbp-0x88],rax
   8f577:	48 8b 85 50 ff ff ff 	mov    rax,QWORD PTR [rbp-0xb0]
   8f57e:	48 89 45 80          	mov    QWORD PTR [rbp-0x80],rax
   8f582:	48 89 5d 88          	mov    QWORD PTR [rbp-0x78],rbx
   8f586:	48 89 4d 90          	mov    QWORD PTR [rbp-0x70],rcx
   8f58a:	48 89 75 98          	mov    QWORD PTR [rbp-0x68],rsi
   8f58e:	4c 89 5d a0          	mov    QWORD PTR [rbp-0x60],r11
   8f592:	4c 89 4d a8          	mov    QWORD PTR [rbp-0x58],r9
   8f596:	48 89 7d b0          	mov    QWORD PTR [rbp-0x50],rdi
   8f59a:	e9 b1 49 00 00       	jmp    93f50 <Java_com_adjust_sdk_sig_NativeLibHelper_nOnResume@@Base-0x26d53>
   8f59f:	4c 8b bd b8 fe ff ff 	mov    r15,QWORD PTR [rbp-0x148]
   8f5a6:	41 83 27 00          	and    DWORD PTR [r15],0x0
   8f5aa:	48 8b 95 50 fe ff ff 	mov    rdx,QWORD PTR [rbp-0x1b0]
   8f5b1:	48 83 22 00          	and    QWORD PTR [rdx],0x0
   8f5b5:	48 8b 85 98 fe ff ff 	mov    rax,QWORD PTR [rbp-0x168]
   8f5bc:	48 83 20 00          	and    QWORD PTR [rax],0x0
   8f5c0:	4c 89 ff             	mov    rdi,r15
   8f5c3:	48 8b b5 e0 fe ff ff 	mov    rsi,QWORD PTR [rbp-0x120]
   8f5ca:	e8 57 05 02 00       	call   afb26 <Java_com_adjust_sdk_sig_NativeLibHelper_nOnResume@@Base-0xb17d>
   8f5cf:	41 83 3f 00          	cmp    DWORD PTR [r15],0x0
   8f5d3:	48 ba 9d 7d 22 13 a9 	movabs rdx,0x6d6d9fa913227d9d
   8f5da:	9f 6d 6d 
   8f5dd:	48 b8 e6 19 2b b3 27 	movabs rax,0x681ede27b32b19e6
   8f5e4:	de 1e 68 
   8f5e7:	e9 41 1f 00 00       	jmp    9152d <Java_com_adjust_sdk_sig_NativeLibHelper_nOnResume@@Base-0x29776>
   8f5ec:	48 8b bd e0 fe ff ff 	mov    rdi,QWORD PTR [rbp-0x120]
   8f5f3:	48 8b 07             	mov    rax,QWORD PTR [rdi]
   8f5f6:	48 8b b5 b0 fa ff ff 	mov    rsi,QWORD PTR [rbp-0x550]
   8f5fd:	4c 89 cb             	mov    rbx,r9
   8f600:	ff 90 b8 00 00 00    	call   QWORD PTR [rax+0xb8]
   8f606:	48 8b 85 48 ff ff ff 	mov    rax,QWORD PTR [rbp-0xb8]
   8f60d:	48 89 85 58 ff ff ff 	mov    QWORD PTR [rbp-0xa8],rax
   8f614:	48 8b 85 40 ff ff ff 	mov    rax,QWORD PTR [rbp-0xc0]
   8f61b:	48 89 85 60 ff ff ff 	mov    QWORD PTR [rbp-0xa0],rax
   8f622:	48 8b 85 30 ff ff ff 	mov    rax,QWORD PTR [rbp-0xd0]
   8f629:	48 89 85 68 ff ff ff 	mov    QWORD PTR [rbp-0x98],rax
   8f630:	8b 45 c0             	mov    eax,DWORD PTR [rbp-0x40]
   8f633:	89 45 c8             	mov    DWORD PTR [rbp-0x38],eax
   8f636:	44 89 75 cc          	mov    DWORD PTR [rbp-0x34],r14d
   8f63a:	4c 89 bd 70 ff ff ff 	mov    QWORD PTR [rbp-0x90],r15
   8f641:	4c 89 a5 78 ff ff ff 	mov    QWORD PTR [rbp-0x88],r12
   8f648:	48 8b 85 50 ff ff ff 	mov    rax,QWORD PTR [rbp-0xb0]
   8f64f:	48 89 45 80          	mov    QWORD PTR [rbp-0x80],rax
   8f653:	48 8b 85 20 ff ff ff 	mov    rax,QWORD PTR [rbp-0xe0]
   8f65a:	48 89 45 88          	mov    QWORD PTR [rbp-0x78],rax
   8f65e:	48 8b 85 18 ff ff ff 	mov    rax,QWORD PTR [rbp-0xe8]
   8f665:	48 89 45 90          	mov    QWORD PTR [rbp-0x70],rax
   8f669:	48 8b 85 08 ff ff ff 	mov    rax,QWORD PTR [rbp-0xf8]
   8f670:	48 89 45 98          	mov    QWORD PTR [rbp-0x68],rax
   8f674:	48 8b 85 10 ff ff ff 	mov    rax,QWORD PTR [rbp-0xf0]
   8f67b:	48 89 45 a0          	mov    QWORD PTR [rbp-0x60],rax
   8f67f:	48 89 5d a8          	mov    QWORD PTR [rbp-0x58],rbx
   8f683:	48 8b 85 00 ff ff ff 	mov    rax,QWORD PTR [rbp-0x100]
   8f68a:	48 89 45 b0          	mov    QWORD PTR [rbp-0x50],rax
   8f68e:	48 8b 85 38 ff ff ff 	mov    rax,QWORD PTR [rbp-0xc8]
   8f695:	48 89 45 b8          	mov    QWORD PTR [rbp-0x48],rax
   8f699:	48 ba c8 ec f4 3d dc 	movabs rdx,0x8ba891dc3df4ecc8
   8f6a0:	91 a8 8b 
   8f6a3:	e9 2a 8e ff ff       	jmp    884d2 <Java_com_adjust_sdk_sig_NativeLibHelper_nOnResume@@Base-0x327d1>
   8f6a8:	48 8b bd 10 ff ff ff 	mov    rdi,QWORD PTR [rbp-0xf0]
   8f6af:	80 3f 00             	cmp    BYTE PTR [rdi],0x0
   8f6b2:	48 89 d1             	mov    rcx,rdx
   8f6b5:	48 ba e5 43 19 d5 1a 	movabs rdx,0x5081e31ad51943e5
   8f6bc:	e3 81 50 
   8f6bf:	48 b8 3d 8b 4a 66 28 	movabs rax,0x995c3a28664a8b3d
   8f6c6:	3a 5c 99 
   8f6c9:	48 0f 44 d0          	cmove  rdx,rax
   8f6cd:	48 8b 85 48 ff ff ff 	mov    rax,QWORD PTR [rbp-0xb8]
   8f6d4:	48 89 85 58 ff ff ff 	mov    QWORD PTR [rbp-0xa8],rax
   8f6db:	48 8b 85 40 ff ff ff 	mov    rax,QWORD PTR [rbp-0xc0]
   8f6e2:	48 89 85 60 ff ff ff 	mov    QWORD PTR [rbp-0xa0],rax
   8f6e9:	48 8b 85 30 ff ff ff 	mov    rax,QWORD PTR [rbp-0xd0]
   8f6f0:	48 89 85 68 ff ff ff 	mov    QWORD PTR [rbp-0x98],rax
   8f6f7:	44 89 75 c8          	mov    DWORD PTR [rbp-0x38],r14d
   8f6fb:	8b 45 c4             	mov    eax,DWORD PTR [rbp-0x3c]
   8f6fe:	89 45 cc             	mov    DWORD PTR [rbp-0x34],eax
   8f701:	48 8b 85 28 ff ff ff 	mov    rax,QWORD PTR [rbp-0xd8]
   8f708:	48 89 85 70 ff ff ff 	mov    QWORD PTR [rbp-0x90],rax
   8f70f:	48 89 9d 78 ff ff ff 	mov    QWORD PTR [rbp-0x88],rbx
   8f716:	48 8b 85 50 ff ff ff 	mov    rax,QWORD PTR [rbp-0xb0]
   8f71d:	48 89 45 80          	mov    QWORD PTR [rbp-0x80],rax
   8f721:	48 8b 85 20 ff ff ff 	mov    rax,QWORD PTR [rbp-0xe0]
   8f728:	48 89 45 88          	mov    QWORD PTR [rbp-0x78],rax
   8f72c:	48 8b 85 18 ff ff ff 	mov    rax,QWORD PTR [rbp-0xe8]
   8f733:	48 89 45 90          	mov    QWORD PTR [rbp-0x70],rax
   8f737:	48 8b 85 08 ff ff ff 	mov    rax,QWORD PTR [rbp-0xf8]
   8f73e:	48 89 45 98          	mov    QWORD PTR [rbp-0x68],rax
   8f742:	48 8d 77 01          	lea    rsi,[rdi+0x1]
   8f746:	48 89 b5 20 fa ff ff 	mov    QWORD PTR [rbp-0x5e0],rsi
   8f74d:	48 89 bd 00 fb ff ff 	mov    QWORD PTR [rbp-0x500],rdi
   8f754:	48 89 7d a0          	mov    QWORD PTR [rbp-0x60],rdi
   8f758:	4c 89 5d a8          	mov    QWORD PTR [rbp-0x58],r11
   8f75c:	e9 a9 29 00 00       	jmp    9210a <Java_com_adjust_sdk_sig_NativeLibHelper_nOnResume@@Base-0x28b99>
   8f761:	80 3d 53 f6 0a 00 00 	cmp    BYTE PTR [rip+0xaf653],0x0        # 13edbb <write@plt+0xc23b>
   8f768:	48 ba cf ce d2 a5 37 	movabs rdx,0x8962b37a5d2cecf
   8f76f:	2b 96 08 
   8f772:	48 b8 93 ad 0c e0 f4 	movabs rax,0x3c4fbff4e00cad93
   8f779:	bf 4f 3c 
   8f77c:	e9 83 24 00 00       	jmp    91c04 <Java_com_adjust_sdk_sig_NativeLibHelper_nOnResume@@Base-0x2909f>
   8f781:	48 8b 85 c0 fe ff ff 	mov    rax,QWORD PTR [rbp-0x140]
   8f788:	8b 00                	mov    eax,DWORD PTR [rax]
   8f78a:	89 85 48 fe ff ff    	mov    DWORD PTR [rbp-0x1b8],eax
   8f790:	85 c0                	test   eax,eax
   8f792:	48 ba 04 e2 df 99 72 	movabs rdx,0xbc34f77299dfe204
   8f799:	f7 34 bc 
   8f79c:	48 b8 56 dc c5 d4 e5 	movabs rax,0x55708e5d4c5dc56
   8f7a3:	08 57 05 
   8f7a6:	e9 02 47 00 00       	jmp    93ead <Java_com_adjust_sdk_sig_NativeLibHelper_nOnResume@@Base-0x26df6>
   8f7ab:	48 b8 69 69 69 69 69 	movabs rax,0x6969696969696969
   8f7b2:	69 69 69 
   8f7b5:	48 31 05 f4 da 0a 00 	xor    QWORD PTR [rip+0xadaf4],rax        # 13d2b0 <write@plt+0xa730>
   8f7bc:	f2 0f 10 05 f4 da 0a 	movsd  xmm0,QWORD PTR [rip+0xadaf4]        # 13d2b8 <write@plt+0xa738>
   8f7c3:	00 
   8f7c4:	0f 57 05 55 48 f7 ff 	xorps  xmm0,XMMWORD PTR [rip+0xfffffffffff74855]        # 4020 <Java_com_adjust_sdk_sig_NativeLibHelper_nOnResume@@Base-0xb6c83>
   8f7cb:	f3 0f 11 05 e5 da 0a 	movss  DWORD PTR [rip+0xadae5],xmm0        # 13d2b8 <write@plt+0xa738>
   8f7d2:	00 
   8f7d3:	80 35 e2 da 0a 00 69 	xor    BYTE PTR [rip+0xadae2],0x69        # 13d2bc <write@plt+0xa73c>
   8f7da:	80 35 dc da 0a 00 69 	xor    BYTE PTR [rip+0xadadc],0x69        # 13d2bd <write@plt+0xa73d>
   8f7e1:	c6 05 9b f7 0a 00 01 	mov    BYTE PTR [rip+0xaf79b],0x1        # 13ef83 <write@plt+0xc403>
   8f7e8:	48 8b 85 48 ff ff ff 	mov    rax,QWORD PTR [rbp-0xb8]
   8f7ef:	48 89 85 58 ff ff ff 	mov    QWORD PTR [rbp-0xa8],rax
   8f7f6:	48 8b 85 40 ff ff ff 	mov    rax,QWORD PTR [rbp-0xc0]
   8f7fd:	48 89 85 60 ff ff ff 	mov    QWORD PTR [rbp-0xa0],rax
   8f804:	48 8b 85 30 ff ff ff 	mov    rax,QWORD PTR [rbp-0xd0]
   8f80b:	48 89 85 68 ff ff ff 	mov    QWORD PTR [rbp-0x98],rax
   8f812:	8b 45 c0             	mov    eax,DWORD PTR [rbp-0x40]
   8f815:	89 45 c8             	mov    DWORD PTR [rbp-0x38],eax
   8f818:	8b 45 c4             	mov    eax,DWORD PTR [rbp-0x3c]
   8f81b:	89 45 cc             	mov    DWORD PTR [rbp-0x34],eax
   8f81e:	48 8b 85 28 ff ff ff 	mov    rax,QWORD PTR [rbp-0xd8]
   8f825:	48 89 85 70 ff ff ff 	mov    QWORD PTR [rbp-0x90],rax
   8f82c:	48 8b 85 f0 fe ff ff 	mov    rax,QWORD PTR [rbp-0x110]
   8f833:	48 89 85 78 ff ff ff 	mov    QWORD PTR [rbp-0x88],rax
   8f83a:	48 8b 85 50 ff ff ff 	mov    rax,QWORD PTR [rbp-0xb0]
   8f841:	48 89 45 80          	mov    QWORD PTR [rbp-0x80],rax
   8f845:	48 8b 85 20 ff ff ff 	mov    rax,QWORD PTR [rbp-0xe0]
   8f84c:	48 89 45 88          	mov    QWORD PTR [rbp-0x78],rax
   8f850:	48 8b 85 18 ff ff ff 	mov    rax,QWORD PTR [rbp-0xe8]
   8f857:	48 89 45 90          	mov    QWORD PTR [rbp-0x70],rax
   8f85b:	48 8b 85 08 ff ff ff 	mov    rax,QWORD PTR [rbp-0xf8]
   8f862:	48 89 45 98          	mov    QWORD PTR [rbp-0x68],rax
   8f866:	48 8b 85 10 ff ff ff 	mov    rax,QWORD PTR [rbp-0xf0]
   8f86d:	48 89 45 a0          	mov    QWORD PTR [rbp-0x60],rax
   8f871:	48 8b 85 f8 fe ff ff 	mov    rax,QWORD PTR [rbp-0x108]
   8f878:	48 89 45 a8          	mov    QWORD PTR [rbp-0x58],rax
   8f87c:	48 8b 85 00 ff ff ff 	mov    rax,QWORD PTR [rbp-0x100]
   8f883:	48 89 45 b0          	mov    QWORD PTR [rbp-0x50],rax
   8f887:	48 8b 85 38 ff ff ff 	mov    rax,QWORD PTR [rbp-0xc8]
   8f88e:	48 89 45 b8          	mov    QWORD PTR [rbp-0x48],rax
   8f892:	48 ba a7 08 40 c5 70 	movabs rdx,0x144d4470c54008a7
   8f899:	44 4d 14 
   8f89c:	e9 31 8c ff ff       	jmp    884d2 <Java_com_adjust_sdk_sig_NativeLibHelper_nOnResume@@Base-0x327d1>
   8f8a1:	48 8b 85 d8 fe ff ff 	mov    rax,QWORD PTR [rbp-0x128]
   8f8a8:	48 83 20 00          	and    QWORD PTR [rax],0x0
   8f8ac:	48 8b 85 48 ff ff ff 	mov    rax,QWORD PTR [rbp-0xb8]
   8f8b3:	48 89 85 58 ff ff ff 	mov    QWORD PTR [rbp-0xa8],rax
   8f8ba:	48 8b 85 40 ff ff ff 	mov    rax,QWORD PTR [rbp-0xc0]
   8f8c1:	48 89 85 60 ff ff ff 	mov    QWORD PTR [rbp-0xa0],rax
   8f8c8:	48 8b 85 30 ff ff ff 	mov    rax,QWORD PTR [rbp-0xd0]
   8f8cf:	48 89 85 68 ff ff ff 	mov    QWORD PTR [rbp-0x98],rax
   8f8d6:	44 89 75 c8          	mov    DWORD PTR [rbp-0x38],r14d
   8f8da:	48 89 9d 70 ff ff ff 	mov    QWORD PTR [rbp-0x90],rbx
   8f8e1:	4c 89 9d 78 ff ff ff 	mov    QWORD PTR [rbp-0x88],r11
   8f8e8:	48 8b 85 50 ff ff ff 	mov    rax,QWORD PTR [rbp-0xb0]
   8f8ef:	48 89 45 80          	mov    QWORD PTR [rbp-0x80],rax
   8f8f3:	4c 89 4d 88          	mov    QWORD PTR [rbp-0x78],r9
   8f8f7:	48 89 4d 90          	mov    QWORD PTR [rbp-0x70],rcx
   8f8fb:	48 89 75 98          	mov    QWORD PTR [rbp-0x68],rsi
   8f8ff:	4c 89 65 a0          	mov    QWORD PTR [rbp-0x60],r12
   8f903:	48 89 7d a8          	mov    QWORD PTR [rbp-0x58],rdi
   8f907:	e9 b6 40 00 00       	jmp    939c2 <Java_com_adjust_sdk_sig_NativeLibHelper_nOnResume@@Base-0x272e1>
   8f90c:	4c 8b 95 80 fb ff ff 	mov    r10,QWORD PTR [rbp-0x480]
   8f913:	41 8a 02             	mov    al,BYTE PTR [r10]
   8f916:	48 8b 95 78 fb ff ff 	mov    rdx,QWORD PTR [rbp-0x488]
   8f91d:	88 02                	mov    BYTE PTR [rdx],al
   8f91f:	48 8b 85 48 ff ff ff 	mov    rax,QWORD PTR [rbp-0xb8]
   8f926:	48 89 85 58 ff ff ff 	mov    QWORD PTR [rbp-0xa8],rax
   8f92d:	48 8b 85 40 ff ff ff 	mov    rax,QWORD PTR [rbp-0xc0]
   8f934:	48 89 85 60 ff ff ff 	mov    QWORD PTR [rbp-0xa0],rax
   8f93b:	48 8b 85 30 ff ff ff 	mov    rax,QWORD PTR [rbp-0xd0]
   8f942:	48 89 85 68 ff ff ff 	mov    QWORD PTR [rbp-0x98],rax
   8f949:	44 89 75 c8          	mov    DWORD PTR [rbp-0x38],r14d
   8f94d:	8b 45 c4             	mov    eax,DWORD PTR [rbp-0x3c]
   8f950:	89 45 cc             	mov    DWORD PTR [rbp-0x34],eax
   8f953:	48 89 9d 70 ff ff ff 	mov    QWORD PTR [rbp-0x90],rbx
   8f95a:	4c 89 9d 78 ff ff ff 	mov    QWORD PTR [rbp-0x88],r11
   8f961:	48 8b 85 50 ff ff ff 	mov    rax,QWORD PTR [rbp-0xb0]
   8f968:	48 89 45 80          	mov    QWORD PTR [rbp-0x80],rax
   8f96c:	4c 89 4d 88          	mov    QWORD PTR [rbp-0x78],r9
   8f970:	4c 89 45 90          	mov    QWORD PTR [rbp-0x70],r8
   8f974:	48 89 4d 98          	mov    QWORD PTR [rbp-0x68],rcx
   8f978:	48 89 75 a0          	mov    QWORD PTR [rbp-0x60],rsi
   8f97c:	48 89 7d a8          	mov    QWORD PTR [rbp-0x58],rdi
   8f980:	48 8b 85 00 ff ff ff 	mov    rax,QWORD PTR [rbp-0x100]
   8f987:	48 89 45 b0          	mov    QWORD PTR [rbp-0x50],rax
   8f98b:	48 8b 85 38 ff ff ff 	mov    rax,QWORD PTR [rbp-0xc8]
   8f992:	48 89 45 b8          	mov    QWORD PTR [rbp-0x48],rax
   8f996:	49 ff c2             	inc    r10
   8f999:	4c 89 95 c8 fd ff ff 	mov    QWORD PTR [rbp-0x238],r10
   8f9a0:	48 ff c2             	inc    rdx
   8f9a3:	48 89 95 d8 fd ff ff 	mov    QWORD PTR [rbp-0x228],rdx
   8f9aa:	48 8b 95 68 fb ff ff 	mov    rdx,QWORD PTR [rbp-0x498]
   8f9b1:	48 ff ca             	dec    rdx
   8f9b4:	48 89 95 e0 fd ff ff 	mov    QWORD PTR [rbp-0x220],rdx
   8f9bb:	48 ba ac 79 f7 9e 30 	movabs rdx,0x53017d309ef779ac
   8f9c2:	7d 01 53 
   8f9c5:	e9 08 8b ff ff       	jmp    884d2 <Java_com_adjust_sdk_sig_NativeLibHelper_nOnResume@@Base-0x327d1>
   8f9ca:	48 b8 98 98 98 98 98 	movabs rax,0x9898989898989898
   8f9d1:	98 98 98 
   8f9d4:	48 31 05 05 d9 0a 00 	xor    QWORD PTR [rip+0xad905],rax        # 13d2e0 <write@plt+0xa760>
   8f9db:	f2 0f 10 05 05 d9 0a 	movsd  xmm0,QWORD PTR [rip+0xad905]        # 13d2e8 <write@plt+0xa768>
   8f9e2:	00 
   8f9e3:	0f 57 05 06 36 f7 ff 	xorps  xmm0,XMMWORD PTR [rip+0xfffffffffff73606]        # 2ff0 <Java_com_adjust_sdk_sig_NativeLibHelper_nOnResume@@Base-0xb7cb3>
   8f9ea:	f3 0f 11 05 f6 d8 0a 	movss  DWORD PTR [rip+0xad8f6],xmm0        # 13d2e8 <write@plt+0xa768>
   8f9f1:	00 
   8f9f2:	80 35 f3 d8 0a 00 98 	xor    BYTE PTR [rip+0xad8f3],0x98        # 13d2ec <write@plt+0xa76c>
   8f9f9:	80 35 ed d8 0a 00 98 	xor    BYTE PTR [rip+0xad8ed],0x98        # 13d2ed <write@plt+0xa76d>
   8fa00:	80 35 e7 d8 0a 00 98 	xor    BYTE PTR [rip+0xad8e7],0x98        # 13d2ee <write@plt+0xa76e>
   8fa07:	c6 05 7b f5 0a 00 01 	mov    BYTE PTR [rip+0xaf57b],0x1        # 13ef89 <write@plt+0xc409>
   8fa0e:	48 8b 85 48 ff ff ff 	mov    rax,QWORD PTR [rbp-0xb8]
   8fa15:	48 89 85 58 ff ff ff 	mov    QWORD PTR [rbp-0xa8],rax
   8fa1c:	48 8b 85 40 ff ff ff 	mov    rax,QWORD PTR [rbp-0xc0]
   8fa23:	48 89 85 60 ff ff ff 	mov    QWORD PTR [rbp-0xa0],rax
   8fa2a:	4c 89 b5 68 ff ff ff 	mov    QWORD PTR [rbp-0x98],r14
   8fa31:	44 89 55 c8          	mov    DWORD PTR [rbp-0x38],r10d
   8fa35:	8b 45 c4             	mov    eax,DWORD PTR [rbp-0x3c]
   8fa38:	89 45 cc             	mov    DWORD PTR [rbp-0x34],eax
   8fa3b:	48 8b 85 28 ff ff ff 	mov    rax,QWORD PTR [rbp-0xd8]
   8fa42:	48 89 85 70 ff ff ff 	mov    QWORD PTR [rbp-0x90],rax
   8fa49:	48 89 9d 78 ff ff ff 	mov    QWORD PTR [rbp-0x88],rbx
   8fa50:	48 8b 85 50 ff ff ff 	mov    rax,QWORD PTR [rbp-0xb0]
   8fa57:	48 89 45 80          	mov    QWORD PTR [rbp-0x80],rax
   8fa5b:	4c 89 5d 88          	mov    QWORD PTR [rbp-0x78],r11
   8fa5f:	4c 89 4d 90          	mov    QWORD PTR [rbp-0x70],r9
   8fa63:	4c 89 45 98          	mov    QWORD PTR [rbp-0x68],r8
   8fa67:	48 89 75 a0          	mov    QWORD PTR [rbp-0x60],rsi
   8fa6b:	48 89 7d a8          	mov    QWORD PTR [rbp-0x58],rdi
   8fa6f:	48 89 55 b0          	mov    QWORD PTR [rbp-0x50],rdx
   8fa73:	48 8b 85 38 ff ff ff 	mov    rax,QWORD PTR [rbp-0xc8]
   8fa7a:	48 89 45 b8          	mov    QWORD PTR [rbp-0x48],rax
   8fa7e:	48 ba 92 28 97 f8 f0 	movabs rdx,0x7f347af0f8972892
   8fa85:	7a 34 7f 
   8fa88:	e9 45 8a ff ff       	jmp    884d2 <Java_com_adjust_sdk_sig_NativeLibHelper_nOnResume@@Base-0x327d1>
   8fa8d:	0f 28 05 ec c5 0a 00 	movaps xmm0,XMMWORD PTR [rip+0xac5ec]        # 13c080 <write@plt+0x9500>
   8fa94:	0f 57 05 15 38 f7 ff 	xorps  xmm0,XMMWORD PTR [rip+0xfffffffffff73815]        # 32b0 <Java_com_adjust_sdk_sig_NativeLibHelper_nOnResume@@Base-0xb79f3>
   8fa9b:	0f 29 05 de c5 0a 00 	movaps XMMWORD PTR [rip+0xac5de],xmm0        # 13c080 <write@plt+0x9500>
   8faa2:	80 35 e7 c5 0a 00 99 	xor    BYTE PTR [rip+0xac5e7],0x99        # 13c090 <write@plt+0x9510>
   8faa9:	c6 05 01 f3 0a 00 01 	mov    BYTE PTR [rip+0xaf301],0x1        # 13edb1 <write@plt+0xc231>
   8fab0:	48 8b 85 48 ff ff ff 	mov    rax,QWORD PTR [rbp-0xb8]
   8fab7:	48 89 85 58 ff ff ff 	mov    QWORD PTR [rbp-0xa8],rax
   8fabe:	48 8b 85 40 ff ff ff 	mov    rax,QWORD PTR [rbp-0xc0]
   8fac5:	48 89 85 60 ff ff ff 	mov    QWORD PTR [rbp-0xa0],rax
   8facc:	48 8b 85 30 ff ff ff 	mov    rax,QWORD PTR [rbp-0xd0]
   8fad3:	48 89 85 68 ff ff ff 	mov    QWORD PTR [rbp-0x98],rax
   8fada:	8b 45 c0             	mov    eax,DWORD PTR [rbp-0x40]
   8fadd:	89 45 c8             	mov    DWORD PTR [rbp-0x38],eax
   8fae0:	8b 45 c4             	mov    eax,DWORD PTR [rbp-0x3c]
   8fae3:	89 45 cc             	mov    DWORD PTR [rbp-0x34],eax
   8fae6:	48 8b 85 28 ff ff ff 	mov    rax,QWORD PTR [rbp-0xd8]
   8faed:	48 89 85 70 ff ff ff 	mov    QWORD PTR [rbp-0x90],rax
   8faf4:	48 89 9d 78 ff ff ff 	mov    QWORD PTR [rbp-0x88],rbx
   8fafb:	48 8b 85 50 ff ff ff 	mov    rax,QWORD PTR [rbp-0xb0]
   8fb02:	48 89 45 80          	mov    QWORD PTR [rbp-0x80],rax
   8fb06:	48 8b 85 20 ff ff ff 	mov    rax,QWORD PTR [rbp-0xe0]
   8fb0d:	48 89 45 88          	mov    QWORD PTR [rbp-0x78],rax
   8fb11:	48 8b 85 18 ff ff ff 	mov    rax,QWORD PTR [rbp-0xe8]
   8fb18:	48 89 45 90          	mov    QWORD PTR [rbp-0x70],rax
   8fb1c:	48 8b 85 08 ff ff ff 	mov    rax,QWORD PTR [rbp-0xf8]
   8fb23:	48 89 45 98          	mov    QWORD PTR [rbp-0x68],rax
   8fb27:	48 8b 85 10 ff ff ff 	mov    rax,QWORD PTR [rbp-0xf0]
   8fb2e:	48 89 45 a0          	mov    QWORD PTR [rbp-0x60],rax
   8fb32:	4c 89 75 a8          	mov    QWORD PTR [rbp-0x58],r14
   8fb36:	48 8b 85 00 ff ff ff 	mov    rax,QWORD PTR [rbp-0x100]
   8fb3d:	48 89 45 b0          	mov    QWORD PTR [rbp-0x50],rax
   8fb41:	48 8b 85 38 ff ff ff 	mov    rax,QWORD PTR [rbp-0xc8]
   8fb48:	48 89 45 b8          	mov    QWORD PTR [rbp-0x48],rax
   8fb4c:	48 ba ab b4 fe 41 47 	movabs rdx,0xbb65d74741feb4ab
   8fb53:	d7 65 bb 
   8fb56:	e9 77 89 ff ff       	jmp    884d2 <Java_com_adjust_sdk_sig_NativeLibHelper_nOnResume@@Base-0x327d1>
   8fb5b:	48 b8 2b 2b 2b 2b 2b 	movabs rax,0x2b2b2b2b2b2b2b2b
   8fb62:	2b 2b 2b 
   8fb65:	48 31 05 34 d7 0a 00 	xor    QWORD PTR [rip+0xad734],rax        # 13d2a0 <write@plt+0xa720>
   8fb6c:	f2 0f 10 05 34 d7 0a 	movsd  xmm0,QWORD PTR [rip+0xad734]        # 13d2a8 <write@plt+0xa728>
   8fb73:	00 
   8fb74:	0f 57 05 95 38 f7 ff 	xorps  xmm0,XMMWORD PTR [rip+0xfffffffffff73895]        # 3410 <Java_com_adjust_sdk_sig_NativeLibHelper_nOnResume@@Base-0xb7893>
   8fb7b:	f3 0f 11 05 25 d7 0a 	movss  DWORD PTR [rip+0xad725],xmm0        # 13d2a8 <write@plt+0xa728>
   8fb82:	00 
   8fb83:	80 35 22 d7 0a 00 2b 	xor    BYTE PTR [rip+0xad722],0x2b        # 13d2ac <write@plt+0xa72c>
   8fb8a:	80 35 1c d7 0a 00 2b 	xor    BYTE PTR [rip+0xad71c],0x2b        # 13d2ad <write@plt+0xa72d>
   8fb91:	c6 05 e9 f3 0a 00 01 	mov    BYTE PTR [rip+0xaf3e9],0x1        # 13ef81 <write@plt+0xc401>
   8fb98:	48 8b 85 48 ff ff ff 	mov    rax,QWORD PTR [rbp-0xb8]
   8fb9f:	48 89 85 58 ff ff ff 	mov    QWORD PTR [rbp-0xa8],rax
   8fba6:	48 8b 85 40 ff ff ff 	mov    rax,QWORD PTR [rbp-0xc0]
   8fbad:	48 89 85 60 ff ff ff 	mov    QWORD PTR [rbp-0xa0],rax
   8fbb4:	48 8b 85 30 ff ff ff 	mov    rax,QWORD PTR [rbp-0xd0]
   8fbbb:	48 89 85 68 ff ff ff 	mov    QWORD PTR [rbp-0x98],rax
   8fbc2:	44 89 75 c8          	mov    DWORD PTR [rbp-0x38],r14d
   8fbc6:	8b 45 c4             	mov    eax,DWORD PTR [rbp-0x3c]
   8fbc9:	89 45 cc             	mov    DWORD PTR [rbp-0x34],eax
   8fbcc:	48 8b 85 28 ff ff ff 	mov    rax,QWORD PTR [rbp-0xd8]
   8fbd3:	48 89 85 70 ff ff ff 	mov    QWORD PTR [rbp-0x90],rax
   8fbda:	48 89 9d 78 ff ff ff 	mov    QWORD PTR [rbp-0x88],rbx
   8fbe1:	48 8b 85 50 ff ff ff 	mov    rax,QWORD PTR [rbp-0xb0]
   8fbe8:	48 89 45 80          	mov    QWORD PTR [rbp-0x80],rax
   8fbec:	48 8b 85 20 ff ff ff 	mov    rax,QWORD PTR [rbp-0xe0]
   8fbf3:	48 89 45 88          	mov    QWORD PTR [rbp-0x78],rax
   8fbf7:	48 8b 85 18 ff ff ff 	mov    rax,QWORD PTR [rbp-0xe8]
   8fbfe:	48 89 45 90          	mov    QWORD PTR [rbp-0x70],rax
   8fc02:	48 8b 85 08 ff ff ff 	mov    rax,QWORD PTR [rbp-0xf8]
   8fc09:	48 89 45 98          	mov    QWORD PTR [rbp-0x68],rax
   8fc0d:	48 8b 85 10 ff ff ff 	mov    rax,QWORD PTR [rbp-0xf0]
   8fc14:	48 89 45 a0          	mov    QWORD PTR [rbp-0x60],rax
   8fc18:	48 8b 85 f8 fe ff ff 	mov    rax,QWORD PTR [rbp-0x108]
   8fc1f:	48 89 45 a8          	mov    QWORD PTR [rbp-0x58],rax
   8fc23:	4c 89 5d b0          	mov    QWORD PTR [rbp-0x50],r11
   8fc27:	48 8b 85 38 ff ff ff 	mov    rax,QWORD PTR [rbp-0xc8]
   8fc2e:	48 89 45 b8          	mov    QWORD PTR [rbp-0x48],rax
   8fc32:	48 ba 60 d5 4e f7 60 	movabs rdx,0x765c3460f74ed560
   8fc39:	34 5c 76 
   8fc3c:	e9 91 88 ff ff       	jmp    884d2 <Java_com_adjust_sdk_sig_NativeLibHelper_nOnResume@@Base-0x327d1>
   8fc41:	80 3d 3b f3 0a 00 00 	cmp    BYTE PTR [rip+0xaf33b],0x0        # 13ef83 <write@plt+0xc403>
   8fc48:	48 ba f2 52 0d 7b 1b 	movabs rdx,0x6afa281b7b0d52f2
   8fc4f:	28 fa 6a 
   8fc52:	48 b8 36 63 91 67 8b 	movabs rax,0x771cfe8b67916336
   8fc59:	fe 1c 77 
   8fc5c:	e9 6c 34 00 00       	jmp    930cd <Java_com_adjust_sdk_sig_NativeLibHelper_nOnResume@@Base-0x27bd6>
   8fc61:	48 8b bd e0 fe ff ff 	mov    rdi,QWORD PTR [rbp-0x120]
   8fc68:	48 8b 07             	mov    rax,QWORD PTR [rdi]
   8fc6b:	48 8b b5 e0 fa ff ff 	mov    rsi,QWORD PTR [rbp-0x520]
   8fc72:	ff 90 b8 00 00 00    	call   QWORD PTR [rax+0xb8]
   8fc78:	48 8b 85 48 ff ff ff 	mov    rax,QWORD PTR [rbp-0xb8]
   8fc7f:	48 89 85 58 ff ff ff 	mov    QWORD PTR [rbp-0xa8],rax
   8fc86:	48 8b 85 40 ff ff ff 	mov    rax,QWORD PTR [rbp-0xc0]
   8fc8d:	48 89 85 60 ff ff ff 	mov    QWORD PTR [rbp-0xa0],rax
   8fc94:	48 8b 85 30 ff ff ff 	mov    rax,QWORD PTR [rbp-0xd0]
   8fc9b:	48 89 85 68 ff ff ff 	mov    QWORD PTR [rbp-0x98],rax
   8fca2:	8b 45 c0             	mov    eax,DWORD PTR [rbp-0x40]
   8fca5:	89 45 c8             	mov    DWORD PTR [rbp-0x38],eax
   8fca8:	8b 45 c4             	mov    eax,DWORD PTR [rbp-0x3c]
   8fcab:	89 45 cc             	mov    DWORD PTR [rbp-0x34],eax
   8fcae:	48 8b 85 28 ff ff ff 	mov    rax,QWORD PTR [rbp-0xd8]
   8fcb5:	48 89 85 70 ff ff ff 	mov    QWORD PTR [rbp-0x90],rax
   8fcbc:	48 89 9d 78 ff ff ff 	mov    QWORD PTR [rbp-0x88],rbx
   8fcc3:	48 8b 85 50 ff ff ff 	mov    rax,QWORD PTR [rbp-0xb0]
   8fcca:	48 89 45 80          	mov    QWORD PTR [rbp-0x80],rax
   8fcce:	48 8b 85 20 ff ff ff 	mov    rax,QWORD PTR [rbp-0xe0]
   8fcd5:	48 89 45 88          	mov    QWORD PTR [rbp-0x78],rax
   8fcd9:	48 8b 85 18 ff ff ff 	mov    rax,QWORD PTR [rbp-0xe8]
   8fce0:	48 89 45 90          	mov    QWORD PTR [rbp-0x70],rax
   8fce4:	48 8b 85 08 ff ff ff 	mov    rax,QWORD PTR [rbp-0xf8]
   8fceb:	48 89 45 98          	mov    QWORD PTR [rbp-0x68],rax
   8fcef:	48 8b 85 10 ff ff ff 	mov    rax,QWORD PTR [rbp-0xf0]
   8fcf6:	48 89 45 a0          	mov    QWORD PTR [rbp-0x60],rax
   8fcfa:	4c 89 75 a8          	mov    QWORD PTR [rbp-0x58],r14
   8fcfe:	48 8b 85 00 ff ff ff 	mov    rax,QWORD PTR [rbp-0x100]
   8fd05:	48 89 45 b0          	mov    QWORD PTR [rbp-0x50],rax
   8fd09:	48 8b 85 38 ff ff ff 	mov    rax,QWORD PTR [rbp-0xc8]
   8fd10:	48 89 45 b8          	mov    QWORD PTR [rbp-0x48],rax
   8fd14:	48 ba 4e 46 6f c7 ba 	movabs rdx,0xf8a2e9bac76f464e
   8fd1b:	e9 a2 f8 
   8fd1e:	e9 af 87 ff ff       	jmp    884d2 <Java_com_adjust_sdk_sig_NativeLibHelper_nOnResume@@Base-0x327d1>
   8fd23:	c6 05 a6 f0 0a 00 00 	mov    BYTE PTR [rip+0xaf0a6],0x0        # 13edd0 <write@plt+0xc250>
   8fd2a:	48 8b 85 d8 fe ff ff 	mov    rax,QWORD PTR [rbp-0x128]
   8fd31:	48 8b 8d f0 fc ff ff 	mov    rcx,QWORD PTR [rbp-0x310]
   8fd38:	48 89 48 58          	mov    QWORD PTR [rax+0x58],rcx
   8fd3c:	48 8d 3d 4d c4 0a 00 	lea    rdi,[rip+0xac44d]        # 13c190 <write@plt+0x9610>
   8fd43:	48 8b 9d d0 fe ff ff 	mov    rbx,QWORD PTR [rbp-0x130]
   8fd4a:	48 89 de             	mov    rsi,rbx
   8fd4d:	e8 b0 1c 03 00       	call   c1a02 <Java_com_adjust_sdk_sig_NativeLibHelper_nSign@@Base+0x6357>
   8fd52:	48 8b 85 48 ff ff ff 	mov    rax,QWORD PTR [rbp-0xb8]
   8fd59:	48 89 85 58 ff ff ff 	mov    QWORD PTR [rbp-0xa8],rax
   8fd60:	48 8b 85 40 ff ff ff 	mov    rax,QWORD PTR [rbp-0xc0]
   8fd67:	48 89 85 60 ff ff ff 	mov    QWORD PTR [rbp-0xa0],rax
   8fd6e:	48 8b 85 30 ff ff ff 	mov    rax,QWORD PTR [rbp-0xd0]
   8fd75:	48 89 85 68 ff ff ff 	mov    QWORD PTR [rbp-0x98],rax
   8fd7c:	8b 45 c0             	mov    eax,DWORD PTR [rbp-0x40]
   8fd7f:	89 45 c8             	mov    DWORD PTR [rbp-0x38],eax
   8fd82:	8b 45 c4             	mov    eax,DWORD PTR [rbp-0x3c]
   8fd85:	89 45 cc             	mov    DWORD PTR [rbp-0x34],eax
   8fd88:	48 8b 85 28 ff ff ff 	mov    rax,QWORD PTR [rbp-0xd8]
   8fd8f:	48 89 85 70 ff ff ff 	mov    QWORD PTR [rbp-0x90],rax
   8fd96:	48 8b 85 f0 fe ff ff 	mov    rax,QWORD PTR [rbp-0x110]
   8fd9d:	48 89 85 78 ff ff ff 	mov    QWORD PTR [rbp-0x88],rax
   8fda4:	48 8b 85 20 ff ff ff 	mov    rax,QWORD PTR [rbp-0xe0]
   8fdab:	48 89 45 88          	mov    QWORD PTR [rbp-0x78],rax
   8fdaf:	48 8b 85 18 ff ff ff 	mov    rax,QWORD PTR [rbp-0xe8]
   8fdb6:	48 89 45 90          	mov    QWORD PTR [rbp-0x70],rax
   8fdba:	48 8b 85 08 ff ff ff 	mov    rax,QWORD PTR [rbp-0xf8]
   8fdc1:	48 89 45 98          	mov    QWORD PTR [rbp-0x68],rax
   8fdc5:	48 8b 85 10 ff ff ff 	mov    rax,QWORD PTR [rbp-0xf0]
   8fdcc:	48 89 45 a0          	mov    QWORD PTR [rbp-0x60],rax
   8fdd0:	48 8b 85 f8 fe ff ff 	mov    rax,QWORD PTR [rbp-0x108]
   8fdd7:	48 89 45 a8          	mov    QWORD PTR [rbp-0x58],rax
   8fddb:	48 8b 85 00 ff ff ff 	mov    rax,QWORD PTR [rbp-0x100]
   8fde2:	48 89 45 b0          	mov    QWORD PTR [rbp-0x50],rax
   8fde6:	48 8b 85 38 ff ff ff 	mov    rax,QWORD PTR [rbp-0xc8]
   8fded:	48 89 45 b8          	mov    QWORD PTR [rbp-0x48],rax
   8fdf1:	48 89 5d 80          	mov    QWORD PTR [rbp-0x80],rbx
   8fdf5:	48 ba bc 97 a8 2b c4 	movabs rdx,0x50263bc42ba897bc
   8fdfc:	3b 26 50 
   8fdff:	e9 ce 86 ff ff       	jmp    884d2 <Java_com_adjust_sdk_sig_NativeLibHelper_nOnResume@@Base-0x327d1>
   8fe04:	31 c0                	xor    eax,eax
   8fe06:	b1 01                	mov    cl,0x1
   8fe08:	f0 0f b0 0d 72 f1 0a 	lock cmpxchg BYTE PTR [rip+0xaf172],cl        # 13ef82 <write@plt+0xc402>
   8fe0f:	00 
   8fe10:	48 ba 6d 43 20 4f 4a 	movabs rdx,0xca70754a4f20436d
   8fe17:	75 70 ca 
   8fe1a:	48 b8 34 c7 70 73 ac 	movabs rax,0x6908b4ac7370c734
   8fe21:	b4 08 69 
   8fe24:	48 0f 44 d0          	cmove  rdx,rax
   8fe28:	48 8b 85 48 ff ff ff 	mov    rax,QWORD PTR [rbp-0xb8]
   8fe2f:	48 89 85 58 ff ff ff 	mov    QWORD PTR [rbp-0xa8],rax
   8fe36:	48 8b 85 40 ff ff ff 	mov    rax,QWORD PTR [rbp-0xc0]
   8fe3d:	48 89 85 60 ff ff ff 	mov    QWORD PTR [rbp-0xa0],rax
   8fe44:	48 8b 85 30 ff ff ff 	mov    rax,QWORD PTR [rbp-0xd0]
   8fe4b:	48 89 85 68 ff ff ff 	mov    QWORD PTR [rbp-0x98],rax
   8fe52:	44 89 75 c8          	mov    DWORD PTR [rbp-0x38],r14d
   8fe56:	8b 45 c4             	mov    eax,DWORD PTR [rbp-0x3c]
   8fe59:	89 45 cc             	mov    DWORD PTR [rbp-0x34],eax
   8fe5c:	48 8b 85 28 ff ff ff 	mov    rax,QWORD PTR [rbp-0xd8]
   8fe63:	48 89 85 70 ff ff ff 	mov    QWORD PTR [rbp-0x90],rax
   8fe6a:	48 8b 85 f0 fe ff ff 	mov    rax,QWORD PTR [rbp-0x110]
   8fe71:	48 89 85 78 ff ff ff 	mov    QWORD PTR [rbp-0x88],rax
   8fe78:	48 8b 85 50 ff ff ff 	mov    rax,QWORD PTR [rbp-0xb0]
   8fe7f:	48 89 45 80          	mov    QWORD PTR [rbp-0x80],rax
   8fe83:	48 89 5d 88          	mov    QWORD PTR [rbp-0x78],rbx
   8fe87:	4c 89 5d 90          	mov    QWORD PTR [rbp-0x70],r11
   8fe8b:	4c 89 4d 98          	mov    QWORD PTR [rbp-0x68],r9
   8fe8f:	e9 e2 21 00 00       	jmp    92076 <Java_com_adjust_sdk_sig_NativeLibHelper_nOnResume@@Base-0x28c2d>
   8fe94:	48 8b 85 48 ff ff ff 	mov    rax,QWORD PTR [rbp-0xb8]
   8fe9b:	48 89 85 58 ff ff ff 	mov    QWORD PTR [rbp-0xa8],rax
   8fea2:	48 8b 85 40 ff ff ff 	mov    rax,QWORD PTR [rbp-0xc0]
   8fea9:	48 89 85 60 ff ff ff 	mov    QWORD PTR [rbp-0xa0],rax
   8feb0:	48 8b 85 30 ff ff ff 	mov    rax,QWORD PTR [rbp-0xd0]
   8feb7:	48 89 85 68 ff ff ff 	mov    QWORD PTR [rbp-0x98],rax
   8febe:	8b 45 c0             	mov    eax,DWORD PTR [rbp-0x40]
   8fec1:	89 45 c8             	mov    DWORD PTR [rbp-0x38],eax
   8fec4:	48 8b 85 b8 fe ff ff 	mov    rax,QWORD PTR [rbp-0x148]
   8fecb:	8b 00                	mov    eax,DWORD PTR [rax]
   8fecd:	89 45 cc             	mov    DWORD PTR [rbp-0x34],eax
   8fed0:	48 8b 85 28 ff ff ff 	mov    rax,QWORD PTR [rbp-0xd8]
   8fed7:	48 89 85 70 ff ff ff 	mov    QWORD PTR [rbp-0x90],rax
   8fede:	48 89 9d 78 ff ff ff 	mov    QWORD PTR [rbp-0x88],rbx
   8fee5:	48 8b 85 50 ff ff ff 	mov    rax,QWORD PTR [rbp-0xb0]
   8feec:	48 89 45 80          	mov    QWORD PTR [rbp-0x80],rax
   8fef0:	48 8b 85 20 ff ff ff 	mov    rax,QWORD PTR [rbp-0xe0]
   8fef7:	48 89 45 88          	mov    QWORD PTR [rbp-0x78],rax
   8fefb:	48 8b 85 18 ff ff ff 	mov    rax,QWORD PTR [rbp-0xe8]
   8ff02:	48 89 45 90          	mov    QWORD PTR [rbp-0x70],rax
   8ff06:	48 8b 85 08 ff ff ff 	mov    rax,QWORD PTR [rbp-0xf8]
   8ff0d:	48 89 45 98          	mov    QWORD PTR [rbp-0x68],rax
   8ff11:	48 8b 85 10 ff ff ff 	mov    rax,QWORD PTR [rbp-0xf0]
   8ff18:	48 89 45 a0          	mov    QWORD PTR [rbp-0x60],rax
   8ff1c:	48 8b 85 f8 fe ff ff 	mov    rax,QWORD PTR [rbp-0x108]
   8ff23:	48 89 45 a8          	mov    QWORD PTR [rbp-0x58],rax
   8ff27:	4c 89 75 b0          	mov    QWORD PTR [rbp-0x50],r14
   8ff2b:	48 8b 85 38 ff ff ff 	mov    rax,QWORD PTR [rbp-0xc8]
   8ff32:	48 89 45 b8          	mov    QWORD PTR [rbp-0x48],rax
   8ff36:	48 ba 11 7d 83 2e ac 	movabs rdx,0x278790ac2e837d11
   8ff3d:	90 87 27 
   8ff40:	e9 8d 85 ff ff       	jmp    884d2 <Java_com_adjust_sdk_sig_NativeLibHelper_nOnResume@@Base-0x327d1>
   8ff45:	c6 05 34 f0 0a 00 00 	mov    BYTE PTR [rip+0xaf034],0x0        # 13ef80 <write@plt+0xc400>
   8ff4c:	48 8b 85 d8 fe ff ff 	mov    rax,QWORD PTR [rbp-0x128]
   8ff53:	48 8b 8d f8 fc ff ff 	mov    rcx,QWORD PTR [rbp-0x308]
   8ff5a:	48 89 48 30          	mov    QWORD PTR [rax+0x30],rcx
   8ff5e:	48 8d 3d 3b d3 0a 00 	lea    rdi,[rip+0xad33b]        # 13d2a0 <write@plt+0xa720>
   8ff65:	4c 8b bd d0 fe ff ff 	mov    r15,QWORD PTR [rbp-0x130]
   8ff6c:	4c 89 fe             	mov    rsi,r15
   8ff6f:	e8 8e 1a 03 00       	call   c1a02 <Java_com_adjust_sdk_sig_NativeLibHelper_nSign@@Base+0x6357>
   8ff74:	48 8b 85 48 ff ff ff 	mov    rax,QWORD PTR [rbp-0xb8]
   8ff7b:	48 89 85 58 ff ff ff 	mov    QWORD PTR [rbp-0xa8],rax
   8ff82:	48 8b 85 40 ff ff ff 	mov    rax,QWORD PTR [rbp-0xc0]
   8ff89:	48 89 85 60 ff ff ff 	mov    QWORD PTR [rbp-0xa0],rax
   8ff90:	48 8b 85 30 ff ff ff 	mov    rax,QWORD PTR [rbp-0xd0]
   8ff97:	48 89 85 68 ff ff ff 	mov    QWORD PTR [rbp-0x98],rax
   8ff9e:	8b 45 c0             	mov    eax,DWORD PTR [rbp-0x40]
   8ffa1:	89 45 c8             	mov    DWORD PTR [rbp-0x38],eax
   8ffa4:	8b 45 c4             	mov    eax,DWORD PTR [rbp-0x3c]
   8ffa7:	89 45 cc             	mov    DWORD PTR [rbp-0x34],eax
   8ffaa:	48 89 9d 70 ff ff ff 	mov    QWORD PTR [rbp-0x90],rbx
   8ffb1:	48 8b 85 50 ff ff ff 	mov    rax,QWORD PTR [rbp-0xb0]
   8ffb8:	48 89 45 80          	mov    QWORD PTR [rbp-0x80],rax
   8ffbc:	48 8b 85 20 ff ff ff 	mov    rax,QWORD PTR [rbp-0xe0]
   8ffc3:	48 89 45 88          	mov    QWORD PTR [rbp-0x78],rax
   8ffc7:	48 8b 85 18 ff ff ff 	mov    rax,QWORD PTR [rbp-0xe8]
   8ffce:	48 89 45 90          	mov    QWORD PTR [rbp-0x70],rax
   8ffd2:	48 8b 85 08 ff ff ff 	mov    rax,QWORD PTR [rbp-0xf8]
   8ffd9:	48 89 45 98          	mov    QWORD PTR [rbp-0x68],rax
   8ffdd:	48 8b 85 10 ff ff ff 	mov    rax,QWORD PTR [rbp-0xf0]
   8ffe4:	48 89 45 a0          	mov    QWORD PTR [rbp-0x60],rax
   8ffe8:	4c 89 75 a8          	mov    QWORD PTR [rbp-0x58],r14
   8ffec:	48 8b 85 00 ff ff ff 	mov    rax,QWORD PTR [rbp-0x100]
   8fff3:	48 89 45 b0          	mov    QWORD PTR [rbp-0x50],rax
   8fff7:	48 8b 85 38 ff ff ff 	mov    rax,QWORD PTR [rbp-0xc8]
   8fffe:	48 89 45 b8          	mov    QWORD PTR [rbp-0x48],rax
   90002:	4c 89 bd 78 ff ff ff 	mov    QWORD PTR [rbp-0x88],r15
   90009:	48 ba 09 57 3d 3b c0 	movabs rdx,0xd21af8c03b3d5709
   90010:	f8 1a d2 
   90013:	e9 ba 84 ff ff       	jmp    884d2 <Java_com_adjust_sdk_sig_NativeLibHelper_nOnResume@@Base-0x327d1>
   90018:	31 c0                	xor    eax,eax
   9001a:	b1 01                	mov    cl,0x1
   9001c:	f0 0f b0 0d 8c ed 0a 	lock cmpxchg BYTE PTR [rip+0xaed8c],cl        # 13edb0 <write@plt+0xc230>
   90023:	00 
   90024:	48 ba 16 1e c8 d4 e9 	movabs rdx,0x1d618fe9d4c81e16
   9002b:	8f 61 1d 
   9002e:	48 b8 18 22 4d 94 68 	movabs rax,0xdeb8b868944d2218
   90035:	b8 b8 de 
   90038:	48 0f 44 d0          	cmove  rdx,rax
   9003c:	48 8b 85 48 ff ff ff 	mov    rax,QWORD PTR [rbp-0xb8]
   90043:	48 89 85 58 ff ff ff 	mov    QWORD PTR [rbp-0xa8],rax
   9004a:	48 8b 85 40 ff ff ff 	mov    rax,QWORD PTR [rbp-0xc0]
   90051:	48 89 85 60 ff ff ff 	mov    QWORD PTR [rbp-0xa0],rax
   90058:	4c 89 b5 68 ff ff ff 	mov    QWORD PTR [rbp-0x98],r14
   9005f:	44 89 55 c8          	mov    DWORD PTR [rbp-0x38],r10d
   90063:	8b 45 c4             	mov    eax,DWORD PTR [rbp-0x3c]
   90066:	89 45 cc             	mov    DWORD PTR [rbp-0x34],eax
   90069:	48 8b 85 28 ff ff ff 	mov    rax,QWORD PTR [rbp-0xd8]
   90070:	48 89 85 70 ff ff ff 	mov    QWORD PTR [rbp-0x90],rax
   90077:	48 8b 85 f0 fe ff ff 	mov    rax,QWORD PTR [rbp-0x110]
   9007e:	48 89 85 78 ff ff ff 	mov    QWORD PTR [rbp-0x88],rax
   90085:	48 8b 85 50 ff ff ff 	mov    rax,QWORD PTR [rbp-0xb0]
   9008c:	48 89 45 80          	mov    QWORD PTR [rbp-0x80],rax
   90090:	48 89 5d 88          	mov    QWORD PTR [rbp-0x78],rbx
   90094:	4c 89 5d 90          	mov    QWORD PTR [rbp-0x70],r11
   90098:	48 89 7d 98          	mov    QWORD PTR [rbp-0x68],rdi
   9009c:	48 89 75 a0          	mov    QWORD PTR [rbp-0x60],rsi
   900a0:	4c 89 4d a8          	mov    QWORD PTR [rbp-0x58],r9
   900a4:	e9 3a 2d 00 00       	jmp    92de3 <Java_com_adjust_sdk_sig_NativeLibHelper_nOnResume@@Base-0x27ec0>
   900a9:	48 8b 85 90 fe ff ff 	mov    rax,QWORD PTR [rbp-0x170]
   900b0:	48 8b 30             	mov    rsi,QWORD PTR [rax]
   900b3:	48 8b bd e0 fe ff ff 	mov    rdi,QWORD PTR [rbp-0x120]
   900ba:	48 8b 95 a8 fa ff ff 	mov    rdx,QWORD PTR [rbp-0x558]
   900c1:	e8 bb 7f 00 00       	call   98081 <Java_com_adjust_sdk_sig_NativeLibHelper_nOnResume@@Base-0x22c22>
   900c6:	48 8b 85 48 ff ff ff 	mov    rax,QWORD PTR [rbp-0xb8]
   900cd:	48 89 85 58 ff ff ff 	mov    QWORD PTR [rbp-0xa8],rax
   900d4:	48 8b 85 40 ff ff ff 	mov    rax,QWORD PTR [rbp-0xc0]
   900db:	48 89 85 60 ff ff ff 	mov    QWORD PTR [rbp-0xa0],rax
   900e2:	48 8b 85 30 ff ff ff 	mov    rax,QWORD PTR [rbp-0xd0]
   900e9:	48 89 85 68 ff ff ff 	mov    QWORD PTR [rbp-0x98],rax
   900f0:	8b 45 c0             	mov    eax,DWORD PTR [rbp-0x40]
   900f3:	89 45 c8             	mov    DWORD PTR [rbp-0x38],eax
   900f6:	8b 45 c4             	mov    eax,DWORD PTR [rbp-0x3c]
   900f9:	89 45 cc             	mov    DWORD PTR [rbp-0x34],eax
   900fc:	48 8b 85 28 ff ff ff 	mov    rax,QWORD PTR [rbp-0xd8]
   90103:	48 89 85 70 ff ff ff 	mov    QWORD PTR [rbp-0x90],rax
   9010a:	48 89 9d 78 ff ff ff 	mov    QWORD PTR [rbp-0x88],rbx
   90111:	48 8b 85 50 ff ff ff 	mov    rax,QWORD PTR [rbp-0xb0]
   90118:	48 89 45 80          	mov    QWORD PTR [rbp-0x80],rax
   9011c:	48 8b 85 20 ff ff ff 	mov    rax,QWORD PTR [rbp-0xe0]
   90123:	48 89 45 88          	mov    QWORD PTR [rbp-0x78],rax
   90127:	48 8b 85 18 ff ff ff 	mov    rax,QWORD PTR [rbp-0xe8]
   9012e:	48 89 45 90          	mov    QWORD PTR [rbp-0x70],rax
   90132:	48 8b 85 08 ff ff ff 	mov    rax,QWORD PTR [rbp-0xf8]
   90139:	48 89 45 98          	mov    QWORD PTR [rbp-0x68],rax
   9013d:	48 8b 85 10 ff ff ff 	mov    rax,QWORD PTR [rbp-0xf0]
   90144:	48 89 45 a0          	mov    QWORD PTR [rbp-0x60],rax
   90148:	48 8b 85 f8 fe ff ff 	mov    rax,QWORD PTR [rbp-0x108]
   9014f:	48 89 45 a8          	mov    QWORD PTR [rbp-0x58],rax
   90153:	4c 89 75 b0          	mov    QWORD PTR [rbp-0x50],r14
   90157:	48 8b 85 38 ff ff ff 	mov    rax,QWORD PTR [rbp-0xc8]
   9015e:	48 89 45 b8          	mov    QWORD PTR [rbp-0x48],rax
   90162:	48 ba d1 8c 6d 83 45 	movabs rdx,0x1f21c945836d8cd1
   90169:	c9 21 1f 
   9016c:	e9 61 83 ff ff       	jmp    884d2 <Java_com_adjust_sdk_sig_NativeLibHelper_nOnResume@@Base-0x327d1>
   90171:	31 c0                	xor    eax,eax
   90173:	b1 01                	mov    cl,0x1
   90175:	f0 0f b0 0d 75 ec 0a 	lock cmpxchg BYTE PTR [rip+0xaec75],cl        # 13edf2 <write@plt+0xc272>
   9017c:	00 
   9017d:	48 ba 16 36 07 f5 f2 	movabs rdx,0xccfa44f2f5073616
   90184:	44 fa cc 
   90187:	48 b8 a9 b0 9a d0 5c 	movabs rax,0xb7e9285cd09ab0a9
   9018e:	28 e9 b7 
   90191:	e9 17 3d 00 00       	jmp    93ead <Java_com_adjust_sdk_sig_NativeLibHelper_nOnResume@@Base-0x26df6>
   90196:	48 8b 95 48 fa ff ff 	mov    rdx,QWORD PTR [rbp-0x5b8]
   9019d:	4c 8b 95 c8 fc ff ff 	mov    r10,QWORD PTR [rbp-0x338]
   901a4:	41 c6 04 12 00       	mov    BYTE PTR [r10+rdx*1],0x0
   901a9:	48 8b 85 48 ff ff ff 	mov    rax,QWORD PTR [rbp-0xb8]
   901b0:	48 89 85 58 ff ff ff 	mov    QWORD PTR [rbp-0xa8],rax
   901b7:	48 8b 85 40 ff ff ff 	mov    rax,QWORD PTR [rbp-0xc0]
   901be:	48 89 85 60 ff ff ff 	mov    QWORD PTR [rbp-0xa0],rax
   901c5:	48 8b 85 30 ff ff ff 	mov    rax,QWORD PTR [rbp-0xd0]
   901cc:	48 89 85 68 ff ff ff 	mov    QWORD PTR [rbp-0x98],rax
   901d3:	8b 45 c0             	mov    eax,DWORD PTR [rbp-0x40]
   901d6:	89 45 c8             	mov    DWORD PTR [rbp-0x38],eax
   901d9:	8b 45 c4             	mov    eax,DWORD PTR [rbp-0x3c]
   901dc:	89 45 cc             	mov    DWORD PTR [rbp-0x34],eax
   901df:	48 8b 85 28 ff ff ff 	mov    rax,QWORD PTR [rbp-0xd8]
   901e6:	48 89 85 70 ff ff ff 	mov    QWORD PTR [rbp-0x90],rax
   901ed:	48 89 9d 78 ff ff ff 	mov    QWORD PTR [rbp-0x88],rbx
   901f4:	48 8b 85 50 ff ff ff 	mov    rax,QWORD PTR [rbp-0xb0]
   901fb:	48 89 45 80          	mov    QWORD PTR [rbp-0x80],rax
   901ff:	48 8b 85 20 ff ff ff 	mov    rax,QWORD PTR [rbp-0xe0]
   90206:	48 89 45 88          	mov    QWORD PTR [rbp-0x78],rax
   9020a:	48 8b 85 18 ff ff ff 	mov    rax,QWORD PTR [rbp-0xe8]
   90211:	48 89 45 90          	mov    QWORD PTR [rbp-0x70],rax
   90215:	48 8b 85 08 ff ff ff 	mov    rax,QWORD PTR [rbp-0xf8]
   9021c:	48 89 45 98          	mov    QWORD PTR [rbp-0x68],rax
   90220:	48 8b 85 10 ff ff ff 	mov    rax,QWORD PTR [rbp-0xf0]
   90227:	48 89 45 a0          	mov    QWORD PTR [rbp-0x60],rax
   9022b:	48 8b 85 f8 fe ff ff 	mov    rax,QWORD PTR [rbp-0x108]
   90232:	48 89 45 a8          	mov    QWORD PTR [rbp-0x58],rax
   90236:	4c 89 75 b0          	mov    QWORD PTR [rbp-0x50],r14
   9023a:	48 8b 85 38 ff ff ff 	mov    rax,QWORD PTR [rbp-0xc8]
   90241:	48 89 45 b8          	mov    QWORD PTR [rbp-0x48],rax
   90245:	4c 8b 9d d0 fe ff ff 	mov    r11,QWORD PTR [rbp-0x130]
   9024c:	4c 89 9d 10 fe ff ff 	mov    QWORD PTR [rbp-0x1f0],r11
   90253:	4c 89 95 20 fe ff ff 	mov    QWORD PTR [rbp-0x1e0],r10
   9025a:	e9 1b 29 00 00       	jmp    92b7a <Java_com_adjust_sdk_sig_NativeLibHelper_nOnResume@@Base-0x28129>
   9025f:	31 c0                	xor    eax,eax
   90261:	b1 01                	mov    cl,0x1
   90263:	f0 0f b0 0d 2d eb 0a 	lock cmpxchg BYTE PTR [rip+0xaeb2d],cl        # 13ed98 <write@plt+0xc218>
   9026a:	00 
   9026b:	48 ba 5a b6 7b 01 9c 	movabs rdx,0x9843fc9c017bb65a
   90272:	fc 43 98 
   90275:	48 b8 8b 5f bd 79 17 	movabs rax,0x7241771779bd5f8b
   9027c:	77 41 72 
   9027f:	48 0f 44 d0          	cmove  rdx,rax
   90283:	e9 ec 2a 00 00       	jmp    92d74 <Java_com_adjust_sdk_sig_NativeLibHelper_nOnResume@@Base-0x27f2f>
   90288:	80 3d 64 eb 0a 00 00 	cmp    BYTE PTR [rip+0xaeb64],0x0        # 13edf3 <write@plt+0xc273>
   9028f:	48 ba e5 e4 19 96 4e 	movabs rdx,0xed11664e9619e4e5
   90296:	66 11 ed 
   90299:	48 b8 05 fb c8 5e 3c 	movabs rax,0x2ddb9c3c5ec8fb05
   902a0:	9c db 2d 
   902a3:	e9 07 16 00 00       	jmp    918af <Java_com_adjust_sdk_sig_NativeLibHelper_nOnResume@@Base-0x293f4>
   902a8:	48 8b 85 e8 fa ff ff 	mov    rax,QWORD PTR [rbp-0x518]
   902af:	48 2b 85 c8 fe ff ff 	sub    rax,QWORD PTR [rbp-0x138]
   902b6:	48 89 85 68 fa ff ff 	mov    QWORD PTR [rbp-0x598],rax
   902bd:	48 8d 78 01          	lea    rdi,[rax+0x1]
   902c1:	49 89 d4             	mov    r12,rdx
   902c4:	4d 89 df             	mov    r15,r11
   902c7:	e8 84 25 0a 00       	call   132850 <malloc@plt>
   902cc:	48 89 85 e8 fc ff ff 	mov    QWORD PTR [rbp-0x318],rax
   902d3:	48 85 c0             	test   rax,rax
   902d6:	48 ba 54 79 8b 67 1a 	movabs rdx,0xbeb2b81a678b7954
   902dd:	b8 b2 be 
   902e0:	48 b8 da 68 af e2 26 	movabs rax,0x4f885826e2af68da
   902e7:	58 88 4f 
   902ea:	e9 7c 34 00 00       	jmp    9376b <Java_com_adjust_sdk_sig_NativeLibHelper_nOnResume@@Base-0x27538>
   902ef:	48 8b bd e0 fe ff ff 	mov    rdi,QWORD PTR [rbp-0x120]
   902f6:	48 8b 07             	mov    rax,QWORD PTR [rdi]
   902f9:	48 8b b5 d0 fa ff ff 	mov    rsi,QWORD PTR [rbp-0x530]
   90300:	4d 89 cf             	mov    r15,r9
   90303:	ff 90 b8 00 00 00    	call   QWORD PTR [rax+0xb8]
   90309:	48 8b 85 48 ff ff ff 	mov    rax,QWORD PTR [rbp-0xb8]
   90310:	48 89 85 58 ff ff ff 	mov    QWORD PTR [rbp-0xa8],rax
   90317:	48 8b 85 40 ff ff ff 	mov    rax,QWORD PTR [rbp-0xc0]
   9031e:	48 89 85 60 ff ff ff 	mov    QWORD PTR [rbp-0xa0],rax
   90325:	48 8b 85 30 ff ff ff 	mov    rax,QWORD PTR [rbp-0xd0]
   9032c:	48 89 85 68 ff ff ff 	mov    QWORD PTR [rbp-0x98],rax
   90333:	8b 45 c0             	mov    eax,DWORD PTR [rbp-0x40]
   90336:	89 45 c8             	mov    DWORD PTR [rbp-0x38],eax
   90339:	8b 45 c4             	mov    eax,DWORD PTR [rbp-0x3c]
   9033c:	89 45 cc             	mov    DWORD PTR [rbp-0x34],eax
   9033f:	48 8b 85 28 ff ff ff 	mov    rax,QWORD PTR [rbp-0xd8]
   90346:	48 89 85 70 ff ff ff 	mov    QWORD PTR [rbp-0x90],rax
   9034d:	48 89 9d 78 ff ff ff 	mov    QWORD PTR [rbp-0x88],rbx
   90354:	48 8b 85 50 ff ff ff 	mov    rax,QWORD PTR [rbp-0xb0]
   9035b:	48 89 45 80          	mov    QWORD PTR [rbp-0x80],rax
   9035f:	48 8b 85 20 ff ff ff 	mov    rax,QWORD PTR [rbp-0xe0]
   90366:	48 89 45 88          	mov    QWORD PTR [rbp-0x78],rax
   9036a:	48 8b 85 18 ff ff ff 	mov    rax,QWORD PTR [rbp-0xe8]
   90371:	48 89 45 90          	mov    QWORD PTR [rbp-0x70],rax
   90375:	48 8b 85 08 ff ff ff 	mov    rax,QWORD PTR [rbp-0xf8]
   9037c:	48 89 45 98          	mov    QWORD PTR [rbp-0x68],rax
   90380:	48 8b 85 10 ff ff ff 	mov    rax,QWORD PTR [rbp-0xf0]
   90387:	48 89 45 a0          	mov    QWORD PTR [rbp-0x60],rax
   9038b:	4c 89 75 a8          	mov    QWORD PTR [rbp-0x58],r14
   9038f:	48 8b 85 00 ff ff ff 	mov    rax,QWORD PTR [rbp-0x100]
   90396:	48 89 45 b0          	mov    QWORD PTR [rbp-0x50],rax
   9039a:	4c 89 7d b8          	mov    QWORD PTR [rbp-0x48],r15
   9039e:	48 ba 8a 92 95 59 a2 	movabs rdx,0x6f0c04a25995928a
   903a5:	04 0c 6f 
   903a8:	e9 25 81 ff ff       	jmp    884d2 <Java_com_adjust_sdk_sig_NativeLibHelper_nOnResume@@Base-0x327d1>
   903ad:	48 8b 95 78 fa ff ff 	mov    rdx,QWORD PTR [rbp-0x588]
   903b4:	4c 8b 95 00 fd ff ff 	mov    r10,QWORD PTR [rbp-0x300]
   903bb:	41 c6 04 12 00       	mov    BYTE PTR [r10+rdx*1],0x0
   903c0:	4c 8b bd 48 ff ff ff 	mov    r15,QWORD PTR [rbp-0xb8]
   903c7:	4c 89 bd 58 ff ff ff 	mov    QWORD PTR [rbp-0xa8],r15
   903ce:	4c 8b bd 40 ff ff ff 	mov    r15,QWORD PTR [rbp-0xc0]
   903d5:	4c 89 bd 60 ff ff ff 	mov    QWORD PTR [rbp-0xa0],r15
   903dc:	4c 8b bd 30 ff ff ff 	mov    r15,QWORD PTR [rbp-0xd0]
   903e3:	4c 89 bd 68 ff ff ff 	mov    QWORD PTR [rbp-0x98],r15
   903ea:	44 89 75 c8          	mov    DWORD PTR [rbp-0x38],r14d
   903ee:	89 5d cc             	mov    DWORD PTR [rbp-0x34],ebx
   903f1:	4c 89 9d 70 ff ff ff 	mov    QWORD PTR [rbp-0x90],r11
   903f8:	4c 89 8d 78 ff ff ff 	mov    QWORD PTR [rbp-0x88],r9
   903ff:	4c 8b 8d 50 ff ff ff 	mov    r9,QWORD PTR [rbp-0xb0]
   90406:	4c 89 4d 80          	mov    QWORD PTR [rbp-0x80],r9
   9040a:	4c 89 45 88          	mov    QWORD PTR [rbp-0x78],r8
   9040e:	48 89 7d 90          	mov    QWORD PTR [rbp-0x70],rdi
   90412:	48 89 4d 98          	mov    QWORD PTR [rbp-0x68],rcx
   90416:	48 89 75 a0          	mov    QWORD PTR [rbp-0x60],rsi
   9041a:	48 89 45 a8          	mov    QWORD PTR [rbp-0x58],rax
   9041e:	48 8b 85 00 ff ff ff 	mov    rax,QWORD PTR [rbp-0x100]
   90425:	48 89 45 b0          	mov    QWORD PTR [rbp-0x50],rax
   90429:	48 8b 85 38 ff ff ff 	mov    rax,QWORD PTR [rbp-0xc8]
   90430:	48 89 45 b8          	mov    QWORD PTR [rbp-0x48],rax
   90434:	4c 8b 9d d0 fe ff ff 	mov    r11,QWORD PTR [rbp-0x130]
   9043b:	4c 89 9d 70 fd ff ff 	mov    QWORD PTR [rbp-0x290],r11
   90442:	4c 89 95 78 fd ff ff 	mov    QWORD PTR [rbp-0x288],r10
   90449:	e9 f0 1f 00 00       	jmp    9243e <Java_com_adjust_sdk_sig_NativeLibHelper_nOnResume@@Base-0x28865>
   9044e:	0f 28 05 3b bd 0a 00 	movaps xmm0,XMMWORD PTR [rip+0xabd3b]        # 13c190 <write@plt+0x9610>
   90455:	0f 57 05 d4 31 f7 ff 	xorps  xmm0,XMMWORD PTR [rip+0xfffffffffff731d4]        # 3630 <Java_com_adjust_sdk_sig_NativeLibHelper_nOnResume@@Base-0xb7673>
   9045c:	0f 29 05 2d bd 0a 00 	movaps XMMWORD PTR [rip+0xabd2d],xmm0        # 13c190 <write@plt+0x9610>
   90463:	0f 28 05 36 bd 0a 00 	movaps xmm0,XMMWORD PTR [rip+0xabd36]        # 13c1a0 <write@plt+0x9620>
   9046a:	0f 57 05 0f 2d f7 ff 	xorps  xmm0,XMMWORD PTR [rip+0xfffffffffff72d0f]        # 3180 <Java_com_adjust_sdk_sig_NativeLibHelper_nOnResume@@Base-0xb7b23>
   90471:	f3 0f 11 05 27 bd 0a 	movss  DWORD PTR [rip+0xabd27],xmm0        # 13c1a0 <write@plt+0x9620>
   90478:	00 
   90479:	80 35 24 bd 0a 00 fc 	xor    BYTE PTR [rip+0xabd24],0xfc        # 13c1a4 <write@plt+0x9624>
   90480:	c6 05 4a e9 0a 00 01 	mov    BYTE PTR [rip+0xae94a],0x1        # 13edd1 <write@plt+0xc251>
   90487:	48 8b 85 48 ff ff ff 	mov    rax,QWORD PTR [rbp-0xb8]
   9048e:	48 89 85 58 ff ff ff 	mov    QWORD PTR [rbp-0xa8],rax
   90495:	48 8b 85 40 ff ff ff 	mov    rax,QWORD PTR [rbp-0xc0]
   9049c:	48 89 85 60 ff ff ff 	mov    QWORD PTR [rbp-0xa0],rax
   904a3:	48 8b 85 30 ff ff ff 	mov    rax,QWORD PTR [rbp-0xd0]
   904aa:	48 89 85 68 ff ff ff 	mov    QWORD PTR [rbp-0x98],rax
   904b1:	8b 45 c0             	mov    eax,DWORD PTR [rbp-0x40]
   904b4:	89 45 c8             	mov    DWORD PTR [rbp-0x38],eax
   904b7:	8b 45 c4             	mov    eax,DWORD PTR [rbp-0x3c]
   904ba:	89 45 cc             	mov    DWORD PTR [rbp-0x34],eax
   904bd:	48 8b 85 28 ff ff ff 	mov    rax,QWORD PTR [rbp-0xd8]
   904c4:	48 89 85 70 ff ff ff 	mov    QWORD PTR [rbp-0x90],rax
   904cb:	48 89 9d 78 ff ff ff 	mov    QWORD PTR [rbp-0x88],rbx
   904d2:	48 8b 85 50 ff ff ff 	mov    rax,QWORD PTR [rbp-0xb0]
   904d9:	48 89 45 80          	mov    QWORD PTR [rbp-0x80],rax
   904dd:	48 8b 85 20 ff ff ff 	mov    rax,QWORD PTR [rbp-0xe0]
   904e4:	48 89 45 88          	mov    QWORD PTR [rbp-0x78],rax
   904e8:	48 8b 85 18 ff ff ff 	mov    rax,QWORD PTR [rbp-0xe8]
   904ef:	48 89 45 90          	mov    QWORD PTR [rbp-0x70],rax
   904f3:	48 8b 85 08 ff ff ff 	mov    rax,QWORD PTR [rbp-0xf8]
   904fa:	48 89 45 98          	mov    QWORD PTR [rbp-0x68],rax
   904fe:	48 8b 85 10 ff ff ff 	mov    rax,QWORD PTR [rbp-0xf0]
   90505:	48 89 45 a0          	mov    QWORD PTR [rbp-0x60],rax
   90509:	48 8b 85 f8 fe ff ff 	mov    rax,QWORD PTR [rbp-0x108]
   90510:	48 89 45 a8          	mov    QWORD PTR [rbp-0x58],rax
   90514:	4c 89 75 b0          	mov    QWORD PTR [rbp-0x50],r14
   90518:	48 8b 85 38 ff ff ff 	mov    rax,QWORD PTR [rbp-0xc8]
   9051f:	48 89 45 b8          	mov    QWORD PTR [rbp-0x48],rax
   90523:	48 ba 8f f8 ef d0 f1 	movabs rdx,0x754eb2f1d0eff88f
   9052a:	b2 4e 75 
   9052d:	e9 a0 7f ff ff       	jmp    884d2 <Java_com_adjust_sdk_sig_NativeLibHelper_nOnResume@@Base-0x327d1>
   90532:	48 8b 8d 30 ff ff ff 	mov    rcx,QWORD PTR [rbp-0xd0]
   90539:	80 39 00             	cmp    BYTE PTR [rcx],0x0
   9053c:	48 ba 70 2b 97 0d f7 	movabs rdx,0x182d22f70d972b70
   90543:	22 2d 18 
   90546:	48 b8 d9 57 cf 59 9a 	movabs rax,0x4c6e949a59cf57d9
   9054d:	94 6e 4c 
   90550:	48 0f 44 d0          	cmove  rdx,rax
   90554:	48 8b 85 48 ff ff ff 	mov    rax,QWORD PTR [rbp-0xb8]
   9055b:	48 89 85 58 ff ff ff 	mov    QWORD PTR [rbp-0xa8],rax
   90562:	48 8b 85 40 ff ff ff 	mov    rax,QWORD PTR [rbp-0xc0]
   90569:	48 89 85 60 ff ff ff 	mov    QWORD PTR [rbp-0xa0],rax
   90570:	8b 45 c0             	mov    eax,DWORD PTR [rbp-0x40]
   90573:	89 45 c8             	mov    DWORD PTR [rbp-0x38],eax
   90576:	8b 45 c4             	mov    eax,DWORD PTR [rbp-0x3c]
   90579:	89 45 cc             	mov    DWORD PTR [rbp-0x34],eax
   9057c:	48 8b 85 28 ff ff ff 	mov    rax,QWORD PTR [rbp-0xd8]
   90583:	48 89 85 70 ff ff ff 	mov    QWORD PTR [rbp-0x90],rax
   9058a:	48 8b 85 f0 fe ff ff 	mov    rax,QWORD PTR [rbp-0x110]
   90591:	48 89 85 78 ff ff ff 	mov    QWORD PTR [rbp-0x88],rax
   90598:	48 8b 85 50 ff ff ff 	mov    rax,QWORD PTR [rbp-0xb0]
   9059f:	48 89 45 80          	mov    QWORD PTR [rbp-0x80],rax
   905a3:	48 8b 85 20 ff ff ff 	mov    rax,QWORD PTR [rbp-0xe0]
   905aa:	48 89 45 88          	mov    QWORD PTR [rbp-0x78],rax
   905ae:	48 8b 85 18 ff ff ff 	mov    rax,QWORD PTR [rbp-0xe8]
   905b5:	48 89 45 90          	mov    QWORD PTR [rbp-0x70],rax
   905b9:	48 8b 85 08 ff ff ff 	mov    rax,QWORD PTR [rbp-0xf8]
   905c0:	48 89 45 98          	mov    QWORD PTR [rbp-0x68],rax
   905c4:	48 8b 85 10 ff ff ff 	mov    rax,QWORD PTR [rbp-0xf0]
   905cb:	48 89 45 a0          	mov    QWORD PTR [rbp-0x60],rax
   905cf:	48 8b 85 f8 fe ff ff 	mov    rax,QWORD PTR [rbp-0x108]
   905d6:	48 89 45 a8          	mov    QWORD PTR [rbp-0x58],rax
   905da:	48 8b 85 00 ff ff ff 	mov    rax,QWORD PTR [rbp-0x100]
   905e1:	48 89 45 b0          	mov    QWORD PTR [rbp-0x50],rax
   905e5:	4c 8d 49 01          	lea    r9,[rcx+0x1]
   905e9:	4c 89 8d 10 fa ff ff 	mov    QWORD PTR [rbp-0x5f0],r9
   905f0:	48 89 8d 68 ff ff ff 	mov    QWORD PTR [rbp-0x98],rcx
   905f7:	48 89 8d c0 fb ff ff 	mov    QWORD PTR [rbp-0x440],rcx
   905fe:	e9 4d 39 00 00       	jmp    93f50 <Java_com_adjust_sdk_sig_NativeLibHelper_nOnResume@@Base-0x26d53>
   90603:	4c 8b 95 d0 fd ff ff 	mov    r10,QWORD PTR [rbp-0x230]
   9060a:	4d 85 d2             	test   r10,r10
   9060d:	48 89 d7             	mov    rdi,rdx
   90610:	48 ba 19 ff ea 98 0a 	movabs rdx,0x58820c0a98eaff19
   90617:	0c 82 58 
   9061a:	48 b8 b2 8f 11 2a 91 	movabs rax,0x7a52f912a118fb2
   90621:	2f a5 07 
   90624:	48 0f 44 d0          	cmove  rdx,rax
   90628:	48 8b 85 48 ff ff ff 	mov    rax,QWORD PTR [rbp-0xb8]
   9062f:	48 89 85 58 ff ff ff 	mov    QWORD PTR [rbp-0xa8],rax
   90636:	48 8b 85 40 ff ff ff 	mov    rax,QWORD PTR [rbp-0xc0]
   9063d:	48 89 85 60 ff ff ff 	mov    QWORD PTR [rbp-0xa0],rax
   90644:	48 8b 85 30 ff ff ff 	mov    rax,QWORD PTR [rbp-0xd0]
   9064b:	48 89 85 68 ff ff ff 	mov    QWORD PTR [rbp-0x98],rax
   90652:	44 89 75 c8          	mov    DWORD PTR [rbp-0x38],r14d
   90656:	8b 45 c4             	mov    eax,DWORD PTR [rbp-0x3c]
   90659:	89 45 cc             	mov    DWORD PTR [rbp-0x34],eax
   9065c:	48 8b 85 28 ff ff ff 	mov    rax,QWORD PTR [rbp-0xd8]
   90663:	48 89 85 70 ff ff ff 	mov    QWORD PTR [rbp-0x90],rax
   9066a:	48 8b 85 f0 fe ff ff 	mov    rax,QWORD PTR [rbp-0x110]
   90671:	48 89 85 78 ff ff ff 	mov    QWORD PTR [rbp-0x88],rax
   90678:	48 8b 85 50 ff ff ff 	mov    rax,QWORD PTR [rbp-0xb0]
   9067f:	48 89 45 80          	mov    QWORD PTR [rbp-0x80],rax
   90683:	48 89 5d 88          	mov    QWORD PTR [rbp-0x78],rbx
   90687:	48 89 4d 90          	mov    QWORD PTR [rbp-0x70],rcx
   9068b:	48 89 75 98          	mov    QWORD PTR [rbp-0x68],rsi
   9068f:	4c 89 5d a0          	mov    QWORD PTR [rbp-0x60],r11
   90693:	4c 89 4d a8          	mov    QWORD PTR [rbp-0x58],r9
   90697:	48 89 7d b0          	mov    QWORD PTR [rbp-0x50],rdi
   9069b:	48 8b 85 38 ff ff ff 	mov    rax,QWORD PTR [rbp-0xc8]
   906a2:	48 89 45 b8          	mov    QWORD PTR [rbp-0x48],rax
   906a6:	4c 89 95 88 fb ff ff 	mov    QWORD PTR [rbp-0x478],r10
   906ad:	4c 8b 95 c0 fd ff ff 	mov    r10,QWORD PTR [rbp-0x240]
   906b4:	4c 89 95 90 fb ff ff 	mov    QWORD PTR [rbp-0x470],r10
   906bb:	4c 8b 95 b8 fd ff ff 	mov    r10,QWORD PTR [rbp-0x248]
   906c2:	4c 89 95 98 fb ff ff 	mov    QWORD PTR [rbp-0x468],r10
   906c9:	e9 04 7e ff ff       	jmp    884d2 <Java_com_adjust_sdk_sig_NativeLibHelper_nOnResume@@Base-0x327d1>
   906ce:	31 c0                	xor    eax,eax
   906d0:	b1 01                	mov    cl,0x1
   906d2:	f0 0f b0 0d ae e8 0a 	lock cmpxchg BYTE PTR [rip+0xae8ae],cl        # 13ef88 <write@plt+0xc408>
   906d9:	00 
   906da:	48 ba c1 33 21 eb 7f 	movabs rdx,0x520fa37feb2133c1
   906e1:	a3 0f 52 
   906e4:	48 b8 01 7b 13 9c e8 	movabs rax,0xbdfd6e89c137b01
   906eb:	d6 df 0b 
   906ee:	e9 ba 37 00 00       	jmp    93ead <Java_com_adjust_sdk_sig_NativeLibHelper_nOnResume@@Base-0x26df6>
   906f3:	0f 28 05 f6 b9 0a 00 	movaps xmm0,XMMWORD PTR [rip+0xab9f6]        # 13c0f0 <write@plt+0x9570>
   906fa:	0f 57 05 cf 38 f7 ff 	xorps  xmm0,XMMWORD PTR [rip+0xfffffffffff738cf]        # 3fd0 <Java_com_adjust_sdk_sig_NativeLibHelper_nOnResume@@Base-0xb6cd3>
   90701:	0f 29 05 e8 b9 0a 00 	movaps XMMWORD PTR [rip+0xab9e8],xmm0        # 13c0f0 <write@plt+0x9570>
   90708:	80 35 f1 b9 0a 00 39 	xor    BYTE PTR [rip+0xab9f1],0x39        # 13c100 <write@plt+0x9580>
   9070f:	80 35 eb b9 0a 00 39 	xor    BYTE PTR [rip+0xab9eb],0x39        # 13c101 <write@plt+0x9581>
   90716:	c6 05 a2 e6 0a 00 01 	mov    BYTE PTR [rip+0xae6a2],0x1        # 13edbf <write@plt+0xc23f>
   9071d:	4c 8b bd 48 ff ff ff 	mov    r15,QWORD PTR [rbp-0xb8]
   90724:	4c 89 bd 58 ff ff ff 	mov    QWORD PTR [rbp-0xa8],r15
   9072b:	4c 8b bd 40 ff ff ff 	mov    r15,QWORD PTR [rbp-0xc0]
   90732:	4c 89 bd 60 ff ff ff 	mov    QWORD PTR [rbp-0xa0],r15
   90739:	4c 89 b5 68 ff ff ff 	mov    QWORD PTR [rbp-0x98],r14
   90740:	44 89 55 c8          	mov    DWORD PTR [rbp-0x38],r10d
   90744:	89 5d cc             	mov    DWORD PTR [rbp-0x34],ebx
   90747:	4c 89 9d 70 ff ff ff 	mov    QWORD PTR [rbp-0x90],r11
   9074e:	4c 89 8d 78 ff ff ff 	mov    QWORD PTR [rbp-0x88],r9
   90755:	4c 8b 8d 50 ff ff ff 	mov    r9,QWORD PTR [rbp-0xb0]
   9075c:	4c 89 4d 80          	mov    QWORD PTR [rbp-0x80],r9
   90760:	4c 89 45 88          	mov    QWORD PTR [rbp-0x78],r8
   90764:	48 89 7d 90          	mov    QWORD PTR [rbp-0x70],rdi
   90768:	48 89 4d 98          	mov    QWORD PTR [rbp-0x68],rcx
   9076c:	48 89 75 a0          	mov    QWORD PTR [rbp-0x60],rsi
   90770:	48 89 55 a8          	mov    QWORD PTR [rbp-0x58],rdx
   90774:	48 89 45 b0          	mov    QWORD PTR [rbp-0x50],rax
   90778:	48 8b 85 38 ff ff ff 	mov    rax,QWORD PTR [rbp-0xc8]
   9077f:	48 89 45 b8          	mov    QWORD PTR [rbp-0x48],rax
   90783:	48 ba 79 80 6f ca bb 	movabs rdx,0x31e27cbbca6f8079
   9078a:	7c e2 31 
   9078d:	e9 40 7d ff ff       	jmp    884d2 <Java_com_adjust_sdk_sig_NativeLibHelper_nOnResume@@Base-0x327d1>
   90792:	48 8b 85 d8 fe ff ff 	mov    rax,QWORD PTR [rbp-0x128]
   90799:	48 83 60 48 00       	and    QWORD PTR [rax+0x48],0x0
   9079e:	48 8b 85 48 ff ff ff 	mov    rax,QWORD PTR [rbp-0xb8]
   907a5:	48 89 85 58 ff ff ff 	mov    QWORD PTR [rbp-0xa8],rax
   907ac:	4c 89 b5 60 ff ff ff 	mov    QWORD PTR [rbp-0xa0],r14
   907b3:	48 89 bd 68 ff ff ff 	mov    QWORD PTR [rbp-0x98],rdi
   907ba:	44 89 55 c8          	mov    DWORD PTR [rbp-0x38],r10d
   907be:	48 8b 85 28 ff ff ff 	mov    rax,QWORD PTR [rbp-0xd8]
   907c5:	48 89 85 70 ff ff ff 	mov    QWORD PTR [rbp-0x90],rax
   907cc:	4c 89 ad 78 ff ff ff 	mov    QWORD PTR [rbp-0x88],r13
   907d3:	48 8b 85 50 ff ff ff 	mov    rax,QWORD PTR [rbp-0xb0]
   907da:	48 89 45 80          	mov    QWORD PTR [rbp-0x80],rax
   907de:	4c 89 5d 88          	mov    QWORD PTR [rbp-0x78],r11
   907e2:	4c 89 4d 90          	mov    QWORD PTR [rbp-0x70],r9
   907e6:	48 89 4d 98          	mov    QWORD PTR [rbp-0x68],rcx
   907ea:	48 89 75 a0          	mov    QWORD PTR [rbp-0x60],rsi
   907ee:	48 89 55 a8          	mov    QWORD PTR [rbp-0x58],rdx
   907f2:	e9 cb 31 00 00       	jmp    939c2 <Java_com_adjust_sdk_sig_NativeLibHelper_nOnResume@@Base-0x272e1>
   907f7:	c6 05 8a e7 0a 00 00 	mov    BYTE PTR [rip+0xae78a],0x0        # 13ef88 <write@plt+0xc408>
   907fe:	48 8b 85 d8 fe ff ff 	mov    rax,QWORD PTR [rbp-0x128]
   90805:	48 8b 8d 20 fd ff ff 	mov    rcx,QWORD PTR [rbp-0x2e0]
   9080c:	48 89 48 68          	mov    QWORD PTR [rax+0x68],rcx
   90810:	48 8b 9d c0 fe ff ff 	mov    rbx,QWORD PTR [rbp-0x140]
   90817:	83 23 00             	and    DWORD PTR [rbx],0x0
   9081a:	4c 8b 85 78 fe ff ff 	mov    r8,QWORD PTR [rbp-0x188]
   90821:	49 83 20 00          	and    QWORD PTR [r8],0x0
   90825:	48 8b 85 a0 fe ff ff 	mov    rax,QWORD PTR [rbp-0x160]
   9082c:	48 83 20 00          	and    QWORD PTR [rax],0x0
   90830:	48 8b 85 58 fe ff ff 	mov    rax,QWORD PTR [rbp-0x1a8]
   90837:	83 20 00             	and    DWORD PTR [rax],0x0
   9083a:	48 8b 85 a8 fe ff ff 	mov    rax,QWORD PTR [rbp-0x158]
   90841:	48 83 20 00          	and    QWORD PTR [rax],0x0
   90845:	48 8b 85 b0 fe ff ff 	mov    rax,QWORD PTR [rbp-0x150]
   9084c:	48 83 20 00          	and    QWORD PTR [rax],0x0
   90850:	48 8b 85 90 fe ff ff 	mov    rax,QWORD PTR [rbp-0x170]
   90857:	48 83 20 00          	and    QWORD PTR [rax],0x0
   9085b:	48 8b 85 80 fe ff ff 	mov    rax,QWORD PTR [rbp-0x180]
   90862:	48 83 20 00          	and    QWORD PTR [rax],0x0
   90866:	48 8b 85 60 fe ff ff 	mov    rax,QWORD PTR [rbp-0x1a0]
   9086d:	48 83 20 00          	and    QWORD PTR [rax],0x0
   90871:	48 8b 85 88 fe ff ff 	mov    rax,QWORD PTR [rbp-0x178]
   90878:	48 83 20 00          	and    QWORD PTR [rax],0x0
   9087c:	48 8b 85 68 fe ff ff 	mov    rax,QWORD PTR [rbp-0x198]
   90883:	48 83 20 00          	and    QWORD PTR [rax],0x0
   90887:	48 89 df             	mov    rdi,rbx
   9088a:	48 8b b5 e0 fe ff ff 	mov    rsi,QWORD PTR [rbp-0x120]
   90891:	48 8b 95 90 fc ff ff 	mov    rdx,QWORD PTR [rbp-0x370]
   90898:	48 8d 0d 41 ca 0a 00 	lea    rcx,[rip+0xaca41]        # 13d2e0 <write@plt+0xa760>
   9089f:	e8 31 bc 01 00       	call   ac4d5 <Java_com_adjust_sdk_sig_NativeLibHelper_nOnResume@@Base-0xe7ce>
   908a4:	31 c0                	xor    eax,eax
   908a6:	39 03                	cmp    DWORD PTR [rbx],eax
   908a8:	48 ba 2c 85 c5 06 f0 	movabs rdx,0x511b92f006c5852c
   908af:	92 1b 51 
   908b2:	48 b8 64 61 c9 c5 ee 	movabs rax,0x56a2ddeec5c96164
   908b9:	dd a2 56 
   908bc:	e9 ec 35 00 00       	jmp    93ead <Java_com_adjust_sdk_sig_NativeLibHelper_nOnResume@@Base-0x26df6>
   908c1:	48 8b 95 90 fa ff ff 	mov    rdx,QWORD PTR [rbp-0x570]
   908c8:	4c 8b 95 18 fd ff ff 	mov    r10,QWORD PTR [rbp-0x2e8]
   908cf:	41 c6 04 12 00       	mov    BYTE PTR [r10+rdx*1],0x0
   908d4:	4c 8b bd 48 ff ff ff 	mov    r15,QWORD PTR [rbp-0xb8]
   908db:	4c 89 bd 58 ff ff ff 	mov    QWORD PTR [rbp-0xa8],r15
   908e2:	4c 8b bd 40 ff ff ff 	mov    r15,QWORD PTR [rbp-0xc0]
   908e9:	4c 89 bd 60 ff ff ff 	mov    QWORD PTR [rbp-0xa0],r15
   908f0:	4c 8b bd 30 ff ff ff 	mov    r15,QWORD PTR [rbp-0xd0]
   908f7:	4c 89 bd 68 ff ff ff 	mov    QWORD PTR [rbp-0x98],r15
   908fe:	44 89 75 c8          	mov    DWORD PTR [rbp-0x38],r14d
   90902:	44 8b 75 c4          	mov    r14d,DWORD PTR [rbp-0x3c]
   90906:	44 89 75 cc          	mov    DWORD PTR [rbp-0x34],r14d
   9090a:	48 89 9d 70 ff ff ff 	mov    QWORD PTR [rbp-0x90],rbx
   90911:	4c 89 9d 78 ff ff ff 	mov    QWORD PTR [rbp-0x88],r11
   90918:	4c 8b 9d 50 ff ff ff 	mov    r11,QWORD PTR [rbp-0xb0]
   9091f:	4c 89 5d 80          	mov    QWORD PTR [rbp-0x80],r11
   90923:	4c 89 4d 88          	mov    QWORD PTR [rbp-0x78],r9
   90927:	4c 89 45 90          	mov    QWORD PTR [rbp-0x70],r8
   9092b:	48 89 4d 98          	mov    QWORD PTR [rbp-0x68],rcx
   9092f:	48 89 75 a0          	mov    QWORD PTR [rbp-0x60],rsi
   90933:	48 89 7d a8          	mov    QWORD PTR [rbp-0x58],rdi
   90937:	48 89 45 b0          	mov    QWORD PTR [rbp-0x50],rax
   9093b:	48 8b 85 38 ff ff ff 	mov    rax,QWORD PTR [rbp-0xc8]
   90942:	48 89 45 b8          	mov    QWORD PTR [rbp-0x48],rax
   90946:	48 89 95 a8 fc ff ff 	mov    QWORD PTR [rbp-0x358],rdx
   9094d:	4c 89 95 b0 fc ff ff 	mov    QWORD PTR [rbp-0x350],r10
   90954:	48 8b 95 d0 fe ff ff 	mov    rdx,QWORD PTR [rbp-0x130]
   9095b:	48 89 95 b8 fc ff ff 	mov    QWORD PTR [rbp-0x348],rdx
   90962:	48 ba 9f 73 09 3b c1 	movabs rdx,0xabcaec13b09739f
   90969:	ae bc 0a 
   9096c:	e9 61 7b ff ff       	jmp    884d2 <Java_com_adjust_sdk_sig_NativeLibHelper_nOnResume@@Base-0x327d1>
   90971:	31 c0                	xor    eax,eax
   90973:	b1 01                	mov    cl,0x1
   90975:	f0 0f b0 0d 3d e4 0a 	lock cmpxchg BYTE PTR [rip+0xae43d],cl        # 13edba <write@plt+0xc23a>
   9097c:	00 
   9097d:	48 ba cc f1 79 49 7f 	movabs rdx,0x3161e07f4979f1cc
   90984:	e0 61 31 
   90987:	48 b8 0c 52 6a 33 a4 	movabs rax,0x10d887a4336a520c
   9098e:	87 d8 10 
   90991:	48 0f 44 d0          	cmove  rdx,rax
   90995:	48 8b 85 48 ff ff ff 	mov    rax,QWORD PTR [rbp-0xb8]
   9099c:	48 89 85 58 ff ff ff 	mov    QWORD PTR [rbp-0xa8],rax
   909a3:	48 8b 85 40 ff ff ff 	mov    rax,QWORD PTR [rbp-0xc0]
   909aa:	48 89 85 60 ff ff ff 	mov    QWORD PTR [rbp-0xa0],rax
   909b1:	4c 89 b5 68 ff ff ff 	mov    QWORD PTR [rbp-0x98],r14
   909b8:	44 89 55 c8          	mov    DWORD PTR [rbp-0x38],r10d
   909bc:	e9 e1 23 00 00       	jmp    92da2 <Java_com_adjust_sdk_sig_NativeLibHelper_nOnResume@@Base-0x27f01>
   909c1:	4c 8b 95 e0 fd ff ff 	mov    r10,QWORD PTR [rbp-0x220]
   909c8:	4d 85 d2             	test   r10,r10
   909cb:	48 ba 81 94 e9 77 ca 	movabs rdx,0x687b95ca77e99481
   909d2:	95 7b 68 
   909d5:	48 b8 61 bf bb 19 ad 	movabs rax,0x89cedaad19bbbf61
   909dc:	da ce 89 
   909df:	48 0f 44 d0          	cmove  rdx,rax
   909e3:	48 8b 85 48 ff ff ff 	mov    rax,QWORD PTR [rbp-0xb8]
   909ea:	48 89 85 58 ff ff ff 	mov    QWORD PTR [rbp-0xa8],rax
   909f1:	48 8b 85 40 ff ff ff 	mov    rax,QWORD PTR [rbp-0xc0]
   909f8:	48 89 85 60 ff ff ff 	mov    QWORD PTR [rbp-0xa0],rax
   909ff:	48 8b 85 30 ff ff ff 	mov    rax,QWORD PTR [rbp-0xd0]
   90a06:	48 89 85 68 ff ff ff 	mov    QWORD PTR [rbp-0x98],rax
   90a0d:	8b 45 c0             	mov    eax,DWORD PTR [rbp-0x40]
   90a10:	89 45 c8             	mov    DWORD PTR [rbp-0x38],eax
   90a13:	8b 45 c4             	mov    eax,DWORD PTR [rbp-0x3c]
   90a16:	89 45 cc             	mov    DWORD PTR [rbp-0x34],eax
   90a19:	48 8b 85 28 ff ff ff 	mov    rax,QWORD PTR [rbp-0xd8]
   90a20:	48 89 85 70 ff ff ff 	mov    QWORD PTR [rbp-0x90],rax
   90a27:	48 8b 85 f0 fe ff ff 	mov    rax,QWORD PTR [rbp-0x110]
   90a2e:	48 89 85 78 ff ff ff 	mov    QWORD PTR [rbp-0x88],rax
   90a35:	48 8b 85 50 ff ff ff 	mov    rax,QWORD PTR [rbp-0xb0]
   90a3c:	48 89 45 80          	mov    QWORD PTR [rbp-0x80],rax
   90a40:	48 8b 85 20 ff ff ff 	mov    rax,QWORD PTR [rbp-0xe0]
   90a47:	48 89 45 88          	mov    QWORD PTR [rbp-0x78],rax
   90a4b:	48 8b 85 18 ff ff ff 	mov    rax,QWORD PTR [rbp-0xe8]
   90a52:	48 89 45 90          	mov    QWORD PTR [rbp-0x70],rax
   90a56:	48 8b 85 08 ff ff ff 	mov    rax,QWORD PTR [rbp-0xf8]
   90a5d:	48 89 45 98          	mov    QWORD PTR [rbp-0x68],rax
   90a61:	48 8b 85 10 ff ff ff 	mov    rax,QWORD PTR [rbp-0xf0]
   90a68:	48 89 45 a0          	mov    QWORD PTR [rbp-0x60],rax
   90a6c:	48 8b 85 f8 fe ff ff 	mov    rax,QWORD PTR [rbp-0x108]
   90a73:	48 89 45 a8          	mov    QWORD PTR [rbp-0x58],rax
   90a77:	48 8b 85 00 ff ff ff 	mov    rax,QWORD PTR [rbp-0x100]
   90a7e:	48 89 45 b0          	mov    QWORD PTR [rbp-0x50],rax
   90a82:	48 8b 85 38 ff ff ff 	mov    rax,QWORD PTR [rbp-0xc8]
   90a89:	48 89 45 b8          	mov    QWORD PTR [rbp-0x48],rax
   90a8d:	4c 89 95 68 fb ff ff 	mov    QWORD PTR [rbp-0x498],r10
   90a94:	4c 8b 95 d8 fd ff ff 	mov    r10,QWORD PTR [rbp-0x228]
   90a9b:	4c 89 95 78 fb ff ff 	mov    QWORD PTR [rbp-0x488],r10
   90aa2:	4c 8b 95 c8 fd ff ff 	mov    r10,QWORD PTR [rbp-0x238]
   90aa9:	4c 89 95 80 fb ff ff 	mov    QWORD PTR [rbp-0x480],r10
   90ab0:	e9 1d 7a ff ff       	jmp    884d2 <Java_com_adjust_sdk_sig_NativeLibHelper_nOnResume@@Base-0x327d1>
   90ab5:	48 8b 85 f0 fa ff ff 	mov    rax,QWORD PTR [rbp-0x510]
   90abc:	48 2b 85 c8 fe ff ff 	sub    rax,QWORD PTR [rbp-0x138]
   90ac3:	48 89 85 60 fa ff ff 	mov    QWORD PTR [rbp-0x5a0],rax
   90aca:	48 8d 78 01          	lea    rdi,[rax+0x1]
   90ace:	e8 7d 1d 0a 00       	call   132850 <malloc@plt>
   90ad3:	48 89 85 e0 fc ff ff 	mov    QWORD PTR [rbp-0x320],rax
   90ada:	48 85 c0             	test   rax,rax
   90add:	48 ba a7 f6 31 df 05 	movabs rdx,0xae3eef05df31f6a7
   90ae4:	ef 3e ae 
   90ae7:	48 b8 88 b4 9b 72 6f 	movabs rax,0x233c3e6f729bb488
   90aee:	3e 3c 23 
   90af1:	e9 b7 33 00 00       	jmp    93ead <Java_com_adjust_sdk_sig_NativeLibHelper_nOnResume@@Base-0x26df6>
   90af6:	48 8b 85 50 fe ff ff 	mov    rax,QWORD PTR [rbp-0x1b0]
   90afd:	48 8b 10             	mov    rdx,QWORD PTR [rax]
   90b00:	48 8b 9d b8 fe ff ff 	mov    rbx,QWORD PTR [rbp-0x148]
   90b07:	48 89 df             	mov    rdi,rbx
   90b0a:	48 8b b5 e0 fe ff ff 	mov    rsi,QWORD PTR [rbp-0x120]
   90b11:	48 8b 8d 98 fe ff ff 	mov    rcx,QWORD PTR [rbp-0x168]
   90b18:	e8 77 fe 01 00       	call   b0994 <Java_com_adjust_sdk_sig_NativeLibHelper_nOnResume@@Base-0xa30f>
   90b1d:	83 3b 00             	cmp    DWORD PTR [rbx],0x0
   90b20:	48 ba 86 9d cb 3d f5 	movabs rdx,0x74574ff53dcb9d86
   90b27:	4f 57 74 
   90b2a:	48 b8 c8 39 8f 7a 62 	movabs rax,0xe36ee3627a8f39c8
   90b31:	e3 6e e3 
   90b34:	e9 74 33 00 00       	jmp    93ead <Java_com_adjust_sdk_sig_NativeLibHelper_nOnResume@@Base-0x26df6>
   90b39:	48 b8 a3 a3 a3 a3 a3 	movabs rax,0xa3a3a3a3a3a3a3a3
   90b40:	a3 a3 a3 
   90b43:	48 31 05 b6 c7 0a 00 	xor    QWORD PTR [rip+0xac7b6],rax        # 13d300 <write@plt+0xa780>
   90b4a:	f2 0f 10 05 b6 c7 0a 	movsd  xmm0,QWORD PTR [rip+0xac7b6]        # 13d308 <write@plt+0xa788>
   90b51:	00 
   90b52:	0f 57 05 a7 29 f7 ff 	xorps  xmm0,XMMWORD PTR [rip+0xfffffffffff729a7]        # 3500 <Java_com_adjust_sdk_sig_NativeLibHelper_nOnResume@@Base-0xb77a3>
   90b59:	f3 0f 11 05 a7 c7 0a 	movss  DWORD PTR [rip+0xac7a7],xmm0        # 13d308 <write@plt+0xa788>
   90b60:	00 
   90b61:	80 35 a4 c7 0a 00 a3 	xor    BYTE PTR [rip+0xac7a4],0xa3        # 13d30c <write@plt+0xa78c>
   90b68:	c6 05 1e e4 0a 00 01 	mov    BYTE PTR [rip+0xae41e],0x1        # 13ef8d <write@plt+0xc40d>
   90b6f:	48 8b 85 48 ff ff ff 	mov    rax,QWORD PTR [rbp-0xb8]
   90b76:	48 89 85 58 ff ff ff 	mov    QWORD PTR [rbp-0xa8],rax
   90b7d:	48 8b 85 40 ff ff ff 	mov    rax,QWORD PTR [rbp-0xc0]
   90b84:	48 89 85 60 ff ff ff 	mov    QWORD PTR [rbp-0xa0],rax
   90b8b:	48 8b 85 30 ff ff ff 	mov    rax,QWORD PTR [rbp-0xd0]
   90b92:	48 89 85 68 ff ff ff 	mov    QWORD PTR [rbp-0x98],rax
   90b99:	8b 45 c0             	mov    eax,DWORD PTR [rbp-0x40]
   90b9c:	89 45 c8             	mov    DWORD PTR [rbp-0x38],eax
   90b9f:	8b 45 c4             	mov    eax,DWORD PTR [rbp-0x3c]
   90ba2:	89 45 cc             	mov    DWORD PTR [rbp-0x34],eax
   90ba5:	48 8b 85 28 ff ff ff 	mov    rax,QWORD PTR [rbp-0xd8]
   90bac:	48 89 85 70 ff ff ff 	mov    QWORD PTR [rbp-0x90],rax
   90bb3:	48 8b 85 f0 fe ff ff 	mov    rax,QWORD PTR [rbp-0x110]
   90bba:	48 89 85 78 ff ff ff 	mov    QWORD PTR [rbp-0x88],rax
   90bc1:	48 8b 85 50 ff ff ff 	mov    rax,QWORD PTR [rbp-0xb0]
   90bc8:	48 89 45 80          	mov    QWORD PTR [rbp-0x80],rax
   90bcc:	48 8b 85 20 ff ff ff 	mov    rax,QWORD PTR [rbp-0xe0]
   90bd3:	48 89 45 88          	mov    QWORD PTR [rbp-0x78],rax
   90bd7:	48 8b 85 18 ff ff ff 	mov    rax,QWORD PTR [rbp-0xe8]
   90bde:	48 89 45 90          	mov    QWORD PTR [rbp-0x70],rax
   90be2:	48 8b 85 08 ff ff ff 	mov    rax,QWORD PTR [rbp-0xf8]
   90be9:	48 89 45 98          	mov    QWORD PTR [rbp-0x68],rax
   90bed:	48 8b 85 10 ff ff ff 	mov    rax,QWORD PTR [rbp-0xf0]
   90bf4:	48 89 45 a0          	mov    QWORD PTR [rbp-0x60],rax
   90bf8:	48 8b 85 f8 fe ff ff 	mov    rax,QWORD PTR [rbp-0x108]
   90bff:	48 89 45 a8          	mov    QWORD PTR [rbp-0x58],rax
   90c03:	48 8b 85 00 ff ff ff 	mov    rax,QWORD PTR [rbp-0x100]
   90c0a:	48 89 45 b0          	mov    QWORD PTR [rbp-0x50],rax
   90c0e:	48 8b 85 38 ff ff ff 	mov    rax,QWORD PTR [rbp-0xc8]
   90c15:	48 89 45 b8          	mov    QWORD PTR [rbp-0x48],rax
   90c19:	48 ba fc 00 2e e5 5a 	movabs rdx,0xd1c8c75ae52e00fc
   90c20:	c7 c8 d1 
   90c23:	e9 aa 78 ff ff       	jmp    884d2 <Java_com_adjust_sdk_sig_NativeLibHelper_nOnResume@@Base-0x327d1>
   90c28:	48 8b 85 98 fe ff ff 	mov    rax,QWORD PTR [rbp-0x168]
   90c2f:	48 83 20 00          	and    QWORD PTR [rax],0x0
   90c33:	48 8b 85 50 fe ff ff 	mov    rax,QWORD PTR [rbp-0x1b0]
   90c3a:	48 8b 00             	mov    rax,QWORD PTR [rax]
   90c3d:	48 89 85 e0 fa ff ff 	mov    QWORD PTR [rbp-0x520],rax
   90c44:	48 85 c0             	test   rax,rax
   90c47:	48 b8 a7 da 61 d6 da 	movabs rax,0xc3ecfedad661daa7
   90c4e:	fe ec c3 
   90c51:	48 89 c2             	mov    rdx,rax
   90c54:	48 b9 59 81 f0 f4 e5 	movabs rcx,0x4caeee5f4f08159
   90c5b:	ee ca 04 
   90c5e:	48 0f 45 d1          	cmovne rdx,rcx
   90c62:	48 83 bd e0 fe ff ff 	cmp    QWORD PTR [rbp-0x120],0x0
   90c69:	00 
   90c6a:	48 0f 44 d0          	cmove  rdx,rax
   90c6e:	48 8b 85 48 ff ff ff 	mov    rax,QWORD PTR [rbp-0xb8]
   90c75:	48 89 85 58 ff ff ff 	mov    QWORD PTR [rbp-0xa8],rax
   90c7c:	48 8b 85 40 ff ff ff 	mov    rax,QWORD PTR [rbp-0xc0]
   90c83:	48 89 85 60 ff ff ff 	mov    QWORD PTR [rbp-0xa0],rax
   90c8a:	4c 89 b5 68 ff ff ff 	mov    QWORD PTR [rbp-0x98],r14
   90c91:	44 89 55 c8          	mov    DWORD PTR [rbp-0x38],r10d
   90c95:	8b 45 c4             	mov    eax,DWORD PTR [rbp-0x3c]
   90c98:	89 45 cc             	mov    DWORD PTR [rbp-0x34],eax
   90c9b:	48 8b 85 28 ff ff ff 	mov    rax,QWORD PTR [rbp-0xd8]
   90ca2:	48 89 85 70 ff ff ff 	mov    QWORD PTR [rbp-0x90],rax
   90ca9:	48 89 9d 78 ff ff ff 	mov    QWORD PTR [rbp-0x88],rbx
   90cb0:	48 8b 85 50 ff ff ff 	mov    rax,QWORD PTR [rbp-0xb0]
   90cb7:	48 89 45 80          	mov    QWORD PTR [rbp-0x80],rax
   90cbb:	4c 89 5d 88          	mov    QWORD PTR [rbp-0x78],r11
   90cbf:	4c 89 4d 90          	mov    QWORD PTR [rbp-0x70],r9
   90cc3:	e9 aa 13 00 00       	jmp    92072 <Java_com_adjust_sdk_sig_NativeLibHelper_nOnResume@@Base-0x28c31>
   90cc8:	48 8b bd e0 fe ff ff 	mov    rdi,QWORD PTR [rbp-0x120]
   90ccf:	48 8b 07             	mov    rax,QWORD PTR [rdi]
   90cd2:	48 8b b5 d8 fa ff ff 	mov    rsi,QWORD PTR [rbp-0x528]
   90cd9:	ff 90 b8 00 00 00    	call   QWORD PTR [rax+0xb8]
   90cdf:	48 8b 85 48 ff ff ff 	mov    rax,QWORD PTR [rbp-0xb8]
   90ce6:	48 89 85 58 ff ff ff 	mov    QWORD PTR [rbp-0xa8],rax
   90ced:	48 8b 85 40 ff ff ff 	mov    rax,QWORD PTR [rbp-0xc0]
   90cf4:	48 89 85 60 ff ff ff 	mov    QWORD PTR [rbp-0xa0],rax
   90cfb:	48 8b 85 30 ff ff ff 	mov    rax,QWORD PTR [rbp-0xd0]
   90d02:	48 89 85 68 ff ff ff 	mov    QWORD PTR [rbp-0x98],rax
   90d09:	8b 45 c0             	mov    eax,DWORD PTR [rbp-0x40]
   90d0c:	89 45 c8             	mov    DWORD PTR [rbp-0x38],eax
   90d0f:	8b 45 c4             	mov    eax,DWORD PTR [rbp-0x3c]
   90d12:	89 45 cc             	mov    DWORD PTR [rbp-0x34],eax
   90d15:	48 8b 85 28 ff ff ff 	mov    rax,QWORD PTR [rbp-0xd8]
   90d1c:	48 89 85 70 ff ff ff 	mov    QWORD PTR [rbp-0x90],rax
   90d23:	48 8b 85 f0 fe ff ff 	mov    rax,QWORD PTR [rbp-0x110]
   90d2a:	48 89 85 78 ff ff ff 	mov    QWORD PTR [rbp-0x88],rax
   90d31:	48 8b 85 50 ff ff ff 	mov    rax,QWORD PTR [rbp-0xb0]
   90d38:	48 89 45 80          	mov    QWORD PTR [rbp-0x80],rax
   90d3c:	48 8b 85 20 ff ff ff 	mov    rax,QWORD PTR [rbp-0xe0]
   90d43:	48 89 45 88          	mov    QWORD PTR [rbp-0x78],rax
   90d47:	48 8b 85 18 ff ff ff 	mov    rax,QWORD PTR [rbp-0xe8]
   90d4e:	48 89 45 90          	mov    QWORD PTR [rbp-0x70],rax
   90d52:	48 8b 85 08 ff ff ff 	mov    rax,QWORD PTR [rbp-0xf8]
   90d59:	48 89 45 98          	mov    QWORD PTR [rbp-0x68],rax
   90d5d:	48 8b 85 10 ff ff ff 	mov    rax,QWORD PTR [rbp-0xf0]
   90d64:	48 89 45 a0          	mov    QWORD PTR [rbp-0x60],rax
   90d68:	48 8b 85 f8 fe ff ff 	mov    rax,QWORD PTR [rbp-0x108]
   90d6f:	48 89 45 a8          	mov    QWORD PTR [rbp-0x58],rax
   90d73:	48 8b 85 00 ff ff ff 	mov    rax,QWORD PTR [rbp-0x100]
   90d7a:	48 89 45 b0          	mov    QWORD PTR [rbp-0x50],rax
   90d7e:	48 8b 85 38 ff ff ff 	mov    rax,QWORD PTR [rbp-0xc8]
   90d85:	48 89 45 b8          	mov    QWORD PTR [rbp-0x48],rax
   90d89:	48 ba ea a6 d7 23 79 	movabs rdx,0x78722b7923d7a6ea
   90d90:	2b 72 78 
   90d93:	e9 3a 77 ff ff       	jmp    884d2 <Java_com_adjust_sdk_sig_NativeLibHelper_nOnResume@@Base-0x327d1>
   90d98:	c6 05 0d e0 0a 00 00 	mov    BYTE PTR [rip+0xae00d],0x0        # 13edac <write@plt+0xc22c>
   90d9f:	48 8b 85 d8 fe ff ff 	mov    rax,QWORD PTR [rbp-0x128]
   90da6:	48 8b 8d c0 fc ff ff 	mov    rcx,QWORD PTR [rbp-0x340]
   90dad:	48 89 48 48          	mov    QWORD PTR [rax+0x48],rcx
   90db1:	48 8d 3d a8 b2 0a 00 	lea    rdi,[rip+0xab2a8]        # 13c060 <write@plt+0x94e0>
   90db8:	48 8b 9d d0 fe ff ff 	mov    rbx,QWORD PTR [rbp-0x130]
   90dbf:	48 89 de             	mov    rsi,rbx
   90dc2:	e8 3b 0c 03 00       	call   c1a02 <Java_com_adjust_sdk_sig_NativeLibHelper_nSign@@Base+0x6357>
   90dc7:	48 8b 85 48 ff ff ff 	mov    rax,QWORD PTR [rbp-0xb8]
   90dce:	48 89 85 58 ff ff ff 	mov    QWORD PTR [rbp-0xa8],rax
   90dd5:	48 8b 85 40 ff ff ff 	mov    rax,QWORD PTR [rbp-0xc0]
   90ddc:	48 89 85 60 ff ff ff 	mov    QWORD PTR [rbp-0xa0],rax
   90de3:	48 8b 85 30 ff ff ff 	mov    rax,QWORD PTR [rbp-0xd0]
   90dea:	48 89 85 68 ff ff ff 	mov    QWORD PTR [rbp-0x98],rax
   90df1:	8b 45 c0             	mov    eax,DWORD PTR [rbp-0x40]
   90df4:	89 45 c8             	mov    DWORD PTR [rbp-0x38],eax
   90df7:	8b 45 c4             	mov    eax,DWORD PTR [rbp-0x3c]
   90dfa:	89 45 cc             	mov    DWORD PTR [rbp-0x34],eax
   90dfd:	48 8b 85 28 ff ff ff 	mov    rax,QWORD PTR [rbp-0xd8]
   90e04:	48 89 85 70 ff ff ff 	mov    QWORD PTR [rbp-0x90],rax
   90e0b:	48 8b 85 f0 fe ff ff 	mov    rax,QWORD PTR [rbp-0x110]
   90e12:	48 89 85 78 ff ff ff 	mov    QWORD PTR [rbp-0x88],rax
   90e19:	48 8b 85 50 ff ff ff 	mov    rax,QWORD PTR [rbp-0xb0]
   90e20:	48 89 45 80          	mov    QWORD PTR [rbp-0x80],rax
   90e24:	48 8b 85 20 ff ff ff 	mov    rax,QWORD PTR [rbp-0xe0]
   90e2b:	48 89 45 88          	mov    QWORD PTR [rbp-0x78],rax
   90e2f:	48 8b 85 18 ff ff ff 	mov    rax,QWORD PTR [rbp-0xe8]
   90e36:	48 89 45 90          	mov    QWORD PTR [rbp-0x70],rax
   90e3a:	48 8b 85 08 ff ff ff 	mov    rax,QWORD PTR [rbp-0xf8]
   90e41:	48 89 45 98          	mov    QWORD PTR [rbp-0x68],rax
   90e45:	48 8b 85 10 ff ff ff 	mov    rax,QWORD PTR [rbp-0xf0]
   90e4c:	48 89 45 a0          	mov    QWORD PTR [rbp-0x60],rax
   90e50:	48 8b 85 f8 fe ff ff 	mov    rax,QWORD PTR [rbp-0x108]
   90e57:	48 89 45 a8          	mov    QWORD PTR [rbp-0x58],rax
   90e5b:	48 8b 85 38 ff ff ff 	mov    rax,QWORD PTR [rbp-0xc8]
   90e62:	48 89 45 b8          	mov    QWORD PTR [rbp-0x48],rax
   90e66:	48 89 5d b0          	mov    QWORD PTR [rbp-0x50],rbx
   90e6a:	48 ba f6 fc 92 15 21 	movabs rdx,0xcf6124211592fcf6
   90e71:	24 61 cf 
   90e74:	e9 59 76 ff ff       	jmp    884d2 <Java_com_adjust_sdk_sig_NativeLibHelper_nOnResume@@Base-0x327d1>
   90e79:	48 8b 8d 40 ff ff ff 	mov    rcx,QWORD PTR [rbp-0xc0]
   90e80:	80 39 00             	cmp    BYTE PTR [rcx],0x0
   90e83:	48 ba a8 af fa cf 32 	movabs rdx,0xbf066032cffaafa8
   90e8a:	60 06 bf 
   90e8d:	48 b8 93 e2 dc 46 5e 	movabs rax,0xfd55eb5e46dce293
   90e94:	eb 55 fd 
   90e97:	48 0f 44 d0          	cmove  rdx,rax
   90e9b:	48 8b 85 48 ff ff ff 	mov    rax,QWORD PTR [rbp-0xb8]
   90ea2:	48 89 85 58 ff ff ff 	mov    QWORD PTR [rbp-0xa8],rax
   90ea9:	4c 89 b5 68 ff ff ff 	mov    QWORD PTR [rbp-0x98],r14
   90eb0:	44 89 55 c8          	mov    DWORD PTR [rbp-0x38],r10d
   90eb4:	8b 45 c4             	mov    eax,DWORD PTR [rbp-0x3c]
   90eb7:	89 45 cc             	mov    DWORD PTR [rbp-0x34],eax
   90eba:	48 8b 85 28 ff ff ff 	mov    rax,QWORD PTR [rbp-0xd8]
   90ec1:	48 89 85 70 ff ff ff 	mov    QWORD PTR [rbp-0x90],rax
   90ec8:	48 8b 85 f0 fe ff ff 	mov    rax,QWORD PTR [rbp-0x110]
   90ecf:	48 89 85 78 ff ff ff 	mov    QWORD PTR [rbp-0x88],rax
   90ed6:	48 8b 85 50 ff ff ff 	mov    rax,QWORD PTR [rbp-0xb0]
   90edd:	48 89 45 80          	mov    QWORD PTR [rbp-0x80],rax
   90ee1:	48 89 5d 88          	mov    QWORD PTR [rbp-0x78],rbx
   90ee5:	4c 89 5d 90          	mov    QWORD PTR [rbp-0x70],r11
   90ee9:	4c 89 45 98          	mov    QWORD PTR [rbp-0x68],r8
   90eed:	48 89 75 a0          	mov    QWORD PTR [rbp-0x60],rsi
   90ef1:	48 89 7d a8          	mov    QWORD PTR [rbp-0x58],rdi
   90ef5:	4c 8d 41 01          	lea    r8,[rcx+0x1]
   90ef9:	4c 89 85 e0 f9 ff ff 	mov    QWORD PTR [rbp-0x620],r8
   90f00:	48 89 8d 60 ff ff ff 	mov    QWORD PTR [rbp-0xa0],rcx
   90f07:	48 89 8d 70 fb ff ff 	mov    QWORD PTR [rbp-0x490],rcx
   90f0e:	e9 70 29 00 00       	jmp    93883 <Java_com_adjust_sdk_sig_NativeLibHelper_nOnResume@@Base-0x27420>
   90f13:	48 8b 85 80 fe ff ff 	mov    rax,QWORD PTR [rbp-0x180]
   90f1a:	48 8b 00             	mov    rax,QWORD PTR [rax]
   90f1d:	48 89 85 a0 fa ff ff 	mov    QWORD PTR [rbp-0x560],rax
   90f24:	48 85 c0             	test   rax,rax
   90f27:	48 ba 1d 1a d0 e2 14 	movabs rdx,0xb803d814e2d01a1d
   90f2e:	d8 03 b8 
   90f31:	48 b8 f1 93 4f 8a e8 	movabs rax,0x6ade94e88a4f93f1
   90f38:	94 de 6a 
   90f3b:	e9 6d 2f 00 00       	jmp    93ead <Java_com_adjust_sdk_sig_NativeLibHelper_nOnResume@@Base-0x26df6>
   90f40:	4c 8b 95 98 fb ff ff 	mov    r10,QWORD PTR [rbp-0x468]
   90f47:	41 8a 02             	mov    al,BYTE PTR [r10]
   90f4a:	48 8b 95 90 fb ff ff 	mov    rdx,QWORD PTR [rbp-0x470]
   90f51:	88 02                	mov    BYTE PTR [rdx],al
   90f53:	48 8b 85 48 ff ff ff 	mov    rax,QWORD PTR [rbp-0xb8]
   90f5a:	48 89 85 58 ff ff ff 	mov    QWORD PTR [rbp-0xa8],rax
   90f61:	48 8b 85 40 ff ff ff 	mov    rax,QWORD PTR [rbp-0xc0]
   90f68:	48 89 85 60 ff ff ff 	mov    QWORD PTR [rbp-0xa0],rax
   90f6f:	48 8b 85 30 ff ff ff 	mov    rax,QWORD PTR [rbp-0xd0]
   90f76:	48 89 85 68 ff ff ff 	mov    QWORD PTR [rbp-0x98],rax
   90f7d:	44 89 75 c8          	mov    DWORD PTR [rbp-0x38],r14d
   90f81:	8b 45 c4             	mov    eax,DWORD PTR [rbp-0x3c]
   90f84:	89 45 cc             	mov    DWORD PTR [rbp-0x34],eax
   90f87:	48 8b 85 28 ff ff ff 	mov    rax,QWORD PTR [rbp-0xd8]
   90f8e:	48 89 85 70 ff ff ff 	mov    QWORD PTR [rbp-0x90],rax
   90f95:	48 89 9d 78 ff ff ff 	mov    QWORD PTR [rbp-0x88],rbx
   90f9c:	48 8b 85 50 ff ff ff 	mov    rax,QWORD PTR [rbp-0xb0]
   90fa3:	48 89 45 80          	mov    QWORD PTR [rbp-0x80],rax
   90fa7:	4c 89 5d 88          	mov    QWORD PTR [rbp-0x78],r11
   90fab:	4c 89 4d 90          	mov    QWORD PTR [rbp-0x70],r9
   90faf:	48 89 4d 98          	mov    QWORD PTR [rbp-0x68],rcx
   90fb3:	48 89 75 a0          	mov    QWORD PTR [rbp-0x60],rsi
   90fb7:	48 89 7d a8          	mov    QWORD PTR [rbp-0x58],rdi
   90fbb:	4c 89 45 b0          	mov    QWORD PTR [rbp-0x50],r8
   90fbf:	48 8b 85 38 ff ff ff 	mov    rax,QWORD PTR [rbp-0xc8]
   90fc6:	48 89 45 b8          	mov    QWORD PTR [rbp-0x48],rax
   90fca:	49 ff c2             	inc    r10
   90fcd:	4c 89 95 b8 fd ff ff 	mov    QWORD PTR [rbp-0x248],r10
   90fd4:	48 ff c2             	inc    rdx
   90fd7:	48 89 95 c0 fd ff ff 	mov    QWORD PTR [rbp-0x240],rdx
   90fde:	48 8b 95 88 fb ff ff 	mov    rdx,QWORD PTR [rbp-0x478]
   90fe5:	48 ff ca             	dec    rdx
   90fe8:	48 89 95 d0 fd ff ff 	mov    QWORD PTR [rbp-0x230],rdx
   90fef:	48 ba f3 3f e7 5b ef 	movabs rdx,0x70c232ef5be73ff3
   90ff6:	32 c2 70 
   90ff9:	e9 d4 74 ff ff       	jmp    884d2 <Java_com_adjust_sdk_sig_NativeLibHelper_nOnResume@@Base-0x327d1>
   90ffe:	48 b8 de de de de de 	movabs rax,0xdededededededede
   91005:	de de de 
   91008:	48 31 05 e1 c2 0a 00 	xor    QWORD PTR [rip+0xac2e1],rax        # 13d2f0 <write@plt+0xa770>
   9100f:	f2 0f 10 05 e1 c2 0a 	movsd  xmm0,QWORD PTR [rip+0xac2e1]        # 13d2f8 <write@plt+0xa778>
   91016:	00 
   91017:	0f 57 05 42 20 f7 ff 	xorps  xmm0,XMMWORD PTR [rip+0xfffffffffff72042]        # 3060 <Java_com_adjust_sdk_sig_NativeLibHelper_nOnResume@@Base-0xb7c43>
   9101e:	f3 0f 11 05 d2 c2 0a 	movss  DWORD PTR [rip+0xac2d2],xmm0        # 13d2f8 <write@plt+0xa778>
   91025:	00 
   91026:	c6 05 5e df 0a 00 01 	mov    BYTE PTR [rip+0xadf5e],0x1        # 13ef8b <write@plt+0xc40b>
   9102d:	48 8b 85 48 ff ff ff 	mov    rax,QWORD PTR [rbp-0xb8]
   91034:	48 89 85 58 ff ff ff 	mov    QWORD PTR [rbp-0xa8],rax
   9103b:	48 8b 85 40 ff ff ff 	mov    rax,QWORD PTR [rbp-0xc0]
   91042:	48 89 85 60 ff ff ff 	mov    QWORD PTR [rbp-0xa0],rax
   91049:	48 8b 85 30 ff ff ff 	mov    rax,QWORD PTR [rbp-0xd0]
   91050:	48 89 85 68 ff ff ff 	mov    QWORD PTR [rbp-0x98],rax
   91057:	44 89 75 c8          	mov    DWORD PTR [rbp-0x38],r14d
   9105b:	8b 45 c4             	mov    eax,DWORD PTR [rbp-0x3c]
   9105e:	89 45 cc             	mov    DWORD PTR [rbp-0x34],eax
   91061:	48 8b 85 28 ff ff ff 	mov    rax,QWORD PTR [rbp-0xd8]
   91068:	48 89 85 70 ff ff ff 	mov    QWORD PTR [rbp-0x90],rax
   9106f:	48 8b 85 f0 fe ff ff 	mov    rax,QWORD PTR [rbp-0x110]
   91076:	48 89 85 78 ff ff ff 	mov    QWORD PTR [rbp-0x88],rax
   9107d:	48 8b 85 50 ff ff ff 	mov    rax,QWORD PTR [rbp-0xb0]
   91084:	48 89 45 80          	mov    QWORD PTR [rbp-0x80],rax
   91088:	48 89 5d 88          	mov    QWORD PTR [rbp-0x78],rbx
   9108c:	48 89 4d 90          	mov    QWORD PTR [rbp-0x70],rcx
   91090:	48 89 75 98          	mov    QWORD PTR [rbp-0x68],rsi
   91094:	4c 89 5d a0          	mov    QWORD PTR [rbp-0x60],r11
   91098:	4c 89 4d a8          	mov    QWORD PTR [rbp-0x58],r9
   9109c:	48 89 55 b0          	mov    QWORD PTR [rbp-0x50],rdx
   910a0:	48 8b 85 38 ff ff ff 	mov    rax,QWORD PTR [rbp-0xc8]
   910a7:	48 89 45 b8          	mov    QWORD PTR [rbp-0x48],rax
   910ab:	48 ba c1 7a 3d f1 21 	movabs rdx,0x101c3c21f13d7ac1
   910b2:	3c 1c 10 
   910b5:	e9 18 74 ff ff       	jmp    884d2 <Java_com_adjust_sdk_sig_NativeLibHelper_nOnResume@@Base-0x327d1>
   910ba:	48 8b 85 90 fe ff ff 	mov    rax,QWORD PTR [rbp-0x170]
   910c1:	48 8b 10             	mov    rdx,QWORD PTR [rax]
   910c4:	4c 8b ad c0 fe ff ff 	mov    r13,QWORD PTR [rbp-0x140]
   910cb:	4c 89 ef             	mov    rdi,r13
   910ce:	48 8b b5 e0 fe ff ff 	mov    rsi,QWORD PTR [rbp-0x120]
   910d5:	48 8b 8d 88 fe ff ff 	mov    rcx,QWORD PTR [rbp-0x178]
   910dc:	4c 8b 85 68 fe ff ff 	mov    r8,QWORD PTR [rbp-0x198]
   910e3:	e8 f8 59 00 00       	call   96ae0 <Java_com_adjust_sdk_sig_NativeLibHelper_nOnResume@@Base-0x241c3>
   910e8:	41 83 7d 00 00       	cmp    DWORD PTR [r13+0x0],0x0
   910ed:	48 ba a9 b2 2e 4f 50 	movabs rdx,0x4100c8504f2eb2a9
   910f4:	c8 00 41 
   910f7:	48 b8 58 44 2e 3e 89 	movabs rax,0x18246e893e2e4458
   910fe:	6e 24 18 
   91101:	48 0f 44 d0          	cmove  rdx,rax
   91105:	48 8b 85 48 ff ff ff 	mov    rax,QWORD PTR [rbp-0xb8]
   9110c:	48 89 85 58 ff ff ff 	mov    QWORD PTR [rbp-0xa8],rax
   91113:	48 8b 85 40 ff ff ff 	mov    rax,QWORD PTR [rbp-0xc0]
   9111a:	48 89 85 60 ff ff ff 	mov    QWORD PTR [rbp-0xa0],rax
   91121:	48 8b 85 30 ff ff ff 	mov    rax,QWORD PTR [rbp-0xd0]
   91128:	48 89 85 68 ff ff ff 	mov    QWORD PTR [rbp-0x98],rax
   9112f:	8b 45 c0             	mov    eax,DWORD PTR [rbp-0x40]
   91132:	89 45 c8             	mov    DWORD PTR [rbp-0x38],eax
   91135:	8b 45 c4             	mov    eax,DWORD PTR [rbp-0x3c]
   91138:	89 45 cc             	mov    DWORD PTR [rbp-0x34],eax
   9113b:	48 8b 85 28 ff ff ff 	mov    rax,QWORD PTR [rbp-0xd8]
   91142:	48 89 85 70 ff ff ff 	mov    QWORD PTR [rbp-0x90],rax
   91149:	48 8b 85 f0 fe ff ff 	mov    rax,QWORD PTR [rbp-0x110]
   91150:	48 89 85 78 ff ff ff 	mov    QWORD PTR [rbp-0x88],rax
   91157:	48 8b 85 50 ff ff ff 	mov    rax,QWORD PTR [rbp-0xb0]
   9115e:	48 89 45 80          	mov    QWORD PTR [rbp-0x80],rax
   91162:	48 8b 85 20 ff ff ff 	mov    rax,QWORD PTR [rbp-0xe0]
   91169:	48 89 45 88          	mov    QWORD PTR [rbp-0x78],rax
   9116d:	4c 89 75 90          	mov    QWORD PTR [rbp-0x70],r14
   91171:	48 89 5d 98          	mov    QWORD PTR [rbp-0x68],rbx
   91175:	4c 89 65 a0          	mov    QWORD PTR [rbp-0x60],r12
   91179:	4c 89 7d a8          	mov    QWORD PTR [rbp-0x58],r15
   9117d:	e9 c3 2d 00 00       	jmp    93f45 <Java_com_adjust_sdk_sig_NativeLibHelper_nOnResume@@Base-0x26d5e>
   91182:	48 8b bd e0 fe ff ff 	mov    rdi,QWORD PTR [rbp-0x120]
   91189:	48 8b 07             	mov    rax,QWORD PTR [rdi]
   9118c:	48 8b b5 b8 fa ff ff 	mov    rsi,QWORD PTR [rbp-0x548]
   91193:	ff 90 b8 00 00 00    	call   QWORD PTR [rax+0xb8]
   91199:	48 8b 85 48 ff ff ff 	mov    rax,QWORD PTR [rbp-0xb8]
   911a0:	48 89 85 58 ff ff ff 	mov    QWORD PTR [rbp-0xa8],rax
   911a7:	48 8b 85 40 ff ff ff 	mov    rax,QWORD PTR [rbp-0xc0]
   911ae:	48 89 85 60 ff ff ff 	mov    QWORD PTR [rbp-0xa0],rax
   911b5:	48 8b 85 30 ff ff ff 	mov    rax,QWORD PTR [rbp-0xd0]
   911bc:	48 89 85 68 ff ff ff 	mov    QWORD PTR [rbp-0x98],rax
   911c3:	8b 45 c0             	mov    eax,DWORD PTR [rbp-0x40]
   911c6:	89 45 c8             	mov    DWORD PTR [rbp-0x38],eax
   911c9:	8b 45 c4             	mov    eax,DWORD PTR [rbp-0x3c]
   911cc:	89 45 cc             	mov    DWORD PTR [rbp-0x34],eax
   911cf:	48 8b 85 28 ff ff ff 	mov    rax,QWORD PTR [rbp-0xd8]
   911d6:	48 89 85 70 ff ff ff 	mov    QWORD PTR [rbp-0x90],rax
   911dd:	48 89 9d 78 ff ff ff 	mov    QWORD PTR [rbp-0x88],rbx
   911e4:	48 8b 85 50 ff ff ff 	mov    rax,QWORD PTR [rbp-0xb0]
   911eb:	48 89 45 80          	mov    QWORD PTR [rbp-0x80],rax
   911ef:	48 8b 85 20 ff ff ff 	mov    rax,QWORD PTR [rbp-0xe0]
   911f6:	48 89 45 88          	mov    QWORD PTR [rbp-0x78],rax
   911fa:	48 8b 85 18 ff ff ff 	mov    rax,QWORD PTR [rbp-0xe8]
   91201:	48 89 45 90          	mov    QWORD PTR [rbp-0x70],rax
   91205:	48 8b 85 08 ff ff ff 	mov    rax,QWORD PTR [rbp-0xf8]
   9120c:	48 89 45 98          	mov    QWORD PTR [rbp-0x68],rax
   91210:	48 8b 85 10 ff ff ff 	mov    rax,QWORD PTR [rbp-0xf0]
   91217:	48 89 45 a0          	mov    QWORD PTR [rbp-0x60],rax
   9121b:	48 8b 85 f8 fe ff ff 	mov    rax,QWORD PTR [rbp-0x108]
   91222:	48 89 45 a8          	mov    QWORD PTR [rbp-0x58],rax
   91226:	4c 89 75 b0          	mov    QWORD PTR [rbp-0x50],r14
   9122a:	48 8b 85 38 ff ff ff 	mov    rax,QWORD PTR [rbp-0xc8]
   91231:	48 89 45 b8          	mov    QWORD PTR [rbp-0x48],rax
   91235:	48 ba 80 39 c9 b2 15 	movabs rdx,0xe964c415b2c93980
   9123c:	c4 64 e9 
   9123f:	e9 8e 72 ff ff       	jmp    884d2 <Java_com_adjust_sdk_sig_NativeLibHelper_nOnResume@@Base-0x327d1>
   91244:	48 8b 85 58 fe ff ff 	mov    rax,QWORD PTR [rbp-0x1a8]
   9124b:	8b 4d c0             	mov    ecx,DWORD PTR [rbp-0x40]
   9124e:	3b 08                	cmp    ecx,DWORD PTR [rax]
   91250:	48 ba ae f9 2b 2c 93 	movabs rdx,0x3a87eb932c2bf9ae
   91257:	eb 87 3a 
   9125a:	48 b8 63 bc 51 43 e2 	movabs rax,0xb571eae24351bc63
   91261:	ea 71 b5 
   91264:	48 0f 4c d0          	cmovl  rdx,rax
   91268:	48 8b 85 48 ff ff ff 	mov    rax,QWORD PTR [rbp-0xb8]
   9126f:	48 89 85 58 ff ff ff 	mov    QWORD PTR [rbp-0xa8],rax
   91276:	48 8b 85 40 ff ff ff 	mov    rax,QWORD PTR [rbp-0xc0]
   9127d:	48 89 85 60 ff ff ff 	mov    QWORD PTR [rbp-0xa0],rax
   91284:	48 8b 85 30 ff ff ff 	mov    rax,QWORD PTR [rbp-0xd0]
   9128b:	48 89 85 68 ff ff ff 	mov    QWORD PTR [rbp-0x98],rax
   91292:	8b 45 c4             	mov    eax,DWORD PTR [rbp-0x3c]
   91295:	89 45 cc             	mov    DWORD PTR [rbp-0x34],eax
   91298:	48 8b 85 28 ff ff ff 	mov    rax,QWORD PTR [rbp-0xd8]
   9129f:	48 89 85 70 ff ff ff 	mov    QWORD PTR [rbp-0x90],rax
   912a6:	48 8b 85 f0 fe ff ff 	mov    rax,QWORD PTR [rbp-0x110]
   912ad:	48 89 85 78 ff ff ff 	mov    QWORD PTR [rbp-0x88],rax
   912b4:	48 8b 85 50 ff ff ff 	mov    rax,QWORD PTR [rbp-0xb0]
   912bb:	48 89 45 80          	mov    QWORD PTR [rbp-0x80],rax
   912bf:	48 8b 85 20 ff ff ff 	mov    rax,QWORD PTR [rbp-0xe0]
   912c6:	48 89 45 88          	mov    QWORD PTR [rbp-0x78],rax
   912ca:	48 8b 85 18 ff ff ff 	mov    rax,QWORD PTR [rbp-0xe8]
   912d1:	48 89 45 90          	mov    QWORD PTR [rbp-0x70],rax
   912d5:	48 8b 85 08 ff ff ff 	mov    rax,QWORD PTR [rbp-0xf8]
   912dc:	48 89 45 98          	mov    QWORD PTR [rbp-0x68],rax
   912e0:	48 8b 85 10 ff ff ff 	mov    rax,QWORD PTR [rbp-0xf0]
   912e7:	48 89 45 a0          	mov    QWORD PTR [rbp-0x60],rax
   912eb:	48 8b 85 f8 fe ff ff 	mov    rax,QWORD PTR [rbp-0x108]
   912f2:	48 89 45 a8          	mov    QWORD PTR [rbp-0x58],rax
   912f6:	48 8b 85 00 ff ff ff 	mov    rax,QWORD PTR [rbp-0x100]
   912fd:	48 89 45 b0          	mov    QWORD PTR [rbp-0x50],rax
   91301:	89 4d c8             	mov    DWORD PTR [rbp-0x38],ecx
   91304:	41 89 c9             	mov    r9d,ecx
   91307:	4c 89 8d 70 fe ff ff 	mov    QWORD PTR [rbp-0x190],r9
   9130e:	e9 3d 2c 00 00       	jmp    93f50 <Java_com_adjust_sdk_sig_NativeLibHelper_nOnResume@@Base-0x26d53>
   91313:	4c 8b 95 50 ff ff ff 	mov    r10,QWORD PTR [rbp-0xb0]
   9131a:	41 80 3a 00          	cmp    BYTE PTR [r10],0x0
   9131e:	48 ba 81 f6 ea 65 62 	movabs rdx,0x98b2036265eaf681
   91325:	03 b2 98 
   91328:	48 b8 38 a6 2c 98 c5 	movabs rax,0xa59ee2c5982ca638
   9132f:	e2 9e a5 
   91332:	48 0f 44 d0          	cmove  rdx,rax
   91336:	48 8b 85 48 ff ff ff 	mov    rax,QWORD PTR [rbp-0xb8]
   9133d:	48 89 85 58 ff ff ff 	mov    QWORD PTR [rbp-0xa8],rax
   91344:	48 8b 85 40 ff ff ff 	mov    rax,QWORD PTR [rbp-0xc0]
   9134b:	48 89 85 60 ff ff ff 	mov    QWORD PTR [rbp-0xa0],rax
   91352:	48 8b 85 30 ff ff ff 	mov    rax,QWORD PTR [rbp-0xd0]
   91359:	48 89 85 68 ff ff ff 	mov    QWORD PTR [rbp-0x98],rax
   91360:	44 89 75 c8          	mov    DWORD PTR [rbp-0x38],r14d
   91364:	8b 45 c4             	mov    eax,DWORD PTR [rbp-0x3c]
   91367:	89 45 cc             	mov    DWORD PTR [rbp-0x34],eax
   9136a:	48 89 9d 70 ff ff ff 	mov    QWORD PTR [rbp-0x90],rbx
   91371:	4c 89 9d 78 ff ff ff 	mov    QWORD PTR [rbp-0x88],r11
   91378:	4c 89 4d 88          	mov    QWORD PTR [rbp-0x78],r9
   9137c:	48 89 4d 90          	mov    QWORD PTR [rbp-0x70],rcx
   91380:	49 8d 4a 01          	lea    rcx,[r10+0x1]
   91384:	48 89 8d d8 f9 ff ff 	mov    QWORD PTR [rbp-0x628],rcx
   9138b:	4c 89 55 80          	mov    QWORD PTR [rbp-0x80],r10
   9138f:	4c 89 95 08 fb ff ff 	mov    QWORD PTR [rbp-0x4f8],r10
   91396:	48 89 75 98          	mov    QWORD PTR [rbp-0x68],rsi
   9139a:	4c 89 65 a0          	mov    QWORD PTR [rbp-0x60],r12
   9139e:	e9 3c 1a 00 00       	jmp    92ddf <Java_com_adjust_sdk_sig_NativeLibHelper_nOnResume@@Base-0x27ec4>
   913a3:	48 8b 85 c0 fe ff ff 	mov    rax,QWORD PTR [rbp-0x140]
   913aa:	c7 00 24 00 00 00    	mov    DWORD PTR [rax],0x24
   913b0:	e9 f4 24 00 00       	jmp    938a9 <Java_com_adjust_sdk_sig_NativeLibHelper_nOnResume@@Base-0x273fa>
   913b5:	48 8b 85 98 fe ff ff 	mov    rax,QWORD PTR [rbp-0x168]
   913bc:	48 8b 00             	mov    rax,QWORD PTR [rax]
   913bf:	48 89 85 d8 fa ff ff 	mov    QWORD PTR [rbp-0x528],rax
   913c6:	48 85 c0             	test   rax,rax
   913c9:	48 b8 b9 52 25 4f f0 	movabs rax,0xe8a9d5f04f2552b9
   913d0:	d5 a9 e8 
   913d3:	48 89 c2             	mov    rdx,rax
   913d6:	48 b9 02 b9 9d af 10 	movabs rcx,0x783c1810af9db902
   913dd:	18 3c 78 
   913e0:	48 0f 45 d1          	cmovne rdx,rcx
   913e4:	48 83 bd e0 fe ff ff 	cmp    QWORD PTR [rbp-0x120],0x0
   913eb:	00 
   913ec:	48 0f 44 d0          	cmove  rdx,rax
   913f0:	48 8b 85 48 ff ff ff 	mov    rax,QWORD PTR [rbp-0xb8]
   913f7:	48 89 85 58 ff ff ff 	mov    QWORD PTR [rbp-0xa8],rax
   913fe:	48 8b 85 40 ff ff ff 	mov    rax,QWORD PTR [rbp-0xc0]
   91405:	48 89 85 60 ff ff ff 	mov    QWORD PTR [rbp-0xa0],rax
   9140c:	48 8b 85 30 ff ff ff 	mov    rax,QWORD PTR [rbp-0xd0]
   91413:	48 89 85 68 ff ff ff 	mov    QWORD PTR [rbp-0x98],rax
   9141a:	8b 45 c0             	mov    eax,DWORD PTR [rbp-0x40]
   9141d:	89 45 c8             	mov    DWORD PTR [rbp-0x38],eax
   91420:	44 89 75 cc          	mov    DWORD PTR [rbp-0x34],r14d
   91424:	4c 89 bd 70 ff ff ff 	mov    QWORD PTR [rbp-0x90],r15
   9142b:	4c 89 a5 78 ff ff ff 	mov    QWORD PTR [rbp-0x88],r12
   91432:	e9 1a 08 00 00       	jmp    91c51 <Java_com_adjust_sdk_sig_NativeLibHelper_nOnResume@@Base-0x29052>
   91437:	4c 8b 95 d0 fb ff ff 	mov    r10,QWORD PTR [rbp-0x430]
   9143e:	41 8a 02             	mov    al,BYTE PTR [r10]
   91441:	48 8b 95 c8 fb ff ff 	mov    rdx,QWORD PTR [rbp-0x438]
   91448:	88 02                	mov    BYTE PTR [rdx],al
   9144a:	48 8b 85 48 ff ff ff 	mov    rax,QWORD PTR [rbp-0xb8]
   91451:	48 89 85 58 ff ff ff 	mov    QWORD PTR [rbp-0xa8],rax
   91458:	48 8b 85 40 ff ff ff 	mov    rax,QWORD PTR [rbp-0xc0]
   9145f:	48 89 85 60 ff ff ff 	mov    QWORD PTR [rbp-0xa0],rax
   91466:	48 8b 85 30 ff ff ff 	mov    rax,QWORD PTR [rbp-0xd0]
   9146d:	48 89 85 68 ff ff ff 	mov    QWORD PTR [rbp-0x98],rax
   91474:	44 89 75 c8          	mov    DWORD PTR [rbp-0x38],r14d
   91478:	8b 45 c4             	mov    eax,DWORD PTR [rbp-0x3c]
   9147b:	89 45 cc             	mov    DWORD PTR [rbp-0x34],eax
   9147e:	48 8b 85 28 ff ff ff 	mov    rax,QWORD PTR [rbp-0xd8]
   91485:	48 89 85 70 ff ff ff 	mov    QWORD PTR [rbp-0x90],rax
   9148c:	48 8b 85 f0 fe ff ff 	mov    rax,QWORD PTR [rbp-0x110]
   91493:	48 89 85 78 ff ff ff 	mov    QWORD PTR [rbp-0x88],rax
   9149a:	48 8b 85 50 ff ff ff 	mov    rax,QWORD PTR [rbp-0xb0]
   914a1:	48 89 45 80          	mov    QWORD PTR [rbp-0x80],rax
   914a5:	48 89 5d 88          	mov    QWORD PTR [rbp-0x78],rbx
   914a9:	4c 89 5d 90          	mov    QWORD PTR [rbp-0x70],r11
   914ad:	4c 89 4d 98          	mov    QWORD PTR [rbp-0x68],r9
   914b1:	48 89 75 a0          	mov    QWORD PTR [rbp-0x60],rsi
   914b5:	48 89 7d a8          	mov    QWORD PTR [rbp-0x58],rdi
   914b9:	4c 89 45 b0          	mov    QWORD PTR [rbp-0x50],r8
   914bd:	48 8b 85 38 ff ff ff 	mov    rax,QWORD PTR [rbp-0xc8]
   914c4:	48 89 45 b8          	mov    QWORD PTR [rbp-0x48],rax
   914c8:	49 ff c2             	inc    r10
   914cb:	4c 89 95 80 fd ff ff 	mov    QWORD PTR [rbp-0x280],r10
   914d2:	48 ff c2             	inc    rdx
   914d5:	48 89 95 90 fd ff ff 	mov    QWORD PTR [rbp-0x270],rdx
   914dc:	48 8b 95 b8 fb ff ff 	mov    rdx,QWORD PTR [rbp-0x448]
   914e3:	48 ff ca             	dec    rdx
   914e6:	e9 bd 1c 00 00       	jmp    931a8 <Java_com_adjust_sdk_sig_NativeLibHelper_nOnResume@@Base-0x27afb>
   914eb:	48 8b 85 78 fe ff ff 	mov    rax,QWORD PTR [rbp-0x188]
   914f2:	48 8b 10             	mov    rdx,QWORD PTR [rax]
   914f5:	4c 8b bd c0 fe ff ff 	mov    r15,QWORD PTR [rbp-0x140]
   914fc:	4c 89 ff             	mov    rdi,r15
   914ff:	48 8b b5 e0 fe ff ff 	mov    rsi,QWORD PTR [rbp-0x120]
   91506:	6a ff                	push   0xffffffffffffffff
   91508:	59                   	pop    rcx
   91509:	4c 8b 85 a0 fe ff ff 	mov    r8,QWORD PTR [rbp-0x160]
   91510:	e8 79 12 02 00       	call   b278e <Java_com_adjust_sdk_sig_NativeLibHelper_nOnResume@@Base-0x8515>
   91515:	41 83 3f 00          	cmp    DWORD PTR [r15],0x0
   91519:	48 ba 45 7d 60 fc 45 	movabs rdx,0xc3dbac45fc607d45
   91520:	ac db c3 
   91523:	48 b8 9e a3 f6 0a 4f 	movabs rax,0x94e94f0af6a39e
   9152a:	e9 94 00 
   9152d:	48 0f 44 d0          	cmove  rdx,rax
   91531:	48 8b 85 48 ff ff ff 	mov    rax,QWORD PTR [rbp-0xb8]
   91538:	48 89 85 58 ff ff ff 	mov    QWORD PTR [rbp-0xa8],rax
   9153f:	48 8b 85 40 ff ff ff 	mov    rax,QWORD PTR [rbp-0xc0]
   91546:	48 89 85 60 ff ff ff 	mov    QWORD PTR [rbp-0xa0],rax
   9154d:	48 8b 85 30 ff ff ff 	mov    rax,QWORD PTR [rbp-0xd0]
   91554:	48 89 85 68 ff ff ff 	mov    QWORD PTR [rbp-0x98],rax
   9155b:	8b 45 c0             	mov    eax,DWORD PTR [rbp-0x40]
   9155e:	89 45 c8             	mov    DWORD PTR [rbp-0x38],eax
   91561:	8b 45 c4             	mov    eax,DWORD PTR [rbp-0x3c]
   91564:	89 45 cc             	mov    DWORD PTR [rbp-0x34],eax
   91567:	48 8b 85 28 ff ff ff 	mov    rax,QWORD PTR [rbp-0xd8]
   9156e:	48 89 85 70 ff ff ff 	mov    QWORD PTR [rbp-0x90],rax
   91575:	48 89 9d 78 ff ff ff 	mov    QWORD PTR [rbp-0x88],rbx
   9157c:	48 8b 85 50 ff ff ff 	mov    rax,QWORD PTR [rbp-0xb0]
   91583:	48 89 45 80          	mov    QWORD PTR [rbp-0x80],rax
   91587:	48 8b 85 20 ff ff ff 	mov    rax,QWORD PTR [rbp-0xe0]
   9158e:	48 89 45 88          	mov    QWORD PTR [rbp-0x78],rax
   91592:	48 8b 85 18 ff ff ff 	mov    rax,QWORD PTR [rbp-0xe8]
   91599:	48 89 45 90          	mov    QWORD PTR [rbp-0x70],rax
   9159d:	48 8b 85 08 ff ff ff 	mov    rax,QWORD PTR [rbp-0xf8]
   915a4:	48 89 45 98          	mov    QWORD PTR [rbp-0x68],rax
   915a8:	48 8b 85 10 ff ff ff 	mov    rax,QWORD PTR [rbp-0xf0]
   915af:	48 89 45 a0          	mov    QWORD PTR [rbp-0x60],rax
   915b3:	4c 89 75 a8          	mov    QWORD PTR [rbp-0x58],r14
   915b7:	e9 89 29 00 00       	jmp    93f45 <Java_com_adjust_sdk_sig_NativeLibHelper_nOnResume@@Base-0x26d5e>
   915bc:	48 b8 49 49 49 49 49 	movabs rax,0x4949494949494949
   915c3:	49 49 49 
   915c6:	48 31 05 4b aa 0a 00 	xor    QWORD PTR [rip+0xaaa4b],rax        # 13c018 <write@plt+0x9498>
   915cd:	f2 0f 10 05 4b aa 0a 	movsd  xmm0,QWORD PTR [rip+0xaaa4b]        # 13c020 <write@plt+0x94a0>
   915d4:	00 
   915d5:	0f 57 05 b4 25 f7 ff 	xorps  xmm0,XMMWORD PTR [rip+0xfffffffffff725b4]        # 3b90 <Java_com_adjust_sdk_sig_NativeLibHelper_nOnResume@@Base-0xb7113>
   915dc:	f3 0f 11 05 3c aa 0a 	movss  DWORD PTR [rip+0xaaa3c],xmm0        # 13c020 <write@plt+0x94a0>
   915e3:	00 
   915e4:	80 35 39 aa 0a 00 49 	xor    BYTE PTR [rip+0xaaa39],0x49        # 13c024 <write@plt+0x94a4>
   915eb:	80 35 33 aa 0a 00 49 	xor    BYTE PTR [rip+0xaaa33],0x49        # 13c025 <write@plt+0x94a5>
   915f2:	c6 05 a8 d7 0a 00 01 	mov    BYTE PTR [rip+0xad7a8],0x1        # 13eda1 <write@plt+0xc221>
   915f9:	48 8b 85 48 ff ff ff 	mov    rax,QWORD PTR [rbp-0xb8]
   91600:	48 89 85 58 ff ff ff 	mov    QWORD PTR [rbp-0xa8],rax
   91607:	48 8b 85 40 ff ff ff 	mov    rax,QWORD PTR [rbp-0xc0]
   9160e:	48 89 85 60 ff ff ff 	mov    QWORD PTR [rbp-0xa0],rax
   91615:	48 8b 85 30 ff ff ff 	mov    rax,QWORD PTR [rbp-0xd0]
   9161c:	48 89 85 68 ff ff ff 	mov    QWORD PTR [rbp-0x98],rax
   91623:	8b 45 c0             	mov    eax,DWORD PTR [rbp-0x40]
   91626:	89 45 c8             	mov    DWORD PTR [rbp-0x38],eax
   91629:	8b 45 c4             	mov    eax,DWORD PTR [rbp-0x3c]
   9162c:	89 45 cc             	mov    DWORD PTR [rbp-0x34],eax
   9162f:	48 8b 85 28 ff ff ff 	mov    rax,QWORD PTR [rbp-0xd8]
   91636:	48 89 85 70 ff ff ff 	mov    QWORD PTR [rbp-0x90],rax
   9163d:	48 89 9d 78 ff ff ff 	mov    QWORD PTR [rbp-0x88],rbx
   91644:	48 8b 85 50 ff ff ff 	mov    rax,QWORD PTR [rbp-0xb0]
   9164b:	48 89 45 80          	mov    QWORD PTR [rbp-0x80],rax
   9164f:	48 8b 85 20 ff ff ff 	mov    rax,QWORD PTR [rbp-0xe0]
   91656:	48 89 45 88          	mov    QWORD PTR [rbp-0x78],rax
   9165a:	48 8b 85 18 ff ff ff 	mov    rax,QWORD PTR [rbp-0xe8]
   91661:	48 89 45 90          	mov    QWORD PTR [rbp-0x70],rax
   91665:	48 8b 85 08 ff ff ff 	mov    rax,QWORD PTR [rbp-0xf8]
   9166c:	48 89 45 98          	mov    QWORD PTR [rbp-0x68],rax
   91670:	48 8b 85 10 ff ff ff 	mov    rax,QWORD PTR [rbp-0xf0]
   91677:	48 89 45 a0          	mov    QWORD PTR [rbp-0x60],rax
   9167b:	4c 89 75 a8          	mov    QWORD PTR [rbp-0x58],r14
   9167f:	48 8b 85 00 ff ff ff 	mov    rax,QWORD PTR [rbp-0x100]
   91686:	48 89 45 b0          	mov    QWORD PTR [rbp-0x50],rax
   9168a:	4c 89 4d b8          	mov    QWORD PTR [rbp-0x48],r9
   9168e:	48 ba 7d 16 ed d8 4b 	movabs rdx,0x416be64bd8ed167d
   91695:	e6 6b 41 
   91698:	e9 35 6e ff ff       	jmp    884d2 <Java_com_adjust_sdk_sig_NativeLibHelper_nOnResume@@Base-0x327d1>
   9169d:	48 8b 85 d8 fe ff ff 	mov    rax,QWORD PTR [rbp-0x128]
   916a4:	48 83 60 20 00       	and    QWORD PTR [rax+0x20],0x0
   916a9:	48 8b 85 48 ff ff ff 	mov    rax,QWORD PTR [rbp-0xb8]
   916b0:	48 89 85 58 ff ff ff 	mov    QWORD PTR [rbp-0xa8],rax
   916b7:	48 8b 85 40 ff ff ff 	mov    rax,QWORD PTR [rbp-0xc0]
   916be:	48 89 85 60 ff ff ff 	mov    QWORD PTR [rbp-0xa0],rax
   916c5:	48 8b 85 30 ff ff ff 	mov    rax,QWORD PTR [rbp-0xd0]
   916cc:	48 89 85 68 ff ff ff 	mov    QWORD PTR [rbp-0x98],rax
   916d3:	8b 45 c0             	mov    eax,DWORD PTR [rbp-0x40]
   916d6:	89 45 c8             	mov    DWORD PTR [rbp-0x38],eax
   916d9:	48 8b 85 28 ff ff ff 	mov    rax,QWORD PTR [rbp-0xd8]
   916e0:	48 89 85 70 ff ff ff 	mov    QWORD PTR [rbp-0x90],rax
   916e7:	48 8b 85 f0 fe ff ff 	mov    rax,QWORD PTR [rbp-0x110]
   916ee:	48 89 85 78 ff ff ff 	mov    QWORD PTR [rbp-0x88],rax
   916f5:	48 8b 85 50 ff ff ff 	mov    rax,QWORD PTR [rbp-0xb0]
   916fc:	48 89 45 80          	mov    QWORD PTR [rbp-0x80],rax
   91700:	48 8b 85 20 ff ff ff 	mov    rax,QWORD PTR [rbp-0xe0]
   91707:	48 89 45 88          	mov    QWORD PTR [rbp-0x78],rax
   9170b:	48 8b 85 18 ff ff ff 	mov    rax,QWORD PTR [rbp-0xe8]
   91712:	48 89 45 90          	mov    QWORD PTR [rbp-0x70],rax
   91716:	48 8b 85 08 ff ff ff 	mov    rax,QWORD PTR [rbp-0xf8]
   9171d:	48 89 45 98          	mov    QWORD PTR [rbp-0x68],rax
   91721:	48 8b 85 10 ff ff ff 	mov    rax,QWORD PTR [rbp-0xf0]
   91728:	48 89 45 a0          	mov    QWORD PTR [rbp-0x60],rax
   9172c:	48 8b 85 f8 fe ff ff 	mov    rax,QWORD PTR [rbp-0x108]
   91733:	48 89 45 a8          	mov    QWORD PTR [rbp-0x58],rax
   91737:	48 8b 85 00 ff ff ff 	mov    rax,QWORD PTR [rbp-0x100]
   9173e:	48 89 45 b0          	mov    QWORD PTR [rbp-0x50],rax
   91742:	e9 7f 22 00 00       	jmp    939c6 <Java_com_adjust_sdk_sig_NativeLibHelper_nOnResume@@Base-0x272dd>
   91747:	80 3d 59 d6 0a 00 00 	cmp    BYTE PTR [rip+0xad659],0x0        # 13eda7 <write@plt+0xc227>
   9174e:	48 ba ac 01 13 29 a9 	movabs rdx,0x971185a9291301ac
   91755:	85 11 97 
   91758:	48 b8 29 d9 4d 8b 9b 	movabs rax,0xdf29229b8b4dd929
   9175f:	22 29 df 
   91762:	e9 66 19 00 00       	jmp    930cd <Java_com_adjust_sdk_sig_NativeLibHelper_nOnResume@@Base-0x27bd6>
   91767:	4c 8b 95 f8 fd ff ff 	mov    r10,QWORD PTR [rbp-0x208]
   9176e:	4d 85 d2             	test   r10,r10
   91771:	48 ba dd 53 92 8c c5 	movabs rdx,0xe17b07c58c9253dd
   91778:	07 7b e1 
   9177b:	48 b8 54 64 22 10 fa 	movabs rax,0x82d95ffa10226454
   91782:	5f d9 82 
   91785:	48 0f 44 d0          	cmove  rdx,rax
   91789:	48 8b 85 48 ff ff ff 	mov    rax,QWORD PTR [rbp-0xb8]
   91790:	48 89 85 58 ff ff ff 	mov    QWORD PTR [rbp-0xa8],rax
   91797:	48 8b 85 40 ff ff ff 	mov    rax,QWORD PTR [rbp-0xc0]
   9179e:	48 89 85 60 ff ff ff 	mov    QWORD PTR [rbp-0xa0],rax
   917a5:	48 8b 85 30 ff ff ff 	mov    rax,QWORD PTR [rbp-0xd0]
   917ac:	48 89 85 68 ff ff ff 	mov    QWORD PTR [rbp-0x98],rax
   917b3:	8b 45 c0             	mov    eax,DWORD PTR [rbp-0x40]
   917b6:	89 45 c8             	mov    DWORD PTR [rbp-0x38],eax
   917b9:	8b 45 c4             	mov    eax,DWORD PTR [rbp-0x3c]
   917bc:	89 45 cc             	mov    DWORD PTR [rbp-0x34],eax
   917bf:	48 8b 85 28 ff ff ff 	mov    rax,QWORD PTR [rbp-0xd8]
   917c6:	48 89 85 70 ff ff ff 	mov    QWORD PTR [rbp-0x90],rax
   917cd:	48 89 9d 78 ff ff ff 	mov    QWORD PTR [rbp-0x88],rbx
   917d4:	48 8b 85 50 ff ff ff 	mov    rax,QWORD PTR [rbp-0xb0]
   917db:	48 89 45 80          	mov    QWORD PTR [rbp-0x80],rax
   917df:	48 8b 85 20 ff ff ff 	mov    rax,QWORD PTR [rbp-0xe0]
   917e6:	48 89 45 88          	mov    QWORD PTR [rbp-0x78],rax
   917ea:	48 8b 85 18 ff ff ff 	mov    rax,QWORD PTR [rbp-0xe8]
   917f1:	48 89 45 90          	mov    QWORD PTR [rbp-0x70],rax
   917f5:	48 8b 85 08 ff ff ff 	mov    rax,QWORD PTR [rbp-0xf8]
   917fc:	48 89 45 98          	mov    QWORD PTR [rbp-0x68],rax
   91800:	48 8b 85 10 ff ff ff 	mov    rax,QWORD PTR [rbp-0xf0]
   91807:	48 89 45 a0          	mov    QWORD PTR [rbp-0x60],rax
   9180b:	4c 89 75 a8          	mov    QWORD PTR [rbp-0x58],r14
   9180f:	48 8b 85 00 ff ff ff 	mov    rax,QWORD PTR [rbp-0x100]
   91816:	48 89 45 b0          	mov    QWORD PTR [rbp-0x50],rax
   9181a:	48 8b 85 38 ff ff ff 	mov    rax,QWORD PTR [rbp-0xc8]
   91821:	48 89 45 b8          	mov    QWORD PTR [rbp-0x48],rax
   91825:	4c 89 95 50 fb ff ff 	mov    QWORD PTR [rbp-0x4b0],r10
   9182c:	4c 8b 95 f0 fd ff ff 	mov    r10,QWORD PTR [rbp-0x210]
   91833:	4c 89 95 58 fb ff ff 	mov    QWORD PTR [rbp-0x4a8],r10
   9183a:	4c 8b 95 e8 fd ff ff 	mov    r10,QWORD PTR [rbp-0x218]
   91841:	4c 89 95 60 fb ff ff 	mov    QWORD PTR [rbp-0x4a0],r10
   91848:	e9 85 6c ff ff       	jmp    884d2 <Java_com_adjust_sdk_sig_NativeLibHelper_nOnResume@@Base-0x327d1>
   9184d:	48 8b 85 20 fb ff ff 	mov    rax,QWORD PTR [rbp-0x4e0]
   91854:	48 2b 85 c8 fe ff ff 	sub    rax,QWORD PTR [rbp-0x138]
   9185b:	48 89 85 78 fa ff ff 	mov    QWORD PTR [rbp-0x588],rax
   91862:	48 8d 78 01          	lea    rdi,[rax+0x1]
   91866:	49 89 d4             	mov    r12,rdx
   91869:	4d 89 df             	mov    r15,r11
   9186c:	e8 df 0f 0a 00       	call   132850 <malloc@plt>
   91871:	48 89 85 00 fd ff ff 	mov    QWORD PTR [rbp-0x300],rax
   91878:	48 85 c0             	test   rax,rax
   9187b:	48 ba ea bf 5c d2 69 	movabs rdx,0x7f552969d25cbfea
   91882:	29 55 7f 
   91885:	48 b8 47 39 3c e9 a6 	movabs rax,0x93f25fa6e93c3947
   9188c:	5f f2 93 
   9188f:	e9 d7 1e 00 00       	jmp    9376b <Java_com_adjust_sdk_sig_NativeLibHelper_nOnResume@@Base-0x27538>
   91894:	80 3d e6 d6 0a 00 00 	cmp    BYTE PTR [rip+0xad6e6],0x0        # 13ef81 <write@plt+0xc401>
   9189b:	48 ba f4 d9 3e 97 66 	movabs rdx,0xce29266973ed9f4
   918a2:	92 e2 0c 
   918a5:	48 b8 21 0e 0b 3f 7a 	movabs rax,0xf791c87a3f0b0e21
   918ac:	c8 91 f7 
   918af:	48 0f 45 d0          	cmovne rdx,rax
   918b3:	48 8b 85 48 ff ff ff 	mov    rax,QWORD PTR [rbp-0xb8]
   918ba:	48 89 85 58 ff ff ff 	mov    QWORD PTR [rbp-0xa8],rax
   918c1:	48 8b 85 40 ff ff ff 	mov    rax,QWORD PTR [rbp-0xc0]
   918c8:	48 89 85 60 ff ff ff 	mov    QWORD PTR [rbp-0xa0],rax
   918cf:	4c 89 b5 68 ff ff ff 	mov    QWORD PTR [rbp-0x98],r14
   918d6:	44 89 55 c8          	mov    DWORD PTR [rbp-0x38],r10d
   918da:	8b 45 c4             	mov    eax,DWORD PTR [rbp-0x3c]
   918dd:	89 45 cc             	mov    DWORD PTR [rbp-0x34],eax
   918e0:	48 8b 85 28 ff ff ff 	mov    rax,QWORD PTR [rbp-0xd8]
   918e7:	48 89 85 70 ff ff ff 	mov    QWORD PTR [rbp-0x90],rax
   918ee:	48 89 9d 78 ff ff ff 	mov    QWORD PTR [rbp-0x88],rbx
   918f5:	48 8b 85 50 ff ff ff 	mov    rax,QWORD PTR [rbp-0xb0]
   918fc:	48 89 45 80          	mov    QWORD PTR [rbp-0x80],rax
   91900:	4c 89 5d 88          	mov    QWORD PTR [rbp-0x78],r11
   91904:	4c 89 4d 90          	mov    QWORD PTR [rbp-0x70],r9
   91908:	48 89 4d 98          	mov    QWORD PTR [rbp-0x68],rcx
   9190c:	e9 ca 14 00 00       	jmp    92ddb <Java_com_adjust_sdk_sig_NativeLibHelper_nOnResume@@Base-0x27ec8>
   91911:	4c 8b 95 40 fd ff ff 	mov    r10,QWORD PTR [rbp-0x2c0]
   91918:	4d 85 d2             	test   r10,r10
   9191b:	48 ba 0f 29 a5 b6 72 	movabs rdx,0x1a7e0372b6a5290f
   91922:	03 7e 1a 
   91925:	48 b8 a1 40 4f 93 5a 	movabs rax,0x68f71c5a934f40a1
   9192c:	1c f7 68 
   9192f:	48 0f 44 d0          	cmove  rdx,rax
   91933:	48 8b 85 48 ff ff ff 	mov    rax,QWORD PTR [rbp-0xb8]
   9193a:	48 89 85 58 ff ff ff 	mov    QWORD PTR [rbp-0xa8],rax
   91941:	48 8b 85 40 ff ff ff 	mov    rax,QWORD PTR [rbp-0xc0]
   91948:	48 89 85 60 ff ff ff 	mov    QWORD PTR [rbp-0xa0],rax
   9194f:	48 8b 85 30 ff ff ff 	mov    rax,QWORD PTR [rbp-0xd0]
   91956:	48 89 85 68 ff ff ff 	mov    QWORD PTR [rbp-0x98],rax
   9195d:	8b 45 c0             	mov    eax,DWORD PTR [rbp-0x40]
   91960:	89 45 c8             	mov    DWORD PTR [rbp-0x38],eax
   91963:	8b 45 c4             	mov    eax,DWORD PTR [rbp-0x3c]
   91966:	89 45 cc             	mov    DWORD PTR [rbp-0x34],eax
   91969:	48 8b 85 28 ff ff ff 	mov    rax,QWORD PTR [rbp-0xd8]
   91970:	48 89 85 70 ff ff ff 	mov    QWORD PTR [rbp-0x90],rax
   91977:	48 8b 85 f0 fe ff ff 	mov    rax,QWORD PTR [rbp-0x110]
   9197e:	48 89 85 78 ff ff ff 	mov    QWORD PTR [rbp-0x88],rax
   91985:	48 8b 85 50 ff ff ff 	mov    rax,QWORD PTR [rbp-0xb0]
   9198c:	48 89 45 80          	mov    QWORD PTR [rbp-0x80],rax
   91990:	48 8b 85 20 ff ff ff 	mov    rax,QWORD PTR [rbp-0xe0]
   91997:	48 89 45 88          	mov    QWORD PTR [rbp-0x78],rax
   9199b:	48 8b 85 18 ff ff ff 	mov    rax,QWORD PTR [rbp-0xe8]
   919a2:	48 89 45 90          	mov    QWORD PTR [rbp-0x70],rax
   919a6:	48 8b 85 08 ff ff ff 	mov    rax,QWORD PTR [rbp-0xf8]
   919ad:	48 89 45 98          	mov    QWORD PTR [rbp-0x68],rax
   919b1:	48 8b 85 10 ff ff ff 	mov    rax,QWORD PTR [rbp-0xf0]
   919b8:	48 89 45 a0          	mov    QWORD PTR [rbp-0x60],rax
   919bc:	48 8b 85 f8 fe ff ff 	mov    rax,QWORD PTR [rbp-0x108]
   919c3:	48 89 45 a8          	mov    QWORD PTR [rbp-0x58],rax
   919c7:	48 8b 85 00 ff ff ff 	mov    rax,QWORD PTR [rbp-0x100]
   919ce:	48 89 45 b0          	mov    QWORD PTR [rbp-0x50],rax
   919d2:	48 8b 85 38 ff ff ff 	mov    rax,QWORD PTR [rbp-0xc8]
   919d9:	48 89 45 b8          	mov    QWORD PTR [rbp-0x48],rax
   919dd:	4c 89 95 38 fc ff ff 	mov    QWORD PTR [rbp-0x3c8],r10
   919e4:	4c 8b 95 48 fd ff ff 	mov    r10,QWORD PTR [rbp-0x2b8]
   919eb:	4c 89 95 40 fc ff ff 	mov    QWORD PTR [rbp-0x3c0],r10
   919f2:	4c 8b 95 50 fd ff ff 	mov    r10,QWORD PTR [rbp-0x2b0]
   919f9:	4c 89 95 48 fc ff ff 	mov    QWORD PTR [rbp-0x3b8],r10
   91a00:	e9 cd 6a ff ff       	jmp    884d2 <Java_com_adjust_sdk_sig_NativeLibHelper_nOnResume@@Base-0x327d1>
   91a05:	48 8b 95 88 fa ff ff 	mov    rdx,QWORD PTR [rbp-0x578]
   91a0c:	4c 8b 95 10 fd ff ff 	mov    r10,QWORD PTR [rbp-0x2f0]
   91a13:	41 c6 04 12 00       	mov    BYTE PTR [r10+rdx*1],0x0
   91a18:	48 8b 85 48 ff ff ff 	mov    rax,QWORD PTR [rbp-0xb8]
   91a1f:	48 89 85 58 ff ff ff 	mov    QWORD PTR [rbp-0xa8],rax
   91a26:	48 8b 85 40 ff ff ff 	mov    rax,QWORD PTR [rbp-0xc0]
   91a2d:	48 89 85 60 ff ff ff 	mov    QWORD PTR [rbp-0xa0],rax
   91a34:	48 8b 85 30 ff ff ff 	mov    rax,QWORD PTR [rbp-0xd0]
   91a3b:	48 89 85 68 ff ff ff 	mov    QWORD PTR [rbp-0x98],rax
   91a42:	8b 45 c0             	mov    eax,DWORD PTR [rbp-0x40]
   91a45:	89 45 c8             	mov    DWORD PTR [rbp-0x38],eax
   91a48:	8b 45 c4             	mov    eax,DWORD PTR [rbp-0x3c]
   91a4b:	89 45 cc             	mov    DWORD PTR [rbp-0x34],eax
   91a4e:	48 8b 85 28 ff ff ff 	mov    rax,QWORD PTR [rbp-0xd8]
   91a55:	48 89 85 70 ff ff ff 	mov    QWORD PTR [rbp-0x90],rax
   91a5c:	48 8b 85 f0 fe ff ff 	mov    rax,QWORD PTR [rbp-0x110]
   91a63:	48 89 85 78 ff ff ff 	mov    QWORD PTR [rbp-0x88],rax
   91a6a:	48 8b 85 50 ff ff ff 	mov    rax,QWORD PTR [rbp-0xb0]
   91a71:	48 89 45 80          	mov    QWORD PTR [rbp-0x80],rax
   91a75:	48 8b 85 20 ff ff ff 	mov    rax,QWORD PTR [rbp-0xe0]
   91a7c:	48 89 45 88          	mov    QWORD PTR [rbp-0x78],rax
   91a80:	48 8b 85 18 ff ff ff 	mov    rax,QWORD PTR [rbp-0xe8]
   91a87:	48 89 45 90          	mov    QWORD PTR [rbp-0x70],rax
   91a8b:	48 8b 85 08 ff ff ff 	mov    rax,QWORD PTR [rbp-0xf8]
   91a92:	48 89 45 98          	mov    QWORD PTR [rbp-0x68],rax
   91a96:	48 8b 85 10 ff ff ff 	mov    rax,QWORD PTR [rbp-0xf0]
   91a9d:	48 89 45 a0          	mov    QWORD PTR [rbp-0x60],rax
   91aa1:	48 8b 85 f8 fe ff ff 	mov    rax,QWORD PTR [rbp-0x108]
   91aa8:	48 89 45 a8          	mov    QWORD PTR [rbp-0x58],rax
   91aac:	48 8b 85 00 ff ff ff 	mov    rax,QWORD PTR [rbp-0x100]
   91ab3:	48 89 45 b0          	mov    QWORD PTR [rbp-0x50],rax
   91ab7:	48 8b 85 38 ff ff ff 	mov    rax,QWORD PTR [rbp-0xc8]
   91abe:	48 89 45 b8          	mov    QWORD PTR [rbp-0x48],rax
   91ac2:	48 89 95 28 fd ff ff 	mov    QWORD PTR [rbp-0x2d8],rdx
   91ac9:	4c 89 95 30 fd ff ff 	mov    QWORD PTR [rbp-0x2d0],r10
   91ad0:	48 8b 95 d0 fe ff ff 	mov    rdx,QWORD PTR [rbp-0x130]
   91ad7:	48 89 95 38 fd ff ff 	mov    QWORD PTR [rbp-0x2c8],rdx
   91ade:	48 ba 9a 1e ff 94 cd 	movabs rdx,0xcd28f0cd94ff1e9a
   91ae5:	f0 28 cd 
   91ae8:	e9 e5 69 ff ff       	jmp    884d2 <Java_com_adjust_sdk_sig_NativeLibHelper_nOnResume@@Base-0x327d1>
   91aed:	80 3d cb d2 0a 00 00 	cmp    BYTE PTR [rip+0xad2cb],0x0        # 13edbf <write@plt+0xc23f>
   91af4:	48 ba 20 8a 7c 7e a1 	movabs rdx,0x7dc8d8a17e7c8a20
   91afb:	d8 c8 7d 
   91afe:	48 b8 31 25 5c e3 c8 	movabs rax,0x3d5ad7c8e35c2531
   91b05:	d7 5a 3d 
   91b08:	48 0f 45 d0          	cmovne rdx,rax
   91b0c:	48 8b 85 48 ff ff ff 	mov    rax,QWORD PTR [rbp-0xb8]
   91b13:	48 89 85 58 ff ff ff 	mov    QWORD PTR [rbp-0xa8],rax
   91b1a:	48 8b 85 40 ff ff ff 	mov    rax,QWORD PTR [rbp-0xc0]
   91b21:	48 89 85 60 ff ff ff 	mov    QWORD PTR [rbp-0xa0],rax
   91b28:	48 8b 85 30 ff ff ff 	mov    rax,QWORD PTR [rbp-0xd0]
   91b2f:	48 89 85 68 ff ff ff 	mov    QWORD PTR [rbp-0x98],rax
   91b36:	8b 45 c0             	mov    eax,DWORD PTR [rbp-0x40]
   91b39:	89 45 c8             	mov    DWORD PTR [rbp-0x38],eax
   91b3c:	8b 45 c4             	mov    eax,DWORD PTR [rbp-0x3c]
   91b3f:	89 45 cc             	mov    DWORD PTR [rbp-0x34],eax
   91b42:	48 8b 85 28 ff ff ff 	mov    rax,QWORD PTR [rbp-0xd8]
   91b49:	48 89 85 70 ff ff ff 	mov    QWORD PTR [rbp-0x90],rax
   91b50:	48 89 9d 78 ff ff ff 	mov    QWORD PTR [rbp-0x88],rbx
   91b57:	48 8b 85 50 ff ff ff 	mov    rax,QWORD PTR [rbp-0xb0]
   91b5e:	48 89 45 80          	mov    QWORD PTR [rbp-0x80],rax
   91b62:	48 8b 85 20 ff ff ff 	mov    rax,QWORD PTR [rbp-0xe0]
   91b69:	48 89 45 88          	mov    QWORD PTR [rbp-0x78],rax
   91b6d:	48 8b 85 18 ff ff ff 	mov    rax,QWORD PTR [rbp-0xe8]
   91b74:	48 89 45 90          	mov    QWORD PTR [rbp-0x70],rax
   91b78:	48 8b 85 08 ff ff ff 	mov    rax,QWORD PTR [rbp-0xf8]
   91b7f:	48 89 45 98          	mov    QWORD PTR [rbp-0x68],rax
   91b83:	48 8b 85 10 ff ff ff 	mov    rax,QWORD PTR [rbp-0xf0]
   91b8a:	48 89 45 a0          	mov    QWORD PTR [rbp-0x60],rax
   91b8e:	48 8b 85 f8 fe ff ff 	mov    rax,QWORD PTR [rbp-0x108]
   91b95:	48 89 45 a8          	mov    QWORD PTR [rbp-0x58],rax
   91b99:	4c 89 75 b0          	mov    QWORD PTR [rbp-0x50],r14
   91b9d:	4c 89 4d b8          	mov    QWORD PTR [rbp-0x48],r9
   91ba1:	e9 2c 69 ff ff       	jmp    884d2 <Java_com_adjust_sdk_sig_NativeLibHelper_nOnResume@@Base-0x327d1>
   91ba6:	48 8b 85 a0 fe ff ff 	mov    rax,QWORD PTR [rbp-0x160]
   91bad:	48 8b 10             	mov    rdx,QWORD PTR [rax]
   91bb0:	48 8b 9d c0 fe ff ff 	mov    rbx,QWORD PTR [rbp-0x140]
   91bb7:	48 89 df             	mov    rdi,rbx
   91bba:	48 8b b5 e0 fe ff ff 	mov    rsi,QWORD PTR [rbp-0x120]
   91bc1:	48 8b 8d 58 fe ff ff 	mov    rcx,QWORD PTR [rbp-0x1a8]
   91bc8:	e8 cf 2a 01 00       	call   a469c <Java_com_adjust_sdk_sig_NativeLibHelper_nOnResume@@Base-0x16607>
   91bcd:	83 3b 00             	cmp    DWORD PTR [rbx],0x0
   91bd0:	48 ba 46 72 81 09 75 	movabs rdx,0x73607f7509817246
   91bd7:	7f 60 73 
   91bda:	48 b8 a3 41 a2 27 84 	movabs rax,0x3199538427a241a3
   91be1:	53 99 31 
   91be4:	e9 c4 22 00 00       	jmp    93ead <Java_com_adjust_sdk_sig_NativeLibHelper_nOnResume@@Base-0x26df6>
   91be9:	80 3d 9b d3 0a 00 00 	cmp    BYTE PTR [rip+0xad39b],0x0        # 13ef8b <write@plt+0xc40b>
   91bf0:	48 ba aa 88 e4 ac 8d 	movabs rdx,0x6f2dfb8dace488aa
   91bf7:	fb 2d 6f 
   91bfa:	48 b8 7f 96 b5 96 eb 	movabs rax,0x619448eb96b5967f
   91c01:	48 94 61 
   91c04:	48 0f 45 d0          	cmovne rdx,rax
   91c08:	48 8b 85 48 ff ff ff 	mov    rax,QWORD PTR [rbp-0xb8]
   91c0f:	48 89 85 58 ff ff ff 	mov    QWORD PTR [rbp-0xa8],rax
   91c16:	48 8b 85 40 ff ff ff 	mov    rax,QWORD PTR [rbp-0xc0]
   91c1d:	48 89 85 60 ff ff ff 	mov    QWORD PTR [rbp-0xa0],rax
   91c24:	48 8b 85 30 ff ff ff 	mov    rax,QWORD PTR [rbp-0xd0]
   91c2b:	48 89 85 68 ff ff ff 	mov    QWORD PTR [rbp-0x98],rax
   91c32:	44 89 75 c8          	mov    DWORD PTR [rbp-0x38],r14d
   91c36:	8b 45 c4             	mov    eax,DWORD PTR [rbp-0x3c]
   91c39:	89 45 cc             	mov    DWORD PTR [rbp-0x34],eax
   91c3c:	48 8b 85 28 ff ff ff 	mov    rax,QWORD PTR [rbp-0xd8]
   91c43:	48 89 85 70 ff ff ff 	mov    QWORD PTR [rbp-0x90],rax
   91c4a:	48 89 9d 78 ff ff ff 	mov    QWORD PTR [rbp-0x88],rbx
   91c51:	48 8b 85 50 ff ff ff 	mov    rax,QWORD PTR [rbp-0xb0]
   91c58:	48 89 45 80          	mov    QWORD PTR [rbp-0x80],rax
   91c5c:	48 8b 85 20 ff ff ff 	mov    rax,QWORD PTR [rbp-0xe0]
   91c63:	48 89 45 88          	mov    QWORD PTR [rbp-0x78],rax
   91c67:	48 8b 85 18 ff ff ff 	mov    rax,QWORD PTR [rbp-0xe8]
   91c6e:	48 89 45 90          	mov    QWORD PTR [rbp-0x70],rax
   91c72:	48 8b 85 08 ff ff ff 	mov    rax,QWORD PTR [rbp-0xf8]
   91c79:	48 89 45 98          	mov    QWORD PTR [rbp-0x68],rax
   91c7d:	48 8b 85 10 ff ff ff 	mov    rax,QWORD PTR [rbp-0xf0]
   91c84:	48 89 45 a0          	mov    QWORD PTR [rbp-0x60],rax
   91c88:	4c 89 4d a8          	mov    QWORD PTR [rbp-0x58],r9
   91c8c:	e9 b4 22 00 00       	jmp    93f45 <Java_com_adjust_sdk_sig_NativeLibHelper_nOnResume@@Base-0x26d5e>
   91c91:	48 8b 85 a8 fe ff ff 	mov    rax,QWORD PTR [rbp-0x158]
   91c98:	48 8b 10             	mov    rdx,QWORD PTR [rax]
   91c9b:	4c 8b a5 c0 fe ff ff 	mov    r12,QWORD PTR [rbp-0x140]
   91ca2:	4c 89 e7             	mov    rdi,r12
   91ca5:	48 8b b5 e0 fe ff ff 	mov    rsi,QWORD PTR [rbp-0x120]
   91cac:	4d 89 cf             	mov    r15,r9
   91caf:	48 8b 8d b0 fe ff ff 	mov    rcx,QWORD PTR [rbp-0x150]
   91cb6:	e8 58 fd 01 00       	call   b1a13 <Java_com_adjust_sdk_sig_NativeLibHelper_nOnResume@@Base-0x9290>
   91cbb:	41 83 3c 24 00       	cmp    DWORD PTR [r12],0x0
   91cc0:	48 ba d9 77 6c c5 a2 	movabs rdx,0xfcff3ea2c56c77d9
   91cc7:	3e ff fc 
   91cca:	48 b8 90 30 2f 8d 0f 	movabs rax,0xfaf27d0f8d2f3090
   91cd1:	7d f2 fa 
   91cd4:	48 0f 44 d0          	cmove  rdx,rax
   91cd8:	48 8b 85 48 ff ff ff 	mov    rax,QWORD PTR [rbp-0xb8]
   91cdf:	48 89 85 58 ff ff ff 	mov    QWORD PTR [rbp-0xa8],rax
   91ce6:	48 8b 85 40 ff ff ff 	mov    rax,QWORD PTR [rbp-0xc0]
   91ced:	48 89 85 60 ff ff ff 	mov    QWORD PTR [rbp-0xa0],rax
   91cf4:	48 8b 85 30 ff ff ff 	mov    rax,QWORD PTR [rbp-0xd0]
   91cfb:	48 89 85 68 ff ff ff 	mov    QWORD PTR [rbp-0x98],rax
   91d02:	8b 45 c0             	mov    eax,DWORD PTR [rbp-0x40]
   91d05:	89 45 c8             	mov    DWORD PTR [rbp-0x38],eax
   91d08:	8b 45 c4             	mov    eax,DWORD PTR [rbp-0x3c]
   91d0b:	89 45 cc             	mov    DWORD PTR [rbp-0x34],eax
   91d0e:	48 8b 85 28 ff ff ff 	mov    rax,QWORD PTR [rbp-0xd8]
   91d15:	48 89 85 70 ff ff ff 	mov    QWORD PTR [rbp-0x90],rax
   91d1c:	48 89 9d 78 ff ff ff 	mov    QWORD PTR [rbp-0x88],rbx
   91d23:	48 8b 85 50 ff ff ff 	mov    rax,QWORD PTR [rbp-0xb0]
   91d2a:	48 89 45 80          	mov    QWORD PTR [rbp-0x80],rax
   91d2e:	48 8b 85 20 ff ff ff 	mov    rax,QWORD PTR [rbp-0xe0]
   91d35:	48 89 45 88          	mov    QWORD PTR [rbp-0x78],rax
   91d39:	48 8b 85 18 ff ff ff 	mov    rax,QWORD PTR [rbp-0xe8]
   91d40:	48 89 45 90          	mov    QWORD PTR [rbp-0x70],rax
   91d44:	48 8b 85 08 ff ff ff 	mov    rax,QWORD PTR [rbp-0xf8]
   91d4b:	48 89 45 98          	mov    QWORD PTR [rbp-0x68],rax
   91d4f:	48 8b 85 10 ff ff ff 	mov    rax,QWORD PTR [rbp-0xf0]
   91d56:	48 89 45 a0          	mov    QWORD PTR [rbp-0x60],rax
   91d5a:	4c 89 75 a8          	mov    QWORD PTR [rbp-0x58],r14
   91d5e:	48 8b 85 00 ff ff ff 	mov    rax,QWORD PTR [rbp-0x100]
   91d65:	48 89 45 b0          	mov    QWORD PTR [rbp-0x50],rax
   91d69:	4c 89 7d b8          	mov    QWORD PTR [rbp-0x48],r15
   91d6d:	e9 60 67 ff ff       	jmp    884d2 <Java_com_adjust_sdk_sig_NativeLibHelper_nOnResume@@Base-0x327d1>
   91d72:	4c 8b 95 18 fc ff ff 	mov    r10,QWORD PTR [rbp-0x3e8]
   91d79:	41 8a 02             	mov    al,BYTE PTR [r10]
   91d7c:	48 8b 95 10 fc ff ff 	mov    rdx,QWORD PTR [rbp-0x3f0]
   91d83:	88 02                	mov    BYTE PTR [rdx],al
   91d85:	48 8b 85 48 ff ff ff 	mov    rax,QWORD PTR [rbp-0xb8]
   91d8c:	48 89 85 58 ff ff ff 	mov    QWORD PTR [rbp-0xa8],rax
   91d93:	48 8b 85 40 ff ff ff 	mov    rax,QWORD PTR [rbp-0xc0]
   91d9a:	48 89 85 60 ff ff ff 	mov    QWORD PTR [rbp-0xa0],rax
   91da1:	48 8b 85 30 ff ff ff 	mov    rax,QWORD PTR [rbp-0xd0]
   91da8:	48 89 85 68 ff ff ff 	mov    QWORD PTR [rbp-0x98],rax
   91daf:	8b 45 c0             	mov    eax,DWORD PTR [rbp-0x40]
   91db2:	89 45 c8             	mov    DWORD PTR [rbp-0x38],eax
   91db5:	8b 45 c4             	mov    eax,DWORD PTR [rbp-0x3c]
   91db8:	89 45 cc             	mov    DWORD PTR [rbp-0x34],eax
   91dbb:	48 8b 85 28 ff ff ff 	mov    rax,QWORD PTR [rbp-0xd8]
   91dc2:	48 89 85 70 ff ff ff 	mov    QWORD PTR [rbp-0x90],rax
   91dc9:	48 89 9d 78 ff ff ff 	mov    QWORD PTR [rbp-0x88],rbx
   91dd0:	48 8b 85 50 ff ff ff 	mov    rax,QWORD PTR [rbp-0xb0]
   91dd7:	48 89 45 80          	mov    QWORD PTR [rbp-0x80],rax
   91ddb:	48 8b 85 20 ff ff ff 	mov    rax,QWORD PTR [rbp-0xe0]
   91de2:	48 89 45 88          	mov    QWORD PTR [rbp-0x78],rax
   91de6:	48 8b 85 18 ff ff ff 	mov    rax,QWORD PTR [rbp-0xe8]
   91ded:	48 89 45 90          	mov    QWORD PTR [rbp-0x70],rax
   91df1:	48 8b 85 08 ff ff ff 	mov    rax,QWORD PTR [rbp-0xf8]
   91df8:	48 89 45 98          	mov    QWORD PTR [rbp-0x68],rax
   91dfc:	48 8b 85 10 ff ff ff 	mov    rax,QWORD PTR [rbp-0xf0]
   91e03:	48 89 45 a0          	mov    QWORD PTR [rbp-0x60],rax
   91e07:	48 8b 85 f8 fe ff ff 	mov    rax,QWORD PTR [rbp-0x108]
   91e0e:	48 89 45 a8          	mov    QWORD PTR [rbp-0x58],rax
   91e12:	4c 89 75 b0          	mov    QWORD PTR [rbp-0x50],r14
   91e16:	48 8b 85 38 ff ff ff 	mov    rax,QWORD PTR [rbp-0xc8]
   91e1d:	48 89 45 b8          	mov    QWORD PTR [rbp-0x48],rax
   91e21:	49 ff c2             	inc    r10
   91e24:	4c 89 95 38 fd ff ff 	mov    QWORD PTR [rbp-0x2c8],r10
   91e2b:	48 ff c2             	inc    rdx
   91e2e:	48 89 95 30 fd ff ff 	mov    QWORD PTR [rbp-0x2d0],rdx
   91e35:	48 8b 95 08 fc ff ff 	mov    rdx,QWORD PTR [rbp-0x3f8]
   91e3c:	48 ff ca             	dec    rdx
   91e3f:	48 89 95 28 fd ff ff 	mov    QWORD PTR [rbp-0x2d8],rdx
   91e46:	48 ba 9a 1e ff 94 cd 	movabs rdx,0xcd28f0cd94ff1e9a
   91e4d:	f0 28 cd 
   91e50:	e9 7d 66 ff ff       	jmp    884d2 <Java_com_adjust_sdk_sig_NativeLibHelper_nOnResume@@Base-0x327d1>
   91e55:	80 3d 2d d1 0a 00 00 	cmp    BYTE PTR [rip+0xad12d],0x0        # 13ef89 <write@plt+0xc409>
   91e5c:	48 ba 64 35 5e 41 eb 	movabs rdx,0x79a00deb415e3564
   91e63:	0d a0 79 
   91e66:	48 b8 9e ac d2 87 59 	movabs rax,0xb5bc595987d2ac9e
   91e6d:	59 bc b5 
   91e70:	48 0f 45 d0          	cmovne rdx,rax
   91e74:	48 8b 85 48 ff ff ff 	mov    rax,QWORD PTR [rbp-0xb8]
   91e7b:	48 89 85 58 ff ff ff 	mov    QWORD PTR [rbp-0xa8],rax
   91e82:	48 8b 85 40 ff ff ff 	mov    rax,QWORD PTR [rbp-0xc0]
   91e89:	48 89 85 60 ff ff ff 	mov    QWORD PTR [rbp-0xa0],rax
   91e90:	48 8b 85 30 ff ff ff 	mov    rax,QWORD PTR [rbp-0xd0]
   91e97:	48 89 85 68 ff ff ff 	mov    QWORD PTR [rbp-0x98],rax
   91e9e:	44 89 75 c8          	mov    DWORD PTR [rbp-0x38],r14d
   91ea2:	8b 45 c4             	mov    eax,DWORD PTR [rbp-0x3c]
   91ea5:	89 45 cc             	mov    DWORD PTR [rbp-0x34],eax
   91ea8:	48 8b 85 28 ff ff ff 	mov    rax,QWORD PTR [rbp-0xd8]
   91eaf:	48 89 85 70 ff ff ff 	mov    QWORD PTR [rbp-0x90],rax
   91eb6:	48 89 9d 78 ff ff ff 	mov    QWORD PTR [rbp-0x88],rbx
   91ebd:	e9 41 20 00 00       	jmp    93f03 <Java_com_adjust_sdk_sig_NativeLibHelper_nOnResume@@Base-0x26da0>
   91ec2:	48 8b 85 a8 fe ff ff 	mov    rax,QWORD PTR [rbp-0x158]
   91ec9:	48 8b 10             	mov    rdx,QWORD PTR [rax]
   91ecc:	4c 8b ad c0 fe ff ff 	mov    r13,QWORD PTR [rbp-0x140]
   91ed3:	4c 89 ef             	mov    rdi,r13
   91ed6:	48 8b b5 e0 fe ff ff 	mov    rsi,QWORD PTR [rbp-0x120]
   91edd:	48 8b 8d 90 fe ff ff 	mov    rcx,QWORD PTR [rbp-0x170]
   91ee4:	4d 89 dc             	mov    r12,r11
   91ee7:	4d 89 cf             	mov    r15,r9
   91eea:	e8 d3 01 02 00       	call   b20c2 <Java_com_adjust_sdk_sig_NativeLibHelper_nOnResume@@Base-0x8be1>
   91eef:	41 83 7d 00 00       	cmp    DWORD PTR [r13+0x0],0x0
   91ef4:	48 ba 5e 18 a7 81 20 	movabs rdx,0xb2cc4b2081a7185e
   91efb:	4b cc b2 
   91efe:	48 b8 bc aa d0 5a ba 	movabs rax,0x4c5051ba5ad0aabc
   91f05:	51 50 4c 
   91f08:	e9 5e 18 00 00       	jmp    9376b <Java_com_adjust_sdk_sig_NativeLibHelper_nOnResume@@Base-0x27538>
   91f0d:	31 c0                	xor    eax,eax
   91f0f:	b1 01                	mov    cl,0x1
   91f11:	f0 0f b0 0d 93 ce 0a 	lock cmpxchg BYTE PTR [rip+0xace93],cl        # 13edac <write@plt+0xc22c>
   91f18:	00 
   91f19:	48 ba ee 00 3d 9d ee 	movabs rdx,0x4349fee9d3d00ee
   91f20:	9f 34 04 
   91f23:	48 b8 ed 30 ad 8e 7d 	movabs rax,0xf0a7d17d8ead30ed
   91f2a:	d1 a7 f0 
   91f2d:	e9 b6 1d 00 00       	jmp    93ce8 <Java_com_adjust_sdk_sig_NativeLibHelper_nOnResume@@Base-0x26fbb>
   91f32:	48 8b 95 40 fa ff ff 	mov    rdx,QWORD PTR [rbp-0x5c0]
   91f39:	4c 8b 95 c0 fc ff ff 	mov    r10,QWORD PTR [rbp-0x340]
   91f40:	41 c6 04 12 00       	mov    BYTE PTR [r10+rdx*1],0x0
   91f45:	48 8b 85 48 ff ff ff 	mov    rax,QWORD PTR [rbp-0xb8]
   91f4c:	48 89 85 58 ff ff ff 	mov    QWORD PTR [rbp-0xa8],rax
   91f53:	48 8b 85 40 ff ff ff 	mov    rax,QWORD PTR [rbp-0xc0]
   91f5a:	48 89 85 60 ff ff ff 	mov    QWORD PTR [rbp-0xa0],rax
   91f61:	48 8b 85 30 ff ff ff 	mov    rax,QWORD PTR [rbp-0xd0]
   91f68:	48 89 85 68 ff ff ff 	mov    QWORD PTR [rbp-0x98],rax
   91f6f:	44 89 75 c8          	mov    DWORD PTR [rbp-0x38],r14d
   91f73:	8b 45 c4             	mov    eax,DWORD PTR [rbp-0x3c]
   91f76:	89 45 cc             	mov    DWORD PTR [rbp-0x34],eax
   91f79:	48 8b 85 28 ff ff ff 	mov    rax,QWORD PTR [rbp-0xd8]
   91f80:	48 89 85 70 ff ff ff 	mov    QWORD PTR [rbp-0x90],rax
   91f87:	48 89 9d 78 ff ff ff 	mov    QWORD PTR [rbp-0x88],rbx
   91f8e:	48 8b 85 50 ff ff ff 	mov    rax,QWORD PTR [rbp-0xb0]
   91f95:	48 89 45 80          	mov    QWORD PTR [rbp-0x80],rax
   91f99:	48 8b 85 20 ff ff ff 	mov    rax,QWORD PTR [rbp-0xe0]
   91fa0:	48 89 45 88          	mov    QWORD PTR [rbp-0x78],rax
   91fa4:	48 8b 85 18 ff ff ff 	mov    rax,QWORD PTR [rbp-0xe8]
   91fab:	48 89 45 90          	mov    QWORD PTR [rbp-0x70],rax
   91faf:	48 8b 85 08 ff ff ff 	mov    rax,QWORD PTR [rbp-0xf8]
   91fb6:	48 89 45 98          	mov    QWORD PTR [rbp-0x68],rax
   91fba:	48 8b 85 10 ff ff ff 	mov    rax,QWORD PTR [rbp-0xf0]
   91fc1:	48 89 45 a0          	mov    QWORD PTR [rbp-0x60],rax
   91fc5:	4c 89 4d a8          	mov    QWORD PTR [rbp-0x58],r9
   91fc9:	4c 89 5d b0          	mov    QWORD PTR [rbp-0x50],r11
   91fcd:	48 8b 85 38 ff ff ff 	mov    rax,QWORD PTR [rbp-0xc8]
   91fd4:	48 89 45 b8          	mov    QWORD PTR [rbp-0x48],rax
   91fd8:	4c 8b 9d d0 fe ff ff 	mov    r11,QWORD PTR [rbp-0x130]
   91fdf:	4c 89 9d 30 fe ff ff 	mov    QWORD PTR [rbp-0x1d0],r11
   91fe6:	4c 89 95 38 fe ff ff 	mov    QWORD PTR [rbp-0x1c8],r10
   91fed:	e9 ce 16 00 00       	jmp    936c0 <Java_com_adjust_sdk_sig_NativeLibHelper_nOnResume@@Base-0x275e3>
   91ff2:	31 c0                	xor    eax,eax
   91ff4:	b1 01                	mov    cl,0x1
   91ff6:	f0 0f b0 0d c0 cd 0a 	lock cmpxchg BYTE PTR [rip+0xacdc0],cl        # 13edbe <write@plt+0xc23e>
   91ffd:	00 
   91ffe:	48 ba 43 14 20 36 4c 	movabs rdx,0xf665404c36201443
   92005:	40 65 f6 
   92008:	48 b8 f1 80 cf 74 cc 	movabs rax,0xa77680cc74cf80f1
   9200f:	80 76 a7 
   92012:	48 0f 44 d0          	cmove  rdx,rax
   92016:	48 8b 85 48 ff ff ff 	mov    rax,QWORD PTR [rbp-0xb8]
   9201d:	48 89 85 58 ff ff ff 	mov    QWORD PTR [rbp-0xa8],rax
   92024:	48 8b 85 40 ff ff ff 	mov    rax,QWORD PTR [rbp-0xc0]
   9202b:	48 89 85 60 ff ff ff 	mov    QWORD PTR [rbp-0xa0],rax
   92032:	4c 89 b5 68 ff ff ff 	mov    QWORD PTR [rbp-0x98],r14
   92039:	44 89 55 c8          	mov    DWORD PTR [rbp-0x38],r10d
   9203d:	8b 45 c4             	mov    eax,DWORD PTR [rbp-0x3c]
   92040:	89 45 cc             	mov    DWORD PTR [rbp-0x34],eax
   92043:	48 8b 85 28 ff ff ff 	mov    rax,QWORD PTR [rbp-0xd8]
   9204a:	48 89 85 70 ff ff ff 	mov    QWORD PTR [rbp-0x90],rax
   92051:	48 8b 85 f0 fe ff ff 	mov    rax,QWORD PTR [rbp-0x110]
   92058:	48 89 85 78 ff ff ff 	mov    QWORD PTR [rbp-0x88],rax
   9205f:	48 8b 85 50 ff ff ff 	mov    rax,QWORD PTR [rbp-0xb0]
   92066:	48 89 45 80          	mov    QWORD PTR [rbp-0x80],rax
   9206a:	48 89 5d 88          	mov    QWORD PTR [rbp-0x78],rbx
   9206e:	4c 89 5d 90          	mov    QWORD PTR [rbp-0x70],r11
   92072:	4c 89 45 98          	mov    QWORD PTR [rbp-0x68],r8
   92076:	48 89 75 a0          	mov    QWORD PTR [rbp-0x60],rsi
   9207a:	48 89 7d a8          	mov    QWORD PTR [rbp-0x58],rdi
   9207e:	e9 c2 1e 00 00       	jmp    93f45 <Java_com_adjust_sdk_sig_NativeLibHelper_nOnResume@@Base-0x26d5e>
   92083:	80 3d fb ce 0a 00 00 	cmp    BYTE PTR [rip+0xacefb],0x0        # 13ef85 <write@plt+0xc405>
   9208a:	48 89 d1             	mov    rcx,rdx
   9208d:	48 ba 22 e4 60 f2 95 	movabs rdx,0x9a3db195f260e422
   92094:	b1 3d 9a 
   92097:	48 b8 bc 3f 76 1a 96 	movabs rax,0x429acd961a763fbc
   9209e:	cd 9a 42 
   920a1:	48 0f 45 d0          	cmovne rdx,rax
   920a5:	48 8b 85 48 ff ff ff 	mov    rax,QWORD PTR [rbp-0xb8]
   920ac:	48 89 85 58 ff ff ff 	mov    QWORD PTR [rbp-0xa8],rax
   920b3:	48 8b 85 40 ff ff ff 	mov    rax,QWORD PTR [rbp-0xc0]
   920ba:	48 89 85 60 ff ff ff 	mov    QWORD PTR [rbp-0xa0],rax
   920c1:	4c 89 b5 68 ff ff ff 	mov    QWORD PTR [rbp-0x98],r14
   920c8:	44 89 55 c8          	mov    DWORD PTR [rbp-0x38],r10d
   920cc:	89 5d cc             	mov    DWORD PTR [rbp-0x34],ebx
   920cf:	48 89 bd 70 ff ff ff 	mov    QWORD PTR [rbp-0x90],rdi
   920d6:	48 89 b5 78 ff ff ff 	mov    QWORD PTR [rbp-0x88],rsi
   920dd:	48 8b 85 50 ff ff ff 	mov    rax,QWORD PTR [rbp-0xb0]
   920e4:	48 89 45 80          	mov    QWORD PTR [rbp-0x80],rax
   920e8:	48 8b 85 20 ff ff ff 	mov    rax,QWORD PTR [rbp-0xe0]
   920ef:	48 89 45 88          	mov    QWORD PTR [rbp-0x78],rax
   920f3:	48 8b 85 18 ff ff ff 	mov    rax,QWORD PTR [rbp-0xe8]
   920fa:	48 89 45 90          	mov    QWORD PTR [rbp-0x70],rax
   920fe:	4c 89 5d 98          	mov    QWORD PTR [rbp-0x68],r11
   92102:	4c 89 4d a0          	mov    QWORD PTR [rbp-0x60],r9
   92106:	4c 89 7d a8          	mov    QWORD PTR [rbp-0x58],r15
   9210a:	48 89 4d b0          	mov    QWORD PTR [rbp-0x50],rcx
   9210e:	e9 3d 1e 00 00       	jmp    93f50 <Java_com_adjust_sdk_sig_NativeLibHelper_nOnResume@@Base-0x26d53>
   92113:	4c 8b 95 98 fd ff ff 	mov    r10,QWORD PTR [rbp-0x268]
   9211a:	4d 85 d2             	test   r10,r10
   9211d:	48 ba 96 e6 23 63 1d 	movabs rdx,0x65ce351d6323e696
   92124:	35 ce 65 
   92127:	48 b8 db d5 27 eb a1 	movabs rax,0x5995a1a1eb27d5db
   9212e:	a1 95 59 
   92131:	48 0f 44 d0          	cmove  rdx,rax
   92135:	48 8b 85 48 ff ff ff 	mov    rax,QWORD PTR [rbp-0xb8]
   9213c:	48 89 85 58 ff ff ff 	mov    QWORD PTR [rbp-0xa8],rax
   92143:	48 8b 85 40 ff ff ff 	mov    rax,QWORD PTR [rbp-0xc0]
   9214a:	48 89 85 60 ff ff ff 	mov    QWORD PTR [rbp-0xa0],rax
   92151:	48 8b 85 30 ff ff ff 	mov    rax,QWORD PTR [rbp-0xd0]
   92158:	48 89 85 68 ff ff ff 	mov    QWORD PTR [rbp-0x98],rax
   9215f:	8b 45 c0             	mov    eax,DWORD PTR [rbp-0x40]
   92162:	89 45 c8             	mov    DWORD PTR [rbp-0x38],eax
   92165:	8b 45 c4             	mov    eax,DWORD PTR [rbp-0x3c]
   92168:	89 45 cc             	mov    DWORD PTR [rbp-0x34],eax
   9216b:	48 8b 85 28 ff ff ff 	mov    rax,QWORD PTR [rbp-0xd8]
   92172:	48 89 85 70 ff ff ff 	mov    QWORD PTR [rbp-0x90],rax
   92179:	48 8b 85 f0 fe ff ff 	mov    rax,QWORD PTR [rbp-0x110]
   92180:	48 89 85 78 ff ff ff 	mov    QWORD PTR [rbp-0x88],rax
   92187:	48 8b 85 50 ff ff ff 	mov    rax,QWORD PTR [rbp-0xb0]
   9218e:	48 89 45 80          	mov    QWORD PTR [rbp-0x80],rax
   92192:	48 8b 85 20 ff ff ff 	mov    rax,QWORD PTR [rbp-0xe0]
   92199:	48 89 45 88          	mov    QWORD PTR [rbp-0x78],rax
   9219d:	48 8b 85 18 ff ff ff 	mov    rax,QWORD PTR [rbp-0xe8]
   921a4:	48 89 45 90          	mov    QWORD PTR [rbp-0x70],rax
   921a8:	48 8b 85 08 ff ff ff 	mov    rax,QWORD PTR [rbp-0xf8]
   921af:	48 89 45 98          	mov    QWORD PTR [rbp-0x68],rax
   921b3:	48 8b 85 10 ff ff ff 	mov    rax,QWORD PTR [rbp-0xf0]
   921ba:	48 89 45 a0          	mov    QWORD PTR [rbp-0x60],rax
   921be:	48 8b 85 f8 fe ff ff 	mov    rax,QWORD PTR [rbp-0x108]
   921c5:	48 89 45 a8          	mov    QWORD PTR [rbp-0x58],rax
   921c9:	48 8b 85 00 ff ff ff 	mov    rax,QWORD PTR [rbp-0x100]
   921d0:	48 89 45 b0          	mov    QWORD PTR [rbp-0x50],rax
   921d4:	48 8b 85 38 ff ff ff 	mov    rax,QWORD PTR [rbp-0xc8]
   921db:	48 89 45 b8          	mov    QWORD PTR [rbp-0x48],rax
   921df:	4c 89 95 b8 fb ff ff 	mov    QWORD PTR [rbp-0x448],r10
   921e6:	4c 8b 95 90 fd ff ff 	mov    r10,QWORD PTR [rbp-0x270]
   921ed:	4c 89 95 c8 fb ff ff 	mov    QWORD PTR [rbp-0x438],r10
   921f4:	4c 8b 95 80 fd ff ff 	mov    r10,QWORD PTR [rbp-0x280]
   921fb:	4c 89 95 d0 fb ff ff 	mov    QWORD PTR [rbp-0x430],r10
   92202:	e9 cb 62 ff ff       	jmp    884d2 <Java_com_adjust_sdk_sig_NativeLibHelper_nOnResume@@Base-0x327d1>
   92207:	c6 05 e4 cb 0a 00 00 	mov    BYTE PTR [rip+0xacbe4],0x0        # 13edf2 <write@plt+0xc272>
   9220e:	48 8b 85 d8 fe ff ff 	mov    rax,QWORD PTR [rbp-0x128]
   92215:	48 8b 8d d8 fc ff ff 	mov    rcx,QWORD PTR [rbp-0x328]
   9221c:	48 89 48 20          	mov    QWORD PTR [rax+0x20],rcx
   92220:	48 8d 3d a9 a0 0a 00 	lea    rdi,[rip+0xaa0a9]        # 13c2d0 <write@plt+0x9750>
   92227:	4c 8b ad d0 fe ff ff 	mov    r13,QWORD PTR [rbp-0x130]
   9222e:	4c 89 ee             	mov    rsi,r13
   92231:	e8 cc f7 02 00       	call   c1a02 <Java_com_adjust_sdk_sig_NativeLibHelper_nSign@@Base+0x6357>
   92236:	48 8b 85 48 ff ff ff 	mov    rax,QWORD PTR [rbp-0xb8]
   9223d:	48 89 85 58 ff ff ff 	mov    QWORD PTR [rbp-0xa8],rax
   92244:	48 8b 85 40 ff ff ff 	mov    rax,QWORD PTR [rbp-0xc0]
   9224b:	48 89 85 60 ff ff ff 	mov    QWORD PTR [rbp-0xa0],rax
   92252:	4c 89 b5 68 ff ff ff 	mov    QWORD PTR [rbp-0x98],r14
   92259:	8b 45 c0             	mov    eax,DWORD PTR [rbp-0x40]
   9225c:	89 45 c8             	mov    DWORD PTR [rbp-0x38],eax
   9225f:	89 5d cc             	mov    DWORD PTR [rbp-0x34],ebx
   92262:	48 8b 85 28 ff ff ff 	mov    rax,QWORD PTR [rbp-0xd8]
   92269:	48 89 85 70 ff ff ff 	mov    QWORD PTR [rbp-0x90],rax
   92270:	4c 89 a5 78 ff ff ff 	mov    QWORD PTR [rbp-0x88],r12
   92277:	48 8b 85 50 ff ff ff 	mov    rax,QWORD PTR [rbp-0xb0]
   9227e:	48 89 45 80          	mov    QWORD PTR [rbp-0x80],rax
   92282:	48 8b 85 20 ff ff ff 	mov    rax,QWORD PTR [rbp-0xe0]
   92289:	48 89 45 88          	mov    QWORD PTR [rbp-0x78],rax
   9228d:	48 8b 85 18 ff ff ff 	mov    rax,QWORD PTR [rbp-0xe8]
   92294:	48 89 45 90          	mov    QWORD PTR [rbp-0x70],rax
   92298:	48 8b 85 10 ff ff ff 	mov    rax,QWORD PTR [rbp-0xf0]
   9229f:	48 89 45 a0          	mov    QWORD PTR [rbp-0x60],rax
   922a3:	4c 89 7d a8          	mov    QWORD PTR [rbp-0x58],r15
   922a7:	48 8b 85 00 ff ff ff 	mov    rax,QWORD PTR [rbp-0x100]
   922ae:	48 89 45 b0          	mov    QWORD PTR [rbp-0x50],rax
   922b2:	48 8b 85 38 ff ff ff 	mov    rax,QWORD PTR [rbp-0xc8]
   922b9:	48 89 45 b8          	mov    QWORD PTR [rbp-0x48],rax
   922bd:	4c 89 6d 98          	mov    QWORD PTR [rbp-0x68],r13
   922c1:	48 ba 8d 89 bc 56 f4 	movabs rdx,0xac8b8ff456bc898d
   922c8:	8f 8b ac 
   922cb:	e9 02 62 ff ff       	jmp    884d2 <Java_com_adjust_sdk_sig_NativeLibHelper_nOnResume@@Base-0x327d1>
   922d0:	48 8b 85 d8 fe ff ff 	mov    rax,QWORD PTR [rbp-0x128]
   922d7:	48 83 60 68 00       	and    QWORD PTR [rax+0x68],0x0
   922dc:	48 8b 85 48 ff ff ff 	mov    rax,QWORD PTR [rbp-0xb8]
   922e3:	48 89 85 58 ff ff ff 	mov    QWORD PTR [rbp-0xa8],rax
   922ea:	48 8b 85 40 ff ff ff 	mov    rax,QWORD PTR [rbp-0xc0]
   922f1:	48 89 85 60 ff ff ff 	mov    QWORD PTR [rbp-0xa0],rax
   922f8:	48 8b 85 30 ff ff ff 	mov    rax,QWORD PTR [rbp-0xd0]
   922ff:	48 89 85 68 ff ff ff 	mov    QWORD PTR [rbp-0x98],rax
   92306:	44 89 75 c8          	mov    DWORD PTR [rbp-0x38],r14d
   9230a:	48 8b 85 28 ff ff ff 	mov    rax,QWORD PTR [rbp-0xd8]
   92311:	48 89 85 70 ff ff ff 	mov    QWORD PTR [rbp-0x90],rax
   92318:	48 89 9d 78 ff ff ff 	mov    QWORD PTR [rbp-0x88],rbx
   9231f:	48 8b 85 50 ff ff ff 	mov    rax,QWORD PTR [rbp-0xb0]
   92326:	48 89 45 80          	mov    QWORD PTR [rbp-0x80],rax
   9232a:	48 8b 85 20 ff ff ff 	mov    rax,QWORD PTR [rbp-0xe0]
   92331:	48 89 45 88          	mov    QWORD PTR [rbp-0x78],rax
   92335:	48 8b 85 18 ff ff ff 	mov    rax,QWORD PTR [rbp-0xe8]
   9233c:	48 89 45 90          	mov    QWORD PTR [rbp-0x70],rax
   92340:	48 8b 85 08 ff ff ff 	mov    rax,QWORD PTR [rbp-0xf8]
   92347:	48 89 45 98          	mov    QWORD PTR [rbp-0x68],rax
   9234b:	48 8b 85 10 ff ff ff 	mov    rax,QWORD PTR [rbp-0xf0]
   92352:	48 89 45 a0          	mov    QWORD PTR [rbp-0x60],rax
   92356:	4c 89 5d a8          	mov    QWORD PTR [rbp-0x58],r11
   9235a:	48 89 55 b0          	mov    QWORD PTR [rbp-0x50],rdx
   9235e:	e9 63 16 00 00       	jmp    939c6 <Java_com_adjust_sdk_sig_NativeLibHelper_nOnResume@@Base-0x272dd>
   92363:	4c 8b 95 e8 fb ff ff 	mov    r10,QWORD PTR [rbp-0x418]
   9236a:	41 8a 02             	mov    al,BYTE PTR [r10]
   9236d:	48 8b 95 e0 fb ff ff 	mov    rdx,QWORD PTR [rbp-0x420]
   92374:	88 02                	mov    BYTE PTR [rdx],al
   92376:	48 8b 85 48 ff ff ff 	mov    rax,QWORD PTR [rbp-0xb8]
   9237d:	48 89 85 58 ff ff ff 	mov    QWORD PTR [rbp-0xa8],rax
   92384:	48 8b 85 40 ff ff ff 	mov    rax,QWORD PTR [rbp-0xc0]
   9238b:	48 89 85 60 ff ff ff 	mov    QWORD PTR [rbp-0xa0],rax
   92392:	48 8b 85 30 ff ff ff 	mov    rax,QWORD PTR [rbp-0xd0]
   92399:	48 89 85 68 ff ff ff 	mov    QWORD PTR [rbp-0x98],rax
   923a0:	8b 45 c0             	mov    eax,DWORD PTR [rbp-0x40]
   923a3:	89 45 c8             	mov    DWORD PTR [rbp-0x38],eax
   923a6:	8b 45 c4             	mov    eax,DWORD PTR [rbp-0x3c]
   923a9:	89 45 cc             	mov    DWORD PTR [rbp-0x34],eax
   923ac:	48 8b 85 28 ff ff ff 	mov    rax,QWORD PTR [rbp-0xd8]
   923b3:	48 89 85 70 ff ff ff 	mov    QWORD PTR [rbp-0x90],rax
   923ba:	48 8b 85 f0 fe ff ff 	mov    rax,QWORD PTR [rbp-0x110]
   923c1:	48 89 85 78 ff ff ff 	mov    QWORD PTR [rbp-0x88],rax
   923c8:	48 8b 85 50 ff ff ff 	mov    rax,QWORD PTR [rbp-0xb0]
   923cf:	48 89 45 80          	mov    QWORD PTR [rbp-0x80],rax
   923d3:	48 8b 85 20 ff ff ff 	mov    rax,QWORD PTR [rbp-0xe0]
   923da:	48 89 45 88          	mov    QWORD PTR [rbp-0x78],rax
   923de:	48 8b 85 18 ff ff ff 	mov    rax,QWORD PTR [rbp-0xe8]
   923e5:	48 89 45 90          	mov    QWORD PTR [rbp-0x70],rax
   923e9:	48 8b 85 08 ff ff ff 	mov    rax,QWORD PTR [rbp-0xf8]
   923f0:	48 89 45 98          	mov    QWORD PTR [rbp-0x68],rax
   923f4:	48 8b 85 10 ff ff ff 	mov    rax,QWORD PTR [rbp-0xf0]
   923fb:	48 89 45 a0          	mov    QWORD PTR [rbp-0x60],rax
   923ff:	48 8b 85 f8 fe ff ff 	mov    rax,QWORD PTR [rbp-0x108]
   92406:	48 89 45 a8          	mov    QWORD PTR [rbp-0x58],rax
   9240a:	48 8b 85 00 ff ff ff 	mov    rax,QWORD PTR [rbp-0x100]
   92411:	48 89 45 b0          	mov    QWORD PTR [rbp-0x50],rax
   92415:	48 8b 85 38 ff ff ff 	mov    rax,QWORD PTR [rbp-0xc8]
   9241c:	48 89 45 b8          	mov    QWORD PTR [rbp-0x48],rax
   92420:	49 ff c2             	inc    r10
   92423:	4c 89 95 70 fd ff ff 	mov    QWORD PTR [rbp-0x290],r10
   9242a:	48 ff c2             	inc    rdx
   9242d:	48 89 95 78 fd ff ff 	mov    QWORD PTR [rbp-0x288],rdx
   92434:	48 8b 95 d8 fb ff ff 	mov    rdx,QWORD PTR [rbp-0x428]
   9243b:	48 ff ca             	dec    rdx
   9243e:	48 89 95 88 fd ff ff 	mov    QWORD PTR [rbp-0x278],rdx
   92445:	48 ba 82 62 05 06 69 	movabs rdx,0xb9c07a6906056282
   9244c:	7a c0 b9 
   9244f:	e9 7e 60 ff ff       	jmp    884d2 <Java_com_adjust_sdk_sig_NativeLibHelper_nOnResume@@Base-0x327d1>
   92454:	4c 8b 95 48 fc ff ff 	mov    r10,QWORD PTR [rbp-0x3b8]
   9245b:	41 8a 02             	mov    al,BYTE PTR [r10]
   9245e:	48 8b 95 40 fc ff ff 	mov    rdx,QWORD PTR [rbp-0x3c0]
   92465:	88 02                	mov    BYTE PTR [rdx],al
   92467:	48 8b 85 48 ff ff ff 	mov    rax,QWORD PTR [rbp-0xb8]
   9246e:	48 89 85 58 ff ff ff 	mov    QWORD PTR [rbp-0xa8],rax
   92475:	48 8b 85 40 ff ff ff 	mov    rax,QWORD PTR [rbp-0xc0]
   9247c:	48 89 85 60 ff ff ff 	mov    QWORD PTR [rbp-0xa0],rax
   92483:	48 8b 85 30 ff ff ff 	mov    rax,QWORD PTR [rbp-0xd0]
   9248a:	48 89 85 68 ff ff ff 	mov    QWORD PTR [rbp-0x98],rax
   92491:	44 89 75 c8          	mov    DWORD PTR [rbp-0x38],r14d
   92495:	8b 45 c4             	mov    eax,DWORD PTR [rbp-0x3c]
   92498:	89 45 cc             	mov    DWORD PTR [rbp-0x34],eax
   9249b:	48 89 9d 70 ff ff ff 	mov    QWORD PTR [rbp-0x90],rbx
   924a2:	4c 89 9d 78 ff ff ff 	mov    QWORD PTR [rbp-0x88],r11
   924a9:	48 8b 85 50 ff ff ff 	mov    rax,QWORD PTR [rbp-0xb0]
   924b0:	48 89 45 80          	mov    QWORD PTR [rbp-0x80],rax
   924b4:	4c 89 4d 88          	mov    QWORD PTR [rbp-0x78],r9
   924b8:	4c 89 45 90          	mov    QWORD PTR [rbp-0x70],r8
   924bc:	48 89 4d 98          	mov    QWORD PTR [rbp-0x68],rcx
   924c0:	48 89 75 a0          	mov    QWORD PTR [rbp-0x60],rsi
   924c4:	48 89 7d a8          	mov    QWORD PTR [rbp-0x58],rdi
   924c8:	48 8b 85 00 ff ff ff 	mov    rax,QWORD PTR [rbp-0x100]
   924cf:	48 89 45 b0          	mov    QWORD PTR [rbp-0x50],rax
   924d3:	48 8b 85 38 ff ff ff 	mov    rax,QWORD PTR [rbp-0xc8]
   924da:	48 89 45 b8          	mov    QWORD PTR [rbp-0x48],rax
   924de:	49 ff c2             	inc    r10
   924e1:	4c 89 95 50 fd ff ff 	mov    QWORD PTR [rbp-0x2b0],r10
   924e8:	48 ff c2             	inc    rdx
   924eb:	48 89 95 48 fd ff ff 	mov    QWORD PTR [rbp-0x2b8],rdx
   924f2:	48 8b 95 38 fc ff ff 	mov    rdx,QWORD PTR [rbp-0x3c8]
   924f9:	48 ff ca             	dec    rdx
   924fc:	48 89 95 40 fd ff ff 	mov    QWORD PTR [rbp-0x2c0],rdx
   92503:	48 ba c0 6f 13 52 f7 	movabs rdx,0x42b130f752136fc0
   9250a:	30 b1 42 
   9250d:	e9 c0 5f ff ff       	jmp    884d2 <Java_com_adjust_sdk_sig_NativeLibHelper_nOnResume@@Base-0x327d1>
   92512:	c6 05 8d c8 0a 00 00 	mov    BYTE PTR [rip+0xac88d],0x0        # 13eda6 <write@plt+0xc226>
   92519:	48 89 e0             	mov    rax,rsp
   9251c:	48 83 c0 f0          	add    rax,0xfffffffffffffff0
   92520:	48 89 85 b8 fe ff ff 	mov    QWORD PTR [rbp-0x148],rax
   92527:	48 89 c4             	mov    rsp,rax
   9252a:	48 89 e0             	mov    rax,rsp
   9252d:	48 83 c0 f0          	add    rax,0xfffffffffffffff0
   92531:	48 89 85 50 fe ff ff 	mov    QWORD PTR [rbp-0x1b0],rax
   92538:	48 89 c4             	mov    rsp,rax
   9253b:	48 89 e0             	mov    rax,rsp
   9253e:	48 83 c0 f0          	add    rax,0xfffffffffffffff0
   92542:	48 89 85 98 fe ff ff 	mov    QWORD PTR [rbp-0x168],rax
   92549:	48 89 c4             	mov    rsp,rax
   9254c:	48 89 e0             	mov    rax,rsp
   9254f:	48 83 c0 f0          	add    rax,0xfffffffffffffff0
   92553:	48 89 85 c0 fe ff ff 	mov    QWORD PTR [rbp-0x140],rax
   9255a:	48 89 c4             	mov    rsp,rax
   9255d:	48 89 e0             	mov    rax,rsp
   92560:	48 83 c0 f0          	add    rax,0xfffffffffffffff0
   92564:	48 89 85 78 fe ff ff 	mov    QWORD PTR [rbp-0x188],rax
   9256b:	48 89 c4             	mov    rsp,rax
   9256e:	48 89 e0             	mov    rax,rsp
   92571:	48 83 c0 f0          	add    rax,0xfffffffffffffff0
   92575:	48 89 85 a0 fe ff ff 	mov    QWORD PTR [rbp-0x160],rax
   9257c:	48 89 c4             	mov    rsp,rax
   9257f:	48 89 e0             	mov    rax,rsp
   92582:	48 83 c0 f0          	add    rax,0xfffffffffffffff0
   92586:	48 89 85 58 fe ff ff 	mov    QWORD PTR [rbp-0x1a8],rax
   9258d:	48 89 c4             	mov    rsp,rax
   92590:	48 89 e0             	mov    rax,rsp
   92593:	48 83 c0 f0          	add    rax,0xfffffffffffffff0
   92597:	48 89 85 a8 fe ff ff 	mov    QWORD PTR [rbp-0x158],rax
   9259e:	48 89 c4             	mov    rsp,rax
   925a1:	48 89 e0             	mov    rax,rsp
   925a4:	48 83 c0 f0          	add    rax,0xfffffffffffffff0
   925a8:	48 89 85 b0 fe ff ff 	mov    QWORD PTR [rbp-0x150],rax
   925af:	48 89 c4             	mov    rsp,rax
   925b2:	48 89 e0             	mov    rax,rsp
   925b5:	48 83 c0 f0          	add    rax,0xfffffffffffffff0
   925b9:	48 89 85 90 fe ff ff 	mov    QWORD PTR [rbp-0x170],rax
   925c0:	48 89 c4             	mov    rsp,rax
   925c3:	48 89 e0             	mov    rax,rsp
   925c6:	48 83 c0 f0          	add    rax,0xfffffffffffffff0
   925ca:	48 89 85 80 fe ff ff 	mov    QWORD PTR [rbp-0x180],rax
   925d1:	48 89 c4             	mov    rsp,rax
   925d4:	48 89 e0             	mov    rax,rsp
   925d7:	48 83 c0 f0          	add    rax,0xfffffffffffffff0
   925db:	48 89 85 60 fe ff ff 	mov    QWORD PTR [rbp-0x1a0],rax
   925e2:	48 89 c4             	mov    rsp,rax
   925e5:	48 89 e0             	mov    rax,rsp
   925e8:	48 83 c0 f0          	add    rax,0xfffffffffffffff0
   925ec:	48 89 85 88 fe ff ff 	mov    QWORD PTR [rbp-0x178],rax
   925f3:	48 89 c4             	mov    rsp,rax
   925f6:	48 89 e0             	mov    rax,rsp
   925f9:	48 83 c0 f0          	add    rax,0xfffffffffffffff0
   925fd:	48 89 85 68 fe ff ff 	mov    QWORD PTR [rbp-0x198],rax
   92604:	48 89 c4             	mov    rsp,rax
   92607:	48 89 e0             	mov    rax,rsp
   9260a:	4c 8d 78 a0          	lea    r15,[rax-0x60]
   9260e:	4c 89 fc             	mov    rsp,r15
   92611:	0f 57 c0             	xorps  xmm0,xmm0
   92614:	0f 11 40 ec          	movups XMMWORD PTR [rax-0x14],xmm0
   92618:	0f 29 40 e0          	movaps XMMWORD PTR [rax-0x20],xmm0
   9261c:	0f 29 40 d0          	movaps XMMWORD PTR [rax-0x30],xmm0
   92620:	0f 29 40 c0          	movaps XMMWORD PTR [rax-0x40],xmm0
   92624:	0f 29 40 b0          	movaps XMMWORD PTR [rax-0x50],xmm0
   92628:	0f 29 40 a0          	movaps XMMWORD PTR [rax-0x60],xmm0
   9262c:	48 8d 3d 05 9a 0a 00 	lea    rdi,[rip+0xa9a05]        # 13c038 <write@plt+0x94b8>
   92633:	4c 89 fe             	mov    rsi,r15
   92636:	e8 c7 f3 02 00       	call   c1a02 <Java_com_adjust_sdk_sig_NativeLibHelper_nSign@@Base+0x6357>
   9263b:	48 8b 85 48 ff ff ff 	mov    rax,QWORD PTR [rbp-0xb8]
   92642:	48 89 85 58 ff ff ff 	mov    QWORD PTR [rbp-0xa8],rax
   92649:	48 8b 85 40 ff ff ff 	mov    rax,QWORD PTR [rbp-0xc0]
   92650:	48 89 85 60 ff ff ff 	mov    QWORD PTR [rbp-0xa0],rax
   92657:	48 8b 85 30 ff ff ff 	mov    rax,QWORD PTR [rbp-0xd0]
   9265e:	48 89 85 68 ff ff ff 	mov    QWORD PTR [rbp-0x98],rax
   92665:	8b 45 c0             	mov    eax,DWORD PTR [rbp-0x40]
   92668:	89 45 c8             	mov    DWORD PTR [rbp-0x38],eax
   9266b:	8b 45 c4             	mov    eax,DWORD PTR [rbp-0x3c]
   9266e:	89 45 cc             	mov    DWORD PTR [rbp-0x34],eax
   92671:	48 8b 85 28 ff ff ff 	mov    rax,QWORD PTR [rbp-0xd8]
   92678:	48 89 85 70 ff ff ff 	mov    QWORD PTR [rbp-0x90],rax
   9267f:	48 89 9d 78 ff ff ff 	mov    QWORD PTR [rbp-0x88],rbx
   92686:	48 8b 85 50 ff ff ff 	mov    rax,QWORD PTR [rbp-0xb0]
   9268d:	48 89 45 80          	mov    QWORD PTR [rbp-0x80],rax
   92691:	48 8b 85 20 ff ff ff 	mov    rax,QWORD PTR [rbp-0xe0]
   92698:	48 89 45 88          	mov    QWORD PTR [rbp-0x78],rax
   9269c:	48 8b 85 18 ff ff ff 	mov    rax,QWORD PTR [rbp-0xe8]
   926a3:	48 89 45 90          	mov    QWORD PTR [rbp-0x70],rax
   926a7:	48 8b 85 08 ff ff ff 	mov    rax,QWORD PTR [rbp-0xf8]
   926ae:	48 89 45 98          	mov    QWORD PTR [rbp-0x68],rax
   926b2:	48 8b 85 10 ff ff ff 	mov    rax,QWORD PTR [rbp-0xf0]
   926b9:	48 89 45 a0          	mov    QWORD PTR [rbp-0x60],rax
   926bd:	4c 89 75 a8          	mov    QWORD PTR [rbp-0x58],r14
   926c1:	48 8b 85 00 ff ff ff 	mov    rax,QWORD PTR [rbp-0x100]
   926c8:	48 89 45 b0          	mov    QWORD PTR [rbp-0x50],rax
   926cc:	4c 89 bd d0 fe ff ff 	mov    QWORD PTR [rbp-0x130],r15
   926d3:	4c 89 7d b8          	mov    QWORD PTR [rbp-0x48],r15
   926d7:	48 ba e8 5c d9 eb 70 	movabs rdx,0xa7530370ebd95ce8
   926de:	03 53 a7 
   926e1:	e9 ec 5d ff ff       	jmp    884d2 <Java_com_adjust_sdk_sig_NativeLibHelper_nOnResume@@Base-0x327d1>
   926e6:	4c 8b 95 b0 fb ff ff 	mov    r10,QWORD PTR [rbp-0x450]
   926ed:	41 8a 02             	mov    al,BYTE PTR [r10]
   926f0:	48 8b 95 a8 fb ff ff 	mov    rdx,QWORD PTR [rbp-0x458]
   926f7:	88 02                	mov    BYTE PTR [rdx],al
   926f9:	48 8b 85 48 ff ff ff 	mov    rax,QWORD PTR [rbp-0xb8]
   92700:	48 89 85 58 ff ff ff 	mov    QWORD PTR [rbp-0xa8],rax
   92707:	48 8b 85 40 ff ff ff 	mov    rax,QWORD PTR [rbp-0xc0]
   9270e:	48 89 85 60 ff ff ff 	mov    QWORD PTR [rbp-0xa0],rax
   92715:	48 8b 85 30 ff ff ff 	mov    rax,QWORD PTR [rbp-0xd0]
   9271c:	48 89 85 68 ff ff ff 	mov    QWORD PTR [rbp-0x98],rax
   92723:	44 89 75 c8          	mov    DWORD PTR [rbp-0x38],r14d
   92727:	8b 45 c4             	mov    eax,DWORD PTR [rbp-0x3c]
   9272a:	89 45 cc             	mov    DWORD PTR [rbp-0x34],eax
   9272d:	48 8b 85 28 ff ff ff 	mov    rax,QWORD PTR [rbp-0xd8]
   92734:	48 89 85 70 ff ff ff 	mov    QWORD PTR [rbp-0x90],rax
   9273b:	48 89 9d 78 ff ff ff 	mov    QWORD PTR [rbp-0x88],rbx
   92742:	48 8b 85 50 ff ff ff 	mov    rax,QWORD PTR [rbp-0xb0]
   92749:	48 89 45 80          	mov    QWORD PTR [rbp-0x80],rax
   9274d:	4c 89 5d 88          	mov    QWORD PTR [rbp-0x78],r11
   92751:	4c 89 4d 90          	mov    QWORD PTR [rbp-0x70],r9
   92755:	48 89 4d 98          	mov    QWORD PTR [rbp-0x68],rcx
   92759:	48 89 75 a0          	mov    QWORD PTR [rbp-0x60],rsi
   9275d:	48 89 7d a8          	mov    QWORD PTR [rbp-0x58],rdi
   92761:	4c 89 45 b0          	mov    QWORD PTR [rbp-0x50],r8
   92765:	48 8b 85 38 ff ff ff 	mov    rax,QWORD PTR [rbp-0xc8]
   9276c:	48 89 45 b8          	mov    QWORD PTR [rbp-0x48],rax
   92770:	49 ff c2             	inc    r10
   92773:	4c 89 95 a0 fd ff ff 	mov    QWORD PTR [rbp-0x260],r10
   9277a:	48 ff c2             	inc    rdx
   9277d:	48 89 95 a8 fd ff ff 	mov    QWORD PTR [rbp-0x258],rdx
   92784:	48 8b 95 a0 fb ff ff 	mov    rdx,QWORD PTR [rbp-0x460]
   9278b:	48 ff ca             	dec    rdx
   9278e:	48 89 95 b0 fd ff ff 	mov    QWORD PTR [rbp-0x250],rdx
   92795:	48 ba 88 4f 7d 98 ff 	movabs rdx,0xc05bf4ff987d4f88
   9279c:	f4 5b c0 
   9279f:	e9 2e 5d ff ff       	jmp    884d2 <Java_com_adjust_sdk_sig_NativeLibHelper_nOnResume@@Base-0x327d1>
   927a4:	80 3d e2 c7 0a 00 00 	cmp    BYTE PTR [rip+0xac7e2],0x0        # 13ef8d <write@plt+0xc40d>
   927ab:	48 ba a5 39 f3 15 40 	movabs rdx,0x5875444015f339a5
   927b2:	44 75 58 
   927b5:	48 b8 d3 77 cc 67 21 	movabs rax,0x892fc32167cc77d3
   927bc:	c3 2f 89 
   927bf:	48 0f 45 d0          	cmovne rdx,rax
   927c3:	48 8b 85 48 ff ff ff 	mov    rax,QWORD PTR [rbp-0xb8]
   927ca:	48 89 85 58 ff ff ff 	mov    QWORD PTR [rbp-0xa8],rax
   927d1:	48 8b 85 40 ff ff ff 	mov    rax,QWORD PTR [rbp-0xc0]
   927d8:	48 89 85 60 ff ff ff 	mov    QWORD PTR [rbp-0xa0],rax
   927df:	48 8b 85 30 ff ff ff 	mov    rax,QWORD PTR [rbp-0xd0]
   927e6:	48 89 85 68 ff ff ff 	mov    QWORD PTR [rbp-0x98],rax
   927ed:	8b 45 c0             	mov    eax,DWORD PTR [rbp-0x40]
   927f0:	89 45 c8             	mov    DWORD PTR [rbp-0x38],eax
   927f3:	8b 45 c4             	mov    eax,DWORD PTR [rbp-0x3c]
   927f6:	89 45 cc             	mov    DWORD PTR [rbp-0x34],eax
   927f9:	48 8b 85 28 ff ff ff 	mov    rax,QWORD PTR [rbp-0xd8]
   92800:	48 89 85 70 ff ff ff 	mov    QWORD PTR [rbp-0x90],rax
   92807:	48 89 9d 78 ff ff ff 	mov    QWORD PTR [rbp-0x88],rbx
   9280e:	48 8b 85 50 ff ff ff 	mov    rax,QWORD PTR [rbp-0xb0]
   92815:	48 89 45 80          	mov    QWORD PTR [rbp-0x80],rax
   92819:	48 8b 85 20 ff ff ff 	mov    rax,QWORD PTR [rbp-0xe0]
   92820:	48 89 45 88          	mov    QWORD PTR [rbp-0x78],rax
   92824:	48 8b 85 18 ff ff ff 	mov    rax,QWORD PTR [rbp-0xe8]
   9282b:	48 89 45 90          	mov    QWORD PTR [rbp-0x70],rax
   9282f:	48 8b 85 08 ff ff ff 	mov    rax,QWORD PTR [rbp-0xf8]
   92836:	48 89 45 98          	mov    QWORD PTR [rbp-0x68],rax
   9283a:	48 8b 85 10 ff ff ff 	mov    rax,QWORD PTR [rbp-0xf0]
   92841:	48 89 45 a0          	mov    QWORD PTR [rbp-0x60],rax
   92845:	4c 89 75 a8          	mov    QWORD PTR [rbp-0x58],r14
   92849:	e9 95 05 00 00       	jmp    92de3 <Java_com_adjust_sdk_sig_NativeLibHelper_nOnResume@@Base-0x27ec0>
   9284e:	31 c0                	xor    eax,eax
   92850:	b1 01                	mov    cl,0x1
   92852:	f0 0f b0 0d 32 c7 0a 	lock cmpxchg BYTE PTR [rip+0xac732],cl        # 13ef8c <write@plt+0xc40c>
   92859:	00 
   9285a:	48 ba 15 93 b7 34 21 	movabs rdx,0x7d83582134b79315
   92861:	58 83 7d 
   92864:	48 b8 de b3 67 60 14 	movabs rax,0xae872a146067b3de
   9286b:	2a 87 ae 
   9286e:	48 0f 44 d0          	cmove  rdx,rax
   92872:	48 8b 85 48 ff ff ff 	mov    rax,QWORD PTR [rbp-0xb8]
   92879:	48 89 85 58 ff ff ff 	mov    QWORD PTR [rbp-0xa8],rax
   92880:	48 8b 85 40 ff ff ff 	mov    rax,QWORD PTR [rbp-0xc0]
   92887:	48 89 85 60 ff ff ff 	mov    QWORD PTR [rbp-0xa0],rax
   9288e:	48 8b 85 30 ff ff ff 	mov    rax,QWORD PTR [rbp-0xd0]
   92895:	48 89 85 68 ff ff ff 	mov    QWORD PTR [rbp-0x98],rax
   9289c:	44 89 75 c8          	mov    DWORD PTR [rbp-0x38],r14d
   928a0:	8b 45 c4             	mov    eax,DWORD PTR [rbp-0x3c]
   928a3:	89 45 cc             	mov    DWORD PTR [rbp-0x34],eax
   928a6:	48 8b 85 28 ff ff ff 	mov    rax,QWORD PTR [rbp-0xd8]
   928ad:	48 89 85 70 ff ff ff 	mov    QWORD PTR [rbp-0x90],rax
   928b4:	48 89 9d 78 ff ff ff 	mov    QWORD PTR [rbp-0x88],rbx
   928bb:	48 8b 85 50 ff ff ff 	mov    rax,QWORD PTR [rbp-0xb0]
   928c2:	48 89 45 80          	mov    QWORD PTR [rbp-0x80],rax
   928c6:	48 8b 85 20 ff ff ff 	mov    rax,QWORD PTR [rbp-0xe0]
   928cd:	48 89 45 88          	mov    QWORD PTR [rbp-0x78],rax
   928d1:	48 8b 85 18 ff ff ff 	mov    rax,QWORD PTR [rbp-0xe8]
   928d8:	48 89 45 90          	mov    QWORD PTR [rbp-0x70],rax
   928dc:	48 8b 85 08 ff ff ff 	mov    rax,QWORD PTR [rbp-0xf8]
   928e3:	48 89 45 98          	mov    QWORD PTR [rbp-0x68],rax
   928e7:	48 8b 85 10 ff ff ff 	mov    rax,QWORD PTR [rbp-0xf0]
   928ee:	48 89 45 a0          	mov    QWORD PTR [rbp-0x60],rax
   928f2:	48 8b 85 f8 fe ff ff 	mov    rax,QWORD PTR [rbp-0x108]
   928f9:	48 89 45 a8          	mov    QWORD PTR [rbp-0x58],rax
   928fd:	4c 89 5d b0          	mov    QWORD PTR [rbp-0x50],r11
   92901:	e9 4a 16 00 00       	jmp    93f50 <Java_com_adjust_sdk_sig_NativeLibHelper_nOnResume@@Base-0x26d53>
   92906:	80 3d be c4 0a 00 00 	cmp    BYTE PTR [rip+0xac4be],0x0        # 13edcb <write@plt+0xc24b>
   9290d:	48 ba 15 df ff 88 85 	movabs rdx,0xc88d3f8588ffdf15
   92914:	3f 8d c8 
   92917:	48 b8 1b bd 5a 30 55 	movabs rax,0xff7e3955305abd1b
   9291e:	39 7e ff 
   92921:	48 0f 45 d0          	cmovne rdx,rax
   92925:	48 8b 85 48 ff ff ff 	mov    rax,QWORD PTR [rbp-0xb8]
   9292c:	48 89 85 58 ff ff ff 	mov    QWORD PTR [rbp-0xa8],rax
   92933:	48 8b 85 40 ff ff ff 	mov    rax,QWORD PTR [rbp-0xc0]
   9293a:	48 89 85 60 ff ff ff 	mov    QWORD PTR [rbp-0xa0],rax
   92941:	48 8b 85 30 ff ff ff 	mov    rax,QWORD PTR [rbp-0xd0]
   92948:	48 89 85 68 ff ff ff 	mov    QWORD PTR [rbp-0x98],rax
   9294f:	8b 45 c0             	mov    eax,DWORD PTR [rbp-0x40]
   92952:	89 45 c8             	mov    DWORD PTR [rbp-0x38],eax
   92955:	8b 45 c4             	mov    eax,DWORD PTR [rbp-0x3c]
   92958:	89 45 cc             	mov    DWORD PTR [rbp-0x34],eax
   9295b:	48 8b 85 28 ff ff ff 	mov    rax,QWORD PTR [rbp-0xd8]
   92962:	48 89 85 70 ff ff ff 	mov    QWORD PTR [rbp-0x90],rax
   92969:	48 89 9d 78 ff ff ff 	mov    QWORD PTR [rbp-0x88],rbx
   92970:	48 8b 85 50 ff ff ff 	mov    rax,QWORD PTR [rbp-0xb0]
   92977:	48 89 45 80          	mov    QWORD PTR [rbp-0x80],rax
   9297b:	48 8b 85 20 ff ff ff 	mov    rax,QWORD PTR [rbp-0xe0]
   92982:	48 89 45 88          	mov    QWORD PTR [rbp-0x78],rax
   92986:	48 8b 85 18 ff ff ff 	mov    rax,QWORD PTR [rbp-0xe8]
   9298d:	48 89 45 90          	mov    QWORD PTR [rbp-0x70],rax
   92991:	48 8b 85 08 ff ff ff 	mov    rax,QWORD PTR [rbp-0xf8]
   92998:	48 89 45 98          	mov    QWORD PTR [rbp-0x68],rax
   9299c:	48 8b 85 10 ff ff ff 	mov    rax,QWORD PTR [rbp-0xf0]
   929a3:	48 89 45 a0          	mov    QWORD PTR [rbp-0x60],rax
   929a7:	4c 89 75 a8          	mov    QWORD PTR [rbp-0x58],r14
   929ab:	48 8b 85 00 ff ff ff 	mov    rax,QWORD PTR [rbp-0x100]
   929b2:	48 89 45 b0          	mov    QWORD PTR [rbp-0x50],rax
   929b6:	4c 89 4d b8          	mov    QWORD PTR [rbp-0x48],r9
   929ba:	e9 13 5b ff ff       	jmp    884d2 <Java_com_adjust_sdk_sig_NativeLibHelper_nOnResume@@Base-0x327d1>
   929bf:	48 8b 85 58 fc ff ff 	mov    rax,QWORD PTR [rbp-0x3a8]
   929c6:	4c 8b b5 d0 fe ff ff 	mov    r14,QWORD PTR [rbp-0x130]
   929cd:	4c 29 f0             	sub    rax,r14
   929d0:	48 89 85 40 fa ff ff 	mov    QWORD PTR [rbp-0x5c0],rax
   929d7:	48 8d 78 01          	lea    rdi,[rax+0x1]
   929db:	4d 89 cf             	mov    r15,r9
   929de:	e8 6d fe 09 00       	call   132850 <malloc@plt>
   929e3:	48 89 85 c0 fc ff ff 	mov    QWORD PTR [rbp-0x340],rax
   929ea:	48 85 c0             	test   rax,rax
   929ed:	48 ba 3c 26 dc 03 c6 	movabs rdx,0x180b13c603dc263c
   929f4:	13 0b 18 
   929f7:	48 b8 f0 c6 b0 80 c3 	movabs rax,0x6bde47c380b0c6f0
   929fe:	47 de 6b 
   92a01:	48 0f 44 d0          	cmove  rdx,rax
   92a05:	48 8b 85 48 ff ff ff 	mov    rax,QWORD PTR [rbp-0xb8]
   92a0c:	48 89 85 58 ff ff ff 	mov    QWORD PTR [rbp-0xa8],rax
   92a13:	48 8b 85 40 ff ff ff 	mov    rax,QWORD PTR [rbp-0xc0]
   92a1a:	48 89 85 60 ff ff ff 	mov    QWORD PTR [rbp-0xa0],rax
   92a21:	48 8b 85 30 ff ff ff 	mov    rax,QWORD PTR [rbp-0xd0]
   92a28:	48 89 85 68 ff ff ff 	mov    QWORD PTR [rbp-0x98],rax
   92a2f:	8b 45 c0             	mov    eax,DWORD PTR [rbp-0x40]
   92a32:	89 45 c8             	mov    DWORD PTR [rbp-0x38],eax
   92a35:	8b 45 c4             	mov    eax,DWORD PTR [rbp-0x3c]
   92a38:	89 45 cc             	mov    DWORD PTR [rbp-0x34],eax
   92a3b:	48 8b 85 28 ff ff ff 	mov    rax,QWORD PTR [rbp-0xd8]
   92a42:	48 89 85 70 ff ff ff 	mov    QWORD PTR [rbp-0x90],rax
   92a49:	48 89 9d 78 ff ff ff 	mov    QWORD PTR [rbp-0x88],rbx
   92a50:	48 8b 85 50 ff ff ff 	mov    rax,QWORD PTR [rbp-0xb0]
   92a57:	48 89 45 80          	mov    QWORD PTR [rbp-0x80],rax
   92a5b:	48 8b 85 20 ff ff ff 	mov    rax,QWORD PTR [rbp-0xe0]
   92a62:	48 89 45 88          	mov    QWORD PTR [rbp-0x78],rax
   92a66:	48 8b 85 18 ff ff ff 	mov    rax,QWORD PTR [rbp-0xe8]
   92a6d:	48 89 45 90          	mov    QWORD PTR [rbp-0x70],rax
   92a71:	48 8b 85 08 ff ff ff 	mov    rax,QWORD PTR [rbp-0xf8]
   92a78:	48 89 45 98          	mov    QWORD PTR [rbp-0x68],rax
   92a7c:	48 8b 85 10 ff ff ff 	mov    rax,QWORD PTR [rbp-0xf0]
   92a83:	48 89 45 a0          	mov    QWORD PTR [rbp-0x60],rax
   92a87:	48 8b 85 f8 fe ff ff 	mov    rax,QWORD PTR [rbp-0x108]
   92a8e:	48 89 45 a8          	mov    QWORD PTR [rbp-0x58],rax
   92a92:	48 8b 85 00 ff ff ff 	mov    rax,QWORD PTR [rbp-0x100]
   92a99:	48 89 45 b0          	mov    QWORD PTR [rbp-0x50],rax
   92a9d:	4c 89 7d b8          	mov    QWORD PTR [rbp-0x48],r15
   92aa1:	4c 89 b5 c8 fe ff ff 	mov    QWORD PTR [rbp-0x138],r14
   92aa8:	e9 25 5a ff ff       	jmp    884d2 <Java_com_adjust_sdk_sig_NativeLibHelper_nOnResume@@Base-0x327d1>
   92aad:	4c 8b 95 48 fb ff ff 	mov    r10,QWORD PTR [rbp-0x4b8]
   92ab4:	41 8a 02             	mov    al,BYTE PTR [r10]
   92ab7:	48 8b 95 40 fb ff ff 	mov    rdx,QWORD PTR [rbp-0x4c0]
   92abe:	88 02                	mov    BYTE PTR [rdx],al
   92ac0:	48 8b 85 48 ff ff ff 	mov    rax,QWORD PTR [rbp-0xb8]
   92ac7:	48 89 85 58 ff ff ff 	mov    QWORD PTR [rbp-0xa8],rax
   92ace:	48 8b 85 40 ff ff ff 	mov    rax,QWORD PTR [rbp-0xc0]
   92ad5:	48 89 85 60 ff ff ff 	mov    QWORD PTR [rbp-0xa0],rax
   92adc:	48 8b 85 30 ff ff ff 	mov    rax,QWORD PTR [rbp-0xd0]
   92ae3:	48 89 85 68 ff ff ff 	mov    QWORD PTR [rbp-0x98],rax
   92aea:	8b 45 c0             	mov    eax,DWORD PTR [rbp-0x40]
   92aed:	89 45 c8             	mov    DWORD PTR [rbp-0x38],eax
   92af0:	8b 45 c4             	mov    eax,DWORD PTR [rbp-0x3c]
   92af3:	89 45 cc             	mov    DWORD PTR [rbp-0x34],eax
   92af6:	48 8b 85 28 ff ff ff 	mov    rax,QWORD PTR [rbp-0xd8]
   92afd:	48 89 85 70 ff ff ff 	mov    QWORD PTR [rbp-0x90],rax
   92b04:	48 89 9d 78 ff ff ff 	mov    QWORD PTR [rbp-0x88],rbx
   92b0b:	48 8b 85 50 ff ff ff 	mov    rax,QWORD PTR [rbp-0xb0]
   92b12:	48 89 45 80          	mov    QWORD PTR [rbp-0x80],rax
   92b16:	48 8b 85 20 ff ff ff 	mov    rax,QWORD PTR [rbp-0xe0]
   92b1d:	48 89 45 88          	mov    QWORD PTR [rbp-0x78],rax
   92b21:	48 8b 85 18 ff ff ff 	mov    rax,QWORD PTR [rbp-0xe8]
   92b28:	48 89 45 90          	mov    QWORD PTR [rbp-0x70],rax
   92b2c:	48 8b 85 08 ff ff ff 	mov    rax,QWORD PTR [rbp-0xf8]
   92b33:	48 89 45 98          	mov    QWORD PTR [rbp-0x68],rax
   92b37:	48 8b 85 10 ff ff ff 	mov    rax,QWORD PTR [rbp-0xf0]
   92b3e:	48 89 45 a0          	mov    QWORD PTR [rbp-0x60],rax
   92b42:	48 8b 85 f8 fe ff ff 	mov    rax,QWORD PTR [rbp-0x108]
   92b49:	48 89 45 a8          	mov    QWORD PTR [rbp-0x58],rax
   92b4d:	4c 89 75 b0          	mov    QWORD PTR [rbp-0x50],r14
   92b51:	48 8b 85 38 ff ff ff 	mov    rax,QWORD PTR [rbp-0xc8]
   92b58:	48 89 45 b8          	mov    QWORD PTR [rbp-0x48],rax
   92b5c:	49 ff c2             	inc    r10
   92b5f:	4c 89 95 10 fe ff ff 	mov    QWORD PTR [rbp-0x1f0],r10
   92b66:	48 ff c2             	inc    rdx
   92b69:	48 89 95 20 fe ff ff 	mov    QWORD PTR [rbp-0x1e0],rdx
   92b70:	48 8b 95 30 fb ff ff 	mov    rdx,QWORD PTR [rbp-0x4d0]
   92b77:	48 ff ca             	dec    rdx
   92b7a:	48 89 95 28 fe ff ff 	mov    QWORD PTR [rbp-0x1d8],rdx
   92b81:	48 ba 88 4f e1 93 51 	movabs rdx,0x15f4265193e14f88
   92b88:	26 f4 15 
   92b8b:	e9 42 59 ff ff       	jmp    884d2 <Java_com_adjust_sdk_sig_NativeLibHelper_nOnResume@@Base-0x327d1>
   92b90:	c6 05 23 c2 0a 00 00 	mov    BYTE PTR [rip+0xac223],0x0        # 13edba <write@plt+0xc23a>
   92b97:	48 8b 85 d8 fe ff ff 	mov    rax,QWORD PTR [rbp-0x128]
   92b9e:	48 8b 8d 00 fd ff ff 	mov    rcx,QWORD PTR [rbp-0x300]
   92ba5:	48 89 48 38          	mov    QWORD PTR [rax+0x38],rcx
   92ba9:	48 8d 3d 20 95 0a 00 	lea    rdi,[rip+0xa9520]        # 13c0d0 <write@plt+0x9550>
   92bb0:	4c 8b a5 d0 fe ff ff 	mov    r12,QWORD PTR [rbp-0x130]
   92bb7:	4c 89 e6             	mov    rsi,r12
   92bba:	49 89 d5             	mov    r13,rdx
   92bbd:	4d 89 df             	mov    r15,r11
   92bc0:	e8 3d ee 02 00       	call   c1a02 <Java_com_adjust_sdk_sig_NativeLibHelper_nSign@@Base+0x6357>
   92bc5:	48 8b 85 48 ff ff ff 	mov    rax,QWORD PTR [rbp-0xb8]
   92bcc:	48 89 85 58 ff ff ff 	mov    QWORD PTR [rbp-0xa8],rax
   92bd3:	48 8b 85 40 ff ff ff 	mov    rax,QWORD PTR [rbp-0xc0]
   92bda:	48 89 85 60 ff ff ff 	mov    QWORD PTR [rbp-0xa0],rax
   92be1:	48 8b 85 30 ff ff ff 	mov    rax,QWORD PTR [rbp-0xd0]
   92be8:	48 89 85 68 ff ff ff 	mov    QWORD PTR [rbp-0x98],rax
   92bef:	44 89 75 c8          	mov    DWORD PTR [rbp-0x38],r14d
   92bf3:	8b 45 c4             	mov    eax,DWORD PTR [rbp-0x3c]
   92bf6:	89 45 cc             	mov    DWORD PTR [rbp-0x34],eax
   92bf9:	48 89 9d 78 ff ff ff 	mov    QWORD PTR [rbp-0x88],rbx
   92c00:	48 8b 85 50 ff ff ff 	mov    rax,QWORD PTR [rbp-0xb0]
   92c07:	48 89 45 80          	mov    QWORD PTR [rbp-0x80],rax
   92c0b:	48 8b 85 20 ff ff ff 	mov    rax,QWORD PTR [rbp-0xe0]
   92c12:	48 89 45 88          	mov    QWORD PTR [rbp-0x78],rax
   92c16:	48 8b 85 18 ff ff ff 	mov    rax,QWORD PTR [rbp-0xe8]
   92c1d:	48 89 45 90          	mov    QWORD PTR [rbp-0x70],rax
   92c21:	48 8b 85 08 ff ff ff 	mov    rax,QWORD PTR [rbp-0xf8]
   92c28:	48 89 45 98          	mov    QWORD PTR [rbp-0x68],rax
   92c2c:	48 8b 85 10 ff ff ff 	mov    rax,QWORD PTR [rbp-0xf0]
   92c33:	48 89 45 a0          	mov    QWORD PTR [rbp-0x60],rax
   92c37:	4c 89 7d a8          	mov    QWORD PTR [rbp-0x58],r15
   92c3b:	4c 89 6d b0          	mov    QWORD PTR [rbp-0x50],r13
   92c3f:	48 8b 85 38 ff ff ff 	mov    rax,QWORD PTR [rbp-0xc8]
   92c46:	48 89 45 b8          	mov    QWORD PTR [rbp-0x48],rax
   92c4a:	4c 89 a5 70 ff ff ff 	mov    QWORD PTR [rbp-0x90],r12
   92c51:	48 ba d1 5d 58 a3 3d 	movabs rdx,0x902353da3585dd1
   92c58:	35 02 09 
   92c5b:	e9 72 58 ff ff       	jmp    884d2 <Java_com_adjust_sdk_sig_NativeLibHelper_nOnResume@@Base-0x327d1>
   92c60:	31 c0                	xor    eax,eax
   92c62:	b1 01                	mov    cl,0x1
   92c64:	f0 0f b0 0d 14 c3 0a 	lock cmpxchg BYTE PTR [rip+0xac314],cl        # 13ef80 <write@plt+0xc400>
   92c6b:	00 
   92c6c:	48 ba a8 02 29 0b 6d 	movabs rdx,0x8052276d0b2902a8
   92c73:	27 52 80 
   92c76:	48 b8 be 8f 92 43 d3 	movabs rax,0x2f0b86d343928fbe
   92c7d:	86 0b 2f 
   92c80:	e9 28 12 00 00       	jmp    93ead <Java_com_adjust_sdk_sig_NativeLibHelper_nOnResume@@Base-0x26df6>
   92c85:	48 8b 8d 28 ff ff ff 	mov    rcx,QWORD PTR [rbp-0xd8]
   92c8c:	80 39 00             	cmp    BYTE PTR [rcx],0x0
   92c8f:	48 ba 08 2c d9 a8 ec 	movabs rdx,0xf3e551eca8d92c08
   92c96:	51 e5 f3 
   92c99:	48 b8 be dd ac 5d 60 	movabs rax,0x9d3ced605dacddbe
   92ca0:	ed 3c 9d 
   92ca3:	48 0f 44 d0          	cmove  rdx,rax
   92ca7:	48 8b 85 48 ff ff ff 	mov    rax,QWORD PTR [rbp-0xb8]
   92cae:	48 89 85 58 ff ff ff 	mov    QWORD PTR [rbp-0xa8],rax
   92cb5:	48 8b 85 40 ff ff ff 	mov    rax,QWORD PTR [rbp-0xc0]
   92cbc:	48 89 85 60 ff ff ff 	mov    QWORD PTR [rbp-0xa0],rax
   92cc3:	48 8b 85 30 ff ff ff 	mov    rax,QWORD PTR [rbp-0xd0]
   92cca:	48 89 85 68 ff ff ff 	mov    QWORD PTR [rbp-0x98],rax
   92cd1:	8b 45 c0             	mov    eax,DWORD PTR [rbp-0x40]
   92cd4:	89 45 c8             	mov    DWORD PTR [rbp-0x38],eax
   92cd7:	8b 45 c4             	mov    eax,DWORD PTR [rbp-0x3c]
   92cda:	89 45 cc             	mov    DWORD PTR [rbp-0x34],eax
   92cdd:	48 89 9d 78 ff ff ff 	mov    QWORD PTR [rbp-0x88],rbx
   92ce4:	48 8b 85 50 ff ff ff 	mov    rax,QWORD PTR [rbp-0xb0]
   92ceb:	48 89 45 80          	mov    QWORD PTR [rbp-0x80],rax
   92cef:	48 8b 85 20 ff ff ff 	mov    rax,QWORD PTR [rbp-0xe0]
   92cf6:	48 89 45 88          	mov    QWORD PTR [rbp-0x78],rax
   92cfa:	48 8b 85 18 ff ff ff 	mov    rax,QWORD PTR [rbp-0xe8]
   92d01:	48 89 45 90          	mov    QWORD PTR [rbp-0x70],rax
   92d05:	48 8b 85 08 ff ff ff 	mov    rax,QWORD PTR [rbp-0xf8]
   92d0c:	48 89 45 98          	mov    QWORD PTR [rbp-0x68],rax
   92d10:	48 8d 71 01          	lea    rsi,[rcx+0x1]
   92d14:	48 89 b5 00 fa ff ff 	mov    QWORD PTR [rbp-0x600],rsi
   92d1b:	48 89 8d 70 ff ff ff 	mov    QWORD PTR [rbp-0x90],rcx
   92d22:	48 89 8d 28 fb ff ff 	mov    QWORD PTR [rbp-0x4d8],rcx
   92d29:	e9 35 10 00 00       	jmp    93d63 <Java_com_adjust_sdk_sig_NativeLibHelper_nOnResume@@Base-0x26f40>
   92d2e:	48 8b 85 a8 fe ff ff 	mov    rax,QWORD PTR [rbp-0x158]
   92d35:	48 83 20 00          	and    QWORD PTR [rax],0x0
   92d39:	48 8b 85 b0 fe ff ff 	mov    rax,QWORD PTR [rbp-0x150]
   92d40:	48 8b 00             	mov    rax,QWORD PTR [rax]
   92d43:	48 89 85 c8 fa ff ff 	mov    QWORD PTR [rbp-0x538],rax
   92d4a:	48 85 c0             	test   rax,rax
   92d4d:	48 b9 0a d4 aa c5 54 	movabs rcx,0xf5d1254c5aad40a
   92d54:	12 5d 0f 
   92d57:	48 89 ca             	mov    rdx,rcx
   92d5a:	48 b8 b3 a1 d8 b4 c1 	movabs rax,0xa8240ec1b4d8a1b3
   92d61:	0e 24 a8 
   92d64:	48 0f 45 d0          	cmovne rdx,rax
   92d68:	48 83 bd e0 fe ff ff 	cmp    QWORD PTR [rbp-0x120],0x0
   92d6f:	00 
   92d70:	48 0f 44 d1          	cmove  rdx,rcx
   92d74:	48 8b 85 48 ff ff ff 	mov    rax,QWORD PTR [rbp-0xb8]
   92d7b:	48 89 85 58 ff ff ff 	mov    QWORD PTR [rbp-0xa8],rax
   92d82:	48 8b 85 40 ff ff ff 	mov    rax,QWORD PTR [rbp-0xc0]
   92d89:	48 89 85 60 ff ff ff 	mov    QWORD PTR [rbp-0xa0],rax
   92d90:	48 8b 85 30 ff ff ff 	mov    rax,QWORD PTR [rbp-0xd0]
   92d97:	48 89 85 68 ff ff ff 	mov    QWORD PTR [rbp-0x98],rax
   92d9e:	44 89 75 c8          	mov    DWORD PTR [rbp-0x38],r14d
   92da2:	8b 45 c4             	mov    eax,DWORD PTR [rbp-0x3c]
   92da5:	89 45 cc             	mov    DWORD PTR [rbp-0x34],eax
   92da8:	48 8b 85 28 ff ff ff 	mov    rax,QWORD PTR [rbp-0xd8]
   92daf:	48 89 85 70 ff ff ff 	mov    QWORD PTR [rbp-0x90],rax
   92db6:	48 8b 85 f0 fe ff ff 	mov    rax,QWORD PTR [rbp-0x110]
   92dbd:	48 89 85 78 ff ff ff 	mov    QWORD PTR [rbp-0x88],rax
   92dc4:	48 8b 85 50 ff ff ff 	mov    rax,QWORD PTR [rbp-0xb0]
   92dcb:	48 89 45 80          	mov    QWORD PTR [rbp-0x80],rax
   92dcf:	48 89 5d 88          	mov    QWORD PTR [rbp-0x78],rbx
   92dd3:	4c 89 5d 90          	mov    QWORD PTR [rbp-0x70],r11
   92dd7:	4c 89 4d 98          	mov    QWORD PTR [rbp-0x68],r9
   92ddb:	48 89 75 a0          	mov    QWORD PTR [rbp-0x60],rsi
   92ddf:	48 89 7d a8          	mov    QWORD PTR [rbp-0x58],rdi
   92de3:	4c 89 45 b0          	mov    QWORD PTR [rbp-0x50],r8
   92de7:	e9 64 11 00 00       	jmp    93f50 <Java_com_adjust_sdk_sig_NativeLibHelper_nOnResume@@Base-0x26d53>
   92dec:	4c 8b 95 68 fd ff ff 	mov    r10,QWORD PTR [rbp-0x298]
   92df3:	4d 85 d2             	test   r10,r10
   92df6:	48 ba d6 9a 2c 47 80 	movabs rdx,0xc2b0d980472c9ad6
   92dfd:	d9 b0 c2 
   92e00:	48 b8 10 d5 3d e0 aa 	movabs rax,0x66b038aae03dd510
   92e07:	38 b0 66 
   92e0a:	48 0f 44 d0          	cmove  rdx,rax
   92e0e:	48 8b 85 48 ff ff ff 	mov    rax,QWORD PTR [rbp-0xb8]
   92e15:	48 89 85 58 ff ff ff 	mov    QWORD PTR [rbp-0xa8],rax
   92e1c:	48 8b 85 40 ff ff ff 	mov    rax,QWORD PTR [rbp-0xc0]
   92e23:	48 89 85 60 ff ff ff 	mov    QWORD PTR [rbp-0xa0],rax
   92e2a:	48 8b 85 30 ff ff ff 	mov    rax,QWORD PTR [rbp-0xd0]
   92e31:	48 89 85 68 ff ff ff 	mov    QWORD PTR [rbp-0x98],rax
   92e38:	8b 45 c0             	mov    eax,DWORD PTR [rbp-0x40]
   92e3b:	89 45 c8             	mov    DWORD PTR [rbp-0x38],eax
   92e3e:	8b 45 c4             	mov    eax,DWORD PTR [rbp-0x3c]
   92e41:	89 45 cc             	mov    DWORD PTR [rbp-0x34],eax
   92e44:	48 8b 85 28 ff ff ff 	mov    rax,QWORD PTR [rbp-0xd8]
   92e4b:	48 89 85 70 ff ff ff 	mov    QWORD PTR [rbp-0x90],rax
   92e52:	48 8b 85 f0 fe ff ff 	mov    rax,QWORD PTR [rbp-0x110]
   92e59:	48 89 85 78 ff ff ff 	mov    QWORD PTR [rbp-0x88],rax
   92e60:	48 8b 85 50 ff ff ff 	mov    rax,QWORD PTR [rbp-0xb0]
   92e67:	48 89 45 80          	mov    QWORD PTR [rbp-0x80],rax
   92e6b:	48 8b 85 20 ff ff ff 	mov    rax,QWORD PTR [rbp-0xe0]
   92e72:	48 89 45 88          	mov    QWORD PTR [rbp-0x78],rax
   92e76:	48 8b 85 18 ff ff ff 	mov    rax,QWORD PTR [rbp-0xe8]
   92e7d:	48 89 45 90          	mov    QWORD PTR [rbp-0x70],rax
   92e81:	48 8b 85 08 ff ff ff 	mov    rax,QWORD PTR [rbp-0xf8]
   92e88:	48 89 45 98          	mov    QWORD PTR [rbp-0x68],rax
   92e8c:	48 8b 85 10 ff ff ff 	mov    rax,QWORD PTR [rbp-0xf0]
   92e93:	48 89 45 a0          	mov    QWORD PTR [rbp-0x60],rax
   92e97:	48 8b 85 f8 fe ff ff 	mov    rax,QWORD PTR [rbp-0x108]
   92e9e:	48 89 45 a8          	mov    QWORD PTR [rbp-0x58],rax
   92ea2:	48 8b 85 00 ff ff ff 	mov    rax,QWORD PTR [rbp-0x100]
   92ea9:	48 89 45 b0          	mov    QWORD PTR [rbp-0x50],rax
   92ead:	48 8b 85 38 ff ff ff 	mov    rax,QWORD PTR [rbp-0xc8]
   92eb4:	48 89 45 b8          	mov    QWORD PTR [rbp-0x48],rax
   92eb8:	4c 89 95 f0 fb ff ff 	mov    QWORD PTR [rbp-0x410],r10
   92ebf:	4c 8b 95 60 fd ff ff 	mov    r10,QWORD PTR [rbp-0x2a0]
   92ec6:	4c 89 95 f8 fb ff ff 	mov    QWORD PTR [rbp-0x408],r10
   92ecd:	4c 8b 95 58 fd ff ff 	mov    r10,QWORD PTR [rbp-0x2a8]
   92ed4:	4c 89 95 00 fc ff ff 	mov    QWORD PTR [rbp-0x400],r10
   92edb:	e9 f2 55 ff ff       	jmp    884d2 <Java_com_adjust_sdk_sig_NativeLibHelper_nOnResume@@Base-0x327d1>
   92ee0:	48 8b 85 80 fe ff ff 	mov    rax,QWORD PTR [rbp-0x180]
   92ee7:	48 8b 30             	mov    rsi,QWORD PTR [rax]
   92eea:	48 8b 85 60 fe ff ff 	mov    rax,QWORD PTR [rbp-0x1a0]
   92ef1:	48 8b 10             	mov    rdx,QWORD PTR [rax]
   92ef4:	48 8b 85 88 fe ff ff 	mov    rax,QWORD PTR [rbp-0x178]
   92efb:	48 8b 08             	mov    rcx,QWORD PTR [rax]
   92efe:	48 8b 85 68 fe ff ff 	mov    rax,QWORD PTR [rbp-0x198]
   92f05:	4c 8b 00             	mov    r8,QWORD PTR [rax]
   92f08:	48 8b bd d8 fe ff ff 	mov    rdi,QWORD PTR [rbp-0x128]
   92f0f:	4d 89 dc             	mov    r12,r11
   92f12:	4d 89 cf             	mov    r15,r9
   92f15:	e8 6c 10 00 00       	call   93f86 <Java_com_adjust_sdk_sig_NativeLibHelper_nOnResume@@Base-0x26d1d>
   92f1a:	48 8b 8d c0 fe ff ff 	mov    rcx,QWORD PTR [rbp-0x140]
   92f21:	89 01                	mov    DWORD PTR [rcx],eax
   92f23:	85 c0                	test   eax,eax
   92f25:	48 ba 83 80 a4 50 27 	movabs rdx,0xd1e6b2750a48083
   92f2c:	6b 1e 0d 
   92f2f:	48 b8 3b 59 2a 1d 09 	movabs rax,0x1973e4091d2a593b
   92f36:	e4 73 19 
   92f39:	48 0f 44 d0          	cmove  rdx,rax
   92f3d:	48 8b 85 48 ff ff ff 	mov    rax,QWORD PTR [rbp-0xb8]
   92f44:	48 89 85 58 ff ff ff 	mov    QWORD PTR [rbp-0xa8],rax
   92f4b:	48 8b 85 40 ff ff ff 	mov    rax,QWORD PTR [rbp-0xc0]
   92f52:	48 89 85 60 ff ff ff 	mov    QWORD PTR [rbp-0xa0],rax
   92f59:	48 8b 85 30 ff ff ff 	mov    rax,QWORD PTR [rbp-0xd0]
   92f60:	48 89 85 68 ff ff ff 	mov    QWORD PTR [rbp-0x98],rax
   92f67:	44 89 75 c8          	mov    DWORD PTR [rbp-0x38],r14d
   92f6b:	8b 45 c4             	mov    eax,DWORD PTR [rbp-0x3c]
   92f6e:	89 45 cc             	mov    DWORD PTR [rbp-0x34],eax
   92f71:	48 8b 85 28 ff ff ff 	mov    rax,QWORD PTR [rbp-0xd8]
   92f78:	48 89 85 70 ff ff ff 	mov    QWORD PTR [rbp-0x90],rax
   92f7f:	48 89 9d 78 ff ff ff 	mov    QWORD PTR [rbp-0x88],rbx
   92f86:	48 8b 85 50 ff ff ff 	mov    rax,QWORD PTR [rbp-0xb0]
   92f8d:	48 89 45 80          	mov    QWORD PTR [rbp-0x80],rax
   92f91:	48 8b 85 20 ff ff ff 	mov    rax,QWORD PTR [rbp-0xe0]
   92f98:	48 89 45 88          	mov    QWORD PTR [rbp-0x78],rax
   92f9c:	48 8b 85 18 ff ff ff 	mov    rax,QWORD PTR [rbp-0xe8]
   92fa3:	48 89 45 90          	mov    QWORD PTR [rbp-0x70],rax
   92fa7:	48 8b 85 08 ff ff ff 	mov    rax,QWORD PTR [rbp-0xf8]
   92fae:	48 89 45 98          	mov    QWORD PTR [rbp-0x68],rax
   92fb2:	48 8b 85 10 ff ff ff 	mov    rax,QWORD PTR [rbp-0xf0]
   92fb9:	48 89 45 a0          	mov    QWORD PTR [rbp-0x60],rax
   92fbd:	4c 89 7d a8          	mov    QWORD PTR [rbp-0x58],r15
   92fc1:	4c 89 65 b0          	mov    QWORD PTR [rbp-0x50],r12
   92fc5:	48 8b 85 38 ff ff ff 	mov    rax,QWORD PTR [rbp-0xc8]
   92fcc:	48 89 45 b8          	mov    QWORD PTR [rbp-0x48],rax
   92fd0:	4c 8b 95 70 fe ff ff 	mov    r10,QWORD PTR [rbp-0x190]
   92fd7:	41 ff c2             	inc    r10d
   92fda:	44 89 95 4c fe ff ff 	mov    DWORD PTR [rbp-0x1b4],r10d
   92fe1:	e9 ec 54 ff ff       	jmp    884d2 <Java_com_adjust_sdk_sig_NativeLibHelper_nOnResume@@Base-0x327d1>
   92fe6:	48 8b 95 80 fa ff ff 	mov    rdx,QWORD PTR [rbp-0x580]
   92fed:	4c 8b 95 08 fd ff ff 	mov    r10,QWORD PTR [rbp-0x2f8]
   92ff4:	41 c6 04 12 00       	mov    BYTE PTR [r10+rdx*1],0x0
   92ff9:	48 8b 85 48 ff ff ff 	mov    rax,QWORD PTR [rbp-0xb8]
   93000:	48 89 85 58 ff ff ff 	mov    QWORD PTR [rbp-0xa8],rax
   93007:	48 8b 85 40 ff ff ff 	mov    rax,QWORD PTR [rbp-0xc0]
   9300e:	48 89 85 60 ff ff ff 	mov    QWORD PTR [rbp-0xa0],rax
   93015:	48 8b 85 30 ff ff ff 	mov    rax,QWORD PTR [rbp-0xd0]
   9301c:	48 89 85 68 ff ff ff 	mov    QWORD PTR [rbp-0x98],rax
   93023:	8b 45 c0             	mov    eax,DWORD PTR [rbp-0x40]
   93026:	89 45 c8             	mov    DWORD PTR [rbp-0x38],eax
   93029:	8b 45 c4             	mov    eax,DWORD PTR [rbp-0x3c]
   9302c:	89 45 cc             	mov    DWORD PTR [rbp-0x34],eax
   9302f:	48 8b 85 28 ff ff ff 	mov    rax,QWORD PTR [rbp-0xd8]
   93036:	48 89 85 70 ff ff ff 	mov    QWORD PTR [rbp-0x90],rax
   9303d:	48 89 9d 78 ff ff ff 	mov    QWORD PTR [rbp-0x88],rbx
   93044:	48 8b 85 50 ff ff ff 	mov    rax,QWORD PTR [rbp-0xb0]
   9304b:	48 89 45 80          	mov    QWORD PTR [rbp-0x80],rax
   9304f:	48 8b 85 20 ff ff ff 	mov    rax,QWORD PTR [rbp-0xe0]
   93056:	48 89 45 88          	mov    QWORD PTR [rbp-0x78],rax
   9305a:	48 8b 85 18 ff ff ff 	mov    rax,QWORD PTR [rbp-0xe8]
   93061:	48 89 45 90          	mov    QWORD PTR [rbp-0x70],rax
   93065:	48 8b 85 08 ff ff ff 	mov    rax,QWORD PTR [rbp-0xf8]
   9306c:	48 89 45 98          	mov    QWORD PTR [rbp-0x68],rax
   93070:	48 8b 85 10 ff ff ff 	mov    rax,QWORD PTR [rbp-0xf0]
   93077:	48 89 45 a0          	mov    QWORD PTR [rbp-0x60],rax
   9307b:	4c 89 75 a8          	mov    QWORD PTR [rbp-0x58],r14
   9307f:	4c 89 45 b0          	mov    QWORD PTR [rbp-0x50],r8
   93083:	4c 89 4d b8          	mov    QWORD PTR [rbp-0x48],r9
   93087:	4c 8b 9d d0 fe ff ff 	mov    r11,QWORD PTR [rbp-0x130]
   9308e:	4c 89 9d 58 fd ff ff 	mov    QWORD PTR [rbp-0x2a8],r11
   93095:	4c 89 95 60 fd ff ff 	mov    QWORD PTR [rbp-0x2a0],r10
   9309c:	48 89 95 68 fd ff ff 	mov    QWORD PTR [rbp-0x298],rdx
   930a3:	48 ba 5b 2c da d8 d1 	movabs rdx,0xf758efd1d8da2c5b
   930aa:	ef 58 f7 
   930ad:	e9 20 54 ff ff       	jmp    884d2 <Java_com_adjust_sdk_sig_NativeLibHelper_nOnResume@@Base-0x327d1>
   930b2:	80 3d e8 bc 0a 00 00 	cmp    BYTE PTR [rip+0xabce8],0x0        # 13eda1 <write@plt+0xc221>
   930b9:	48 ba 18 24 f9 70 bd 	movabs rdx,0xabc20cbd70f92418
   930c0:	0c c2 ab 
   930c3:	48 b8 eb ee 26 d2 27 	movabs rax,0x9054da27d226eeeb
   930ca:	da 54 90 
   930cd:	48 0f 45 d0          	cmovne rdx,rax
   930d1:	e9 db 0d 00 00       	jmp    93eb1 <Java_com_adjust_sdk_sig_NativeLibHelper_nOnResume@@Base-0x26df2>
   930d6:	48 8b 95 50 fc ff ff 	mov    rdx,QWORD PTR [rbp-0x3b0]
   930dd:	4c 8b 95 f8 fc ff ff 	mov    r10,QWORD PTR [rbp-0x308]
   930e4:	41 c6 04 12 00       	mov    BYTE PTR [r10+rdx*1],0x0
   930e9:	48 8b 85 48 ff ff ff 	mov    rax,QWORD PTR [rbp-0xb8]
   930f0:	48 89 85 58 ff ff ff 	mov    QWORD PTR [rbp-0xa8],rax
   930f7:	48 8b 85 40 ff ff ff 	mov    rax,QWORD PTR [rbp-0xc0]
   930fe:	48 89 85 60 ff ff ff 	mov    QWORD PTR [rbp-0xa0],rax
   93105:	48 8b 85 30 ff ff ff 	mov    rax,QWORD PTR [rbp-0xd0]
   9310c:	48 89 85 68 ff ff ff 	mov    QWORD PTR [rbp-0x98],rax
   93113:	8b 45 c0             	mov    eax,DWORD PTR [rbp-0x40]
   93116:	89 45 c8             	mov    DWORD PTR [rbp-0x38],eax
   93119:	8b 45 c4             	mov    eax,DWORD PTR [rbp-0x3c]
   9311c:	89 45 cc             	mov    DWORD PTR [rbp-0x34],eax
   9311f:	48 8b 85 28 ff ff ff 	mov    rax,QWORD PTR [rbp-0xd8]
   93126:	48 89 85 70 ff ff ff 	mov    QWORD PTR [rbp-0x90],rax
   9312d:	48 8b 85 f0 fe ff ff 	mov    rax,QWORD PTR [rbp-0x110]
   93134:	48 89 85 78 ff ff ff 	mov    QWORD PTR [rbp-0x88],rax
   9313b:	48 8b 85 50 ff ff ff 	mov    rax,QWORD PTR [rbp-0xb0]
   93142:	48 89 45 80          	mov    QWORD PTR [rbp-0x80],rax
   93146:	48 8b 85 20 ff ff ff 	mov    rax,QWORD PTR [rbp-0xe0]
   9314d:	48 89 45 88          	mov    QWORD PTR [rbp-0x78],rax
   93151:	48 8b 85 18 ff ff ff 	mov    rax,QWORD PTR [rbp-0xe8]
   93158:	48 89 45 90          	mov    QWORD PTR [rbp-0x70],rax
   9315c:	48 8b 85 08 ff ff ff 	mov    rax,QWORD PTR [rbp-0xf8]
   93163:	48 89 45 98          	mov    QWORD PTR [rbp-0x68],rax
   93167:	48 8b 85 10 ff ff ff 	mov    rax,QWORD PTR [rbp-0xf0]
   9316e:	48 89 45 a0          	mov    QWORD PTR [rbp-0x60],rax
   93172:	48 8b 85 f8 fe ff ff 	mov    rax,QWORD PTR [rbp-0x108]
   93179:	48 89 45 a8          	mov    QWORD PTR [rbp-0x58],rax
   9317d:	48 8b 85 00 ff ff ff 	mov    rax,QWORD PTR [rbp-0x100]
   93184:	48 89 45 b0          	mov    QWORD PTR [rbp-0x50],rax
   93188:	48 8b 85 38 ff ff ff 	mov    rax,QWORD PTR [rbp-0xc8]
   9318f:	48 89 45 b8          	mov    QWORD PTR [rbp-0x48],rax
   93193:	4c 8b 9d d0 fe ff ff 	mov    r11,QWORD PTR [rbp-0x130]
   9319a:	4c 89 9d 80 fd ff ff 	mov    QWORD PTR [rbp-0x280],r11
   931a1:	4c 89 95 90 fd ff ff 	mov    QWORD PTR [rbp-0x270],r10
   931a8:	48 89 95 98 fd ff ff 	mov    QWORD PTR [rbp-0x268],rdx
   931af:	48 ba 27 c2 04 ed 8d 	movabs rdx,0xfd48e8ded04c227
   931b6:	8e d4 0f 
   931b9:	e9 14 53 ff ff       	jmp    884d2 <Java_com_adjust_sdk_sig_NativeLibHelper_nOnResume@@Base-0x327d1>
   931be:	4c 8b 95 18 fe ff ff 	mov    r10,QWORD PTR [rbp-0x1e8]
   931c5:	4d 85 d2             	test   r10,r10
   931c8:	48 ba 07 3c 8d 8e 32 	movabs rdx,0xc4cdb4328e8d3c07
   931cf:	b4 cd c4 
   931d2:	48 b8 47 1d f7 02 64 	movabs rax,0x8a90086402f71d47
   931d9:	08 90 8a 
   931dc:	48 0f 44 d0          	cmove  rdx,rax
   931e0:	48 8b 85 48 ff ff ff 	mov    rax,QWORD PTR [rbp-0xb8]
   931e7:	48 89 85 58 ff ff ff 	mov    QWORD PTR [rbp-0xa8],rax
   931ee:	48 8b 85 40 ff ff ff 	mov    rax,QWORD PTR [rbp-0xc0]
   931f5:	48 89 85 60 ff ff ff 	mov    QWORD PTR [rbp-0xa0],rax
   931fc:	48 8b 85 30 ff ff ff 	mov    rax,QWORD PTR [rbp-0xd0]
   93203:	48 89 85 68 ff ff ff 	mov    QWORD PTR [rbp-0x98],rax
   9320a:	8b 45 c0             	mov    eax,DWORD PTR [rbp-0x40]
   9320d:	89 45 c8             	mov    DWORD PTR [rbp-0x38],eax
   93210:	8b 45 c4             	mov    eax,DWORD PTR [rbp-0x3c]
   93213:	89 45 cc             	mov    DWORD PTR [rbp-0x34],eax
   93216:	48 8b 85 28 ff ff ff 	mov    rax,QWORD PTR [rbp-0xd8]
   9321d:	48 89 85 70 ff ff ff 	mov    QWORD PTR [rbp-0x90],rax
   93224:	48 8b 85 f0 fe ff ff 	mov    rax,QWORD PTR [rbp-0x110]
   9322b:	48 89 85 78 ff ff ff 	mov    QWORD PTR [rbp-0x88],rax
   93232:	48 8b 85 50 ff ff ff 	mov    rax,QWORD PTR [rbp-0xb0]
   93239:	48 89 45 80          	mov    QWORD PTR [rbp-0x80],rax
   9323d:	48 8b 85 20 ff ff ff 	mov    rax,QWORD PTR [rbp-0xe0]
   93244:	48 89 45 88          	mov    QWORD PTR [rbp-0x78],rax
   93248:	48 8b 85 18 ff ff ff 	mov    rax,QWORD PTR [rbp-0xe8]
   9324f:	48 89 45 90          	mov    QWORD PTR [rbp-0x70],rax
   93253:	48 8b 85 08 ff ff ff 	mov    rax,QWORD PTR [rbp-0xf8]
   9325a:	48 89 45 98          	mov    QWORD PTR [rbp-0x68],rax
   9325e:	48 8b 85 10 ff ff ff 	mov    rax,QWORD PTR [rbp-0xf0]
   93265:	48 89 45 a0          	mov    QWORD PTR [rbp-0x60],rax
   93269:	48 8b 85 f8 fe ff ff 	mov    rax,QWORD PTR [rbp-0x108]
   93270:	48 89 45 a8          	mov    QWORD PTR [rbp-0x58],rax
   93274:	48 8b 85 00 ff ff ff 	mov    rax,QWORD PTR [rbp-0x100]
   9327b:	48 89 45 b0          	mov    QWORD PTR [rbp-0x50],rax
   9327f:	48 8b 85 38 ff ff ff 	mov    rax,QWORD PTR [rbp-0xc8]
   93286:	48 89 45 b8          	mov    QWORD PTR [rbp-0x48],rax
   9328a:	4c 89 95 78 fc ff ff 	mov    QWORD PTR [rbp-0x388],r10
   93291:	4c 8b 95 08 fe ff ff 	mov    r10,QWORD PTR [rbp-0x1f8]
   93298:	4c 89 95 80 fc ff ff 	mov    QWORD PTR [rbp-0x380],r10
   9329f:	4c 8b 95 00 fe ff ff 	mov    r10,QWORD PTR [rbp-0x200]
   932a6:	4c 89 95 88 fc ff ff 	mov    QWORD PTR [rbp-0x378],r10
   932ad:	e9 20 52 ff ff       	jmp    884d2 <Java_com_adjust_sdk_sig_NativeLibHelper_nOnResume@@Base-0x327d1>
   932b2:	0f 28 05 17 90 0a 00 	movaps xmm0,XMMWORD PTR [rip+0xa9017]        # 13c2d0 <write@plt+0x9750>
   932b9:	0f 57 05 e0 fe f6 ff 	xorps  xmm0,XMMWORD PTR [rip+0xfffffffffff6fee0]        # 31a0 <Java_com_adjust_sdk_sig_NativeLibHelper_nOnResume@@Base-0xb7b03>
   932c0:	0f 29 05 09 90 0a 00 	movaps XMMWORD PTR [rip+0xa9009],xmm0        # 13c2d0 <write@plt+0x9750>
   932c7:	0f 28 05 12 90 0a 00 	movaps xmm0,XMMWORD PTR [rip+0xa9012]        # 13c2e0 <write@plt+0x9760>
   932ce:	0f 57 05 1b 0c f7 ff 	xorps  xmm0,XMMWORD PTR [rip+0xfffffffffff70c1b]        # 3ef0 <Java_com_adjust_sdk_sig_NativeLibHelper_nOnResume@@Base-0xb6db3>
   932d5:	f3 0f 11 05 03 90 0a 	movss  DWORD PTR [rip+0xa9003],xmm0        # 13c2e0 <write@plt+0x9760>
   932dc:	00 
   932dd:	c6 05 0f bb 0a 00 01 	mov    BYTE PTR [rip+0xabb0f],0x1        # 13edf3 <write@plt+0xc273>
   932e4:	48 8b 85 48 ff ff ff 	mov    rax,QWORD PTR [rbp-0xb8]
   932eb:	48 89 85 58 ff ff ff 	mov    QWORD PTR [rbp-0xa8],rax
   932f2:	48 8b 85 40 ff ff ff 	mov    rax,QWORD PTR [rbp-0xc0]
   932f9:	48 89 85 60 ff ff ff 	mov    QWORD PTR [rbp-0xa0],rax
   93300:	48 8b 85 30 ff ff ff 	mov    rax,QWORD PTR [rbp-0xd0]
   93307:	48 89 85 68 ff ff ff 	mov    QWORD PTR [rbp-0x98],rax
   9330e:	44 89 75 c8          	mov    DWORD PTR [rbp-0x38],r14d
   93312:	8b 45 c4             	mov    eax,DWORD PTR [rbp-0x3c]
   93315:	89 45 cc             	mov    DWORD PTR [rbp-0x34],eax
   93318:	48 8b 85 28 ff ff ff 	mov    rax,QWORD PTR [rbp-0xd8]
   9331f:	48 89 85 70 ff ff ff 	mov    QWORD PTR [rbp-0x90],rax
   93326:	48 8b 85 f0 fe ff ff 	mov    rax,QWORD PTR [rbp-0x110]
   9332d:	48 89 85 78 ff ff ff 	mov    QWORD PTR [rbp-0x88],rax
   93334:	48 8b 85 50 ff ff ff 	mov    rax,QWORD PTR [rbp-0xb0]
   9333b:	48 89 45 80          	mov    QWORD PTR [rbp-0x80],rax
   9333f:	48 89 5d 88          	mov    QWORD PTR [rbp-0x78],rbx
   93343:	4c 89 5d 90          	mov    QWORD PTR [rbp-0x70],r11
   93347:	4c 89 4d 98          	mov    QWORD PTR [rbp-0x68],r9
   9334b:	48 89 75 a0          	mov    QWORD PTR [rbp-0x60],rsi
   9334f:	48 89 7d a8          	mov    QWORD PTR [rbp-0x58],rdi
   93353:	48 8b 85 00 ff ff ff 	mov    rax,QWORD PTR [rbp-0x100]
   9335a:	48 89 45 b0          	mov    QWORD PTR [rbp-0x50],rax
   9335e:	48 8b 85 38 ff ff ff 	mov    rax,QWORD PTR [rbp-0xc8]
   93365:	48 89 45 b8          	mov    QWORD PTR [rbp-0x48],rax
   93369:	48 ba cf f9 7c 23 4a 	movabs rdx,0xf3b0654a237cf9cf
   93370:	65 b0 f3 
   93373:	e9 5a 51 ff ff       	jmp    884d2 <Java_com_adjust_sdk_sig_NativeLibHelper_nOnResume@@Base-0x327d1>
   93378:	48 8b 85 d8 fe ff ff 	mov    rax,QWORD PTR [rbp-0x128]
   9337f:	48 83 60 08 00       	and    QWORD PTR [rax+0x8],0x0
   93384:	48 8b 85 48 ff ff ff 	mov    rax,QWORD PTR [rbp-0xb8]
   9338b:	48 89 85 58 ff ff ff 	mov    QWORD PTR [rbp-0xa8],rax
   93392:	48 8b 85 40 ff ff ff 	mov    rax,QWORD PTR [rbp-0xc0]
   93399:	48 89 85 60 ff ff ff 	mov    QWORD PTR [rbp-0xa0],rax
   933a0:	48 8b 85 30 ff ff ff 	mov    rax,QWORD PTR [rbp-0xd0]
   933a7:	48 89 85 68 ff ff ff 	mov    QWORD PTR [rbp-0x98],rax
   933ae:	8b 45 c0             	mov    eax,DWORD PTR [rbp-0x40]
   933b1:	89 45 c8             	mov    DWORD PTR [rbp-0x38],eax
   933b4:	48 8b 85 28 ff ff ff 	mov    rax,QWORD PTR [rbp-0xd8]
   933bb:	48 89 85 70 ff ff ff 	mov    QWORD PTR [rbp-0x90],rax
   933c2:	48 89 9d 78 ff ff ff 	mov    QWORD PTR [rbp-0x88],rbx
   933c9:	48 8b 85 50 ff ff ff 	mov    rax,QWORD PTR [rbp-0xb0]
   933d0:	48 89 45 80          	mov    QWORD PTR [rbp-0x80],rax
   933d4:	48 8b 85 20 ff ff ff 	mov    rax,QWORD PTR [rbp-0xe0]
   933db:	48 89 45 88          	mov    QWORD PTR [rbp-0x78],rax
   933df:	48 8b 85 18 ff ff ff 	mov    rax,QWORD PTR [rbp-0xe8]
   933e6:	48 89 45 90          	mov    QWORD PTR [rbp-0x70],rax
   933ea:	48 8b 85 08 ff ff ff 	mov    rax,QWORD PTR [rbp-0xf8]
   933f1:	48 89 45 98          	mov    QWORD PTR [rbp-0x68],rax
   933f5:	48 8b 85 10 ff ff ff 	mov    rax,QWORD PTR [rbp-0xf0]
   933fc:	48 89 45 a0          	mov    QWORD PTR [rbp-0x60],rax
   93400:	48 8b 85 f8 fe ff ff 	mov    rax,QWORD PTR [rbp-0x108]
   93407:	48 89 45 a8          	mov    QWORD PTR [rbp-0x58],rax
   9340b:	4c 89 75 b0          	mov    QWORD PTR [rbp-0x50],r14
   9340f:	e9 b2 05 00 00       	jmp    939c6 <Java_com_adjust_sdk_sig_NativeLibHelper_nOnResume@@Base-0x272dd>
   93414:	4c 8b 8d 00 ff ff ff 	mov    r9,QWORD PTR [rbp-0x100]
   9341b:	41 80 39 00          	cmp    BYTE PTR [r9],0x0
   9341f:	48 ba 3b da 58 9e 42 	movabs rdx,0x60c8c0429e58da3b
   93426:	c0 c8 60 
   93429:	48 b8 1c d8 48 ca c8 	movabs rax,0x5650eec8ca48d81c
   93430:	ee 50 56 
   93433:	48 0f 44 d0          	cmove  rdx,rax
   93437:	48 8b 85 48 ff ff ff 	mov    rax,QWORD PTR [rbp-0xb8]
   9343e:	48 89 85 58 ff ff ff 	mov    QWORD PTR [rbp-0xa8],rax
   93445:	48 8b 85 40 ff ff ff 	mov    rax,QWORD PTR [rbp-0xc0]
   9344c:	48 89 85 60 ff ff ff 	mov    QWORD PTR [rbp-0xa0],rax
   93453:	48 8b 85 30 ff ff ff 	mov    rax,QWORD PTR [rbp-0xd0]
   9345a:	48 89 85 68 ff ff ff 	mov    QWORD PTR [rbp-0x98],rax
   93461:	8b 45 c0             	mov    eax,DWORD PTR [rbp-0x40]
   93464:	89 45 c8             	mov    DWORD PTR [rbp-0x38],eax
   93467:	8b 45 c4             	mov    eax,DWORD PTR [rbp-0x3c]
   9346a:	89 45 cc             	mov    DWORD PTR [rbp-0x34],eax
   9346d:	48 8b 85 28 ff ff ff 	mov    rax,QWORD PTR [rbp-0xd8]
   93474:	48 89 85 70 ff ff ff 	mov    QWORD PTR [rbp-0x90],rax
   9347b:	48 8b 85 f0 fe ff ff 	mov    rax,QWORD PTR [rbp-0x110]
   93482:	48 89 85 78 ff ff ff 	mov    QWORD PTR [rbp-0x88],rax
   93489:	48 8b 85 50 ff ff ff 	mov    rax,QWORD PTR [rbp-0xb0]
   93490:	48 89 45 80          	mov    QWORD PTR [rbp-0x80],rax
   93494:	48 8b 85 20 ff ff ff 	mov    rax,QWORD PTR [rbp-0xe0]
   9349b:	48 89 45 88          	mov    QWORD PTR [rbp-0x78],rax
   9349f:	48 8b 85 18 ff ff ff 	mov    rax,QWORD PTR [rbp-0xe8]
   934a6:	48 89 45 90          	mov    QWORD PTR [rbp-0x70],rax
   934aa:	48 8b 85 08 ff ff ff 	mov    rax,QWORD PTR [rbp-0xf8]
   934b1:	48 89 45 98          	mov    QWORD PTR [rbp-0x68],rax
   934b5:	48 8b 85 10 ff ff ff 	mov    rax,QWORD PTR [rbp-0xf0]
   934bc:	48 89 45 a0          	mov    QWORD PTR [rbp-0x60],rax
   934c0:	48 8b 85 f8 fe ff ff 	mov    rax,QWORD PTR [rbp-0x108]
   934c7:	48 89 45 a8          	mov    QWORD PTR [rbp-0x58],rax
   934cb:	4d 8d 41 01          	lea    r8,[r9+0x1]
   934cf:	4c 89 85 30 fa ff ff 	mov    QWORD PTR [rbp-0x5d0],r8
   934d6:	4c 89 8d 18 fb ff ff 	mov    QWORD PTR [rbp-0x4e8],r9
   934dd:	e9 a1 03 00 00       	jmp    93883 <Java_com_adjust_sdk_sig_NativeLibHelper_nOnResume@@Base-0x27420>
   934e2:	48 8b 85 a0 fe ff ff 	mov    rax,QWORD PTR [rbp-0x160]
   934e9:	48 83 20 00          	and    QWORD PTR [rax],0x0
   934ed:	48 8b 85 a8 fe ff ff 	mov    rax,QWORD PTR [rbp-0x158]
   934f4:	48 8b 00             	mov    rax,QWORD PTR [rax]
   934f7:	48 89 85 c0 fa ff ff 	mov    QWORD PTR [rbp-0x540],rax
   934fe:	48 85 c0             	test   rax,rax
   93501:	48 b9 fa 3c 50 6f 8a 	movabs rcx,0x188458a6f503cfa
   93508:	45 88 01 
   9350b:	48 89 ca             	mov    rdx,rcx
   9350e:	48 b8 0e f4 72 d2 04 	movabs rax,0x61c21a04d272f40e
   93515:	1a c2 61 
   93518:	48 0f 45 d0          	cmovne rdx,rax
   9351c:	48 83 bd e0 fe ff ff 	cmp    QWORD PTR [rbp-0x120],0x0
   93523:	00 
   93524:	48 0f 44 d1          	cmove  rdx,rcx
   93528:	e9 84 09 00 00       	jmp    93eb1 <Java_com_adjust_sdk_sig_NativeLibHelper_nOnResume@@Base-0x26df2>
   9352d:	4c 8b 95 40 fe ff ff 	mov    r10,QWORD PTR [rbp-0x1c0]
   93534:	4d 85 d2             	test   r10,r10
   93537:	48 ba 74 5b 76 21 be 	movabs rdx,0xe2f71dbe21765b74
   9353e:	1d f7 e2 
   93541:	48 b8 fb 1a d1 a0 85 	movabs rax,0x6d163885a0d11afb
   93548:	38 16 6d 
   9354b:	48 0f 44 d0          	cmove  rdx,rax
   9354f:	48 8b 85 48 ff ff ff 	mov    rax,QWORD PTR [rbp-0xb8]
   93556:	48 89 85 58 ff ff ff 	mov    QWORD PTR [rbp-0xa8],rax
   9355d:	48 8b 85 40 ff ff ff 	mov    rax,QWORD PTR [rbp-0xc0]
   93564:	48 89 85 60 ff ff ff 	mov    QWORD PTR [rbp-0xa0],rax
   9356b:	48 8b 85 30 ff ff ff 	mov    rax,QWORD PTR [rbp-0xd0]
   93572:	48 89 85 68 ff ff ff 	mov    QWORD PTR [rbp-0x98],rax
   93579:	8b 45 c0             	mov    eax,DWORD PTR [rbp-0x40]
   9357c:	89 45 c8             	mov    DWORD PTR [rbp-0x38],eax
   9357f:	8b 45 c4             	mov    eax,DWORD PTR [rbp-0x3c]
   93582:	89 45 cc             	mov    DWORD PTR [rbp-0x34],eax
   93585:	48 8b 85 28 ff ff ff 	mov    rax,QWORD PTR [rbp-0xd8]
   9358c:	48 89 85 70 ff ff ff 	mov    QWORD PTR [rbp-0x90],rax
   93593:	48 89 9d 78 ff ff ff 	mov    QWORD PTR [rbp-0x88],rbx
   9359a:	48 8b 85 50 ff ff ff 	mov    rax,QWORD PTR [rbp-0xb0]
   935a1:	48 89 45 80          	mov    QWORD PTR [rbp-0x80],rax
   935a5:	48 8b 85 20 ff ff ff 	mov    rax,QWORD PTR [rbp-0xe0]
   935ac:	48 89 45 88          	mov    QWORD PTR [rbp-0x78],rax
   935b0:	48 8b 85 18 ff ff ff 	mov    rax,QWORD PTR [rbp-0xe8]
   935b7:	48 89 45 90          	mov    QWORD PTR [rbp-0x70],rax
   935bb:	48 8b 85 08 ff ff ff 	mov    rax,QWORD PTR [rbp-0xf8]
   935c2:	48 89 45 98          	mov    QWORD PTR [rbp-0x68],rax
   935c6:	48 8b 85 10 ff ff ff 	mov    rax,QWORD PTR [rbp-0xf0]
   935cd:	48 89 45 a0          	mov    QWORD PTR [rbp-0x60],rax
   935d1:	48 8b 85 f8 fe ff ff 	mov    rax,QWORD PTR [rbp-0x108]
   935d8:	48 89 45 a8          	mov    QWORD PTR [rbp-0x58],rax
   935dc:	4c 89 75 b0          	mov    QWORD PTR [rbp-0x50],r14
   935e0:	48 8b 85 38 ff ff ff 	mov    rax,QWORD PTR [rbp-0xc8]
   935e7:	48 89 45 b8          	mov    QWORD PTR [rbp-0x48],rax
   935eb:	4c 89 95 60 fc ff ff 	mov    QWORD PTR [rbp-0x3a0],r10
   935f2:	4c 8b 95 38 fe ff ff 	mov    r10,QWORD PTR [rbp-0x1c8]
   935f9:	4c 89 95 68 fc ff ff 	mov    QWORD PTR [rbp-0x398],r10
   93600:	4c 8b 95 30 fe ff ff 	mov    r10,QWORD PTR [rbp-0x1d0]
   93607:	4c 89 95 70 fc ff ff 	mov    QWORD PTR [rbp-0x390],r10
   9360e:	e9 bf 4e ff ff       	jmp    884d2 <Java_com_adjust_sdk_sig_NativeLibHelper_nOnResume@@Base-0x327d1>
   93613:	4c 8b 95 70 fc ff ff 	mov    r10,QWORD PTR [rbp-0x390]
   9361a:	41 8a 02             	mov    al,BYTE PTR [r10]
   9361d:	48 8b 9d 68 fc ff ff 	mov    rbx,QWORD PTR [rbp-0x398]
   93624:	88 03                	mov    BYTE PTR [rbx],al
   93626:	48 8b 85 48 ff ff ff 	mov    rax,QWORD PTR [rbp-0xb8]
   9362d:	48 89 85 58 ff ff ff 	mov    QWORD PTR [rbp-0xa8],rax
   93634:	48 8b 85 40 ff ff ff 	mov    rax,QWORD PTR [rbp-0xc0]
   9363b:	48 89 85 60 ff ff ff 	mov    QWORD PTR [rbp-0xa0],rax
   93642:	48 8b 85 30 ff ff ff 	mov    rax,QWORD PTR [rbp-0xd0]
   93649:	48 89 85 68 ff ff ff 	mov    QWORD PTR [rbp-0x98],rax
   93650:	44 89 5d c8          	mov    DWORD PTR [rbp-0x38],r11d
   93654:	89 7d cc             	mov    DWORD PTR [rbp-0x34],edi
   93657:	4c 89 ad 70 ff ff ff 	mov    QWORD PTR [rbp-0x90],r13
   9365e:	48 89 8d 78 ff ff ff 	mov    QWORD PTR [rbp-0x88],rcx
   93665:	48 8b 85 50 ff ff ff 	mov    rax,QWORD PTR [rbp-0xb0]
   9366c:	48 89 45 80          	mov    QWORD PTR [rbp-0x80],rax
   93670:	48 8b 85 20 ff ff ff 	mov    rax,QWORD PTR [rbp-0xe0]
   93677:	48 89 45 88          	mov    QWORD PTR [rbp-0x78],rax
   9367b:	48 8b 85 18 ff ff ff 	mov    rax,QWORD PTR [rbp-0xe8]
   93682:	48 89 45 90          	mov    QWORD PTR [rbp-0x70],rax
   93686:	48 89 55 98          	mov    QWORD PTR [rbp-0x68],rdx
   9368a:	4c 89 4d a0          	mov    QWORD PTR [rbp-0x60],r9
   9368e:	4c 89 75 a8          	mov    QWORD PTR [rbp-0x58],r14
   93692:	4c 89 45 b0          	mov    QWORD PTR [rbp-0x50],r8
   93696:	48 8b 85 38 ff ff ff 	mov    rax,QWORD PTR [rbp-0xc8]
   9369d:	48 89 45 b8          	mov    QWORD PTR [rbp-0x48],rax
   936a1:	49 ff c2             	inc    r10
   936a4:	4c 89 95 30 fe ff ff 	mov    QWORD PTR [rbp-0x1d0],r10
   936ab:	48 8d 53 01          	lea    rdx,[rbx+0x1]
   936af:	48 89 95 38 fe ff ff 	mov    QWORD PTR [rbp-0x1c8],rdx
   936b6:	48 8b 95 60 fc ff ff 	mov    rdx,QWORD PTR [rbp-0x3a0]
   936bd:	48 ff ca             	dec    rdx
   936c0:	48 89 95 40 fe ff ff 	mov    QWORD PTR [rbp-0x1c0],rdx
   936c7:	48 ba 34 61 54 c3 e3 	movabs rdx,0x9c7886e3c3546134
   936ce:	86 78 9c 
   936d1:	e9 fc 4d ff ff       	jmp    884d2 <Java_com_adjust_sdk_sig_NativeLibHelper_nOnResume@@Base-0x327d1>
   936d6:	48 8b 85 08 fb ff ff 	mov    rax,QWORD PTR [rbp-0x4f8]
   936dd:	48 2b 85 c8 fe ff ff 	sub    rax,QWORD PTR [rbp-0x138]
   936e4:	48 89 85 50 fc ff ff 	mov    QWORD PTR [rbp-0x3b0],rax
   936eb:	48 8d 78 01          	lea    rdi,[rax+0x1]
   936ef:	e8 5c f1 09 00       	call   132850 <malloc@plt>
   936f4:	48 89 85 f8 fc ff ff 	mov    QWORD PTR [rbp-0x308],rax
   936fb:	48 85 c0             	test   rax,rax
   936fe:	48 ba bb 76 8d c8 b2 	movabs rdx,0xb66b34b2c88d76bb
   93705:	34 6b b6 
   93708:	48 b8 88 9d 0b ae 4d 	movabs rax,0xae2faf4dae0b9d88
   9370f:	af 2f ae 
   93712:	e9 d1 05 00 00       	jmp    93ce8 <Java_com_adjust_sdk_sig_NativeLibHelper_nOnResume@@Base-0x26fbb>
   93717:	c6 05 6e b8 0a 00 00 	mov    BYTE PTR [rip+0xab86e],0x0        # 13ef8c <write@plt+0xc40c>
   9371e:	48 8b 85 98 fe ff ff 	mov    rax,QWORD PTR [rbp-0x168]
   93725:	48 8b 10             	mov    rdx,QWORD PTR [rax]
   93728:	4c 8b ad b8 fe ff ff 	mov    r13,QWORD PTR [rbp-0x148]
   9372f:	4c 89 ef             	mov    rdi,r13
   93732:	48 8b b5 e0 fe ff ff 	mov    rsi,QWORD PTR [rbp-0x120]
   93739:	48 8d 0d c0 9b 0a 00 	lea    rcx,[rip+0xa9bc0]        # 13d300 <write@plt+0xa780>
   93740:	4c 8b 85 a0 fc ff ff 	mov    r8,QWORD PTR [rbp-0x360]
   93747:	4d 89 dc             	mov    r12,r11
   9374a:	4d 89 cf             	mov    r15,r9
   9374d:	e8 10 6c 01 00       	call   aa362 <Java_com_adjust_sdk_sig_NativeLibHelper_nOnResume@@Base-0x10941>
   93752:	41 83 7d 00 00       	cmp    DWORD PTR [r13+0x0],0x0
   93757:	48 ba 45 ce a2 53 39 	movabs rdx,0x4f84173953a2ce45
   9375e:	17 84 4f 
   93761:	48 b8 b3 d6 7e 77 94 	movabs rax,0x79d49194777ed6b3
   93768:	91 d4 79 
   9376b:	48 0f 44 d0          	cmove  rdx,rax
   9376f:	48 8b 85 48 ff ff ff 	mov    rax,QWORD PTR [rbp-0xb8]
   93776:	48 89 85 58 ff ff ff 	mov    QWORD PTR [rbp-0xa8],rax
   9377d:	48 8b 85 40 ff ff ff 	mov    rax,QWORD PTR [rbp-0xc0]
   93784:	48 89 85 60 ff ff ff 	mov    QWORD PTR [rbp-0xa0],rax
   9378b:	48 8b 85 30 ff ff ff 	mov    rax,QWORD PTR [rbp-0xd0]
   93792:	48 89 85 68 ff ff ff 	mov    QWORD PTR [rbp-0x98],rax
   93799:	44 89 75 c8          	mov    DWORD PTR [rbp-0x38],r14d
   9379d:	8b 45 c4             	mov    eax,DWORD PTR [rbp-0x3c]
   937a0:	89 45 cc             	mov    DWORD PTR [rbp-0x34],eax
   937a3:	48 8b 85 28 ff ff ff 	mov    rax,QWORD PTR [rbp-0xd8]
   937aa:	48 89 85 70 ff ff ff 	mov    QWORD PTR [rbp-0x90],rax
   937b1:	48 89 9d 78 ff ff ff 	mov    QWORD PTR [rbp-0x88],rbx
   937b8:	48 8b 85 50 ff ff ff 	mov    rax,QWORD PTR [rbp-0xb0]
   937bf:	48 89 45 80          	mov    QWORD PTR [rbp-0x80],rax
   937c3:	48 8b 85 20 ff ff ff 	mov    rax,QWORD PTR [rbp-0xe0]
   937ca:	48 89 45 88          	mov    QWORD PTR [rbp-0x78],rax
   937ce:	48 8b 85 18 ff ff ff 	mov    rax,QWORD PTR [rbp-0xe8]
   937d5:	48 89 45 90          	mov    QWORD PTR [rbp-0x70],rax
   937d9:	48 8b 85 08 ff ff ff 	mov    rax,QWORD PTR [rbp-0xf8]
   937e0:	48 89 45 98          	mov    QWORD PTR [rbp-0x68],rax
   937e4:	48 8b 85 10 ff ff ff 	mov    rax,QWORD PTR [rbp-0xf0]
   937eb:	48 89 45 a0          	mov    QWORD PTR [rbp-0x60],rax
   937ef:	4c 89 7d a8          	mov    QWORD PTR [rbp-0x58],r15
   937f3:	4c 89 65 b0          	mov    QWORD PTR [rbp-0x50],r12
   937f7:	e9 54 07 00 00       	jmp    93f50 <Java_com_adjust_sdk_sig_NativeLibHelper_nOnResume@@Base-0x26d53>
   937fc:	80 3d ae b5 0a 00 00 	cmp    BYTE PTR [rip+0xab5ae],0x0        # 13edb1 <write@plt+0xc231>
   93803:	48 ba 0d 16 7a c8 a1 	movabs rdx,0x330abea1c87a160d
   9380a:	be 0a 33 
   9380d:	48 b8 e2 17 64 12 55 	movabs rax,0xe36ddf55126417e2
   93814:	df 6d e3 
   93817:	48 0f 45 d0          	cmovne rdx,rax
   9381b:	48 8b 85 48 ff ff ff 	mov    rax,QWORD PTR [rbp-0xb8]
   93822:	48 89 85 58 ff ff ff 	mov    QWORD PTR [rbp-0xa8],rax
   93829:	48 8b 85 40 ff ff ff 	mov    rax,QWORD PTR [rbp-0xc0]
   93830:	48 89 85 60 ff ff ff 	mov    QWORD PTR [rbp-0xa0],rax
   93837:	4c 89 b5 68 ff ff ff 	mov    QWORD PTR [rbp-0x98],r14
   9383e:	44 89 55 c8          	mov    DWORD PTR [rbp-0x38],r10d
   93842:	8b 45 c4             	mov    eax,DWORD PTR [rbp-0x3c]
   93845:	89 45 cc             	mov    DWORD PTR [rbp-0x34],eax
   93848:	48 8b 85 28 ff ff ff 	mov    rax,QWORD PTR [rbp-0xd8]
   9384f:	48 89 85 70 ff ff ff 	mov    QWORD PTR [rbp-0x90],rax
   93856:	48 8b 85 f0 fe ff ff 	mov    rax,QWORD PTR [rbp-0x110]
   9385d:	48 89 85 78 ff ff ff 	mov    QWORD PTR [rbp-0x88],rax
   93864:	48 8b 85 50 ff ff ff 	mov    rax,QWORD PTR [rbp-0xb0]
   9386b:	48 89 45 80          	mov    QWORD PTR [rbp-0x80],rax
   9386f:	48 89 5d 88          	mov    QWORD PTR [rbp-0x78],rbx
   93873:	4c 89 5d 90          	mov    QWORD PTR [rbp-0x70],r11
   93877:	4c 89 45 98          	mov    QWORD PTR [rbp-0x68],r8
   9387b:	48 89 75 a0          	mov    QWORD PTR [rbp-0x60],rsi
   9387f:	48 89 7d a8          	mov    QWORD PTR [rbp-0x58],rdi
   93883:	4c 89 4d b0          	mov    QWORD PTR [rbp-0x50],r9
   93887:	e9 c4 06 00 00       	jmp    93f50 <Java_com_adjust_sdk_sig_NativeLibHelper_nOnResume@@Base-0x26d53>
   9388c:	48 8b 85 b0 fe ff ff 	mov    rax,QWORD PTR [rbp-0x150]
   93893:	48 8b 30             	mov    rsi,QWORD PTR [rax]
   93896:	48 8b bd e0 fe ff ff 	mov    rdi,QWORD PTR [rbp-0x120]
   9389d:	48 8b 95 a0 fa ff ff 	mov    rdx,QWORD PTR [rbp-0x560]
   938a4:	e8 d8 47 00 00       	call   98081 <Java_com_adjust_sdk_sig_NativeLibHelper_nOnResume@@Base-0x22c22>
   938a9:	48 8b 85 48 ff ff ff 	mov    rax,QWORD PTR [rbp-0xb8]
   938b0:	48 89 85 58 ff ff ff 	mov    QWORD PTR [rbp-0xa8],rax
   938b7:	48 8b 85 40 ff ff ff 	mov    rax,QWORD PTR [rbp-0xc0]
   938be:	48 89 85 60 ff ff ff 	mov    QWORD PTR [rbp-0xa0],rax
   938c5:	48 8b 85 30 ff ff ff 	mov    rax,QWORD PTR [rbp-0xd0]
   938cc:	48 89 85 68 ff ff ff 	mov    QWORD PTR [rbp-0x98],rax
   938d3:	8b 45 c0             	mov    eax,DWORD PTR [rbp-0x40]
   938d6:	89 45 c8             	mov    DWORD PTR [rbp-0x38],eax
   938d9:	8b 45 c4             	mov    eax,DWORD PTR [rbp-0x3c]
   938dc:	89 45 cc             	mov    DWORD PTR [rbp-0x34],eax
   938df:	48 8b 85 28 ff ff ff 	mov    rax,QWORD PTR [rbp-0xd8]
   938e6:	48 89 85 70 ff ff ff 	mov    QWORD PTR [rbp-0x90],rax
   938ed:	48 8b 85 f0 fe ff ff 	mov    rax,QWORD PTR [rbp-0x110]
   938f4:	48 89 85 78 ff ff ff 	mov    QWORD PTR [rbp-0x88],rax
   938fb:	48 8b 85 50 ff ff ff 	mov    rax,QWORD PTR [rbp-0xb0]
   93902:	48 89 45 80          	mov    QWORD PTR [rbp-0x80],rax
   93906:	48 8b 85 20 ff ff ff 	mov    rax,QWORD PTR [rbp-0xe0]
   9390d:	48 89 45 88          	mov    QWORD PTR [rbp-0x78],rax
   93911:	48 8b 85 18 ff ff ff 	mov    rax,QWORD PTR [rbp-0xe8]
   93918:	48 89 45 90          	mov    QWORD PTR [rbp-0x70],rax
   9391c:	48 8b 85 08 ff ff ff 	mov    rax,QWORD PTR [rbp-0xf8]
   93923:	48 89 45 98          	mov    QWORD PTR [rbp-0x68],rax
   93927:	48 8b 85 10 ff ff ff 	mov    rax,QWORD PTR [rbp-0xf0]
   9392e:	48 89 45 a0          	mov    QWORD PTR [rbp-0x60],rax
   93932:	48 8b 85 f8 fe ff ff 	mov    rax,QWORD PTR [rbp-0x108]
   93939:	48 89 45 a8          	mov    QWORD PTR [rbp-0x58],rax
   9393d:	48 8b 85 00 ff ff ff 	mov    rax,QWORD PTR [rbp-0x100]
   93944:	48 89 45 b0          	mov    QWORD PTR [rbp-0x50],rax
   93948:	48 8b 85 38 ff ff ff 	mov    rax,QWORD PTR [rbp-0xc8]
   9394f:	48 89 45 b8          	mov    QWORD PTR [rbp-0x48],rax
   93953:	48 ba a1 36 32 59 37 	movabs rdx,0xdd444637593236a1
   9395a:	46 44 dd 
   9395d:	e9 70 4b ff ff       	jmp    884d2 <Java_com_adjust_sdk_sig_NativeLibHelper_nOnResume@@Base-0x327d1>
   93962:	48 8b 85 d8 fe ff ff 	mov    rax,QWORD PTR [rbp-0x128]
   93969:	48 83 60 10 00       	and    QWORD PTR [rax+0x10],0x0
   9396e:	48 89 bd 58 ff ff ff 	mov    QWORD PTR [rbp-0xa8],rdi
   93975:	48 89 b5 60 ff ff ff 	mov    QWORD PTR [rbp-0xa0],rsi
   9397c:	48 89 8d 68 ff ff ff 	mov    QWORD PTR [rbp-0x98],rcx
   93983:	44 89 55 c8          	mov    DWORD PTR [rbp-0x38],r10d
   93987:	48 8b 85 28 ff ff ff 	mov    rax,QWORD PTR [rbp-0xd8]
   9398e:	48 89 85 70 ff ff ff 	mov    QWORD PTR [rbp-0x90],rax
   93995:	48 89 9d 78 ff ff ff 	mov    QWORD PTR [rbp-0x88],rbx
   9399c:	48 8b 85 50 ff ff ff 	mov    rax,QWORD PTR [rbp-0xb0]
   939a3:	48 89 45 80          	mov    QWORD PTR [rbp-0x80],rax
   939a7:	48 8b 85 20 ff ff ff 	mov    rax,QWORD PTR [rbp-0xe0]
   939ae:	48 89 45 88          	mov    QWORD PTR [rbp-0x78],rax
   939b2:	4c 89 5d 90          	mov    QWORD PTR [rbp-0x70],r11
   939b6:	4c 89 4d 98          	mov    QWORD PTR [rbp-0x68],r9
   939ba:	48 89 55 a0          	mov    QWORD PTR [rbp-0x60],rdx
   939be:	4c 89 75 a8          	mov    QWORD PTR [rbp-0x58],r14
   939c2:	4c 89 45 b0          	mov    QWORD PTR [rbp-0x50],r8
   939c6:	48 8b 85 38 ff ff ff 	mov    rax,QWORD PTR [rbp-0xc8]
   939cd:	48 89 45 b8          	mov    QWORD PTR [rbp-0x48],rax
   939d1:	6a 02                	push   0x2
   939d3:	5a                   	pop    rdx
   939d4:	89 55 cc             	mov    DWORD PTR [rbp-0x34],edx
   939d7:	48 ba 11 7d 83 2e ac 	movabs rdx,0x278790ac2e837d11
   939de:	90 87 27 
   939e1:	e9 ec 4a ff ff       	jmp    884d2 <Java_com_adjust_sdk_sig_NativeLibHelper_nOnResume@@Base-0x327d1>
   939e6:	31 c0                	xor    eax,eax
   939e8:	b1 01                	mov    cl,0x1
   939ea:	f0 0f b0 0d de b3 0a 	lock cmpxchg BYTE PTR [rip+0xab3de],cl        # 13edd0 <write@plt+0xc250>
   939f1:	00 
   939f2:	48 ba 77 36 53 95 58 	movabs rdx,0x61b3165895533677
   939f9:	16 b3 61 
   939fc:	48 b8 f2 4b 3e 6a 15 	movabs rax,0x80a625156a3e4bf2
   93a03:	25 a6 80 
   93a06:	e9 a2 04 00 00       	jmp    93ead <Java_com_adjust_sdk_sig_NativeLibHelper_nOnResume@@Base-0x26df6>
   93a0b:	4c 8b 95 88 fc ff ff 	mov    r10,QWORD PTR [rbp-0x378]
   93a12:	41 8a 02             	mov    al,BYTE PTR [r10]
   93a15:	48 8b 95 80 fc ff ff 	mov    rdx,QWORD PTR [rbp-0x380]
   93a1c:	88 02                	mov    BYTE PTR [rdx],al
   93a1e:	48 8b 85 48 ff ff ff 	mov    rax,QWORD PTR [rbp-0xb8]
   93a25:	48 89 85 58 ff ff ff 	mov    QWORD PTR [rbp-0xa8],rax
   93a2c:	48 8b 85 40 ff ff ff 	mov    rax,QWORD PTR [rbp-0xc0]
   93a33:	48 89 85 60 ff ff ff 	mov    QWORD PTR [rbp-0xa0],rax
   93a3a:	48 8b 85 30 ff ff ff 	mov    rax,QWORD PTR [rbp-0xd0]
   93a41:	48 89 85 68 ff ff ff 	mov    QWORD PTR [rbp-0x98],rax
   93a48:	8b 45 c0             	mov    eax,DWORD PTR [rbp-0x40]
   93a4b:	89 45 c8             	mov    DWORD PTR [rbp-0x38],eax
   93a4e:	8b 45 c4             	mov    eax,DWORD PTR [rbp-0x3c]
   93a51:	89 45 cc             	mov    DWORD PTR [rbp-0x34],eax
   93a54:	48 8b 85 28 ff ff ff 	mov    rax,QWORD PTR [rbp-0xd8]
   93a5b:	48 89 85 70 ff ff ff 	mov    QWORD PTR [rbp-0x90],rax
   93a62:	48 8b 85 f0 fe ff ff 	mov    rax,QWORD PTR [rbp-0x110]
   93a69:	48 89 85 78 ff ff ff 	mov    QWORD PTR [rbp-0x88],rax
   93a70:	48 8b 85 50 ff ff ff 	mov    rax,QWORD PTR [rbp-0xb0]
   93a77:	48 89 45 80          	mov    QWORD PTR [rbp-0x80],rax
   93a7b:	48 8b 85 20 ff ff ff 	mov    rax,QWORD PTR [rbp-0xe0]
   93a82:	48 89 45 88          	mov    QWORD PTR [rbp-0x78],rax
   93a86:	48 8b 85 18 ff ff ff 	mov    rax,QWORD PTR [rbp-0xe8]
   93a8d:	48 89 45 90          	mov    QWORD PTR [rbp-0x70],rax
   93a91:	48 8b 85 08 ff ff ff 	mov    rax,QWORD PTR [rbp-0xf8]
   93a98:	48 89 45 98          	mov    QWORD PTR [rbp-0x68],rax
   93a9c:	48 8b 85 10 ff ff ff 	mov    rax,QWORD PTR [rbp-0xf0]
   93aa3:	48 89 45 a0          	mov    QWORD PTR [rbp-0x60],rax
   93aa7:	48 8b 85 f8 fe ff ff 	mov    rax,QWORD PTR [rbp-0x108]
   93aae:	48 89 45 a8          	mov    QWORD PTR [rbp-0x58],rax
   93ab2:	48 8b 85 00 ff ff ff 	mov    rax,QWORD PTR [rbp-0x100]
   93ab9:	48 89 45 b0          	mov    QWORD PTR [rbp-0x50],rax
   93abd:	48 8b 85 38 ff ff ff 	mov    rax,QWORD PTR [rbp-0xc8]
   93ac4:	48 89 45 b8          	mov    QWORD PTR [rbp-0x48],rax
   93ac8:	49 ff c2             	inc    r10
   93acb:	4c 89 95 00 fe ff ff 	mov    QWORD PTR [rbp-0x200],r10
   93ad2:	48 ff c2             	inc    rdx
   93ad5:	48 89 95 08 fe ff ff 	mov    QWORD PTR [rbp-0x1f8],rdx
   93adc:	48 8b 95 78 fc ff ff 	mov    rdx,QWORD PTR [rbp-0x388]
   93ae3:	48 ff ca             	dec    rdx
   93ae6:	48 89 95 18 fe ff ff 	mov    QWORD PTR [rbp-0x1e8],rdx
   93aed:	48 ba 09 0b f4 a4 a9 	movabs rdx,0xca8c6fa9a4f40b09
   93af4:	6f 8c ca 
   93af7:	e9 d6 49 ff ff       	jmp    884d2 <Java_com_adjust_sdk_sig_NativeLibHelper_nOnResume@@Base-0x327d1>
   93afc:	4c 8b 95 38 ff ff ff 	mov    r10,QWORD PTR [rbp-0xc8]
   93b03:	41 80 3a 00          	cmp    BYTE PTR [r10],0x0
   93b07:	48 ba 0b 9e 3d c8 94 	movabs rdx,0xf1138394c83d9e0b
   93b0e:	83 13 f1 
   93b11:	48 b8 5e a3 4c 14 ad 	movabs rax,0xa8242dad144ca35e
   93b18:	2d 24 a8 
   93b1b:	48 0f 44 d0          	cmove  rdx,rax
   93b1f:	48 8b 85 48 ff ff ff 	mov    rax,QWORD PTR [rbp-0xb8]
   93b26:	48 89 85 58 ff ff ff 	mov    QWORD PTR [rbp-0xa8],rax
   93b2d:	48 8b 85 40 ff ff ff 	mov    rax,QWORD PTR [rbp-0xc0]
   93b34:	48 89 85 60 ff ff ff 	mov    QWORD PTR [rbp-0xa0],rax
   93b3b:	48 8b 85 30 ff ff ff 	mov    rax,QWORD PTR [rbp-0xd0]
   93b42:	48 89 85 68 ff ff ff 	mov    QWORD PTR [rbp-0x98],rax
   93b49:	8b 45 c0             	mov    eax,DWORD PTR [rbp-0x40]
   93b4c:	89 45 c8             	mov    DWORD PTR [rbp-0x38],eax
   93b4f:	8b 45 c4             	mov    eax,DWORD PTR [rbp-0x3c]
   93b52:	89 45 cc             	mov    DWORD PTR [rbp-0x34],eax
   93b55:	48 8b 85 28 ff ff ff 	mov    rax,QWORD PTR [rbp-0xd8]
   93b5c:	48 89 85 70 ff ff ff 	mov    QWORD PTR [rbp-0x90],rax
   93b63:	48 89 9d 78 ff ff ff 	mov    QWORD PTR [rbp-0x88],rbx
   93b6a:	48 8b 85 50 ff ff ff 	mov    rax,QWORD PTR [rbp-0xb0]
   93b71:	48 89 45 80          	mov    QWORD PTR [rbp-0x80],rax
   93b75:	48 8b 85 20 ff ff ff 	mov    rax,QWORD PTR [rbp-0xe0]
   93b7c:	48 89 45 88          	mov    QWORD PTR [rbp-0x78],rax
   93b80:	48 8b 85 18 ff ff ff 	mov    rax,QWORD PTR [rbp-0xe8]
   93b87:	48 89 45 90          	mov    QWORD PTR [rbp-0x70],rax
   93b8b:	48 8b 85 08 ff ff ff 	mov    rax,QWORD PTR [rbp-0xf8]
   93b92:	48 89 45 98          	mov    QWORD PTR [rbp-0x68],rax
   93b96:	48 8b 85 10 ff ff ff 	mov    rax,QWORD PTR [rbp-0xf0]
   93b9d:	48 89 45 a0          	mov    QWORD PTR [rbp-0x60],rax
   93ba1:	48 8b 85 f8 fe ff ff 	mov    rax,QWORD PTR [rbp-0x108]
   93ba8:	48 89 45 a8          	mov    QWORD PTR [rbp-0x58],rax
   93bac:	4c 89 75 b0          	mov    QWORD PTR [rbp-0x50],r14
   93bb0:	4d 8d 4a 01          	lea    r9,[r10+0x1]
   93bb4:	4c 89 8d f8 f9 ff ff 	mov    QWORD PTR [rbp-0x608],r9
   93bbb:	4c 89 95 58 fc ff ff 	mov    QWORD PTR [rbp-0x3a8],r10
   93bc2:	4c 89 55 b8          	mov    QWORD PTR [rbp-0x48],r10
   93bc6:	e9 07 49 ff ff       	jmp    884d2 <Java_com_adjust_sdk_sig_NativeLibHelper_nOnResume@@Base-0x327d1>
   93bcb:	48 b8 52 52 52 52 52 	movabs rax,0x5252525252525252
   93bd2:	52 52 52 
   93bd5:	48 31 05 5c 84 0a 00 	xor    QWORD PTR [rip+0xa845c],rax        # 13c038 <write@plt+0x94b8>
   93bdc:	f2 0f 10 05 5c 84 0a 	movsd  xmm0,QWORD PTR [rip+0xa845c]        # 13c040 <write@plt+0x94c0>
   93be3:	00 
   93be4:	0f 57 05 35 00 f7 ff 	xorps  xmm0,XMMWORD PTR [rip+0xfffffffffff70035]        # 3c20 <Java_com_adjust_sdk_sig_NativeLibHelper_nOnResume@@Base-0xb7083>
   93beb:	f3 0f 11 05 4d 84 0a 	movss  DWORD PTR [rip+0xa844d],xmm0        # 13c040 <write@plt+0x94c0>
   93bf2:	00 
   93bf3:	80 35 4a 84 0a 00 52 	xor    BYTE PTR [rip+0xa844a],0x52        # 13c044 <write@plt+0x94c4>
   93bfa:	80 35 44 84 0a 00 52 	xor    BYTE PTR [rip+0xa8444],0x52        # 13c045 <write@plt+0x94c5>
   93c01:	c6 05 9f b1 0a 00 01 	mov    BYTE PTR [rip+0xab19f],0x1        # 13eda7 <write@plt+0xc227>
   93c08:	48 89 bd 58 ff ff ff 	mov    QWORD PTR [rbp-0xa8],rdi
   93c0f:	48 89 b5 60 ff ff ff 	mov    QWORD PTR [rbp-0xa0],rsi
   93c16:	48 89 8d 68 ff ff ff 	mov    QWORD PTR [rbp-0x98],rcx
   93c1d:	44 89 55 c8          	mov    DWORD PTR [rbp-0x38],r10d
   93c21:	8b 45 c4             	mov    eax,DWORD PTR [rbp-0x3c]
   93c24:	89 45 cc             	mov    DWORD PTR [rbp-0x34],eax
   93c27:	48 8b 85 28 ff ff ff 	mov    rax,QWORD PTR [rbp-0xd8]
   93c2e:	48 89 85 70 ff ff ff 	mov    QWORD PTR [rbp-0x90],rax
   93c35:	48 89 9d 78 ff ff ff 	mov    QWORD PTR [rbp-0x88],rbx
   93c3c:	48 8b 85 50 ff ff ff 	mov    rax,QWORD PTR [rbp-0xb0]
   93c43:	48 89 45 80          	mov    QWORD PTR [rbp-0x80],rax
   93c47:	48 8b 85 20 ff ff ff 	mov    rax,QWORD PTR [rbp-0xe0]
   93c4e:	48 89 45 88          	mov    QWORD PTR [rbp-0x78],rax
   93c52:	4c 89 5d 90          	mov    QWORD PTR [rbp-0x70],r11
   93c56:	4c 89 4d 98          	mov    QWORD PTR [rbp-0x68],r9
   93c5a:	48 89 55 a0          	mov    QWORD PTR [rbp-0x60],rdx
   93c5e:	4c 89 75 a8          	mov    QWORD PTR [rbp-0x58],r14
   93c62:	4c 89 45 b0          	mov    QWORD PTR [rbp-0x50],r8
   93c66:	48 8b 85 38 ff ff ff 	mov    rax,QWORD PTR [rbp-0xc8]
   93c6d:	48 89 45 b8          	mov    QWORD PTR [rbp-0x48],rax
   93c71:	48 ba 64 df 97 01 5e 	movabs rdx,0x4ebe15e0197df64
   93c78:	e1 eb 04 
   93c7b:	e9 52 48 ff ff       	jmp    884d2 <Java_com_adjust_sdk_sig_NativeLibHelper_nOnResume@@Base-0x327d1>
   93c80:	48 8b 85 a0 fe ff ff 	mov    rax,QWORD PTR [rbp-0x160]
   93c87:	48 8b 10             	mov    rdx,QWORD PTR [rax]
   93c8a:	4c 8b bd c0 fe ff ff 	mov    r15,QWORD PTR [rbp-0x140]
   93c91:	4c 89 ff             	mov    rdi,r15
   93c94:	48 8b b5 e0 fe ff ff 	mov    rsi,QWORD PTR [rbp-0x120]
   93c9b:	48 8b 8d 70 fe ff ff 	mov    rcx,QWORD PTR [rbp-0x190]
   93ca2:	4c 8b 85 a8 fe ff ff 	mov    r8,QWORD PTR [rbp-0x158]
   93ca9:	e8 2b 10 01 00       	call   a4cd9 <Java_com_adjust_sdk_sig_NativeLibHelper_nOnResume@@Base-0x15fca>
   93cae:	41 83 3f 00          	cmp    DWORD PTR [r15],0x0
   93cb2:	48 ba d2 a0 e4 e0 ea 	movabs rdx,0xb802caeae0e4a0d2
   93cb9:	ca 02 b8 
   93cbc:	48 b8 b7 bf 40 b9 35 	movabs rax,0xaa768935b940bfb7
   93cc3:	89 76 aa 
   93cc6:	eb 20                	jmp    93ce8 <Java_com_adjust_sdk_sig_NativeLibHelper_nOnResume@@Base-0x26fbb>
   93cc8:	31 c0                	xor    eax,eax
   93cca:	b1 01                	mov    cl,0x1
   93ccc:	f0 0f b0 0d d2 b0 0a 	lock cmpxchg BYTE PTR [rip+0xab0d2],cl        # 13eda6 <write@plt+0xc226>
   93cd3:	00 
   93cd4:	48 ba 99 6c a8 10 68 	movabs rdx,0x3a1b636810a86c99
   93cdb:	63 1b 3a 
   93cde:	48 b8 ed 93 06 43 52 	movabs rax,0x4779ea52430693ed
   93ce5:	ea 79 47 
   93ce8:	48 0f 44 d0          	cmove  rdx,rax
   93cec:	48 8b 85 48 ff ff ff 	mov    rax,QWORD PTR [rbp-0xb8]
   93cf3:	48 89 85 58 ff ff ff 	mov    QWORD PTR [rbp-0xa8],rax
   93cfa:	48 8b 85 40 ff ff ff 	mov    rax,QWORD PTR [rbp-0xc0]
   93d01:	48 89 85 60 ff ff ff 	mov    QWORD PTR [rbp-0xa0],rax
   93d08:	48 8b 85 30 ff ff ff 	mov    rax,QWORD PTR [rbp-0xd0]
   93d0f:	48 89 85 68 ff ff ff 	mov    QWORD PTR [rbp-0x98],rax
   93d16:	8b 45 c0             	mov    eax,DWORD PTR [rbp-0x40]
   93d19:	89 45 c8             	mov    DWORD PTR [rbp-0x38],eax
   93d1c:	8b 45 c4             	mov    eax,DWORD PTR [rbp-0x3c]
   93d1f:	89 45 cc             	mov    DWORD PTR [rbp-0x34],eax
   93d22:	48 8b 85 28 ff ff ff 	mov    rax,QWORD PTR [rbp-0xd8]
   93d29:	48 89 85 70 ff ff ff 	mov    QWORD PTR [rbp-0x90],rax
   93d30:	48 89 9d 78 ff ff ff 	mov    QWORD PTR [rbp-0x88],rbx
   93d37:	48 8b 85 50 ff ff ff 	mov    rax,QWORD PTR [rbp-0xb0]
   93d3e:	48 89 45 80          	mov    QWORD PTR [rbp-0x80],rax
   93d42:	48 8b 85 20 ff ff ff 	mov    rax,QWORD PTR [rbp-0xe0]
   93d49:	48 89 45 88          	mov    QWORD PTR [rbp-0x78],rax
   93d4d:	48 8b 85 18 ff ff ff 	mov    rax,QWORD PTR [rbp-0xe8]
   93d54:	48 89 45 90          	mov    QWORD PTR [rbp-0x70],rax
   93d58:	48 8b 85 08 ff ff ff 	mov    rax,QWORD PTR [rbp-0xf8]
   93d5f:	48 89 45 98          	mov    QWORD PTR [rbp-0x68],rax
   93d63:	48 8b 85 10 ff ff ff 	mov    rax,QWORD PTR [rbp-0xf0]
   93d6a:	48 89 45 a0          	mov    QWORD PTR [rbp-0x60],rax
   93d6e:	48 8b 85 f8 fe ff ff 	mov    rax,QWORD PTR [rbp-0x108]
   93d75:	48 89 45 a8          	mov    QWORD PTR [rbp-0x58],rax
   93d79:	4c 89 75 b0          	mov    QWORD PTR [rbp-0x50],r14
   93d7d:	e9 ce 01 00 00       	jmp    93f50 <Java_com_adjust_sdk_sig_NativeLibHelper_nOnResume@@Base-0x26d53>
   93d82:	c6 05 41 b0 0a 00 00 	mov    BYTE PTR [rip+0xab041],0x0        # 13edca <write@plt+0xc24a>
   93d89:	48 8b 85 d8 fe ff ff 	mov    rax,QWORD PTR [rbp-0x128]
   93d90:	48 8b 8d e0 fc ff ff 	mov    rcx,QWORD PTR [rbp-0x320]
   93d97:	48 89 48 28          	mov    QWORD PTR [rax+0x28],rcx
   93d9b:	48 8d 3d be 83 0a 00 	lea    rdi,[rip+0xa83be]        # 13c160 <write@plt+0x95e0>
   93da2:	4c 8b bd d0 fe ff ff 	mov    r15,QWORD PTR [rbp-0x130]
   93da9:	4c 89 fe             	mov    rsi,r15
   93dac:	4c 89 cb             	mov    rbx,r9
   93daf:	e8 4e dc 02 00       	call   c1a02 <Java_com_adjust_sdk_sig_NativeLibHelper_nSign@@Base+0x6357>
   93db4:	48 8b 85 48 ff ff ff 	mov    rax,QWORD PTR [rbp-0xb8]
   93dbb:	48 89 85 58 ff ff ff 	mov    QWORD PTR [rbp-0xa8],rax
   93dc2:	48 8b 85 40 ff ff ff 	mov    rax,QWORD PTR [rbp-0xc0]
   93dc9:	48 89 85 60 ff ff ff 	mov    QWORD PTR [rbp-0xa0],rax
   93dd0:	48 8b 85 30 ff ff ff 	mov    rax,QWORD PTR [rbp-0xd0]
   93dd7:	48 89 85 68 ff ff ff 	mov    QWORD PTR [rbp-0x98],rax
   93dde:	8b 45 c0             	mov    eax,DWORD PTR [rbp-0x40]
   93de1:	89 45 c8             	mov    DWORD PTR [rbp-0x38],eax
   93de4:	44 89 75 cc          	mov    DWORD PTR [rbp-0x34],r14d
   93de8:	4c 89 ad 70 ff ff ff 	mov    QWORD PTR [rbp-0x90],r13
   93def:	4c 89 a5 78 ff ff ff 	mov    QWORD PTR [rbp-0x88],r12
   93df6:	48 8b 85 50 ff ff ff 	mov    rax,QWORD PTR [rbp-0xb0]
   93dfd:	48 89 45 80          	mov    QWORD PTR [rbp-0x80],rax
   93e01:	48 8b 85 20 ff ff ff 	mov    rax,QWORD PTR [rbp-0xe0]
   93e08:	48 89 45 88          	mov    QWORD PTR [rbp-0x78],rax
   93e0c:	48 8b 85 08 ff ff ff 	mov    rax,QWORD PTR [rbp-0xf8]
   93e13:	48 89 45 98          	mov    QWORD PTR [rbp-0x68],rax
   93e17:	48 8b 85 10 ff ff ff 	mov    rax,QWORD PTR [rbp-0xf0]
   93e1e:	48 89 45 a0          	mov    QWORD PTR [rbp-0x60],rax
   93e22:	48 89 5d a8          	mov    QWORD PTR [rbp-0x58],rbx
   93e26:	48 8b 85 00 ff ff ff 	mov    rax,QWORD PTR [rbp-0x100]
   93e2d:	48 89 45 b0          	mov    QWORD PTR [rbp-0x50],rax
   93e31:	48 8b 85 38 ff ff ff 	mov    rax,QWORD PTR [rbp-0xc8]
   93e38:	48 89 45 b8          	mov    QWORD PTR [rbp-0x48],rax
   93e3c:	4c 89 7d 90          	mov    QWORD PTR [rbp-0x70],r15
   93e40:	48 ba 1b e3 c3 9c e3 	movabs rdx,0x7c530e39cc3e31b
   93e47:	30 c5 07 
   93e4a:	e9 83 46 ff ff       	jmp    884d2 <Java_com_adjust_sdk_sig_NativeLibHelper_nOnResume@@Base-0x327d1>
   93e4f:	48 8b 85 00 fb ff ff 	mov    rax,QWORD PTR [rbp-0x500]
   93e56:	48 2b 85 c8 fe ff ff 	sub    rax,QWORD PTR [rbp-0x138]
   93e5d:	48 89 85 58 fa ff ff 	mov    QWORD PTR [rbp-0x5a8],rax
   93e64:	48 8d 78 01          	lea    rdi,[rax+0x1]
   93e68:	e8 e3 e9 09 00       	call   132850 <malloc@plt>
   93e6d:	48 89 85 d8 fc ff ff 	mov    QWORD PTR [rbp-0x328],rax
   93e74:	48 85 c0             	test   rax,rax
   93e77:	48 ba a6 d8 70 ed e3 	movabs rdx,0x1819a6e3ed70d8a6
   93e7e:	a6 19 18 
   93e81:	48 b8 b3 27 8f 63 d3 	movabs rax,0x2f096ad3638f27b3
   93e88:	6a 09 2f 
   93e8b:	eb 20                	jmp    93ead <Java_com_adjust_sdk_sig_NativeLibHelper_nOnResume@@Base-0x26df6>
   93e8d:	31 c0                	xor    eax,eax
   93e8f:	b1 01                	mov    cl,0x1
   93e91:	f0 0f b0 0d 07 af 0a 	lock cmpxchg BYTE PTR [rip+0xaaf07],cl        # 13eda0 <write@plt+0xc220>
   93e98:	00 
   93e99:	48 ba 4a 12 f1 9b c9 	movabs rdx,0x2bc07cc99bf1124a
   93ea0:	7c c0 2b 
   93ea3:	48 b8 1d 43 14 c7 c6 	movabs rax,0xe41943c6c714431d
   93eaa:	43 19 e4 
   93ead:	48 0f 44 d0          	cmove  rdx,rax
   93eb1:	48 8b 85 48 ff ff ff 	mov    rax,QWORD PTR [rbp-0xb8]
   93eb8:	48 89 85 58 ff ff ff 	mov    QWORD PTR [rbp-0xa8],rax
   93ebf:	48 8b 85 40 ff ff ff 	mov    rax,QWORD PTR [rbp-0xc0]
   93ec6:	48 89 85 60 ff ff ff 	mov    QWORD PTR [rbp-0xa0],rax
   93ecd:	48 8b 85 30 ff ff ff 	mov    rax,QWORD PTR [rbp-0xd0]
   93ed4:	48 89 85 68 ff ff ff 	mov    QWORD PTR [rbp-0x98],rax
   93edb:	8b 45 c0             	mov    eax,DWORD PTR [rbp-0x40]
   93ede:	89 45 c8             	mov    DWORD PTR [rbp-0x38],eax
   93ee1:	8b 45 c4             	mov    eax,DWORD PTR [rbp-0x3c]
   93ee4:	89 45 cc             	mov    DWORD PTR [rbp-0x34],eax
   93ee7:	48 8b 85 28 ff ff ff 	mov    rax,QWORD PTR [rbp-0xd8]
   93eee:	48 89 85 70 ff ff ff 	mov    QWORD PTR [rbp-0x90],rax
   93ef5:	48 8b 85 f0 fe ff ff 	mov    rax,QWORD PTR [rbp-0x110]
   93efc:	48 89 85 78 ff ff ff 	mov    QWORD PTR [rbp-0x88],rax
   93f03:	48 8b 85 50 ff ff ff 	mov    rax,QWORD PTR [rbp-0xb0]
   93f0a:	48 89 45 80          	mov    QWORD PTR [rbp-0x80],rax
   93f0e:	48 8b 85 20 ff ff ff 	mov    rax,QWORD PTR [rbp-0xe0]
   93f15:	48 89 45 88          	mov    QWORD PTR [rbp-0x78],rax
   93f19:	48 8b 85 18 ff ff ff 	mov    rax,QWORD PTR [rbp-0xe8]
   93f20:	48 89 45 90          	mov    QWORD PTR [rbp-0x70],rax
   93f24:	48 8b 85 08 ff ff ff 	mov    rax,QWORD PTR [rbp-0xf8]
   93f2b:	48 89 45 98          	mov    QWORD PTR [rbp-0x68],rax
   93f2f:	48 8b 85 10 ff ff ff 	mov    rax,QWORD PTR [rbp-0xf0]
   93f36:	48 89 45 a0          	mov    QWORD PTR [rbp-0x60],rax
   93f3a:	48 8b 85 f8 fe ff ff 	mov    rax,QWORD PTR [rbp-0x108]
   93f41:	48 89 45 a8          	mov    QWORD PTR [rbp-0x58],rax
   93f45:	48 8b 85 00 ff ff ff 	mov    rax,QWORD PTR [rbp-0x100]
   93f4c:	48 89 45 b0          	mov    QWORD PTR [rbp-0x50],rax
   93f50:	48 8b 85 38 ff ff ff 	mov    rax,QWORD PTR [rbp-0xc8]
   93f57:	48 89 45 b8          	mov    QWORD PTR [rbp-0x48],rax
   93f5b:	e9 72 45 ff ff       	jmp    884d2 <Java_com_adjust_sdk_sig_NativeLibHelper_nOnResume@@Base-0x327d1>
   93f60:	64 48 8b 04 25 28 00 	mov    rax,QWORD PTR fs:0x28
   93f67:	00 00 
   93f69:	48 3b 45 d0          	cmp    rax,QWORD PTR [rbp-0x30]
   93f6d:	75 12                	jne    93f81 <Java_com_adjust_sdk_sig_NativeLibHelper_nOnResume@@Base-0x26d22>
   93f6f:	8b 45 c4             	mov    eax,DWORD PTR [rbp-0x3c]
   93f72:	48 8d 65 d8          	lea    rsp,[rbp-0x28]
   93f76:	5b                   	pop    rbx
   93f77:	41 5c                	pop    r12
   93f79:	41 5d                	pop    r13
   93f7b:	41 5e                	pop    r14
   93f7d:	41 5f                	pop    r15
   93f7f:	5d                   	pop    rbp
   93f80:	c3                   	ret
   93f81:	e8 9a e8 09 00       	call   132820 <__stack_chk_fail@plt>
