
adjust-android-signature-3.67.0/jni/arm64-v8a/libsigner.so:	file format elf64-littleaarch64

Disassembly of section .text:

0000000000008070 <.text>:
   78f68: fc180fea     	str	d10, [sp, #-0x80]!
   78f6c: 6d0123e9     	stp	d9, d8, [sp, #0x10]
   78f70: a9027bfd     	stp	x29, x30, [sp, #0x20]
   78f74: a9036ffc     	stp	x28, x27, [sp, #0x30]
   78f78: a90467fa     	stp	x26, x25, [sp, #0x40]
   78f7c: a9055ff8     	stp	x24, x23, [sp, #0x50]
   78f80: a90657f6     	stp	x22, x21, [sp, #0x60]
   78f84: a9074ff4     	stp	x20, x19, [sp, #0x70]
   78f88: 910083fd     	add	x29, sp, #0x20
   78f8c: d10703ff     	sub	sp, sp, #0x1c0
   78f90: d2976768     	mov	x8, #0xbb3b             // =47931
   78f94: d284e3ca     	mov	x10, #0x271e            // =10014
   78f98: f2b9eb08     	movk	x8, #0xcf58, lsl #16
   78f9c: f2ac068a     	movk	x10, #0x6034, lsl #16
   78fa0: f2d97e48     	movk	x8, #0xcbf2, lsl #32
   78fa4: f2dbb58a     	movk	x10, #0xddac, lsl #32
   78fa8: f100001f     	cmp	x0, #0x0
   78fac: f2ff5e68     	movk	x8, #0xfaf3, lsl #48
   78fb0: f2fc0c4a     	movk	x10, #0xe062, lsl #48
   78fb4: d2857f64     	mov	x4, #0x2bfb             // =11259
   78fb8: 9a880148     	csel	x8, x10, x8, eq
   78fbc: f2b08fc4     	movk	x4, #0x847e, lsl #16
   78fc0: 0f07e788     	movi	v8.8b, #0xfc
   78fc4: 0f02e4c9     	movi	v9.8b, #0x46
   78fc8: 0f03e4ca     	movi	v10.8b, #0x66
   78fcc: f2db02c4     	movk	x4, #0xd816, lsl #32
   78fd0: f9006be8     	str	x8, [sp, #0xd0]
   78fd4: 2a1f03fa     	mov	w26, wzr
   78fd8: 2a1f03e5     	mov	w5, wzr
   78fdc: f2fbd4e4     	movk	x4, #0xdea7, lsl #48
   78fe0: b811c3bf     	stur	wzr, [x29, #-0xe4]
   78fe4: b90017ff     	str	wzr, [sp, #0x14]
   78fe8: b81ec3bf     	stur	wzr, [x29, #-0x14]
   78fec: b90077ff     	str	wzr, [sp, #0x74]
   78ff0: b90013ff     	str	wzr, [sp, #0x10]
   78ff4: b81e83bf     	stur	wzr, [x29, #-0x18]
   78ff8: b90073ff     	str	wzr, [sp, #0x70]
   78ffc: b900bfff     	str	wzr, [sp, #0xbc]
   79000: f90007ff     	str	xzr, [sp, #0x8]
   79004: f90037ff     	str	xzr, [sp, #0x68]
   79008: b900a7ff     	str	wzr, [sp, #0xa4]
   7900c: b900dfff     	str	wzr, [sp, #0xdc]
   79010: f9000fe0     	str	x0, [sp, #0x18]
   79014: aa0403f1     	mov	x17, x4
   79018: d2800884     	mov	x4, #0x44               // =68
   7901c: a97abbaf     	ldp	x15, x14, [x29, #-0x58]
   79020: f2b229a4     	movk	x4, #0x914d, lsl #16
   79024: d2821680     	mov	x0, #0x10b4             // =4276
   79028: a97bdfb9     	ldp	x25, x23, [x29, #-0x48]
   7902c: f2c58384     	movk	x4, #0x2c1c, lsl #32
   79030: f2a15d40     	movk	x0, #0xaea, lsl #16
   79034: 297d53ad     	ldp	w13, w20, [x29, #-0x18]
   79038: f85c83bc     	ldur	x28, [x29, #-0x38]
   7903c: f2f76984     	movk	x4, #0xbb4c, lsl #48
   79040: b85d43b6     	ldur	w22, [x29, #-0x2c]
   79044: f2c27e20     	movk	x0, #0x13f1, lsl #32
   79048: f2f0c960     	movk	x0, #0x864b, lsl #48
   7904c: eb00023f     	cmp	x17, x0
   79050: 54fffe20     	b.eq	0x79014 <.text+0x70fa4>
   79054: aa1e03e8     	mov	x8, x30
   79058: aa0703e9     	mov	x9, x7
   7905c: d2965d28     	mov	x8, #0xb2e9             // =45801
   79060: aa0603f3     	mov	x19, x6
   79064: f2af5a08     	movk	x8, #0x7ad0, lsl #16
   79068: 2a0503ea     	mov	w10, w5
   7906c: f2cdd9e8     	movk	x8, #0x6ecf, lsl #32
   79070: aa0b03e3     	mov	x3, x11
   79074: f2f10488     	movk	x8, #0x8824, lsl #48
   79078: aa1803e2     	mov	x2, x24
   7907c: eb08023f     	cmp	x17, x8
   79080: aa1b03e1     	mov	x1, x27
   79084: 2a1a03f5     	mov	w21, w26
   79088: aa0c03f0     	mov	x16, x12
   7908c: b813c3b6     	stur	w22, [x29, #-0xc4]
   79090: b81543b4     	stur	w20, [x29, #-0xac]
   79094: a935dfbc     	stp	x28, x23, [x29, #-0xa8]
   79098: a9347bb9     	stp	x25, x30, [x29, #-0xc0]
   7909c: b81243ad     	stur	w13, [x29, #-0xdc]
   790a0: a932bfae     	stp	x14, x15, [x29, #-0xd8]
   790a4: f81683ac     	stur	x12, [x29, #-0x98]
   790a8: b81743ba     	stur	w26, [x29, #-0x8c]
   790ac: a937e3bb     	stp	x27, x24, [x29, #-0x88]
   790b0: f81883ab     	stur	x11, [x29, #-0x78]
   790b4: b81943a5     	stur	w5, [x29, #-0x6c]
   790b8: a9399fa6     	stp	x6, x7, [x29, #-0x68]
   790bc: 5400ae80     	b.eq	0x7a68c <.text+0x7261c>
   790c0: a9778ba1     	ldp	x1, x2, [x29, #-0x88]
   790c4: d297c1e4     	mov	x4, #0xbe0f             // =48655
   790c8: d2836d40     	mov	x0, #0x1b6a             // =7018
   790cc: a979a7b3     	ldp	x19, x9, [x29, #-0x68]
   790d0: f2aa9844     	movk	x4, #0x54c2, lsl #16
   790d4: f2af9de0     	movk	x0, #0x7cef, lsl #16
   790d8: f85683b0     	ldur	x16, [x29, #-0x98]
   790dc: f2d877c4     	movk	x4, #0xc3be, lsl #32
   790e0: b85743b5     	ldur	w21, [x29, #-0x8c]
   790e4: aa0103fb     	mov	x27, x1
   790e8: f85883a3     	ldur	x3, [x29, #-0x78]
   790ec: aa0203f8     	mov	x24, x2
   790f0: b85943aa     	ldur	w10, [x29, #-0x6c]
   790f4: aa1003ec     	mov	x12, x16
   790f8: f85483a8     	ldur	x8, [x29, #-0xb8]
   790fc: 2a1503fa     	mov	w26, w21
   79100: a975dfbc     	ldp	x28, x23, [x29, #-0xa8]
   79104: aa0303eb     	mov	x11, x3
   79108: 2a0a03e5     	mov	w5, w10
   7910c: a972bfae     	ldp	x14, x15, [x29, #-0xd8]
   79110: aa1303e6     	mov	x6, x19
   79114: aa0903e7     	mov	x7, x9
   79118: b853c3b6     	ldur	w22, [x29, #-0xc4]
   7911c: aa0803fe     	mov	x30, x8
   79120: b85543b4     	ldur	w20, [x29, #-0xac]
   79124: f2e77584     	movk	x4, #0x3bac, lsl #48
   79128: f85403b9     	ldur	x25, [x29, #-0xc0]
   7912c: f2c4a740     	movk	x0, #0x253a, lsl #32
   79130: b85243ad     	ldur	w13, [x29, #-0xdc]
   79134: f2f13bc0     	movk	x0, #0x89de, lsl #48
   79138: eb00023f     	cmp	x17, x0
   7913c: b81d43b6     	stur	w22, [x29, #-0x2c]
   79140: a93c73b7     	stp	x23, x28, [x29, #-0x40]
   79144: 293d53ad     	stp	w13, w20, [x29, #-0x18]
   79148: a93b67ae     	stp	x14, x25, [x29, #-0x50]
   7914c: f81a83af     	stur	x15, [x29, #-0x58]
   79150: 54fff620     	b.eq	0x79014 <.text+0x70fa4>
   79154: d28546c4     	mov	x4, #0x2a36             // =10806
   79158: d295c660     	mov	x0, #0xae33             // =44595
   7915c: f2a9da44     	movk	x4, #0x4ed2, lsl #16
   79160: f2b7a560     	movk	x0, #0xbd2b, lsl #16
   79164: f2ceb924     	movk	x4, #0x75c9, lsl #32
   79168: aa1003ec     	mov	x12, x16
   7916c: 2a1503fa     	mov	w26, w21
   79170: aa0103fb     	mov	x27, x1
   79174: aa0203f8     	mov	x24, x2
   79178: aa0303eb     	mov	x11, x3
   7917c: 2a0a03e5     	mov	w5, w10
   79180: aa1303e6     	mov	x6, x19
   79184: aa0903e7     	mov	x7, x9
   79188: aa0803fe     	mov	x30, x8
   7918c: f2f92924     	movk	x4, #0xc949, lsl #48
   79190: f2d873e0     	movk	x0, #0xc39f, lsl #32
   79194: f2f1d160     	movk	x0, #0x8e8b, lsl #48
   79198: b81d43b6     	stur	w22, [x29, #-0x2c]
   7919c: eb00023f     	cmp	x17, x0
   791a0: 293d53ad     	stp	w13, w20, [x29, #-0x18]
   791a4: a93c73b7     	stp	x23, x28, [x29, #-0x40]
   791a8: a93b67ae     	stp	x14, x25, [x29, #-0x50]
   791ac: f81a83af     	stur	x15, [x29, #-0x58]
   791b0: 54fff320     	b.eq	0x79014 <.text+0x70fa4>
   791b4: d29de2a8     	mov	x8, #0xef15             // =61205
   791b8: f2b13ae8     	movk	x8, #0x89d7, lsl #16
   791bc: f2c881e8     	movk	x8, #0x440f, lsl #32
   791c0: f2f203a8     	movk	x8, #0x901d, lsl #48
   791c4: eb08023f     	cmp	x17, x8
   791c8: 5400a900     	b.eq	0x7a6e8 <.text+0x72678>
   791cc: d293e448     	mov	x8, #0x9f22             // =40738
   791d0: f2a1bb88     	movk	x8, #0xddc, lsl #16
   791d4: f2db2548     	movk	x8, #0xd92a, lsl #32
   791d8: f2f26b28     	movk	x8, #0x9359, lsl #48
   791dc: eb08023f     	cmp	x17, x8
   791e0: 5400aa80     	b.eq	0x7a730 <.text+0x726c0>
   791e4: d2848f48     	mov	x8, #0x247a             // =9338
   791e8: f85483be     	ldur	x30, [x29, #-0xb8]
   791ec: a9799fa6     	ldp	x6, x7, [x29, #-0x68]
   791f0: f2aec688     	movk	x8, #0x7634, lsl #16
   791f4: f2c613c8     	movk	x8, #0x309e, lsl #32
   791f8: f2f28308     	movk	x8, #0x9418, lsl #48
   791fc: eb08023f     	cmp	x17, x8
   79200: 5400acc0     	b.eq	0x7a798 <.text+0x72728>
   79204: b853c3a8     	ldur	w8, [x29, #-0xc4]
   79208: d2837764     	mov	x4, #0x1bbb             // =7099
   7920c: f85583aa     	ldur	x10, [x29, #-0xa8]
   79210: f2a41ec4     	movk	x4, #0x20f6, lsl #16
   79214: b85543a9     	ldur	w9, [x29, #-0xac]
   79218: d2892c60     	mov	x0, #0x4963             // =18787
   7921c: b81d43a8     	stur	w8, [x29, #-0x2c]
   79220: f2cf3144     	movk	x4, #0x798a, lsl #32
   79224: a97633a8     	ldp	x8, x12, [x29, #-0xa0]
   79228: f2b152c0     	movk	x0, #0x8a96, lsl #16
   7922c: f2fddb64     	movk	x4, #0xeedb, lsl #48
   79230: a977e3bb     	ldp	x27, x24, [x29, #-0x88]
   79234: f2cdf520     	movk	x0, #0x6fa9, lsl #32
   79238: a93c2ba8     	stp	x8, x10, [x29, #-0x40]
   7923c: b85243a8     	ldur	w8, [x29, #-0xdc]
   79240: f85403aa     	ldur	x10, [x29, #-0xc0]
   79244: f2f31cc0     	movk	x0, #0x98e6, lsl #48
   79248: b85743ba     	ldur	w26, [x29, #-0x8c]
   7924c: eb00023f     	cmp	x17, x0
   79250: 293d27a8     	stp	w8, w9, [x29, #-0x18]
   79254: f85283a8     	ldur	x8, [x29, #-0xd8]
   79258: f85883ab     	ldur	x11, [x29, #-0x78]
   7925c: b85943a5     	ldur	w5, [x29, #-0x6c]
   79260: a93b2ba8     	stp	x8, x10, [x29, #-0x50]
   79264: f85303a8     	ldur	x8, [x29, #-0xd0]
   79268: f81a83a8     	stur	x8, [x29, #-0x58]
   7926c: 54ffed40     	b.eq	0x79014 <.text+0x70fa4>
   79270: d29b1828     	mov	x8, #0xd8c1             // =55489
   79274: f2a9e988     	movk	x8, #0x4f4c, lsl #16
   79278: f2df60c8     	movk	x8, #0xfb06, lsl #32
   7927c: f2f36908     	movk	x8, #0x9b48, lsl #48
   79280: eb08023f     	cmp	x17, x8
   79284: 5400abc0     	b.eq	0x7a7fc <.text+0x7278c>
   79288: d29fec28     	mov	x8, #0xff61             // =65377
   7928c: f85483be     	ldur	x30, [x29, #-0xb8]
   79290: a9799fa6     	ldp	x6, x7, [x29, #-0x68]
   79294: f2be8888     	movk	x8, #0xf444, lsl #16
   79298: f2d05648     	movk	x8, #0x82b2, lsl #32
   7929c: f2f3fa28     	movk	x8, #0x9fd1, lsl #48
   792a0: eb08023f     	cmp	x17, x8
   792a4: 5400aca0     	b.eq	0x7a838 <.text+0x727c8>
   792a8: d294d188     	mov	x8, #0xa68c             // =42636
   792ac: f2bd9528     	movk	x8, #0xeca9, lsl #16
   792b0: f2d315c8     	movk	x8, #0x98ae, lsl #32
   792b4: f2f414c8     	movk	x8, #0xa0a6, lsl #48
   792b8: eb08023f     	cmp	x17, x8
   792bc: 5400aee0     	b.eq	0x7a898 <.text+0x72828>
   792c0: d2872888     	mov	x8, #0x3944             // =14660
   792c4: d29a324a     	mov	x10, #0xd192            // =53650
   792c8: f2a23c48     	movk	x8, #0x11e2, lsl #16
   792cc: f2a29d2a     	movk	x10, #0x14e9, lsl #16
   792d0: f2c37b48     	movk	x8, #0x1bda, lsl #32
   792d4: f2cc598a     	movk	x10, #0x62cc, lsl #32
   792d8: f2f44128     	movk	x8, #0xa209, lsl #48
   792dc: f2f45eea     	movk	x10, #0xa2f7, lsl #48
   792e0: eb08023f     	cmp	x17, x8
   792e4: b853c3a8     	ldur	w8, [x29, #-0xc4]
   792e8: fa4a1224     	ccmp	x17, x10, #0x4, ne
   792ec: f85583aa     	ldur	x10, [x29, #-0xa8]
   792f0: b85543a9     	ldur	w9, [x29, #-0xac]
   792f4: d2942e84     	mov	x4, #0xa174             // =41332
   792f8: b81d43a8     	stur	w8, [x29, #-0x2c]
   792fc: f2b4bd64     	movk	x4, #0xa5eb, lsl #16
   79300: a97633a8     	ldp	x8, x12, [x29, #-0xa0]
   79304: f2dfe464     	movk	x4, #0xff23, lsl #32
   79308: a977e3bb     	ldp	x27, x24, [x29, #-0x88]
   7930c: f2ee61a4     	movk	x4, #0x730d, lsl #48
   79310: a93c2ba8     	stp	x8, x10, [x29, #-0x40]
   79314: b85243a8     	ldur	w8, [x29, #-0xdc]
   79318: f85403aa     	ldur	x10, [x29, #-0xc0]
   7931c: b85743ba     	ldur	w26, [x29, #-0x8c]
   79320: 293d27a8     	stp	w8, w9, [x29, #-0x18]
   79324: f85283a8     	ldur	x8, [x29, #-0xd8]
   79328: f85883ab     	ldur	x11, [x29, #-0x78]
   7932c: b85943a5     	ldur	w5, [x29, #-0x6c]
   79330: a93b2ba8     	stp	x8, x10, [x29, #-0x50]
   79334: f85303a8     	ldur	x8, [x29, #-0xd0]
   79338: f81a83a8     	stur	x8, [x29, #-0x58]
   7933c: 54ffe6c0     	b.eq	0x79014 <.text+0x70fa4>
   79340: d2837828     	mov	x8, #0x1bc1             // =7105
   79344: f2aaf628     	movk	x8, #0x57b1, lsl #16
   79348: f2dff2e8     	movk	x8, #0xff97, lsl #32
   7934c: f2f4a6a8     	movk	x8, #0xa535, lsl #48
   79350: eb08023f     	cmp	x17, x8
   79354: 5400adc0     	b.eq	0x7a90c <.text+0x7289c>
   79358: a9778ba1     	ldp	x1, x2, [x29, #-0x88]
   7935c: d293e444     	mov	x4, #0x9f22             // =40738
   79360: d2889820     	mov	x0, #0x44c1             // =17601
   79364: a979a7b3     	ldp	x19, x9, [x29, #-0x68]
   79368: f2a1bb84     	movk	x4, #0xddc, lsl #16
   7936c: f2b55180     	movk	x0, #0xaa8c, lsl #16
   79370: f85683b0     	ldur	x16, [x29, #-0x98]
   79374: f2db2544     	movk	x4, #0xd92a, lsl #32
   79378: b85743b5     	ldur	w21, [x29, #-0x8c]
   7937c: aa0103fb     	mov	x27, x1
   79380: f85883a3     	ldur	x3, [x29, #-0x78]
   79384: aa0203f8     	mov	x24, x2
   79388: b85943aa     	ldur	w10, [x29, #-0x6c]
   7938c: aa1003ec     	mov	x12, x16
   79390: f85483a8     	ldur	x8, [x29, #-0xb8]
   79394: 2a1503fa     	mov	w26, w21
   79398: a975dfbc     	ldp	x28, x23, [x29, #-0xa8]
   7939c: aa0303eb     	mov	x11, x3
   793a0: 2a0a03e5     	mov	w5, w10
   793a4: a972bfae     	ldp	x14, x15, [x29, #-0xd8]
   793a8: aa1303e6     	mov	x6, x19
   793ac: aa0903e7     	mov	x7, x9
   793b0: b853c3b6     	ldur	w22, [x29, #-0xc4]
   793b4: aa0803fe     	mov	x30, x8
   793b8: b85543b4     	ldur	w20, [x29, #-0xac]
   793bc: f2f26b24     	movk	x4, #0x9359, lsl #48
   793c0: f85403b9     	ldur	x25, [x29, #-0xc0]
   793c4: f2c93dc0     	movk	x0, #0x49ee, lsl #32
   793c8: b85243ad     	ldur	w13, [x29, #-0xdc]
   793cc: f2f4cce0     	movk	x0, #0xa667, lsl #48
   793d0: eb00023f     	cmp	x17, x0
   793d4: b81d43b6     	stur	w22, [x29, #-0x2c]
   793d8: a93c73b7     	stp	x23, x28, [x29, #-0x40]
   793dc: 293d53ad     	stp	w13, w20, [x29, #-0x18]
   793e0: a93b67ae     	stp	x14, x25, [x29, #-0x50]
   793e4: f81a83af     	stur	x15, [x29, #-0x58]
   793e8: 54ffe160     	b.eq	0x79014 <.text+0x70fa4>
   793ec: d297c1e4     	mov	x4, #0xbe0f             // =48655
   793f0: d28f2d20     	mov	x0, #0x7969             // =31081
   793f4: f2aa9844     	movk	x4, #0x54c2, lsl #16
   793f8: f2a8c880     	movk	x0, #0x4644, lsl #16
   793fc: f2d877c4     	movk	x4, #0xc3be, lsl #32
   79400: aa1003ec     	mov	x12, x16
   79404: 2a1503fa     	mov	w26, w21
   79408: aa0103fb     	mov	x27, x1
   7940c: aa0203f8     	mov	x24, x2
   79410: aa0303eb     	mov	x11, x3
   79414: 2a0a03e5     	mov	w5, w10
   79418: aa1303e6     	mov	x6, x19
   7941c: aa0903e7     	mov	x7, x9
   79420: aa0803fe     	mov	x30, x8
   79424: f2e77584     	movk	x4, #0x3bac, lsl #48
   79428: f2c98c80     	movk	x0, #0x4c64, lsl #32
   7942c: f2f55360     	movk	x0, #0xaa9b, lsl #48
   79430: b81d43b6     	stur	w22, [x29, #-0x2c]
   79434: eb00023f     	cmp	x17, x0
   79438: 293d53ad     	stp	w13, w20, [x29, #-0x18]
   7943c: a93c73b7     	stp	x23, x28, [x29, #-0x40]
   79440: a93b67ae     	stp	x14, x25, [x29, #-0x50]
   79444: f81a83af     	stur	x15, [x29, #-0x58]
   79448: 54ffde60     	b.eq	0x79014 <.text+0x70fa4>
   7944c: d29de2a4     	mov	x4, #0xef15             // =61205
   79450: d29a1800     	mov	x0, #0xd0c0             // =53440
   79454: a94e9be7     	ldp	x7, x6, [sp, #0xe8]
   79458: f2b13ae4     	movk	x4, #0x89d7, lsl #16
   7945c: f2bb2140     	movk	x0, #0xd90a, lsl #16
   79460: f2c881e4     	movk	x4, #0x440f, lsl #32
   79464: aa1003ec     	mov	x12, x16
   79468: 2a1503fa     	mov	w26, w21
   7946c: aa0103fb     	mov	x27, x1
   79470: aa0203f8     	mov	x24, x2
   79474: aa0303eb     	mov	x11, x3
   79478: b851c3a5     	ldur	w5, [x29, #-0xe4]
   7947c: aa0803fe     	mov	x30, x8
   79480: f2f203a4     	movk	x4, #0x901d, lsl #48
   79484: f2c8a560     	movk	x0, #0x452b, lsl #32
   79488: f2f59640     	movk	x0, #0xacb2, lsl #48
   7948c: b81d43b6     	stur	w22, [x29, #-0x2c]
   79490: eb00023f     	cmp	x17, x0
   79494: 293d53ad     	stp	w13, w20, [x29, #-0x18]
   79498: a93c73b7     	stp	x23, x28, [x29, #-0x40]
   7949c: a93b67ae     	stp	x14, x25, [x29, #-0x50]
   794a0: f81a83af     	stur	x15, [x29, #-0x58]
   794a4: 54ffdb80     	b.eq	0x79014 <.text+0x70fa4>
   794a8: d29a68e4     	mov	x4, #0xd347             // =54087
   794ac: d28f1e00     	mov	x0, #0x78f0             // =30960
   794b0: f2ae1444     	movk	x4, #0x70a2, lsl #16
   794b4: f2b627c0     	movk	x0, #0xb13e, lsl #16
   794b8: f2c40864     	movk	x4, #0x2043, lsl #32
   794bc: aa1003ec     	mov	x12, x16
   794c0: 2a1503fa     	mov	w26, w21
   794c4: aa0103fb     	mov	x27, x1
   794c8: aa0203f8     	mov	x24, x2
   794cc: aa0303eb     	mov	x11, x3
   794d0: 2a0a03e5     	mov	w5, w10
   794d4: aa1303e6     	mov	x6, x19
   794d8: aa0903e7     	mov	x7, x9
   794dc: aa0803fe     	mov	x30, x8
   794e0: f2e2e1c4     	movk	x4, #0x170e, lsl #48
   794e4: f2c86b60     	movk	x0, #0x435b, lsl #32
   794e8: f2f5a7e0     	movk	x0, #0xad3f, lsl #48
   794ec: b81d43b6     	stur	w22, [x29, #-0x2c]
   794f0: eb00023f     	cmp	x17, x0
   794f4: 293d53ad     	stp	w13, w20, [x29, #-0x18]
   794f8: a93c73b7     	stp	x23, x28, [x29, #-0x40]
   794fc: a93b67ae     	stp	x14, x25, [x29, #-0x50]
   79500: f81a83af     	stur	x15, [x29, #-0x58]
   79504: 54ffd880     	b.eq	0x79014 <.text+0x70fa4>
   79508: d294d184     	mov	x4, #0xa68c             // =42636
   7950c: d28f6740     	mov	x0, #0x7b3a             // =31546
   79510: f2bd9524     	movk	x4, #0xeca9, lsl #16
   79514: f2b621e0     	movk	x0, #0xb10f, lsl #16
   79518: f2d315c4     	movk	x4, #0x98ae, lsl #32
   7951c: aa1003ec     	mov	x12, x16
   79520: 2a1503fa     	mov	w26, w21
   79524: aa0103fb     	mov	x27, x1
   79528: aa0203f8     	mov	x24, x2
   7952c: aa0303eb     	mov	x11, x3
   79530: 2a0a03e5     	mov	w5, w10
   79534: aa1303e6     	mov	x6, x19
   79538: aa0903e7     	mov	x7, x9
   7953c: aa0803fe     	mov	x30, x8
   79540: f2f414c4     	movk	x4, #0xa0a6, lsl #48
   79544: f2dc1320     	movk	x0, #0xe099, lsl #32
   79548: f2f5c020     	movk	x0, #0xae01, lsl #48
   7954c: b81d43b6     	stur	w22, [x29, #-0x2c]
   79550: eb00023f     	cmp	x17, x0
   79554: 293d53ad     	stp	w13, w20, [x29, #-0x18]
   79558: a93c73b7     	stp	x23, x28, [x29, #-0x40]
   7955c: a93b67ae     	stp	x14, x25, [x29, #-0x50]
   79560: f81a83af     	stur	x15, [x29, #-0x58]
   79564: 54ffd580     	b.eq	0x79014 <.text+0x70fa4>
   79568: d295fc28     	mov	x8, #0xafe1             // =45025
   7956c: f2b9db68     	movk	x8, #0xcedb, lsl #16
   79570: f2d451c8     	movk	x8, #0xa28e, lsl #32
   79574: f2f75928     	movk	x8, #0xbac9, lsl #48
   79578: eb08023f     	cmp	x17, x8
   7957c: 5400a020     	b.eq	0x7a980 <.text+0x72910>
   79580: d2800888     	mov	x8, #0x44               // =68
   79584: f2b229a8     	movk	x8, #0x914d, lsl #16
   79588: f2c58388     	movk	x8, #0x2c1c, lsl #32
   7958c: f2f76988     	movk	x8, #0xbb4c, lsl #48
   79590: eb08023f     	cmp	x17, x8
   79594: 5400a280     	b.eq	0x7a9e4 <.text+0x72974>
   79598: d28f5928     	mov	x8, #0x7ac9             // =31433
   7959c: f2b36cc8     	movk	x8, #0x9b66, lsl #16
   795a0: f2c842a8     	movk	x8, #0x4215, lsl #32
   795a4: f2f8df88     	movk	x8, #0xc6fc, lsl #48
   795a8: eb08023f     	cmp	x17, x8
   795ac: 5400a480     	b.eq	0x7aa3c <.text+0x729cc>
   795b0: d28546c8     	mov	x8, #0x2a36             // =10806
   795b4: f85483be     	ldur	x30, [x29, #-0xb8]
   795b8: a9799fa6     	ldp	x6, x7, [x29, #-0x68]
   795bc: f2a9da48     	movk	x8, #0x4ed2, lsl #16
   795c0: f2ceb928     	movk	x8, #0x75c9, lsl #32
   795c4: f2f92928     	movk	x8, #0xc949, lsl #48
   795c8: eb08023f     	cmp	x17, x8
   795cc: 5400a6a0     	b.eq	0x7aaa0 <.text+0x72a30>
   795d0: b853c3a8     	ldur	w8, [x29, #-0xc4]
   795d4: d29c0ea4     	mov	x4, #0xe075             // =57461
   795d8: f85583aa     	ldur	x10, [x29, #-0xa8]
   795dc: f2a88ca4     	movk	x4, #0x4465, lsl #16
   795e0: b85543a9     	ldur	w9, [x29, #-0xac]
   795e4: d2956c40     	mov	x0, #0xab62             // =43874
   795e8: b81d43a8     	stur	w8, [x29, #-0x2c]
   795ec: f2cfa984     	movk	x4, #0x7d4c, lsl #32
   795f0: a97633a8     	ldp	x8, x12, [x29, #-0xa0]
   795f4: f2bd5a40     	movk	x0, #0xead2, lsl #16
   795f8: f2e14624     	movk	x4, #0xa31, lsl #48
   795fc: a977e3bb     	ldp	x27, x24, [x29, #-0x88]
   79600: f2dad920     	movk	x0, #0xd6c9, lsl #32
   79604: a93c2ba8     	stp	x8, x10, [x29, #-0x40]
   79608: b85243a8     	ldur	w8, [x29, #-0xdc]
   7960c: f85403aa     	ldur	x10, [x29, #-0xc0]
   79610: f2f99740     	movk	x0, #0xccba, lsl #48
   79614: b85743ba     	ldur	w26, [x29, #-0x8c]
   79618: eb00023f     	cmp	x17, x0
   7961c: 293d27a8     	stp	w8, w9, [x29, #-0x18]
   79620: f85283a8     	ldur	x8, [x29, #-0xd8]
   79624: f85883ab     	ldur	x11, [x29, #-0x78]
   79628: b85943a5     	ldur	w5, [x29, #-0x6c]
   7962c: a93b2ba8     	stp	x8, x10, [x29, #-0x50]
   79630: f85303a8     	ldur	x8, [x29, #-0xd0]
   79634: f81a83a8     	stur	x8, [x29, #-0x58]
   79638: 54ffcee0     	b.eq	0x79014 <.text+0x70fa4>
   7963c: d29341c8     	mov	x8, #0x9a0e             // =39438
   79640: f2a7dae8     	movk	x8, #0x3ed7, lsl #16
   79644: f2c80748     	movk	x8, #0x403a, lsl #32
   79648: f2f9e288     	movk	x8, #0xcf14, lsl #48
   7964c: eb08023f     	cmp	x17, x8
   79650: 5400a5c0     	b.eq	0x7ab08 <.text+0x72a98>
   79654: a9778ba1     	ldp	x1, x2, [x29, #-0x88]
   79658: d299fa80     	mov	x0, #0xcfd4             // =53204
   7965c: a979a7b3     	ldp	x19, x9, [x29, #-0x68]
   79660: f2ac67a0     	movk	x0, #0x633d, lsl #16
   79664: b85743b5     	ldur	w21, [x29, #-0x8c]
   79668: aa0103fb     	mov	x27, x1
   7966c: f85883a3     	ldur	x3, [x29, #-0x78]
   79670: aa0203f8     	mov	x24, x2
   79674: b85943aa     	ldur	w10, [x29, #-0x6c]
   79678: aa1303e6     	mov	x6, x19
   7967c: f85483a8     	ldur	x8, [x29, #-0xb8]
   79680: 2a1503fa     	mov	w26, w21
   79684: a975dfb9     	ldp	x25, x23, [x29, #-0xa8]
   79688: aa0303eb     	mov	x11, x3
   7968c: 2a0a03e5     	mov	w5, w10
   79690: a972bfae     	ldp	x14, x15, [x29, #-0xd8]
   79694: aa0903e7     	mov	x7, x9
   79698: aa0803fe     	mov	x30, x8
   7969c: b853c3b6     	ldur	w22, [x29, #-0xc4]
   796a0: f2ded400     	movk	x0, #0xf6a0, lsl #32
   796a4: b85543b4     	ldur	w20, [x29, #-0xac]
   796a8: f2fa3340     	movk	x0, #0xd19a, lsl #48
   796ac: f85403b0     	ldur	x16, [x29, #-0xc0]
   796b0: eb00023f     	cmp	x17, x0
   796b4: b85243ad     	ldur	w13, [x29, #-0xdc]
   796b8: b81d43b6     	stur	w22, [x29, #-0x2c]
   796bc: f85683ac     	ldur	x12, [x29, #-0x98]
   796c0: a93c67b7     	stp	x23, x25, [x29, #-0x40]
   796c4: a93b43ae     	stp	x14, x16, [x29, #-0x50]
   796c8: 293d53ad     	stp	w13, w20, [x29, #-0x18]
   796cc: f81a83af     	stur	x15, [x29, #-0x58]
   796d0: 54ffca20     	b.eq	0x79014 <.text+0x70fa4>
   796d4: d2837824     	mov	x4, #0x1bc1             // =7105
   796d8: d29d7020     	mov	x0, #0xeb81             // =60289
   796dc: f2aaf624     	movk	x4, #0x57b1, lsl #16
   796e0: f2bb0b40     	movk	x0, #0xd85a, lsl #16
   796e4: f2dff2e4     	movk	x4, #0xff97, lsl #32
   796e8: f94073ec     	ldr	x12, [sp, #0xe0]
   796ec: 2a1503fa     	mov	w26, w21
   796f0: aa0103fb     	mov	x27, x1
   796f4: aa0203f8     	mov	x24, x2
   796f8: aa0303eb     	mov	x11, x3
   796fc: 2a0a03e5     	mov	w5, w10
   79700: aa1303e6     	mov	x6, x19
   79704: aa0903e7     	mov	x7, x9
   79708: aa0803fe     	mov	x30, x8
   7970c: f2f4a6a4     	movk	x4, #0xa535, lsl #48
   79710: f2c84120     	movk	x0, #0x4209, lsl #32
   79714: f2fa73c0     	movk	x0, #0xd39e, lsl #48
   79718: b81d43b6     	stur	w22, [x29, #-0x2c]
   7971c: eb00023f     	cmp	x17, x0
   79720: 293d53ad     	stp	w13, w20, [x29, #-0x18]
   79724: a93c67b7     	stp	x23, x25, [x29, #-0x40]
   79728: a93b43ae     	stp	x14, x16, [x29, #-0x50]
   7972c: f81a83af     	stur	x15, [x29, #-0x58]
   79730: 54ffc720     	b.eq	0x79014 <.text+0x70fa4>
   79734: d291ccc8     	mov	x8, #0x8e66             // =36454
   79738: f2b86a88     	movk	x8, #0xc354, lsl #16
   7973c: f2dbf528     	movk	x8, #0xdfa9, lsl #32
   79740: f2fa8ce8     	movk	x8, #0xd467, lsl #48
   79744: eb08023f     	cmp	x17, x8
   79748: 5400a200     	b.eq	0x7ab88 <.text+0x72b18>
   7974c: b853c3a8     	ldur	w8, [x29, #-0xc4]
   79750: d2857f60     	mov	x0, #0x2bfb             // =11259
   79754: f85583aa     	ldur	x10, [x29, #-0xa8]
   79758: f2b08fc0     	movk	x0, #0x847e, lsl #16
   7975c: b85543a9     	ldur	w9, [x29, #-0xac]
   79760: f2db02c0     	movk	x0, #0xd816, lsl #32
   79764: b81d43a8     	stur	w8, [x29, #-0x2c]
   79768: b85743ba     	ldur	w26, [x29, #-0x8c]
   7976c: a97633a8     	ldp	x8, x12, [x29, #-0xa0]
   79770: f2fbd4e0     	movk	x0, #0xdea7, lsl #48
   79774: a977e3bb     	ldp	x27, x24, [x29, #-0x88]
   79778: eb00023f     	cmp	x17, x0
   7977c: a93c2ba8     	stp	x8, x10, [x29, #-0x40]
   79780: b85243a8     	ldur	w8, [x29, #-0xdc]
   79784: a9747baa     	ldp	x10, x30, [x29, #-0xc0]
   79788: 293d27a8     	stp	w8, w9, [x29, #-0x18]
   7978c: f85283a8     	ldur	x8, [x29, #-0xd8]
   79790: a9799fa6     	ldp	x6, x7, [x29, #-0x68]
   79794: a93b2ba8     	stp	x8, x10, [x29, #-0x50]
   79798: f85303a8     	ldur	x8, [x29, #-0xd0]
   7979c: f85883ab     	ldur	x11, [x29, #-0x78]
   797a0: b85943a5     	ldur	w5, [x29, #-0x6c]
   797a4: f9406be4     	ldr	x4, [sp, #0xd0]
   797a8: f81a83a8     	stur	x8, [x29, #-0x58]
   797ac: 54ffc340     	b.eq	0x79014 <.text+0x70fa4>
   797b0: d284e3c8     	mov	x8, #0x271e             // =10014
   797b4: f2ac0688     	movk	x8, #0x6034, lsl #16
   797b8: f2dbb588     	movk	x8, #0xddac, lsl #32
   797bc: f2fc0c48     	movk	x8, #0xe062, lsl #48
   797c0: eb08023f     	cmp	x17, x8
   797c4: 54007380     	b.eq	0x7a634 <.text+0x725c4>
   797c8: b940dfe8     	ldr	w8, [sp, #0xdc]
   797cc: d2800884     	mov	x4, #0x44               // =68
   797d0: f85403b9     	ldur	x25, [x29, #-0xc0]
   797d4: f2b229a4     	movk	x4, #0x914d, lsl #16
   797d8: a9778ba1     	ldp	x1, x2, [x29, #-0x88]
   797dc: b81ec3a8     	stur	w8, [x29, #-0x14]
   797e0: d290e520     	mov	x0, #0x8729             // =34601
   797e4: f94063e8     	ldr	x8, [sp, #0xc0]
   797e8: f2c58384     	movk	x4, #0x2c1c, lsl #32
   797ec: a979a7b3     	ldp	x19, x9, [x29, #-0x68]
   797f0: f2ac7ba0     	movk	x0, #0x63dd, lsl #16
   797f4: aa0103fb     	mov	x27, x1
   797f8: f81c83a8     	stur	x8, [x29, #-0x38]
   797fc: f94067e8     	ldr	x8, [sp, #0xc8]
   79800: f85683b0     	ldur	x16, [x29, #-0x98]
   79804: aa0203f8     	mov	x24, x2
   79808: b85743b5     	ldur	w21, [x29, #-0x8c]
   7980c: aa1303e6     	mov	x6, x19
   79810: a93ba3b9     	stp	x25, x8, [x29, #-0x48]
   79814: f85883a3     	ldur	x3, [x29, #-0x78]
   79818: b85943aa     	ldur	w10, [x29, #-0x6c]
   7981c: aa1003ec     	mov	x12, x16
   79820: f85483a8     	ldur	x8, [x29, #-0xb8]
   79824: 2a1503fa     	mov	w26, w21
   79828: a972bfae     	ldp	x14, x15, [x29, #-0xd8]
   7982c: aa0303eb     	mov	x11, x3
   79830: 2a0a03e5     	mov	w5, w10
   79834: a975dfbc     	ldp	x28, x23, [x29, #-0xa8]
   79838: aa0903e7     	mov	x7, x9
   7983c: aa0803fe     	mov	x30, x8
   79840: b853c3b6     	ldur	w22, [x29, #-0xc4]
   79844: f2f76984     	movk	x4, #0xbb4c, lsl #48
   79848: b85243ad     	ldur	w13, [x29, #-0xdc]
   7984c: f2c12500     	movk	x0, #0x928, lsl #32
   79850: b85543b4     	ldur	w20, [x29, #-0xac]
   79854: f2fc7b80     	movk	x0, #0xe3dc, lsl #48
   79858: eb00023f     	cmp	x17, x0
   7985c: b81d43b6     	stur	w22, [x29, #-0x2c]
   79860: b81e83ad     	stur	w13, [x29, #-0x18]
   79864: a93abbaf     	stp	x15, x14, [x29, #-0x58]
   79868: 54ffbd60     	b.eq	0x79014 <.text+0x70fa4>
   7986c: d29c9764     	mov	x4, #0xe4bb             // =58555
   79870: d29777c0     	mov	x0, #0xbbbe             // =48062
   79874: a94aeff8     	ldp	x24, x27, [sp, #0xa8]
   79878: f2b7ffc4     	movk	x4, #0xbffe, lsl #16
   7987c: f2ace620     	movk	x0, #0x6731, lsl #16
   79880: f2c2cea4     	movk	x4, #0x1675, lsl #32
   79884: aa1003ec     	mov	x12, x16
   79888: b940bffa     	ldr	w26, [sp, #0xbc]
   7988c: aa0303eb     	mov	x11, x3
   79890: 2a0a03e5     	mov	w5, w10
   79894: aa1303e6     	mov	x6, x19
   79898: aa0903e7     	mov	x7, x9
   7989c: aa0803fe     	mov	x30, x8
   798a0: f2ea1724     	movk	x4, #0x50b9, lsl #48
   798a4: f2c643e0     	movk	x0, #0x321f, lsl #32
   798a8: f2fd73a0     	movk	x0, #0xeb9d, lsl #48
   798ac: b81d43b6     	stur	w22, [x29, #-0x2c]
   798b0: eb00023f     	cmp	x17, x0
   798b4: 293d53ad     	stp	w13, w20, [x29, #-0x18]
   798b8: a93c73b7     	stp	x23, x28, [x29, #-0x40]
   798bc: a93b67ae     	stp	x14, x25, [x29, #-0x50]
   798c0: f81a83af     	stur	x15, [x29, #-0x58]
   798c4: 54ffba80     	b.eq	0x79014 <.text+0x70fa4>
   798c8: b85203ab     	ldur	w11, [x29, #-0xe0]
   798cc: d29da224     	mov	x4, #0xed11             // =60689
   798d0: f2b464c4     	movk	x4, #0xa326, lsl #16
   798d4: d2866120     	mov	x0, #0x3309             // =13065
   798d8: f2dc9c04     	movk	x4, #0xe4e0, lsl #32
   798dc: f2b80780     	movk	x0, #0xc03c, lsl #16
   798e0: b81d43ab     	stur	w11, [x29, #-0x2c]
   798e4: aa1003ec     	mov	x12, x16
   798e8: 2a1503fa     	mov	w26, w21
   798ec: aa0103fb     	mov	x27, x1
   798f0: aa0203f8     	mov	x24, x2
   798f4: aa0303eb     	mov	x11, x3
   798f8: 2a0a03e5     	mov	w5, w10
   798fc: aa1303e6     	mov	x6, x19
   79900: aa0903e7     	mov	x7, x9
   79904: aa0803fe     	mov	x30, x8
   79908: f2e3b484     	movk	x4, #0x1da4, lsl #48
   7990c: f2dd7a60     	movk	x0, #0xebd3, lsl #32
   79910: f2fdbb20     	movk	x0, #0xedd9, lsl #48
   79914: 293d53ad     	stp	w13, w20, [x29, #-0x18]
   79918: eb00023f     	cmp	x17, x0
   7991c: a93c73b7     	stp	x23, x28, [x29, #-0x40]
   79920: a93b67ae     	stp	x14, x25, [x29, #-0x50]
   79924: f81a83af     	stur	x15, [x29, #-0x58]
   79928: 54ffb760     	b.eq	0x79014 <.text+0x70fa4>
   7992c: d2837768     	mov	x8, #0x1bbb             // =7099
   79930: f2a41ec8     	movk	x8, #0x20f6, lsl #16
   79934: f2cf3148     	movk	x8, #0x798a, lsl #32
   79938: f2fddb68     	movk	x8, #0xeedb, lsl #48
   7993c: eb08023f     	cmp	x17, x8
   79940: 540096e0     	b.eq	0x7ac1c <.text+0x72bac>
   79944: b853c3a8     	ldur	w8, [x29, #-0xc4]
   79948: d2871524     	mov	x4, #0x38a9             // =14505
   7994c: f85583aa     	ldur	x10, [x29, #-0xa8]
   79950: f2a30fe4     	movk	x4, #0x187f, lsl #16
   79954: b85543a9     	ldur	w9, [x29, #-0xac]
   79958: d29689c0     	mov	x0, #0xb44e             // =46158
   7995c: b81d43a8     	stur	w8, [x29, #-0x2c]
   79960: f2c84764     	movk	x4, #0x423b, lsl #32
   79964: a97633a8     	ldp	x8, x12, [x29, #-0xa0]
   79968: f2af2320     	movk	x0, #0x7919, lsl #16
   7996c: f2e1c8a4     	movk	x4, #0xe45, lsl #48
   79970: a977e3bb     	ldp	x27, x24, [x29, #-0x88]
   79974: f2dd3b80     	movk	x0, #0xe9dc, lsl #32
   79978: a93c2ba8     	stp	x8, x10, [x29, #-0x40]
   7997c: b85243a8     	ldur	w8, [x29, #-0xdc]
   79980: a9747baa     	ldp	x10, x30, [x29, #-0xc0]
   79984: f2fe0680     	movk	x0, #0xf034, lsl #48
   79988: 293d27a8     	stp	w8, w9, [x29, #-0x18]
   7998c: f85283a8     	ldur	x8, [x29, #-0xd8]
   79990: a9799fa6     	ldp	x6, x7, [x29, #-0x68]
   79994: eb00023f     	cmp	x17, x0
   79998: a93b2ba8     	stp	x8, x10, [x29, #-0x50]
   7999c: f85303a8     	ldur	x8, [x29, #-0xd0]
   799a0: b85743ba     	ldur	w26, [x29, #-0x8c]
   799a4: f85883ab     	ldur	x11, [x29, #-0x78]
   799a8: b85943a5     	ldur	w5, [x29, #-0x6c]
   799ac: f81a83a8     	stur	x8, [x29, #-0x58]
   799b0: 54ffb320     	b.eq	0x79014 <.text+0x70fa4>
   799b4: d28e8f28     	mov	x8, #0x7479             // =29817
   799b8: f2aff388     	movk	x8, #0x7f9c, lsl #16
   799bc: f2de7f28     	movk	x8, #0xf3f9, lsl #32
   799c0: f2fe41a8     	movk	x8, #0xf20d, lsl #48
   799c4: eb08023f     	cmp	x17, x8
   799c8: 54009680     	b.eq	0x7ac98 <.text+0x72c28>
   799cc: a9778ba1     	ldp	x1, x2, [x29, #-0x88]
   799d0: d291ccc4     	mov	x4, #0x8e66             // =36454
   799d4: d2957380     	mov	x0, #0xab9c             // =43932
   799d8: a979a7b3     	ldp	x19, x9, [x29, #-0x68]
   799dc: f2b86a84     	movk	x4, #0xc354, lsl #16
   799e0: f2b791a0     	movk	x0, #0xbc8d, lsl #16
   799e4: f85683b0     	ldur	x16, [x29, #-0x98]
   799e8: f2dbf524     	movk	x4, #0xdfa9, lsl #32
   799ec: b85743b5     	ldur	w21, [x29, #-0x8c]
   799f0: aa0103fb     	mov	x27, x1
   799f4: f85883a3     	ldur	x3, [x29, #-0x78]
   799f8: aa0203f8     	mov	x24, x2
   799fc: b85943aa     	ldur	w10, [x29, #-0x6c]
   79a00: aa1003ec     	mov	x12, x16
   79a04: f85483a8     	ldur	x8, [x29, #-0xb8]
   79a08: 2a1503fa     	mov	w26, w21
   79a0c: a975dfbc     	ldp	x28, x23, [x29, #-0xa8]
   79a10: aa0303eb     	mov	x11, x3
   79a14: 2a0a03e5     	mov	w5, w10
   79a18: a972bfae     	ldp	x14, x15, [x29, #-0xd8]
   79a1c: aa1303e6     	mov	x6, x19
   79a20: aa0903e7     	mov	x7, x9
   79a24: b853c3b6     	ldur	w22, [x29, #-0xc4]
   79a28: aa0803fe     	mov	x30, x8
   79a2c: b85543b4     	ldur	w20, [x29, #-0xac]
   79a30: f2fa8ce4     	movk	x4, #0xd467, lsl #48
   79a34: f85403b9     	ldur	x25, [x29, #-0xc0]
   79a38: f2d666e0     	movk	x0, #0xb337, lsl #32
   79a3c: b85243ad     	ldur	w13, [x29, #-0xdc]
   79a40: f2fe7560     	movk	x0, #0xf3ab, lsl #48
   79a44: eb00023f     	cmp	x17, x0
   79a48: b81d43b6     	stur	w22, [x29, #-0x2c]
   79a4c: a93c73b7     	stp	x23, x28, [x29, #-0x40]
   79a50: 293d53ad     	stp	w13, w20, [x29, #-0x18]
   79a54: a93b67ae     	stp	x14, x25, [x29, #-0x50]
   79a58: f81a83af     	stur	x15, [x29, #-0x58]
   79a5c: 54ffadc0     	b.eq	0x79014 <.text+0x70fa4>
   79a60: d2837764     	mov	x4, #0x1bbb             // =7099
   79a64: d29a6860     	mov	x0, #0xd343             // =54083
   79a68: f2a41ec4     	movk	x4, #0x20f6, lsl #16
   79a6c: f2af4880     	movk	x0, #0x7a44, lsl #16
   79a70: f2cf3144     	movk	x4, #0x798a, lsl #32
   79a74: aa1003ec     	mov	x12, x16
   79a78: 2a1503fa     	mov	w26, w21
   79a7c: aa0103fb     	mov	x27, x1
   79a80: aa0203f8     	mov	x24, x2
   79a84: aa0303eb     	mov	x11, x3
   79a88: 2a0a03e5     	mov	w5, w10
   79a8c: aa1303e6     	mov	x6, x19
   79a90: aa0903e7     	mov	x7, x9
   79a94: aa0803fe     	mov	x30, x8
   79a98: f2fddb64     	movk	x4, #0xeedb, lsl #48
   79a9c: f2c0ac40     	movk	x0, #0x562, lsl #32
   79aa0: f2fea260     	movk	x0, #0xf513, lsl #48
   79aa4: b81d43b6     	stur	w22, [x29, #-0x2c]
   79aa8: eb00023f     	cmp	x17, x0
   79aac: 293d53ad     	stp	w13, w20, [x29, #-0x18]
   79ab0: a93c73b7     	stp	x23, x28, [x29, #-0x40]
   79ab4: a93b67ae     	stp	x14, x25, [x29, #-0x50]
   79ab8: f81a83af     	stur	x15, [x29, #-0x58]
   79abc: 54ffaac0     	b.eq	0x79014 <.text+0x70fa4>
   79ac0: d293e444     	mov	x4, #0x9f22             // =40738
   79ac4: d280aae0     	mov	x0, #0x557              // =1367
   79ac8: f2a1bb84     	movk	x4, #0xddc, lsl #16
   79acc: f2ae9100     	movk	x0, #0x7488, lsl #16
   79ad0: f2db2544     	movk	x4, #0xd92a, lsl #32
   79ad4: aa1003ec     	mov	x12, x16
   79ad8: 2a1503fa     	mov	w26, w21
   79adc: aa0103fb     	mov	x27, x1
   79ae0: aa0203f8     	mov	x24, x2
   79ae4: aa0303eb     	mov	x11, x3
   79ae8: 2a0a03e5     	mov	w5, w10
   79aec: aa1303e6     	mov	x6, x19
   79af0: aa0903e7     	mov	x7, x9
   79af4: aa0803fe     	mov	x30, x8
   79af8: f2f26b24     	movk	x4, #0x9359, lsl #48
   79afc: f2d37660     	movk	x0, #0x9bb3, lsl #32
   79b00: f2ff57e0     	movk	x0, #0xfabf, lsl #48
   79b04: b81d43b6     	stur	w22, [x29, #-0x2c]
   79b08: eb00023f     	cmp	x17, x0
   79b0c: 293d53ad     	stp	w13, w20, [x29, #-0x18]
   79b10: a93c73b7     	stp	x23, x28, [x29, #-0x40]
   79b14: a93b67ae     	stp	x14, x25, [x29, #-0x50]
   79b18: f81a83af     	stur	x15, [x29, #-0x58]
   79b1c: 54ffa7c0     	b.eq	0x79014 <.text+0x70fa4>
   79b20: d2976768     	mov	x8, #0xbb3b             // =47931
   79b24: f2b9eb08     	movk	x8, #0xcf58, lsl #16
   79b28: f2d97e48     	movk	x8, #0xcbf2, lsl #32
   79b2c: f2ff5e68     	movk	x8, #0xfaf3, lsl #48
   79b30: eb08023f     	cmp	x17, x8
   79b34: 54008f60     	b.eq	0x7ad20 <.text+0x72cb0>
   79b38: d2889508     	mov	x8, #0x44a8             // =17576
   79b3c: a9799fa6     	ldp	x6, x7, [x29, #-0x68]
   79b40: f2af4f48     	movk	x8, #0x7a7a, lsl #16
   79b44: f2ddfbe8     	movk	x8, #0xefdf, lsl #32
   79b48: f2ff71a8     	movk	x8, #0xfb8d, lsl #48
   79b4c: eb08023f     	cmp	x17, x8
   79b50: 540091c0     	b.eq	0x7ad88 <.text+0x72d18>
   79b54: d2809528     	mov	x8, #0x4a9              // =1193
   79b58: f85483be     	ldur	x30, [x29, #-0xb8]
   79b5c: f2a698e8     	movk	x8, #0x34c7, lsl #16
   79b60: f2d82248     	movk	x8, #0xc112, lsl #32
   79b64: f2ffdfa8     	movk	x8, #0xfefd, lsl #48
   79b68: eb08023f     	cmp	x17, x8
   79b6c: 54009600     	b.eq	0x7ae2c <.text+0x72dbc>
   79b70: d28bc348     	mov	x8, #0x5e1a             // =24090
   79b74: f2a1df48     	movk	x8, #0xefa, lsl #16
   79b78: f2d2bb48     	movk	x8, #0x95da, lsl #32
   79b7c: f2e06968     	movk	x8, #0x34b, lsl #48
   79b80: eb08023f     	cmp	x17, x8
   79b84: 54009980     	b.eq	0x7aeb4 <.text+0x72e44>
   79b88: b853c3a8     	ldur	w8, [x29, #-0xc4]
   79b8c: d2871524     	mov	x4, #0x38a9             // =14505
   79b90: f85583a9     	ldur	x9, [x29, #-0xa8]
   79b94: f2a30fe4     	movk	x4, #0x187f, lsl #16
   79b98: a977e3bb     	ldp	x27, x24, [x29, #-0x88]
   79b9c: b81d43a8     	stur	w8, [x29, #-0x2c]
   79ba0: d286a1a0     	mov	x0, #0x350d             // =13581
   79ba4: b85543a8     	ldur	w8, [x29, #-0xac]
   79ba8: f2c84764     	movk	x4, #0x423b, lsl #32
   79bac: f2b513a0     	movk	x0, #0xa89d, lsl #16
   79bb0: b85743ba     	ldur	w26, [x29, #-0x8c]
   79bb4: f85883ab     	ldur	x11, [x29, #-0x78]
   79bb8: f2e1c8a4     	movk	x4, #0xe45, lsl #48
   79bbc: b81ec3a8     	stur	w8, [x29, #-0x14]
   79bc0: b85943a5     	ldur	w5, [x29, #-0x6c]
   79bc4: a97633a8     	ldp	x8, x12, [x29, #-0xa0]
   79bc8: f2ded500     	movk	x0, #0xf6a8, lsl #32
   79bcc: f2e076e0     	movk	x0, #0x3b7, lsl #48
   79bd0: eb00023f     	cmp	x17, x0
   79bd4: a93c27a8     	stp	x8, x9, [x29, #-0x40]
   79bd8: f85403a8     	ldur	x8, [x29, #-0xc0]
   79bdc: f81b83a8     	stur	x8, [x29, #-0x48]
   79be0: b940a7e8     	ldr	w8, [sp, #0xa4]
   79be4: b81e83a8     	stur	w8, [x29, #-0x18]
   79be8: f9404be8     	ldr	x8, [sp, #0x90]
   79bec: f81b03a8     	stur	x8, [x29, #-0x50]
   79bf0: f9404fe8     	ldr	x8, [sp, #0x98]
   79bf4: f81a83a8     	stur	x8, [x29, #-0x58]
   79bf8: 54ffa0e0     	b.eq	0x79014 <.text+0x70fa4>
   79bfc: d28f5188     	mov	x8, #0x7a8c             // =31372
   79c00: f2a52c48     	movk	x8, #0x2962, lsl #16
   79c04: f2cb2848     	movk	x8, #0x5942, lsl #32
   79c08: f2e08068     	movk	x8, #0x403, lsl #48
   79c0c: eb08023f     	cmp	x17, x8
   79c10: 54009a00     	b.eq	0x7af50 <.text+0x72ee0>
   79c14: a9778ba1     	ldp	x1, x2, [x29, #-0x88]
   79c18: d29774c4     	mov	x4, #0xbba6             // =48038
   79c1c: d291d040     	mov	x0, #0x8e82             // =36482
   79c20: a979a7b3     	ldp	x19, x9, [x29, #-0x68]
   79c24: f2bf2ac4     	movk	x4, #0xf956, lsl #16
   79c28: f2bf3da0     	movk	x0, #0xf9ed, lsl #16
   79c2c: f85683b0     	ldur	x16, [x29, #-0x98]
   79c30: f2d8c8c4     	movk	x4, #0xc646, lsl #32
   79c34: b85743b5     	ldur	w21, [x29, #-0x8c]
   79c38: aa0103fb     	mov	x27, x1
   79c3c: f85883a3     	ldur	x3, [x29, #-0x78]
   79c40: aa0203f8     	mov	x24, x2
   79c44: b85943aa     	ldur	w10, [x29, #-0x6c]
   79c48: aa1003ec     	mov	x12, x16
   79c4c: f85483a8     	ldur	x8, [x29, #-0xb8]
   79c50: 2a1503fa     	mov	w26, w21
   79c54: a975dfbc     	ldp	x28, x23, [x29, #-0xa8]
   79c58: aa0303eb     	mov	x11, x3
   79c5c: 2a0a03e5     	mov	w5, w10
   79c60: a972bfae     	ldp	x14, x15, [x29, #-0xd8]
   79c64: aa1303e6     	mov	x6, x19
   79c68: aa0903e7     	mov	x7, x9
   79c6c: b853c3b6     	ldur	w22, [x29, #-0xc4]
   79c70: aa0803fe     	mov	x30, x8
   79c74: b85543b4     	ldur	w20, [x29, #-0xac]
   79c78: f2ecf2e4     	movk	x4, #0x6797, lsl #48
   79c7c: f85403b9     	ldur	x25, [x29, #-0xc0]
   79c80: f2c55bc0     	movk	x0, #0x2ade, lsl #32
   79c84: b85243ad     	ldur	w13, [x29, #-0xdc]
   79c88: f2e0a340     	movk	x0, #0x51a, lsl #48
   79c8c: eb00023f     	cmp	x17, x0
   79c90: b81d43b6     	stur	w22, [x29, #-0x2c]
   79c94: a93c73b7     	stp	x23, x28, [x29, #-0x40]
   79c98: 293d53ad     	stp	w13, w20, [x29, #-0x18]
   79c9c: a93b67ae     	stp	x14, x25, [x29, #-0x50]
   79ca0: f81a83af     	stur	x15, [x29, #-0x58]
   79ca4: 54ff9b80     	b.eq	0x79014 <.text+0x70fa4>
   79ca8: d29c0ea4     	mov	x4, #0xe075             // =57461
   79cac: d29a75a0     	mov	x0, #0xd3ad             // =54189
   79cb0: f2a88ca4     	movk	x4, #0x4465, lsl #16
   79cb4: f2b06fa0     	movk	x0, #0x837d, lsl #16
   79cb8: f2cfa984     	movk	x4, #0x7d4c, lsl #32
   79cbc: aa1003ec     	mov	x12, x16
   79cc0: 2a1503fa     	mov	w26, w21
   79cc4: aa0103fb     	mov	x27, x1
   79cc8: aa0203f8     	mov	x24, x2
   79ccc: aa0303eb     	mov	x11, x3
   79cd0: 2a0a03e5     	mov	w5, w10
   79cd4: aa1303e6     	mov	x6, x19
   79cd8: aa0903e7     	mov	x7, x9
   79cdc: aa0803fe     	mov	x30, x8
   79ce0: f2e14624     	movk	x4, #0xa31, lsl #48
   79ce4: f2d720a0     	movk	x0, #0xb905, lsl #32
   79ce8: f2e0d900     	movk	x0, #0x6c8, lsl #48
   79cec: b81d43b6     	stur	w22, [x29, #-0x2c]
   79cf0: eb00023f     	cmp	x17, x0
   79cf4: 293d53ad     	stp	w13, w20, [x29, #-0x18]
   79cf8: a93c73b7     	stp	x23, x28, [x29, #-0x40]
   79cfc: a93b67ae     	stp	x14, x25, [x29, #-0x50]
   79d00: f81a83af     	stur	x15, [x29, #-0x58]
   79d04: 54ff9880     	b.eq	0x79014 <.text+0x70fa4>
   79d08: d29c0ea8     	mov	x8, #0xe075             // =57461
   79d0c: f2a88ca8     	movk	x8, #0x4465, lsl #16
   79d10: f2cfa988     	movk	x8, #0x7d4c, lsl #32
   79d14: f2e14628     	movk	x8, #0xa31, lsl #48
   79d18: eb08023f     	cmp	x17, x8
   79d1c: 540095c0     	b.eq	0x7afd4 <.text+0x72f64>
   79d20: d2940a88     	mov	x8, #0xa054             // =41044
   79d24: f85483be     	ldur	x30, [x29, #-0xb8]
   79d28: a9799fa6     	ldp	x6, x7, [x29, #-0x68]
   79d2c: f2a953e8     	movk	x8, #0x4a9f, lsl #16
   79d30: f2d38968     	movk	x8, #0x9c4b, lsl #32
   79d34: f2e19208     	movk	x8, #0xc90, lsl #48
   79d38: eb08023f     	cmp	x17, x8
   79d3c: 540097e0     	b.eq	0x7b038 <.text+0x72fc8>
   79d40: d2871528     	mov	x8, #0x38a9             // =14505
   79d44: f2a30fe8     	movk	x8, #0x187f, lsl #16
   79d48: f2c84768     	movk	x8, #0x423b, lsl #32
   79d4c: f2e1c8a8     	movk	x8, #0xe45, lsl #48
   79d50: eb08023f     	cmp	x17, x8
   79d54: 54009920     	b.eq	0x7b078 <.text+0x73008>
   79d58: b85203a8     	ldur	w8, [x29, #-0xe0]
   79d5c: d29da224     	mov	x4, #0xed11             // =60689
   79d60: f85583aa     	ldur	x10, [x29, #-0xa8]
   79d64: f2b464c4     	movk	x4, #0xa326, lsl #16
   79d68: b85543a9     	ldur	w9, [x29, #-0xac]
   79d6c: d280a680     	mov	x0, #0x534              // =1332
   79d70: b81d43a8     	stur	w8, [x29, #-0x2c]
   79d74: f2dc9c04     	movk	x4, #0xe4e0, lsl #32
   79d78: a97633a8     	ldp	x8, x12, [x29, #-0xa0]
   79d7c: f2b585c0     	movk	x0, #0xac2e, lsl #16
   79d80: f2e3b484     	movk	x4, #0x1da4, lsl #48
   79d84: a977e3bb     	ldp	x27, x24, [x29, #-0x88]
   79d88: f2d3e1e0     	movk	x0, #0x9f0f, lsl #32
   79d8c: a93c2ba8     	stp	x8, x10, [x29, #-0x40]
   79d90: b85243a8     	ldur	w8, [x29, #-0xdc]
   79d94: f85403aa     	ldur	x10, [x29, #-0xc0]
   79d98: f2e21880     	movk	x0, #0x10c4, lsl #48
   79d9c: b85743ba     	ldur	w26, [x29, #-0x8c]
   79da0: eb00023f     	cmp	x17, x0
   79da4: 293d27a8     	stp	w8, w9, [x29, #-0x18]
   79da8: f85283a8     	ldur	x8, [x29, #-0xd8]
   79dac: f85883ab     	ldur	x11, [x29, #-0x78]
   79db0: b85943a5     	ldur	w5, [x29, #-0x6c]
   79db4: a93b2ba8     	stp	x8, x10, [x29, #-0x50]
   79db8: f85303a8     	ldur	x8, [x29, #-0xd0]
   79dbc: f81a83a8     	stur	x8, [x29, #-0x58]
   79dc0: 54ff92a0     	b.eq	0x79014 <.text+0x70fa4>
   79dc4: d2985fc8     	mov	x8, #0xc2fe             // =49918
   79dc8: f2b8c708     	movk	x8, #0xc638, lsl #16
   79dcc: f2d03a68     	movk	x8, #0x81d3, lsl #32
   79dd0: f2e272a8     	movk	x8, #0x1395, lsl #48
   79dd4: eb08023f     	cmp	x17, x8
   79dd8: 54009800     	b.eq	0x7b0d8 <.text+0x73068>
   79ddc: d29a68e8     	mov	x8, #0xd347             // =54087
   79de0: f85483be     	ldur	x30, [x29, #-0xb8]
   79de4: a9799fa6     	ldp	x6, x7, [x29, #-0x68]
   79de8: f2ae1448     	movk	x8, #0x70a2, lsl #16
   79dec: f2c40868     	movk	x8, #0x2043, lsl #32
   79df0: f2e2e1c8     	movk	x8, #0x170e, lsl #48
   79df4: eb08023f     	cmp	x17, x8
   79df8: 54009c20     	b.eq	0x7b17c <.text+0x7310c>
   79dfc: b853c3a8     	ldur	w8, [x29, #-0xc4]
   79e00: d29369a4     	mov	x4, #0x9b4d             // =39757
   79e04: f85583aa     	ldur	x10, [x29, #-0xa8]
   79e08: f2af4b44     	movk	x4, #0x7a5a, lsl #16
   79e0c: b85543a9     	ldur	w9, [x29, #-0xac]
   79e10: d28e8f60     	mov	x0, #0x747b             // =29819
   79e14: b81d43a8     	stur	w8, [x29, #-0x2c]
   79e18: f2d9d024     	movk	x4, #0xce81, lsl #32
   79e1c: a97633a8     	ldp	x8, x12, [x29, #-0xa0]
   79e20: f2bcd840     	movk	x0, #0xe6c2, lsl #16
   79e24: f2e38de4     	movk	x4, #0x1c6f, lsl #48
   79e28: a977e3bb     	ldp	x27, x24, [x29, #-0x88]
   79e2c: f2c95540     	movk	x0, #0x4aaa, lsl #32
   79e30: a93c2ba8     	stp	x8, x10, [x29, #-0x40]
   79e34: b85243a8     	ldur	w8, [x29, #-0xdc]
   79e38: f85403aa     	ldur	x10, [x29, #-0xc0]
   79e3c: f2e31380     	movk	x0, #0x189c, lsl #48
   79e40: b85743ba     	ldur	w26, [x29, #-0x8c]
   79e44: eb00023f     	cmp	x17, x0
   79e48: 293d27a8     	stp	w8, w9, [x29, #-0x18]
   79e4c: f85283a8     	ldur	x8, [x29, #-0xd8]
   79e50: f85883ab     	ldur	x11, [x29, #-0x78]
   79e54: b85943a5     	ldur	w5, [x29, #-0x6c]
   79e58: a93b2ba8     	stp	x8, x10, [x29, #-0x50]
   79e5c: f85303a8     	ldur	x8, [x29, #-0xd0]
   79e60: f81a83a8     	stur	x8, [x29, #-0x58]
   79e64: 54ff8d80     	b.eq	0x79014 <.text+0x70fa4>
   79e68: d291e488     	mov	x8, #0x8f24             // =36644
   79e6c: f2be4668     	movk	x8, #0xf233, lsl #16
   79e70: f2cedc08     	movk	x8, #0x76e0, lsl #32
   79e74: f2e38b88     	movk	x8, #0x1c5c, lsl #48
   79e78: eb08023f     	cmp	x17, x8
   79e7c: 54009be0     	b.eq	0x7b1f8 <.text+0x73188>
   79e80: d29369a8     	mov	x8, #0x9b4d             // =39757
   79e84: f85483be     	ldur	x30, [x29, #-0xb8]
   79e88: a9799fb3     	ldp	x19, x7, [x29, #-0x68]
   79e8c: f2af4b48     	movk	x8, #0x7a5a, lsl #16
   79e90: f2d9d028     	movk	x8, #0xce81, lsl #32
   79e94: b85943a0     	ldur	w0, [x29, #-0x6c]
   79e98: f85883a6     	ldur	x6, [x29, #-0x78]
   79e9c: f2e38de8     	movk	x8, #0x1c6f, lsl #48
   79ea0: eb08023f     	cmp	x17, x8
   79ea4: 54009f00     	b.eq	0x7b284 <.text+0x73214>
   79ea8: d29b0188     	mov	x8, #0xd80c             // =55308
   79eac: f2b94348     	movk	x8, #0xca1a, lsl #16
   79eb0: f2d03388     	movk	x8, #0x819c, lsl #32
   79eb4: f2e3ebc8     	movk	x8, #0x1f5e, lsl #48
   79eb8: eb08023f     	cmp	x17, x8
   79ebc: 5400a280     	b.eq	0x7b30c <.text+0x7329c>
   79ec0: d29b3f08     	mov	x8, #0xd9f8             // =55800
   79ec4: f2b54088     	movk	x8, #0xaa04, lsl #16
   79ec8: f2c2dac8     	movk	x8, #0x16d6, lsl #32
   79ecc: f2e435c8     	movk	x8, #0x21ae, lsl #48
   79ed0: eb08023f     	cmp	x17, x8
   79ed4: 5400a5a0     	b.eq	0x7b388 <.text+0x73318>
   79ed8: d29dcb68     	mov	x8, #0xee5b             // =61019
   79edc: f2b4a208     	movk	x8, #0xa510, lsl #16
   79ee0: f2d88268     	movk	x8, #0xc413, lsl #32
   79ee4: f2e44228     	movk	x8, #0x2211, lsl #48
   79ee8: eb08023f     	cmp	x17, x8
   79eec: 5400a800     	b.eq	0x7b3ec <.text+0x7337c>
   79ef0: d281a908     	mov	x8, #0xd48              // =3400
   79ef4: f2a960e8     	movk	x8, #0x4b07, lsl #16
   79ef8: f2d2f8e8     	movk	x8, #0x97c7, lsl #32
   79efc: f2e57548     	movk	x8, #0x2baa, lsl #48
   79f00: eb08023f     	cmp	x17, x8
   79f04: 5400aa40     	b.eq	0x7b44c <.text+0x733dc>
   79f08: a9778ba1     	ldp	x1, x2, [x29, #-0x88]
   79f0c: d294d184     	mov	x4, #0xa68c             // =42636
   79f10: 2a0003e5     	mov	w5, w0
   79f14: f85683b0     	ldur	x16, [x29, #-0x98]
   79f18: 2a0003ea     	mov	w10, w0
   79f1c: b85743b5     	ldur	w21, [x29, #-0x8c]
   79f20: f2bd9524     	movk	x4, #0xeca9, lsl #16
   79f24: a975dfbc     	ldp	x28, x23, [x29, #-0xa8]
   79f28: d2937ec0     	mov	x0, #0x9bf6             // =39926
   79f2c: f2d315c4     	movk	x4, #0x98ae, lsl #32
   79f30: a972bfae     	ldp	x14, x15, [x29, #-0xd8]
   79f34: f2bea7c0     	movk	x0, #0xf53e, lsl #16
   79f38: aa1003ec     	mov	x12, x16
   79f3c: b853c3b6     	ldur	w22, [x29, #-0xc4]
   79f40: 2a1503fa     	mov	w26, w21
   79f44: b85543b4     	ldur	w20, [x29, #-0xac]
   79f48: aa0103fb     	mov	x27, x1
   79f4c: f85403b9     	ldur	x25, [x29, #-0xc0]
   79f50: aa0203f8     	mov	x24, x2
   79f54: b85243ad     	ldur	w13, [x29, #-0xdc]
   79f58: aa0603eb     	mov	x11, x6
   79f5c: aa0603e3     	mov	x3, x6
   79f60: aa1303e6     	mov	x6, x19
   79f64: f2f414c4     	movk	x4, #0xa0a6, lsl #48
   79f68: f2ce78c0     	movk	x0, #0x73c6, lsl #32
   79f6c: f2e588a0     	movk	x0, #0x2c45, lsl #48
   79f70: b81d43b6     	stur	w22, [x29, #-0x2c]
   79f74: eb00023f     	cmp	x17, x0
   79f78: a93c73b7     	stp	x23, x28, [x29, #-0x40]
   79f7c: 293d53ad     	stp	w13, w20, [x29, #-0x18]
   79f80: a93b67ae     	stp	x14, x25, [x29, #-0x50]
   79f84: f81a83af     	stur	x15, [x29, #-0x58]
   79f88: 54ff8460     	b.eq	0x79014 <.text+0x70fa4>
   79f8c: d291e484     	mov	x4, #0x8f24             // =36644
   79f90: d29403e0     	mov	x0, #0xa01f             // =40991
   79f94: f2be4664     	movk	x4, #0xf233, lsl #16
   79f98: f2b1ec60     	movk	x0, #0x8f63, lsl #16
   79f9c: f2cedc04     	movk	x4, #0x76e0, lsl #32
   79fa0: aa0703e9     	mov	x9, x7
   79fa4: aa1e03e8     	mov	x8, x30
   79fa8: aa1003ec     	mov	x12, x16
   79fac: 2a1503fa     	mov	w26, w21
   79fb0: aa0103fb     	mov	x27, x1
   79fb4: aa0203f8     	mov	x24, x2
   79fb8: aa0303eb     	mov	x11, x3
   79fbc: 2a0a03e5     	mov	w5, w10
   79fc0: aa1303e6     	mov	x6, x19
   79fc4: f94047fe     	ldr	x30, [sp, #0x88]
   79fc8: f2e38b84     	movk	x4, #0x1c5c, lsl #48
   79fcc: f2c22860     	movk	x0, #0x1143, lsl #32
   79fd0: b81d43b6     	stur	w22, [x29, #-0x2c]
   79fd4: f2e5e040     	movk	x0, #0x2f02, lsl #48
   79fd8: 293d53ad     	stp	w13, w20, [x29, #-0x18]
   79fdc: eb00023f     	cmp	x17, x0
   79fe0: a93c73b7     	stp	x23, x28, [x29, #-0x40]
   79fe4: a93b67ae     	stp	x14, x25, [x29, #-0x50]
   79fe8: f81a83af     	stur	x15, [x29, #-0x58]
   79fec: 54ff8140     	b.eq	0x79014 <.text+0x70fa4>
   79ff0: d28bc344     	mov	x4, #0x5e1a             // =24090
   79ff4: d28dbc20     	mov	x0, #0x6de1             // =28129
   79ff8: f2a1df44     	movk	x4, #0xefa, lsl #16
   79ffc: f2a4ba60     	movk	x0, #0x25d3, lsl #16
   7a000: f2d2bb44     	movk	x4, #0x95da, lsl #32
   7a004: aa1003ec     	mov	x12, x16
   7a008: 2a1503fa     	mov	w26, w21
   7a00c: aa0103fb     	mov	x27, x1
   7a010: aa0203f8     	mov	x24, x2
   7a014: aa0303eb     	mov	x11, x3
   7a018: 2a0a03e5     	mov	w5, w10
   7a01c: aa1303e6     	mov	x6, x19
   7a020: aa0903e7     	mov	x7, x9
   7a024: aa0803fe     	mov	x30, x8
   7a028: f2e06964     	movk	x4, #0x34b, lsl #48
   7a02c: f2dcfd60     	movk	x0, #0xe7eb, lsl #32
   7a030: f2e731e0     	movk	x0, #0x398f, lsl #48
   7a034: b81d43b6     	stur	w22, [x29, #-0x2c]
   7a038: eb00023f     	cmp	x17, x0
   7a03c: 293d53ad     	stp	w13, w20, [x29, #-0x18]
   7a040: a93c73b7     	stp	x23, x28, [x29, #-0x40]
   7a044: a93b67ae     	stp	x14, x25, [x29, #-0x50]
   7a048: f81a83af     	stur	x15, [x29, #-0x58]
   7a04c: 54ff7e40     	b.eq	0x79014 <.text+0x70fa4>
   7a050: d297c1e8     	mov	x8, #0xbe0f             // =48655
   7a054: f2aa9848     	movk	x8, #0x54c2, lsl #16
   7a058: f2d877c8     	movk	x8, #0xc3be, lsl #32
   7a05c: f2e77588     	movk	x8, #0x3bac, lsl #48
   7a060: eb08023f     	cmp	x17, x8
   7a064: 5400a300     	b.eq	0x7b4c4 <.text+0x73454>
   7a068: a972bfae     	ldp	x14, x15, [x29, #-0xd8]
   7a06c: d291ccc4     	mov	x4, #0x8e66             // =36454
   7a070: d28c7c40     	mov	x0, #0x63e2             // =25570
   7a074: f85403a8     	ldur	x8, [x29, #-0xc0]
   7a078: f2b86a84     	movk	x4, #0xc354, lsl #16
   7a07c: a9778ba1     	ldp	x1, x2, [x29, #-0x88]
   7a080: f2dbf524     	movk	x4, #0xdfa9, lsl #32
   7a084: f2a4fa20     	movk	x0, #0x27d1, lsl #16
   7a088: a979a7b3     	ldp	x19, x9, [x29, #-0x68]
   7a08c: a93b23ae     	stp	x14, x8, [x29, #-0x50]
   7a090: f2fa8ce4     	movk	x4, #0xd467, lsl #48
   7a094: f85683b0     	ldur	x16, [x29, #-0x98]
   7a098: aa0103fb     	mov	x27, x1
   7a09c: b85743b5     	ldur	w21, [x29, #-0x8c]
   7a0a0: aa0203f8     	mov	x24, x2
   7a0a4: f85883a3     	ldur	x3, [x29, #-0x78]
   7a0a8: aa1303e6     	mov	x6, x19
   7a0ac: b85943aa     	ldur	w10, [x29, #-0x6c]
   7a0b0: aa1003ec     	mov	x12, x16
   7a0b4: f85483a8     	ldur	x8, [x29, #-0xb8]
   7a0b8: 2a1503fa     	mov	w26, w21
   7a0bc: a975dfb9     	ldp	x25, x23, [x29, #-0xa8]
   7a0c0: aa0303eb     	mov	x11, x3
   7a0c4: 2a0a03e5     	mov	w5, w10
   7a0c8: b853c3b6     	ldur	w22, [x29, #-0xc4]
   7a0cc: aa0903e7     	mov	x7, x9
   7a0d0: b85543b4     	ldur	w20, [x29, #-0xac]
   7a0d4: aa0803fe     	mov	x30, x8
   7a0d8: b85243ad     	ldur	w13, [x29, #-0xdc]
   7a0dc: f2c2e9e0     	movk	x0, #0x174f, lsl #32
   7a0e0: f2e78260     	movk	x0, #0x3c13, lsl #48
   7a0e4: b81d43b6     	stur	w22, [x29, #-0x2c]
   7a0e8: eb00023f     	cmp	x17, x0
   7a0ec: a93c67b7     	stp	x23, x25, [x29, #-0x40]
   7a0f0: 293d53ad     	stp	w13, w20, [x29, #-0x18]
   7a0f4: f81a83af     	stur	x15, [x29, #-0x58]
   7a0f8: 54ff78e0     	b.eq	0x79014 <.text+0x70fa4>
   7a0fc: f94043eb     	ldr	x11, [sp, #0x80]
   7a100: d2809524     	mov	x4, #0x4a9              // =1193
   7a104: f2a698e4     	movk	x4, #0x34c7, lsl #16
   7a108: d29cd800     	mov	x0, #0xe6c0             // =59072
   7a10c: f2d82244     	movk	x4, #0xc112, lsl #32
   7a110: f2af8ca0     	movk	x0, #0x7c65, lsl #16
   7a114: a93b2fae     	stp	x14, x11, [x29, #-0x50]
   7a118: aa1003ec     	mov	x12, x16
   7a11c: 2a1503fa     	mov	w26, w21
   7a120: aa0103fb     	mov	x27, x1
   7a124: aa0203f8     	mov	x24, x2
   7a128: aa0303eb     	mov	x11, x3
   7a12c: 2a0a03e5     	mov	w5, w10
   7a130: aa1303e6     	mov	x6, x19
   7a134: aa0903e7     	mov	x7, x9
   7a138: aa0803fe     	mov	x30, x8
   7a13c: f2ffdfa4     	movk	x4, #0xfefd, lsl #48
   7a140: f2c9bfa0     	movk	x0, #0x4dfd, lsl #32
   7a144: f2e7c600     	movk	x0, #0x3e30, lsl #48
   7a148: b81d43b6     	stur	w22, [x29, #-0x2c]
   7a14c: eb00023f     	cmp	x17, x0
   7a150: b81ec3b4     	stur	w20, [x29, #-0x14]
   7a154: a93c67b7     	stp	x23, x25, [x29, #-0x40]
   7a158: b81e83ad     	stur	w13, [x29, #-0x18]
   7a15c: f81a83af     	stur	x15, [x29, #-0x58]
   7a160: 54ff75a0     	b.eq	0x79014 <.text+0x70fa4>
   7a164: d2944888     	mov	x8, #0xa244             // =41540
   7a168: f2b53c68     	movk	x8, #0xa9e3, lsl #16
   7a16c: f2cec648     	movk	x8, #0x7632, lsl #32
   7a170: f2e94908     	movk	x8, #0x4a48, lsl #48
   7a174: eb08023f     	cmp	x17, x8
   7a178: 54009e60     	b.eq	0x7b544 <.text+0x734d4>
   7a17c: d29352e8     	mov	x8, #0x9a97             // =39575
   7a180: f85483be     	ldur	x30, [x29, #-0xb8]
   7a184: a9799fa6     	ldp	x6, x7, [x29, #-0x68]
   7a188: f2bd3928     	movk	x8, #0xe9c9, lsl #16
   7a18c: f2df2788     	movk	x8, #0xf93c, lsl #32
   7a190: f2e9f128     	movk	x8, #0x4f89, lsl #48
   7a194: eb08023f     	cmp	x17, x8
   7a198: 5400a140     	b.eq	0x7b5c0 <.text+0x73550>
   7a19c: d29c9768     	mov	x8, #0xe4bb             // =58555
   7a1a0: f2b7ffc8     	movk	x8, #0xbffe, lsl #16
   7a1a4: f2c2cea8     	movk	x8, #0x1675, lsl #32
   7a1a8: f2ea1728     	movk	x8, #0x50b9, lsl #48
   7a1ac: eb08023f     	cmp	x17, x8
   7a1b0: 5400a620     	b.eq	0x7b674 <.text+0x73604>
   7a1b4: b853c3a8     	ldur	w8, [x29, #-0xc4]
   7a1b8: d2889504     	mov	x4, #0x44a8             // =17576
   7a1bc: f85583aa     	ldur	x10, [x29, #-0xa8]
   7a1c0: f2af4f44     	movk	x4, #0x7a7a, lsl #16
   7a1c4: b85543a9     	ldur	w9, [x29, #-0xac]
   7a1c8: d29587e0     	mov	x0, #0xac3f             // =44095
   7a1cc: b81d43a8     	stur	w8, [x29, #-0x2c]
   7a1d0: f2ddfbe4     	movk	x4, #0xefdf, lsl #32
   7a1d4: a97633a8     	ldp	x8, x12, [x29, #-0xa0]
   7a1d8: f2abc7e0     	movk	x0, #0x5e3f, lsl #16
   7a1dc: f2ff71a4     	movk	x4, #0xfb8d, lsl #48
   7a1e0: a977e3bb     	ldp	x27, x24, [x29, #-0x88]
   7a1e4: f2d90980     	movk	x0, #0xc84c, lsl #32
   7a1e8: a93c2ba8     	stp	x8, x10, [x29, #-0x40]
   7a1ec: b85243a8     	ldur	w8, [x29, #-0xdc]
   7a1f0: f85403aa     	ldur	x10, [x29, #-0xc0]
   7a1f4: f2ea62c0     	movk	x0, #0x5316, lsl #48
   7a1f8: b85743ba     	ldur	w26, [x29, #-0x8c]
   7a1fc: eb00023f     	cmp	x17, x0
   7a200: 293d27a8     	stp	w8, w9, [x29, #-0x18]
   7a204: f85283a8     	ldur	x8, [x29, #-0xd8]
   7a208: f85883ab     	ldur	x11, [x29, #-0x78]
   7a20c: b85943a5     	ldur	w5, [x29, #-0x6c]
   7a210: a93b2ba8     	stp	x8, x10, [x29, #-0x50]
   7a214: f85303a8     	ldur	x8, [x29, #-0xd0]
   7a218: f81a83a8     	stur	x8, [x29, #-0x58]
   7a21c: 54ff6fc0     	b.eq	0x79014 <.text+0x70fa4>
   7a220: d2937f28     	mov	x8, #0x9bf9             // =39929
   7a224: f2b70de8     	movk	x8, #0xb86f, lsl #16
   7a228: f2d566a8     	movk	x8, #0xab35, lsl #32
   7a22c: f2ea87c8     	movk	x8, #0x543e, lsl #48
   7a230: eb08023f     	cmp	x17, x8
   7a234: 5400a700     	b.eq	0x7b714 <.text+0x736a4>
   7a238: a9778ba1     	ldp	x1, x2, [x29, #-0x88]
   7a23c: d29de2a4     	mov	x4, #0xef15             // =61205
   7a240: d2961aa0     	mov	x0, #0xb0d5             // =45269
   7a244: a979a7b3     	ldp	x19, x9, [x29, #-0x68]
   7a248: f2b13ae4     	movk	x4, #0x89d7, lsl #16
   7a24c: f2b07940     	movk	x0, #0x83ca, lsl #16
   7a250: f85683b0     	ldur	x16, [x29, #-0x98]
   7a254: f2c881e4     	movk	x4, #0x440f, lsl #32
   7a258: b85743b5     	ldur	w21, [x29, #-0x8c]
   7a25c: aa0103fb     	mov	x27, x1
   7a260: f85883a3     	ldur	x3, [x29, #-0x78]
   7a264: aa0203f8     	mov	x24, x2
   7a268: b85943aa     	ldur	w10, [x29, #-0x6c]
   7a26c: aa1003ec     	mov	x12, x16
   7a270: f85483a8     	ldur	x8, [x29, #-0xb8]
   7a274: 2a1503fa     	mov	w26, w21
   7a278: a975dfbc     	ldp	x28, x23, [x29, #-0xa8]
   7a27c: aa0303eb     	mov	x11, x3
   7a280: 2a0a03e5     	mov	w5, w10
   7a284: a972bfae     	ldp	x14, x15, [x29, #-0xd8]
   7a288: aa1303e6     	mov	x6, x19
   7a28c: aa0903e7     	mov	x7, x9
   7a290: b853c3b6     	ldur	w22, [x29, #-0xc4]
   7a294: aa0803fe     	mov	x30, x8
   7a298: b85543b4     	ldur	w20, [x29, #-0xac]
   7a29c: f2f203a4     	movk	x4, #0x901d, lsl #48
   7a2a0: f85403b9     	ldur	x25, [x29, #-0xc0]
   7a2a4: f2dd2ce0     	movk	x0, #0xe967, lsl #32
   7a2a8: b85243ad     	ldur	w13, [x29, #-0xdc]
   7a2ac: f2ead100     	movk	x0, #0x5688, lsl #48
   7a2b0: eb00023f     	cmp	x17, x0
   7a2b4: b81d43b6     	stur	w22, [x29, #-0x2c]
   7a2b8: a93c73b7     	stp	x23, x28, [x29, #-0x40]
   7a2bc: 293d53ad     	stp	w13, w20, [x29, #-0x18]
   7a2c0: a93b67ae     	stp	x14, x25, [x29, #-0x50]
   7a2c4: f81a83af     	stur	x15, [x29, #-0x58]
   7a2c8: 54ff6a60     	b.eq	0x79014 <.text+0x70fa4>
   7a2cc: d28546c4     	mov	x4, #0x2a36             // =10806
   7a2d0: d2927300     	mov	x0, #0x9398             // =37784
   7a2d4: f2a9da44     	movk	x4, #0x4ed2, lsl #16
   7a2d8: f2b35b80     	movk	x0, #0x9adc, lsl #16
   7a2dc: f2ceb924     	movk	x4, #0x75c9, lsl #32
   7a2e0: aa1003ec     	mov	x12, x16
   7a2e4: 2a1503fa     	mov	w26, w21
   7a2e8: aa0103fb     	mov	x27, x1
   7a2ec: aa0203f8     	mov	x24, x2
   7a2f0: aa0303eb     	mov	x11, x3
   7a2f4: 2a0a03e5     	mov	w5, w10
   7a2f8: aa1303e6     	mov	x6, x19
   7a2fc: aa0903e7     	mov	x7, x9
   7a300: aa0803fe     	mov	x30, x8
   7a304: f2f92924     	movk	x4, #0xc949, lsl #48
   7a308: f2c9f820     	movk	x0, #0x4fc1, lsl #32
   7a30c: f2eae920     	movk	x0, #0x5749, lsl #48
   7a310: b81d43b6     	stur	w22, [x29, #-0x2c]
   7a314: eb00023f     	cmp	x17, x0
   7a318: 293d53ad     	stp	w13, w20, [x29, #-0x18]
   7a31c: a93c73b7     	stp	x23, x28, [x29, #-0x40]
   7a320: a93b67ae     	stp	x14, x25, [x29, #-0x50]
   7a324: f81a83af     	stur	x15, [x29, #-0x58]
   7a328: 54ff6760     	b.eq	0x79014 <.text+0x70fa4>
   7a32c: d29341c4     	mov	x4, #0x9a0e             // =39438
   7a330: d28428e0     	mov	x0, #0x2147             // =8519
   7a334: f2a7dae4     	movk	x4, #0x3ed7, lsl #16
   7a338: f2a28f60     	movk	x0, #0x147b, lsl #16
   7a33c: f2c80744     	movk	x4, #0x403a, lsl #32
   7a340: aa1003ec     	mov	x12, x16
   7a344: 2a1503fa     	mov	w26, w21
   7a348: aa0103fb     	mov	x27, x1
   7a34c: aa0203f8     	mov	x24, x2
   7a350: f9403feb     	ldr	x11, [sp, #0x78]
   7a354: 2a0a03e5     	mov	w5, w10
   7a358: aa1303e6     	mov	x6, x19
   7a35c: aa0903e7     	mov	x7, x9
   7a360: aa0803fe     	mov	x30, x8
   7a364: f2f9e284     	movk	x4, #0xcf14, lsl #48
   7a368: f2d25200     	movk	x0, #0x9290, lsl #32
   7a36c: f2ebe840     	movk	x0, #0x5f42, lsl #48
   7a370: b81d43b6     	stur	w22, [x29, #-0x2c]
   7a374: eb00023f     	cmp	x17, x0
   7a378: 293d53ad     	stp	w13, w20, [x29, #-0x18]
   7a37c: a93c73b7     	stp	x23, x28, [x29, #-0x40]
   7a380: a93b67ae     	stp	x14, x25, [x29, #-0x50]
   7a384: f81a83af     	stur	x15, [x29, #-0x58]
   7a388: 54ff6460     	b.eq	0x79014 <.text+0x70fa4>
   7a38c: d29a68e4     	mov	x4, #0xd347             // =54087
   7a390: d289eae0     	mov	x0, #0x4f57             // =20311
   7a394: f2ae1444     	movk	x4, #0x70a2, lsl #16
   7a398: f2ba35c0     	movk	x0, #0xd1ae, lsl #16
   7a39c: f2c40864     	movk	x4, #0x2043, lsl #32
   7a3a0: aa1003ec     	mov	x12, x16
   7a3a4: 2a1503fa     	mov	w26, w21
   7a3a8: aa0103fb     	mov	x27, x1
   7a3ac: aa0203f8     	mov	x24, x2
   7a3b0: aa0303eb     	mov	x11, x3
   7a3b4: 2a0a03e5     	mov	w5, w10
   7a3b8: aa1303e6     	mov	x6, x19
   7a3bc: aa0903e7     	mov	x7, x9
   7a3c0: aa0803fe     	mov	x30, x8
   7a3c4: f2e2e1c4     	movk	x4, #0x170e, lsl #48
   7a3c8: f2d31e80     	movk	x0, #0x98f4, lsl #32
   7a3cc: f2ebf6c0     	movk	x0, #0x5fb6, lsl #48
   7a3d0: b81d43b6     	stur	w22, [x29, #-0x2c]
   7a3d4: eb00023f     	cmp	x17, x0
   7a3d8: 293d53ad     	stp	w13, w20, [x29, #-0x18]
   7a3dc: a93c73b7     	stp	x23, x28, [x29, #-0x40]
   7a3e0: a93b67ae     	stp	x14, x25, [x29, #-0x50]
   7a3e4: f81a83af     	stur	x15, [x29, #-0x58]
   7a3e8: 54ff6160     	b.eq	0x79014 <.text+0x70fa4>
   7a3ec: d28edc68     	mov	x8, #0x76e3             // =30435
   7a3f0: f2ad9de8     	movk	x8, #0x6cef, lsl #16
   7a3f4: f2d13268     	movk	x8, #0x8993, lsl #32
   7a3f8: f2ec5848     	movk	x8, #0x62c2, lsl #48
   7a3fc: eb08023f     	cmp	x17, x8
   7a400: 540011a0     	b.eq	0x7a634 <.text+0x725c4>
   7a404: d29774c8     	mov	x8, #0xbba6             // =48038
   7a408: f85483be     	ldur	x30, [x29, #-0xb8]
   7a40c: a9799fa6     	ldp	x6, x7, [x29, #-0x68]
   7a410: f2bf2ac8     	movk	x8, #0xf956, lsl #16
   7a414: f2d8c8c8     	movk	x8, #0xc646, lsl #32
   7a418: f2ecf2e8     	movk	x8, #0x6797, lsl #48
   7a41c: eb08023f     	cmp	x17, x8
   7a420: 54009d40     	b.eq	0x7b7c8 <.text+0x73758>
   7a424: d2884668     	mov	x8, #0x4233             // =16947
   7a428: f2a2bb28     	movk	x8, #0x15d9, lsl #16
   7a42c: f2c46508     	movk	x8, #0x2328, lsl #32
   7a430: f2ed4528     	movk	x8, #0x6a29, lsl #48
   7a434: eb08023f     	cmp	x17, x8
   7a438: 5400a060     	b.eq	0x7b844 <.text+0x737d4>
   7a43c: d2835b68     	mov	x8, #0x1adb             // =6875
   7a440: f2a80ac8     	movk	x8, #0x4056, lsl #16
   7a444: f2ca8468     	movk	x8, #0x5423, lsl #32
   7a448: f2ed4c28     	movk	x8, #0x6a61, lsl #48
   7a44c: eb08023f     	cmp	x17, x8
   7a450: 5400a380     	b.eq	0x7b8c0 <.text+0x73850>
   7a454: b853c3a8     	ldur	w8, [x29, #-0xc4]
   7a458: d29c9764     	mov	x4, #0xe4bb             // =58555
   7a45c: f85583aa     	ldur	x10, [x29, #-0xa8]
   7a460: f2b7ffc4     	movk	x4, #0xbffe, lsl #16
   7a464: b85543a9     	ldur	w9, [x29, #-0xac]
   7a468: d2954400     	mov	x0, #0xaa20             // =43552
   7a46c: b81d43a8     	stur	w8, [x29, #-0x2c]
   7a470: f2c2cea4     	movk	x4, #0x1675, lsl #32
   7a474: a97633a8     	ldp	x8, x12, [x29, #-0xa0]
   7a478: f2a60220     	movk	x0, #0x3011, lsl #16
   7a47c: f2ea1724     	movk	x4, #0x50b9, lsl #48
   7a480: a977e3bb     	ldp	x27, x24, [x29, #-0x88]
   7a484: f2d0ee80     	movk	x0, #0x8774, lsl #32
   7a488: a93c2ba8     	stp	x8, x10, [x29, #-0x40]
   7a48c: b85243a8     	ldur	w8, [x29, #-0xdc]
   7a490: f85403aa     	ldur	x10, [x29, #-0xc0]
   7a494: f2edbca0     	movk	x0, #0x6de5, lsl #48
   7a498: b85743ba     	ldur	w26, [x29, #-0x8c]
   7a49c: eb00023f     	cmp	x17, x0
   7a4a0: 293d27a8     	stp	w8, w9, [x29, #-0x18]
   7a4a4: f85283a8     	ldur	x8, [x29, #-0xd8]
   7a4a8: f85883ab     	ldur	x11, [x29, #-0x78]
   7a4ac: b85943a5     	ldur	w5, [x29, #-0x6c]
   7a4b0: a93b2ba8     	stp	x8, x10, [x29, #-0x50]
   7a4b4: f85303a8     	ldur	x8, [x29, #-0xd0]
   7a4b8: f81a83a8     	stur	x8, [x29, #-0x58]
   7a4bc: 54ff5ac0     	b.eq	0x79014 <.text+0x70fa4>
   7a4c0: d2942e88     	mov	x8, #0xa174             // =41332
   7a4c4: f2b4bd68     	movk	x8, #0xa5eb, lsl #16
   7a4c8: f2dfe468     	movk	x8, #0xff23, lsl #32
   7a4cc: f2ee61a8     	movk	x8, #0x730d, lsl #48
   7a4d0: eb08023f     	cmp	x17, x8
   7a4d4: 5400a300     	b.eq	0x7b934 <.text+0x738c4>
   7a4d8: d299d208     	mov	x8, #0xce90             // =52880
   7a4dc: b85943a0     	ldur	w0, [x29, #-0x6c]
   7a4e0: a9747bb9     	ldp	x25, x30, [x29, #-0xc0]
   7a4e4: f2a6c5c8     	movk	x8, #0x362e, lsl #16
   7a4e8: a9799fb3     	ldp	x19, x7, [x29, #-0x68]
   7a4ec: f2dd1de8     	movk	x8, #0xe8ef, lsl #32
   7a4f0: a9778ba1     	ldp	x1, x2, [x29, #-0x88]
   7a4f4: f2eeda28     	movk	x8, #0x76d1, lsl #48
   7a4f8: a97643b7     	ldp	x23, x16, [x29, #-0xa0]
   7a4fc: eb08023f     	cmp	x17, x8
   7a500: a972bfae     	ldp	x14, x15, [x29, #-0xd8]
   7a504: b85743b5     	ldur	w21, [x29, #-0x8c]
   7a508: b85243ad     	ldur	w13, [x29, #-0xdc]
   7a50c: f85583bc     	ldur	x28, [x29, #-0xa8]
   7a510: b85543b4     	ldur	w20, [x29, #-0xac]
   7a514: b853c3b6     	ldur	w22, [x29, #-0xc4]
   7a518: 5400a4a0     	b.eq	0x7b9ac <.text+0x7393c>
   7a51c: d29341c4     	mov	x4, #0x9a0e             // =39438
   7a520: 2a0003e5     	mov	w5, w0
   7a524: 2a0003ea     	mov	w10, w0
   7a528: f2a7dae4     	movk	x4, #0x3ed7, lsl #16
   7a52c: d2936820     	mov	x0, #0x9b41             // =39745
   7a530: f2c80744     	movk	x4, #0x403a, lsl #32
   7a534: f2a23fc0     	movk	x0, #0x11fe, lsl #16
   7a538: aa1003ec     	mov	x12, x16
   7a53c: 2a1503fa     	mov	w26, w21
   7a540: aa0103fb     	mov	x27, x1
   7a544: aa0203f8     	mov	x24, x2
   7a548: f94073eb     	ldr	x11, [sp, #0xe0]
   7a54c: aa1303e6     	mov	x6, x19
   7a550: f2f9e284     	movk	x4, #0xcf14, lsl #48
   7a554: f2c85560     	movk	x0, #0x42ab, lsl #32
   7a558: f85883a3     	ldur	x3, [x29, #-0x78]
   7a55c: f2eedc60     	movk	x0, #0x76e3, lsl #48
   7a560: b81d43b6     	stur	w22, [x29, #-0x2c]
   7a564: eb00023f     	cmp	x17, x0
   7a568: 293d53ad     	stp	w13, w20, [x29, #-0x18]
   7a56c: a93c73b7     	stp	x23, x28, [x29, #-0x40]
   7a570: a93b67ae     	stp	x14, x25, [x29, #-0x50]
   7a574: f81a83af     	stur	x15, [x29, #-0x58]
   7a578: 54ff54e0     	b.eq	0x79014 <.text+0x70fa4>
   7a57c: d2837824     	mov	x4, #0x1bc1             // =7105
   7a580: d2803ec0     	mov	x0, #0x1f6              // =502
   7a584: f2aaf624     	movk	x4, #0x57b1, lsl #16
   7a588: f2a380a0     	movk	x0, #0x1c05, lsl #16
   7a58c: f2dff2e4     	movk	x4, #0xff97, lsl #32
   7a590: aa0703e9     	mov	x9, x7
   7a594: aa1e03e8     	mov	x8, x30
   7a598: f94033ec     	ldr	x12, [sp, #0x60]
   7a59c: 2a1503fa     	mov	w26, w21
   7a5a0: aa0103fb     	mov	x27, x1
   7a5a4: aa0203f8     	mov	x24, x2
   7a5a8: aa0303eb     	mov	x11, x3
   7a5ac: 2a0a03e5     	mov	w5, w10
   7a5b0: aa1303e6     	mov	x6, x19
   7a5b4: f2f4a6a4     	movk	x4, #0xa535, lsl #48
   7a5b8: f2d565c0     	movk	x0, #0xab2e, lsl #32
   7a5bc: f2efdaa0     	movk	x0, #0x7ed5, lsl #48
   7a5c0: b81d43b6     	stur	w22, [x29, #-0x2c]
   7a5c4: eb00023f     	cmp	x17, x0
   7a5c8: 293d53ad     	stp	w13, w20, [x29, #-0x18]
   7a5cc: a93c73b7     	stp	x23, x28, [x29, #-0x40]
   7a5d0: a93b67ae     	stp	x14, x25, [x29, #-0x50]
   7a5d4: f81a83af     	stur	x15, [x29, #-0x58]
   7a5d8: 54ff51e0     	b.eq	0x79014 <.text+0x70fa4>
   7a5dc: d29da220     	mov	x0, #0xed11             // =60689
   7a5e0: aa1003ec     	mov	x12, x16
   7a5e4: f2b464c0     	movk	x0, #0xa326, lsl #16
   7a5e8: 2a1503fa     	mov	w26, w21
   7a5ec: aa0103fb     	mov	x27, x1
   7a5f0: aa0203f8     	mov	x24, x2
   7a5f4: aa0303eb     	mov	x11, x3
   7a5f8: 2a0a03e5     	mov	w5, w10
   7a5fc: aa1303e6     	mov	x6, x19
   7a600: aa0903e7     	mov	x7, x9
   7a604: aa0803fe     	mov	x30, x8
   7a608: aa1103e4     	mov	x4, x17
   7a60c: f2dc9c00     	movk	x0, #0xe4e0, lsl #32
   7a610: b81d43b6     	stur	w22, [x29, #-0x2c]
   7a614: f2e3b480     	movk	x0, #0x1da4, lsl #48
   7a618: 293d53ad     	stp	w13, w20, [x29, #-0x18]
   7a61c: eb00023f     	cmp	x17, x0
   7a620: a93c73b7     	stp	x23, x28, [x29, #-0x40]
   7a624: a93b67ae     	stp	x14, x25, [x29, #-0x50]
   7a628: f81a83af     	stur	x15, [x29, #-0x58]
   7a62c: 54ff4f41     	b.ne	0x79014 <.text+0x70fa4>
   7a630: 14000500     	b	0x7ba30 <.text+0x739c0>
   7a634: a97633a8     	ldp	x8, x12, [x29, #-0xa0]
   7a638: d29da224     	mov	x4, #0xed11             // =60689
   7a63c: b81d43bf     	stur	wzr, [x29, #-0x2c]
   7a640: f85583aa     	ldur	x10, [x29, #-0xa8]
   7a644: f2b464c4     	movk	x4, #0xa326, lsl #16
   7a648: b85543a9     	ldur	w9, [x29, #-0xac]
   7a64c: f2dc9c04     	movk	x4, #0xe4e0, lsl #32
   7a650: a977e3bb     	ldp	x27, x24, [x29, #-0x88]
   7a654: a93c2ba8     	stp	x8, x10, [x29, #-0x40]
   7a658: f2e3b484     	movk	x4, #0x1da4, lsl #48
   7a65c: b85243a8     	ldur	w8, [x29, #-0xdc]
   7a660: a9747baa     	ldp	x10, x30, [x29, #-0xc0]
   7a664: 293d27a8     	stp	w8, w9, [x29, #-0x18]
   7a668: f85283a8     	ldur	x8, [x29, #-0xd8]
   7a66c: a9799fa6     	ldp	x6, x7, [x29, #-0x68]
   7a670: a93b2ba8     	stp	x8, x10, [x29, #-0x50]
   7a674: f85303a8     	ldur	x8, [x29, #-0xd0]
   7a678: b85743ba     	ldur	w26, [x29, #-0x8c]
   7a67c: f85883ab     	ldur	x11, [x29, #-0x78]
   7a680: b85943a5     	ldur	w5, [x29, #-0x6c]
   7a684: f81a83a8     	stur	x8, [x29, #-0x58]
   7a688: 17fffa63     	b	0x79014 <.text+0x70fa4>
   7a68c: b9400be8     	ldr	w8, [sp, #0x8]
   7a690: f94017e9     	ldr	x9, [sp, #0x28]
   7a694: f85583aa     	ldur	x10, [x29, #-0xa8]
   7a698: b811c3a8     	stur	w8, [x29, #-0xe4]
   7a69c: d503201f     	nop
   7a6a0: 10650a88     	adr	x8, 0x1447f0
   7a6a4: b85743ba     	ldur	w26, [x29, #-0x8c]
   7a6a8: a977e3bb     	ldp	x27, x24, [x29, #-0x88]
   7a6ac: a90ea7e8     	stp	x8, x9, [sp, #0xe8]
   7a6b0: b853c3a8     	ldur	w8, [x29, #-0xc4]
   7a6b4: b85543a9     	ldur	w9, [x29, #-0xac]
   7a6b8: a9799fa6     	ldp	x6, x7, [x29, #-0x68]
   7a6bc: b81d43a8     	stur	w8, [x29, #-0x2c]
   7a6c0: a97633a8     	ldp	x8, x12, [x29, #-0xa0]
   7a6c4: f85883ab     	ldur	x11, [x29, #-0x78]
   7a6c8: b85943a5     	ldur	w5, [x29, #-0x6c]
   7a6cc: a93c2ba8     	stp	x8, x10, [x29, #-0x40]
   7a6d0: b85243a8     	ldur	w8, [x29, #-0xdc]
   7a6d4: f85403aa     	ldur	x10, [x29, #-0xc0]
   7a6d8: 293d27a8     	stp	w8, w9, [x29, #-0x18]
   7a6dc: f85283a8     	ldur	x8, [x29, #-0xd8]
   7a6e0: a93b2ba8     	stp	x8, x10, [x29, #-0x50]
   7a6e4: 14000390     	b	0x7b524 <.text+0x734b4>
   7a6e8: 2a1f03e0     	mov	w0, wzr
   7a6ec: 52800021     	mov	w1, #0x1                // =1
   7a6f0: d503201f     	nop
   7a6f4: 1065d9c2     	adr	x2, 0x14622c
   7a6f8: 9402fc42     	bl	0x139800 <Java_com_adjust_sdk_sig_NativeLibHelper_nSign+0x6d1fc>
   7a6fc: b853c3a8     	ldur	w8, [x29, #-0xc4]
   7a700: d2961aab     	mov	x11, #0xb0d5            // =45269
   7a704: d29b182c     	mov	x12, #0xd8c1            // =55489
   7a708: f2b0794b     	movk	x11, #0x83ca, lsl #16
   7a70c: f2a9e98c     	movk	x12, #0x4f4c, lsl #16
   7a710: f2dd2ceb     	movk	x11, #0xe967, lsl #32
   7a714: b81d43a8     	stur	w8, [x29, #-0x2c]
   7a718: b85543a8     	ldur	w8, [x29, #-0xac]
   7a71c: f2df60cc     	movk	x12, #0xfb06, lsl #32
   7a720: 7100001f     	cmp	w0, #0x0
   7a724: f2ead10b     	movk	x11, #0x5688, lsl #48
   7a728: f2f3690c     	movk	x12, #0x9b48, lsl #48
   7a72c: 140000bf     	b	0x7aa28 <.text+0x729b8>
   7a730: b94057ec     	ldr	w12, [sp, #0x54]
   7a734: b94077eb     	ldr	w11, [sp, #0x74]
   7a738: 51016d88     	sub	w8, w12, #0x5b
   7a73c: 321b0189     	orr	w9, w12, #0x20
   7a740: 51016d6a     	sub	w10, w11, #0x5b
   7a744: 3100691f     	cmn	w8, #0x1a
   7a748: 1a893189     	csel	w9, w12, w9, lo
   7a74c: 3100695f     	cmn	w10, #0x1a
   7a750: f9402fea     	ldr	x10, [sp, #0x58]
   7a754: 321b0168     	orr	w8, w11, #0x20
   7a758: 1a883168     	csel	w8, w11, w8, lo
   7a75c: 6b08013f     	cmp	w9, w8
   7a760: d29403e9     	mov	x9, #0xa01f             // =40991
   7a764: 9100054a     	add	x10, x10, #0x1
   7a768: f2b1ec69     	movk	x9, #0x8f63, lsl #16
   7a76c: f2c22869     	movk	x9, #0x1143, lsl #32
   7a770: b853c3a8     	ldur	w8, [x29, #-0xc4]
   7a774: f2e5e049     	movk	x9, #0x2f02, lsl #48
   7a778: f90047ea     	str	x10, [sp, #0x88]
   7a77c: d29a75aa     	mov	x10, #0xd3ad            // =54189
   7a780: f2b06faa     	movk	x10, #0x837d, lsl #16
   7a784: b81d43a8     	stur	w8, [x29, #-0x2c]
   7a788: f2d720aa     	movk	x10, #0xb905, lsl #32
   7a78c: f2e0d90a     	movk	x10, #0x6c8, lsl #48
   7a790: 9a890144     	csel	x4, x10, x9, eq
   7a794: 14000116     	b	0x7abec <.text+0x72b7c>
   7a798: b9406fe8     	ldr	w8, [sp, #0x6c]
   7a79c: d28f592a     	mov	x10, #0x7ac9            // =31433
   7a7a0: b85743ba     	ldur	w26, [x29, #-0x8c]
   7a7a4: d2892c6b     	mov	x11, #0x4963            // =18787
   7a7a8: f2b36cca     	movk	x10, #0x9b66, lsl #16
   7a7ac: f2b152cb     	movk	x11, #0x8a96, lsl #16
   7a7b0: f2c842aa     	movk	x10, #0x4215, lsl #32
   7a7b4: f2cdf52b     	movk	x11, #0x6fa9, lsl #32
   7a7b8: 6b08035f     	cmp	w26, w8
   7a7bc: b853c3a8     	ldur	w8, [x29, #-0xc4]
   7a7c0: f2f8df8a     	movk	x10, #0xc6fc, lsl #48
   7a7c4: f2f31ccb     	movk	x11, #0x98e6, lsl #48
   7a7c8: 9a8a0164     	csel	x4, x11, x10, eq
   7a7cc: f85583aa     	ldur	x10, [x29, #-0xa8]
   7a7d0: b81d43a8     	stur	w8, [x29, #-0x2c]
   7a7d4: b85543a9     	ldur	w9, [x29, #-0xac]
   7a7d8: a97633a8     	ldp	x8, x12, [x29, #-0xa0]
   7a7dc: a93c2ba8     	stp	x8, x10, [x29, #-0x40]
   7a7e0: b85243a8     	ldur	w8, [x29, #-0xdc]
   7a7e4: f85403aa     	ldur	x10, [x29, #-0xc0]
   7a7e8: 293d27a8     	stp	w8, w9, [x29, #-0x18]
   7a7ec: f85283a8     	ldur	x8, [x29, #-0xd8]
   7a7f0: a93b2ba8     	stp	x8, x10, [x29, #-0x50]
   7a7f4: f85303a8     	ldur	x8, [x29, #-0xd0]
   7a7f8: 1400042d     	b	0x7b8ac <.text+0x7383c>
   7a7fc: 90000668     	adrp	x8, 0x146000
   7a800: f85583aa     	ldur	x10, [x29, #-0xa8]
   7a804: b85543a9     	ldur	w9, [x29, #-0xac]
   7a808: d2937f2f     	mov	x15, #0x9bf9            // =39929
   7a80c: d29587f0     	mov	x16, #0xac3f            // =44095
   7a810: f2b70def     	movk	x15, #0xb86f, lsl #16
   7a814: 3959010e     	ldrb	w14, [x8, #0x640]
   7a818: f2abc7f0     	movk	x16, #0x5e3f, lsl #16
   7a81c: b853c3a8     	ldur	w8, [x29, #-0xc4]
   7a820: f2d566af     	movk	x15, #0xab35, lsl #32
   7a824: f2d90990     	movk	x16, #0xc84c, lsl #32
   7a828: f2ea87cf     	movk	x15, #0x543e, lsl #48
   7a82c: 710001df     	cmp	w14, #0x0
   7a830: f2ea62d0     	movk	x16, #0x5316, lsl #48
   7a834: 140001d5     	b	0x7af88 <.text+0x72f18>
   7a838: 90000668     	adrp	x8, 0x146000
   7a83c: f85583aa     	ldur	x10, [x29, #-0xa8]
   7a840: b85543a9     	ldur	w9, [x29, #-0xac]
   7a844: d2985fcf     	mov	x15, #0xc2fe            // =49918
   7a848: d28dbc30     	mov	x16, #0x6de1            // =28129
   7a84c: f2b8c70f     	movk	x15, #0xc638, lsl #16
   7a850: 3958fd0e     	ldrb	w14, [x8, #0x63f]
   7a854: f2a4ba70     	movk	x16, #0x25d3, lsl #16
   7a858: b853c3a8     	ldur	w8, [x29, #-0xc4]
   7a85c: f2d03a6f     	movk	x15, #0x81d3, lsl #32
   7a860: f2dcfd70     	movk	x16, #0xe7eb, lsl #32
   7a864: f2e272af     	movk	x15, #0x1395, lsl #48
   7a868: 710001df     	cmp	w14, #0x0
   7a86c: f2e731f0     	movk	x16, #0x398f, lsl #48
   7a870: b81d43a8     	stur	w8, [x29, #-0x2c]
   7a874: f85603a8     	ldur	x8, [x29, #-0xa0]
   7a878: 9a8f1204     	csel	x4, x16, x15, ne
   7a87c: a93c2ba8     	stp	x8, x10, [x29, #-0x40]
   7a880: b85243a8     	ldur	w8, [x29, #-0xdc]
   7a884: f85403aa     	ldur	x10, [x29, #-0xc0]
   7a888: 293d27a8     	stp	w8, w9, [x29, #-0x18]
   7a88c: f85283a8     	ldur	x8, [x29, #-0xd8]
   7a890: a93b2ba8     	stp	x8, x10, [x29, #-0x50]
   7a894: 14000403     	b	0x7b8a0 <.text+0x73830>
   7a898: a975a7aa     	ldp	x10, x9, [x29, #-0xa8]
   7a89c: d290e524     	mov	x4, #0x8729             // =34601
   7a8a0: f85403ab     	ldur	x11, [x29, #-0xc0]
   7a8a4: f2ac7ba4     	movk	x4, #0x63dd, lsl #16
   7a8a8: a977e3bb     	ldp	x27, x24, [x29, #-0x88]
   7a8ac: aa0a03ed     	mov	x13, x10
   7a8b0: f2c12504     	movk	x4, #0x928, lsl #32
   7a8b4: 91000528     	add	x8, x9, #0x1
   7a8b8: b85743ba     	ldur	w26, [x29, #-0x8c]
   7a8bc: b85943a5     	ldur	w5, [x29, #-0x6c]
   7a8c0: a93c2ba9     	stp	x9, x10, [x29, #-0x40]
   7a8c4: 38401dac     	ldrb	w12, [x13, #0x1]!
   7a8c8: f90067e8     	str	x8, [sp, #0xc8]
   7a8cc: b853c3a8     	ldur	w8, [x29, #-0xc4]
   7a8d0: f90063ed     	str	x13, [sp, #0xc0]
   7a8d4: f2fc7b84     	movk	x4, #0xe3dc, lsl #48
   7a8d8: b900dfec     	str	w12, [sp, #0xdc]
   7a8dc: f85683ac     	ldur	x12, [x29, #-0x98]
   7a8e0: b81d43a8     	stur	w8, [x29, #-0x2c]
   7a8e4: b85543a8     	ldur	w8, [x29, #-0xac]
   7a8e8: b81ec3a8     	stur	w8, [x29, #-0x14]
   7a8ec: b85243a8     	ldur	w8, [x29, #-0xdc]
   7a8f0: b81e83a8     	stur	w8, [x29, #-0x18]
   7a8f4: f85283a8     	ldur	x8, [x29, #-0xd8]
   7a8f8: a93b2fa8     	stp	x8, x11, [x29, #-0x50]
   7a8fc: f85303a8     	ldur	x8, [x29, #-0xd0]
   7a900: f85883ab     	ldur	x11, [x29, #-0x78]
   7a904: f81a83a8     	stur	x8, [x29, #-0x58]
   7a908: 17fff9c3     	b	0x79014 <.text+0x70fa4>
   7a90c: b853c3a9     	ldur	w9, [x29, #-0xc4]
   7a910: d29b018f     	mov	x15, #0xd80c            // =55308
   7a914: f85583ab     	ldur	x11, [x29, #-0xa8]
   7a918: d28edc70     	mov	x16, #0x76e3            // =30435
   7a91c: f85683a8     	ldur	x8, [x29, #-0x98]
   7a920: f2b9434f     	movk	x15, #0xca1a, lsl #16
   7a924: b81d43a9     	stur	w9, [x29, #-0x2c]
   7a928: f85603a9     	ldur	x9, [x29, #-0xa0]
   7a92c: b85543aa     	ldur	w10, [x29, #-0xac]
   7a930: f2ad9df0     	movk	x16, #0x6cef, lsl #16
   7a934: 3940010e     	ldrb	w14, [x8]
   7a938: f2d0338f     	movk	x15, #0x819c, lsl #32
   7a93c: a93c2fa9     	stp	x9, x11, [x29, #-0x40]
   7a940: f85403a9     	ldur	x9, [x29, #-0xc0]
   7a944: f2d13270     	movk	x16, #0x8993, lsl #32
   7a948: f2e3ebcf     	movk	x15, #0x1f5e, lsl #48
   7a94c: 710001df     	cmp	w14, #0x0
   7a950: f2ec5850     	movk	x16, #0x62c2, lsl #48
   7a954: f81b83a9     	stur	x9, [x29, #-0x48]
   7a958: b85243a9     	ldur	w9, [x29, #-0xdc]
   7a95c: b9000fee     	str	w14, [sp, #0xc]
   7a960: 9a8f0204     	csel	x4, x16, x15, eq
   7a964: aa0803ec     	mov	x12, x8
   7a968: f9001fe8     	str	x8, [sp, #0x38]
   7a96c: 293d2ba9     	stp	w9, w10, [x29, #-0x18]
   7a970: f85283aa     	ldur	x10, [x29, #-0xd8]
   7a974: f85303a9     	ldur	x9, [x29, #-0xd0]
   7a978: a93aaba9     	stp	x9, x10, [x29, #-0x58]
   7a97c: 1400018f     	b	0x7afb8 <.text+0x72f48>
   7a980: b94047ec     	ldr	w12, [sp, #0x44]
   7a984: b94073eb     	ldr	w11, [sp, #0x70]
   7a988: 51016d88     	sub	w8, w12, #0x5b
   7a98c: 321b0189     	orr	w9, w12, #0x20
   7a990: 51016d6a     	sub	w10, w11, #0x5b
   7a994: 3100691f     	cmn	w8, #0x1a
   7a998: 321b0168     	orr	w8, w11, #0x20
   7a99c: 1a893189     	csel	w9, w12, w9, lo
   7a9a0: 3100695f     	cmn	w10, #0x1a
   7a9a4: 1a88316a     	csel	w10, w11, w8, lo
   7a9a8: b853c3a8     	ldur	w8, [x29, #-0xc4]
   7a9ac: 6b0a013f     	cmp	w9, w10
   7a9b0: d287288a     	mov	x10, #0x3944            // =14660
   7a9b4: d295738b     	mov	x11, #0xab9c            // =43932
   7a9b8: f2a23c4a     	movk	x10, #0x11e2, lsl #16
   7a9bc: b81d43a8     	stur	w8, [x29, #-0x2c]
   7a9c0: b85543a8     	ldur	w8, [x29, #-0xac]
   7a9c4: f2b791ab     	movk	x11, #0xbc8d, lsl #16
   7a9c8: f2c37b4a     	movk	x10, #0x1bda, lsl #32
   7a9cc: f2d666eb     	movk	x11, #0xb337, lsl #32
   7a9d0: f2f4412a     	movk	x10, #0xa209, lsl #48
   7a9d4: f2fe756b     	movk	x11, #0xf3ab, lsl #48
   7a9d8: b81ec3a8     	stur	w8, [x29, #-0x14]
   7a9dc: 9a8b0144     	csel	x4, x10, x11, eq
   7a9e0: 14000085     	b	0x7abf4 <.text+0x72b84>
   7a9e4: 2a1f03e0     	mov	w0, wzr
   7a9e8: 52800021     	mov	w1, #0x1                // =1
   7a9ec: d503201f     	nop
   7a9f0: 1065c182     	adr	x2, 0x146220
   7a9f4: 9402fb83     	bl	0x139800 <Java_com_adjust_sdk_sig_NativeLibHelper_nSign+0x6d1fc>
   7a9f8: b853c3a8     	ldur	w8, [x29, #-0xc4]
   7a9fc: d282168b     	mov	x11, #0x10b4            // =4276
   7aa00: d28f518c     	mov	x12, #0x7a8c            // =31372
   7aa04: f2a15d4b     	movk	x11, #0xaea, lsl #16
   7aa08: f2a52c4c     	movk	x12, #0x2962, lsl #16
   7aa0c: f2c27e2b     	movk	x11, #0x13f1, lsl #32
   7aa10: b81d43a8     	stur	w8, [x29, #-0x2c]
   7aa14: b85543a8     	ldur	w8, [x29, #-0xac]
   7aa18: f2cb284c     	movk	x12, #0x5942, lsl #32
   7aa1c: f2f0c96b     	movk	x11, #0x864b, lsl #48
   7aa20: f2e0806c     	movk	x12, #0x403, lsl #48
   7aa24: 7100001f     	cmp	w0, #0x0
   7aa28: b81ec3a8     	stur	w8, [x29, #-0x14]
   7aa2c: f85583a8     	ldur	x8, [x29, #-0xa8]
   7aa30: f81c83a8     	stur	x8, [x29, #-0x38]
   7aa34: 9a8b0184     	csel	x4, x12, x11, eq
   7aa38: 14000071     	b	0x7abfc <.text+0x72b8c>
   7aa3c: b94037ec     	ldr	w12, [sp, #0x34]
   7aa40: b9406feb     	ldr	w11, [sp, #0x6c]
   7aa44: 51016d88     	sub	w8, w12, #0x5b
   7aa48: 321b0189     	orr	w9, w12, #0x20
   7aa4c: 51016d6a     	sub	w10, w11, #0x5b
   7aa50: 3100691f     	cmn	w8, #0x1a
   7aa54: 321b0168     	orr	w8, w11, #0x20
   7aa58: 1a893189     	csel	w9, w12, w9, lo
   7aa5c: 3100695f     	cmn	w10, #0x1a
   7aa60: 1a88316a     	csel	w10, w11, w8, lo
   7aa64: b853c3a8     	ldur	w8, [x29, #-0xc4]
   7aa68: 6b0a013f     	cmp	w9, w10
   7aa6c: d28f1e0a     	mov	x10, #0x78f0            // =30960
   7aa70: d29a686b     	mov	x11, #0xd343            // =54083
   7aa74: f2b627ca     	movk	x10, #0xb13e, lsl #16
   7aa78: b81d43a8     	stur	w8, [x29, #-0x2c]
   7aa7c: b85543a8     	ldur	w8, [x29, #-0xac]
   7aa80: f2af488b     	movk	x11, #0x7a44, lsl #16
   7aa84: f2c86b6a     	movk	x10, #0x435b, lsl #32
   7aa88: f2c0ac4b     	movk	x11, #0x562, lsl #32
   7aa8c: f2f5a7ea     	movk	x10, #0xad3f, lsl #48
   7aa90: f2fea26b     	movk	x11, #0xf513, lsl #48
   7aa94: b81ec3a8     	stur	w8, [x29, #-0x14]
   7aa98: 9a8a0164     	csel	x4, x11, x10, eq
   7aa9c: 14000056     	b	0x7abf4 <.text+0x72b84>
   7aaa0: b94027ec     	ldr	w12, [sp, #0x24]
   7aaa4: b9406beb     	ldr	w11, [sp, #0x68]
   7aaa8: 51016d88     	sub	w8, w12, #0x5b
   7aaac: 321b0189     	orr	w9, w12, #0x20
   7aab0: 51016d6a     	sub	w10, w11, #0x5b
   7aab4: 3100691f     	cmn	w8, #0x1a
   7aab8: 1a893189     	csel	w9, w12, w9, lo
   7aabc: 3100695f     	cmn	w10, #0x1a
   7aac0: f94017ea     	ldr	x10, [sp, #0x28]
   7aac4: 321b0168     	orr	w8, w11, #0x20
   7aac8: 1a883168     	csel	w8, w11, w8, lo
   7aacc: 6b08013f     	cmp	w9, w8
   7aad0: d29cd809     	mov	x9, #0xe6c0             // =59072
   7aad4: 9100054a     	add	x10, x10, #0x1
   7aad8: b853c3a8     	ldur	w8, [x29, #-0xc4]
   7aadc: f2af8ca9     	movk	x9, #0x7c65, lsl #16
   7aae0: f2c9bfa9     	movk	x9, #0x4dfd, lsl #32
   7aae4: f90043ea     	str	x10, [sp, #0x80]
   7aae8: d286612a     	mov	x10, #0x3309            // =13065
   7aaec: f2b8078a     	movk	x10, #0xc03c, lsl #16
   7aaf0: f2e7c609     	movk	x9, #0x3e30, lsl #48
   7aaf4: f2dd7a6a     	movk	x10, #0xebd3, lsl #32
   7aaf8: b81d43a8     	stur	w8, [x29, #-0x2c]
   7aafc: f2fdbb2a     	movk	x10, #0xedd9, lsl #48
   7ab00: 9a890144     	csel	x4, x10, x9, eq
   7ab04: 140001b7     	b	0x7b1e0 <.text+0x73170>
   7ab08: b853c3a9     	ldur	w9, [x29, #-0xc4]
   7ab0c: d2835b6e     	mov	x14, #0x1adb            // =6875
   7ab10: f85583a8     	ldur	x8, [x29, #-0xa8]
   7ab14: d29d702f     	mov	x15, #0xeb81            // =60289
   7ab18: f85883ab     	ldur	x11, [x29, #-0x78]
   7ab1c: f2a80ace     	movk	x14, #0x4056, lsl #16
   7ab20: b81d43a9     	stur	w9, [x29, #-0x2c]
   7ab24: b85543a9     	ldur	w9, [x29, #-0xac]
   7ab28: a977e3bb     	ldp	x27, x24, [x29, #-0x88]
   7ab2c: f2bb0b4f     	movk	x15, #0xd85a, lsl #16
   7ab30: f2ca846e     	movk	x14, #0x5423, lsl #32
   7ab34: b81ec3a9     	stur	w9, [x29, #-0x14]
   7ab38: f85603a9     	ldur	x9, [x29, #-0xa0]
   7ab3c: 3940016d     	ldrb	w13, [x11]
   7ab40: f2c8412f     	movk	x15, #0x4209, lsl #32
   7ab44: f85683ac     	ldur	x12, [x29, #-0x98]
   7ab48: f2ed4c2e     	movk	x14, #0x6a61, lsl #48
   7ab4c: a93c23a9     	stp	x9, x8, [x29, #-0x40]
   7ab50: f85403a9     	ldur	x9, [x29, #-0xc0]
   7ab54: f85283a8     	ldur	x8, [x29, #-0xd8]
   7ab58: 710001bf     	cmp	w13, #0x0
   7ab5c: b85743ba     	ldur	w26, [x29, #-0x8c]
   7ab60: f2fa73cf     	movk	x15, #0xd39e, lsl #48
   7ab64: f81b83a9     	stur	x9, [x29, #-0x48]
   7ab68: b85243a9     	ldur	w9, [x29, #-0xdc]
   7ab6c: f90027eb     	str	x11, [sp, #0x48]
   7ab70: 9a8e01e4     	csel	x4, x15, x14, eq
   7ab74: b90013ed     	str	w13, [sp, #0x10]
   7ab78: b81e83a9     	stur	w9, [x29, #-0x18]
   7ab7c: f85303a9     	ldur	x9, [x29, #-0xd0]
   7ab80: a93aa3a9     	stp	x9, x8, [x29, #-0x58]
   7ab84: 14000110     	b	0x7afc4 <.text+0x72f54>
   7ab88: b94047ec     	ldr	w12, [sp, #0x44]
   7ab8c: b94073eb     	ldr	w11, [sp, #0x70]
   7ab90: 51016d88     	sub	w8, w12, #0x5b
   7ab94: 321b0189     	orr	w9, w12, #0x20
   7ab98: 51016d6a     	sub	w10, w11, #0x5b
   7ab9c: 3100691f     	cmn	w8, #0x1a
   7aba0: 1a893189     	csel	w9, w12, w9, lo
   7aba4: 3100695f     	cmn	w10, #0x1a
   7aba8: f94027ea     	ldr	x10, [sp, #0x48]
   7abac: 321b0168     	orr	w8, w11, #0x20
   7abb0: 1a883168     	csel	w8, w11, w8, lo
   7abb4: 6b08013f     	cmp	w9, w8
   7abb8: d2956c49     	mov	x9, #0xab62             // =43874
   7abbc: 9100054a     	add	x10, x10, #0x1
   7abc0: b853c3a8     	ldur	w8, [x29, #-0xc4]
   7abc4: f2bd5a49     	movk	x9, #0xead2, lsl #16
   7abc8: f2dad929     	movk	x9, #0xd6c9, lsl #32
   7abcc: f9003fea     	str	x10, [sp, #0x78]
   7abd0: d28428ea     	mov	x10, #0x2147            // =8519
   7abd4: f2a28f6a     	movk	x10, #0x147b, lsl #16
   7abd8: f2f99749     	movk	x9, #0xccba, lsl #48
   7abdc: f2d2520a     	movk	x10, #0x9290, lsl #32
   7abe0: b81d43a8     	stur	w8, [x29, #-0x2c]
   7abe4: f2ebe84a     	movk	x10, #0x5f42, lsl #48
   7abe8: 9a8a0124     	csel	x4, x9, x10, eq
   7abec: b85543a8     	ldur	w8, [x29, #-0xac]
   7abf0: b81ec3a8     	stur	w8, [x29, #-0x14]
   7abf4: f85583a8     	ldur	x8, [x29, #-0xa8]
   7abf8: f81c83a8     	stur	x8, [x29, #-0x38]
   7abfc: f85603a9     	ldur	x9, [x29, #-0xa0]
   7ac00: f85403a8     	ldur	x8, [x29, #-0xc0]
   7ac04: a93ba7a8     	stp	x8, x9, [x29, #-0x48]
   7ac08: b85243a8     	ldur	w8, [x29, #-0xdc]
   7ac0c: b81e83a8     	stur	w8, [x29, #-0x18]
   7ac10: f85283a8     	ldur	x8, [x29, #-0xd8]
   7ac14: f81b03a8     	stur	x8, [x29, #-0x50]
   7ac18: 140000e5     	b	0x7afac <.text+0x72f3c>
   7ac1c: a977e3bb     	ldp	x27, x24, [x29, #-0x88]
   7ac20: d29777c4     	mov	x4, #0xbbbe             // =48062
   7ac24: f85583a9     	ldur	x9, [x29, #-0xa8]
   7ac28: f2ace624     	movk	x4, #0x6731, lsl #16
   7ac2c: a9799fa6     	ldp	x6, x7, [x29, #-0x68]
   7ac30: aa1b03ed     	mov	x13, x27
   7ac34: f2c643e4     	movk	x4, #0x321f, lsl #32
   7ac38: 91000708     	add	x8, x24, #0x1
   7ac3c: b85743ba     	ldur	w26, [x29, #-0x8c]
   7ac40: f85883ab     	ldur	x11, [x29, #-0x78]
   7ac44: f2fd73a4     	movk	x4, #0xeb9d, lsl #48
   7ac48: 38401dac     	ldrb	w12, [x13, #0x1]!
   7ac4c: f90057e8     	str	x8, [sp, #0xa8]
   7ac50: b853c3a8     	ldur	w8, [x29, #-0xc4]
   7ac54: b85943a5     	ldur	w5, [x29, #-0x6c]
   7ac58: f9005bed     	str	x13, [sp, #0xb0]
   7ac5c: b900bfec     	str	w12, [sp, #0xbc]
   7ac60: f85683ac     	ldur	x12, [x29, #-0x98]
   7ac64: b81d43a8     	stur	w8, [x29, #-0x2c]
   7ac68: b85543a8     	ldur	w8, [x29, #-0xac]
   7ac6c: b81ec3a8     	stur	w8, [x29, #-0x14]
   7ac70: f85603a8     	ldur	x8, [x29, #-0xa0]
   7ac74: a93c27a8     	stp	x8, x9, [x29, #-0x40]
   7ac78: b85243a8     	ldur	w8, [x29, #-0xdc]
   7ac7c: a9747ba9     	ldp	x9, x30, [x29, #-0xc0]
   7ac80: b81e83a8     	stur	w8, [x29, #-0x18]
   7ac84: f85283a8     	ldur	x8, [x29, #-0xd8]
   7ac88: a93b27a8     	stp	x8, x9, [x29, #-0x50]
   7ac8c: f85303a8     	ldur	x8, [x29, #-0xd0]
   7ac90: f81a83a8     	stur	x8, [x29, #-0x58]
   7ac94: 17fff8e0     	b	0x79014 <.text+0x70fa4>
   7ac98: b853c3a8     	ldur	w8, [x29, #-0xc4]
   7ac9c: d503201f     	nop
   7aca0: 1064d980     	adr	x0, 0x1447d0
   7aca4: f85583aa     	ldur	x10, [x29, #-0xa8]
   7aca8: b85543a9     	ldur	w9, [x29, #-0xac]
   7acac: d29369a4     	mov	x4, #0x9b4d             // =39757
   7acb0: b81d43a8     	stur	w8, [x29, #-0x2c]
   7acb4: b85743ba     	ldur	w26, [x29, #-0x8c]
   7acb8: a97633a8     	ldp	x8, x12, [x29, #-0xa0]
   7acbc: f2af4b44     	movk	x4, #0x7a5a, lsl #16
   7acc0: 3940200d     	ldrb	w13, [x0, #0x8]
   7acc4: f2d9d024     	movk	x4, #0xce81, lsl #32
   7acc8: fd400000     	ldr	d0, [x0]
   7accc: f2e38de4     	movk	x4, #0x1c6f, lsl #48
   7acd0: a93c2ba8     	stp	x8, x10, [x29, #-0x40]
   7acd4: b85243a8     	ldur	w8, [x29, #-0xdc]
   7acd8: a9747baa     	ldp	x10, x30, [x29, #-0xc0]
   7acdc: 521e15b1     	eor	w17, w13, #0xfc
   7ace0: 2e281c00     	eor	v0.8b, v0.8b, v8.8b
   7ace4: 293d27a8     	stp	w8, w9, [x29, #-0x18]
   7ace8: f85283a8     	ldur	x8, [x29, #-0xd8]
   7acec: a977e3bb     	ldp	x27, x24, [x29, #-0x88]
   7acf0: 39002011     	strb	w17, [x0, #0x8]
   7acf4: 52800031     	mov	w17, #0x1               // =1
   7acf8: a9799fa6     	ldp	x6, x7, [x29, #-0x68]
   7acfc: a93b2ba8     	stp	x8, x10, [x29, #-0x50]
   7ad00: f85303a8     	ldur	x8, [x29, #-0xd0]
   7ad04: fd000000     	str	d0, [x0]
   7ad08: 90000660     	adrp	x0, 0x146000
   7ad0c: f85883ab     	ldur	x11, [x29, #-0x78]
   7ad10: b85943a5     	ldur	w5, [x29, #-0x6c]
   7ad14: f81a83a8     	stur	x8, [x29, #-0x58]
   7ad18: 3918f811     	strb	w17, [x0, #0x63e]
   7ad1c: 17fff8be     	b	0x79014 <.text+0x70fa4>
   7ad20: f9400fe8     	ldr	x8, [sp, #0x18]
   7ad24: d291e484     	mov	x4, #0x8f24             // =36644
   7ad28: f85583aa     	ldur	x10, [x29, #-0xa8]
   7ad2c: f2be4664     	movk	x4, #0xf233, lsl #16
   7ad30: b85543a9     	ldur	w9, [x29, #-0xac]
   7ad34: f2cedc04     	movk	x4, #0x76e0, lsl #32
   7ad38: f940111e     	ldr	x30, [x8, #0x20]
   7ad3c: f2e38b84     	movk	x4, #0x1c5c, lsl #48
   7ad40: b853c3a8     	ldur	w8, [x29, #-0xc4]
   7ad44: a977e3bb     	ldp	x27, x24, [x29, #-0x88]
   7ad48: f90073fe     	str	x30, [sp, #0xe0]
   7ad4c: b81d43a8     	stur	w8, [x29, #-0x2c]
   7ad50: b85743ba     	ldur	w26, [x29, #-0x8c]
   7ad54: a97633a8     	ldp	x8, x12, [x29, #-0xa0]
   7ad58: a9799fa6     	ldp	x6, x7, [x29, #-0x68]
   7ad5c: a93c2ba8     	stp	x8, x10, [x29, #-0x40]
   7ad60: b85243a8     	ldur	w8, [x29, #-0xdc]
   7ad64: f85403aa     	ldur	x10, [x29, #-0xc0]
   7ad68: f85883ab     	ldur	x11, [x29, #-0x78]
   7ad6c: 293d27a8     	stp	w8, w9, [x29, #-0x18]
   7ad70: f85283a8     	ldur	x8, [x29, #-0xd8]
   7ad74: b85943a5     	ldur	w5, [x29, #-0x6c]
   7ad78: a93b2ba8     	stp	x8, x10, [x29, #-0x50]
   7ad7c: f85303a8     	ldur	x8, [x29, #-0xd0]
   7ad80: f81a83a8     	stur	x8, [x29, #-0x58]
   7ad84: 17fff8a4     	b	0x79014 <.text+0x70fa4>
   7ad88: d503201f     	nop
   7ad8c: 1065a508     	adr	x8, 0x14622c
   7ad90: d295c66d     	mov	x13, #0xae33            // =44595
   7ad94: d29dcb6e     	mov	x14, #0xee5b            // =61019
   7ad98: f2b7a56d     	movk	x13, #0xbd2b, lsl #16
   7ad9c: f2b4a20e     	movk	x14, #0xa510, lsl #16
   7ada0: 089ffd1f     	stlrb	wzr, [x8]
   7ada4: d0000648     	adrp	x8, 0x144000
   7ada8: 911ff108     	add	x8, x8, #0x7fc
   7adac: b85543a9     	ldur	w9, [x29, #-0xac]
   7adb0: f85583aa     	ldur	x10, [x29, #-0xa8]
   7adb4: eb0800ff     	cmp	x7, x8
   7adb8: b853c3a8     	ldur	w8, [x29, #-0xc4]
   7adbc: f2d873ed     	movk	x13, #0xc39f, lsl #32
   7adc0: b81ec3a9     	stur	w9, [x29, #-0x14]
   7adc4: f85603a9     	ldur	x9, [x29, #-0xa0]
   7adc8: 394000ec     	ldrb	w12, [x7]
   7adcc: f2d8826e     	movk	x14, #0xc413, lsl #32
   7add0: b81d43a8     	stur	w8, [x29, #-0x2c]
   7add4: b85943a8     	ldur	w8, [x29, #-0x6c]
   7add8: a93c2ba9     	stp	x9, x10, [x29, #-0x40]
   7addc: b85243a9     	ldur	w9, [x29, #-0xdc]
   7ade0: f85403aa     	ldur	x10, [x29, #-0xc0]
   7ade4: b9006bec     	str	w12, [sp, #0x68]
   7ade8: a977e3bb     	ldp	x27, x24, [x29, #-0x88]
   7adec: b81e83a9     	stur	w9, [x29, #-0x18]
   7adf0: 7a401904     	ccmp	w8, #0x0, #0x4, ne
   7adf4: f85283a9     	ldur	x9, [x29, #-0xd8]
   7adf8: f2f1d16d     	movk	x13, #0x8e8b, lsl #48
   7adfc: f85683ac     	ldur	x12, [x29, #-0x98]
   7ae00: f2e4422e     	movk	x14, #0x2211, lsl #48
   7ae04: b85743ba     	ldur	w26, [x29, #-0x8c]
   7ae08: 9a8e01a4     	csel	x4, x13, x14, eq
   7ae0c: a93b2ba9     	stp	x9, x10, [x29, #-0x50]
   7ae10: f85303a9     	ldur	x9, [x29, #-0xd0]
   7ae14: f85883ab     	ldur	x11, [x29, #-0x78]
   7ae18: 2a0803e5     	mov	w5, w8
   7ae1c: f85483be     	ldur	x30, [x29, #-0xb8]
   7ae20: b90027e8     	str	w8, [sp, #0x24]
   7ae24: f81a83a9     	stur	x9, [x29, #-0x58]
   7ae28: 17fff87b     	b	0x79014 <.text+0x70fa4>
   7ae2c: f85403a8     	ldur	x8, [x29, #-0xc0]
   7ae30: d280a68f     	mov	x15, #0x534             // =1332
   7ae34: b853c3a9     	ldur	w9, [x29, #-0xc4]
   7ae38: f2b585cf     	movk	x15, #0xac2e, lsl #16
   7ae3c: f85583ab     	ldur	x11, [x29, #-0xa8]
   7ae40: f2d3e1ef     	movk	x15, #0x9f0f, lsl #32
   7ae44: 3940010e     	ldrb	w14, [x8]
   7ae48: f2e2188f     	movk	x15, #0x10c4, lsl #48
   7ae4c: b81d43a9     	stur	w9, [x29, #-0x2c]
   7ae50: f85603a9     	ldur	x9, [x29, #-0xa0]
   7ae54: b85543aa     	ldur	w10, [x29, #-0xac]
   7ae58: f81b83a8     	stur	x8, [x29, #-0x48]
   7ae5c: 710001df     	cmp	w14, #0x0
   7ae60: b9000bee     	str	w14, [sp, #0x8]
   7ae64: 1a9f07ee     	cset	w14, ne
   7ae68: a93c2fa9     	stp	x9, x11, [x29, #-0x40]
   7ae6c: b85243a9     	ldur	w9, [x29, #-0xdc]
   7ae70: f90017e8     	str	x8, [sp, #0x28]
   7ae74: a977e3bb     	ldp	x27, x24, [x29, #-0x88]
   7ae78: b81203ae     	stur	w14, [x29, #-0xe0]
   7ae7c: d2965d2e     	mov	x14, #0xb2e9            // =45801
   7ae80: 293d2ba9     	stp	w9, w10, [x29, #-0x18]
   7ae84: f2af5a0e     	movk	x14, #0x7ad0, lsl #16
   7ae88: f85283aa     	ldur	x10, [x29, #-0xd8]
   7ae8c: f2cdd9ee     	movk	x14, #0x6ecf, lsl #32
   7ae90: f85303a9     	ldur	x9, [x29, #-0xd0]
   7ae94: f2f1048e     	movk	x14, #0x8824, lsl #48
   7ae98: f85683ac     	ldur	x12, [x29, #-0x98]
   7ae9c: 9a8f11c4     	csel	x4, x14, x15, ne
   7aea0: b85743ba     	ldur	w26, [x29, #-0x8c]
   7aea4: f85883ab     	ldur	x11, [x29, #-0x78]
   7aea8: a93aaba9     	stp	x9, x10, [x29, #-0x58]
   7aeac: b85943a5     	ldur	w5, [x29, #-0x6c]
   7aeb0: 17fff859     	b	0x79014 <.text+0x70fa4>
   7aeb4: d503201f     	nop
   7aeb8: 10659b88     	adr	x8, 0x146228
   7aebc: d2848f4d     	mov	x13, #0x247a            // =9338
   7aec0: d289eaee     	mov	x14, #0x4f57            // =20311
   7aec4: f2aec68d     	movk	x13, #0x7634, lsl #16
   7aec8: f2ba35ce     	movk	x14, #0xd1ae, lsl #16
   7aecc: 089ffd1f     	stlrb	wzr, [x8]
   7aed0: d0000648     	adrp	x8, 0x144000
   7aed4: 911fa508     	add	x8, x8, #0x7e9
   7aed8: b85543aa     	ldur	w10, [x29, #-0xac]
   7aedc: f85803b8     	ldur	x24, [x29, #-0x80]
   7aee0: f2c613cd     	movk	x13, #0x309e, lsl #32
   7aee4: f85583a9     	ldur	x9, [x29, #-0xa8]
   7aee8: f2d31e8e     	movk	x14, #0x98f4, lsl #32
   7aeec: b81ec3aa     	stur	w10, [x29, #-0x14]
   7aef0: f85603aa     	ldur	x10, [x29, #-0xa0]
   7aef4: eb08031f     	cmp	x24, x8
   7aef8: b853c3a8     	ldur	w8, [x29, #-0xc4]
   7aefc: 3940030c     	ldrb	w12, [x24]
   7af00: f2f2830d     	movk	x13, #0x9418, lsl #48
   7af04: a93c27aa     	stp	x10, x9, [x29, #-0x40]
   7af08: b85243aa     	ldur	w10, [x29, #-0xdc]
   7af0c: b81d43a8     	stur	w8, [x29, #-0x2c]
   7af10: b85743a8     	ldur	w8, [x29, #-0x8c]
   7af14: f85403a9     	ldur	x9, [x29, #-0xc0]
   7af18: b9006fec     	str	w12, [sp, #0x6c]
   7af1c: b81e83aa     	stur	w10, [x29, #-0x18]
   7af20: f85283aa     	ldur	x10, [x29, #-0xd8]
   7af24: 7a401904     	ccmp	w8, #0x0, #0x4, ne
   7af28: f85683ac     	ldur	x12, [x29, #-0x98]
   7af2c: f85783bb     	ldur	x27, [x29, #-0x88]
   7af30: f2ebf6ce     	movk	x14, #0x5fb6, lsl #48
   7af34: a93b27aa     	stp	x10, x9, [x29, #-0x50]
   7af38: f85303aa     	ldur	x10, [x29, #-0xd0]
   7af3c: 9a8d01c4     	csel	x4, x14, x13, eq
   7af40: 2a0803fa     	mov	w26, w8
   7af44: b90037e8     	str	w8, [sp, #0x34]
   7af48: f81a83aa     	stur	x10, [x29, #-0x58]
   7af4c: 1400025a     	b	0x7b8b4 <.text+0x73844>
   7af50: 90000668     	adrp	x8, 0x146000
   7af54: f85583aa     	ldur	x10, [x29, #-0xa8]
   7af58: b85543a9     	ldur	w9, [x29, #-0xac]
   7af5c: d29352ef     	mov	x15, #0x9a97            // =39575
   7af60: d291d050     	mov	x16, #0x8e82            // =36482
   7af64: f2bd392f     	movk	x15, #0xe9c9, lsl #16
   7af68: 3958f50e     	ldrb	w14, [x8, #0x63d]
   7af6c: f2bf3db0     	movk	x16, #0xf9ed, lsl #16
   7af70: b853c3a8     	ldur	w8, [x29, #-0xc4]
   7af74: f2df278f     	movk	x15, #0xf93c, lsl #32
   7af78: f2c55bd0     	movk	x16, #0x2ade, lsl #32
   7af7c: f2e9f12f     	movk	x15, #0x4f89, lsl #48
   7af80: f2e0a350     	movk	x16, #0x51a, lsl #48
   7af84: 710001df     	cmp	w14, #0x0
   7af88: b81d43a8     	stur	w8, [x29, #-0x2c]
   7af8c: f85603a8     	ldur	x8, [x29, #-0xa0]
   7af90: a93c2ba8     	stp	x8, x10, [x29, #-0x40]
   7af94: b85243a8     	ldur	w8, [x29, #-0xdc]
   7af98: f85403aa     	ldur	x10, [x29, #-0xc0]
   7af9c: 293d27a8     	stp	w8, w9, [x29, #-0x18]
   7afa0: f85283a8     	ldur	x8, [x29, #-0xd8]
   7afa4: a93b2ba8     	stp	x8, x10, [x29, #-0x50]
   7afa8: 9a8f1204     	csel	x4, x16, x15, ne
   7afac: f85303a8     	ldur	x8, [x29, #-0xd0]
   7afb0: f85683ac     	ldur	x12, [x29, #-0x98]
   7afb4: f81a83a8     	stur	x8, [x29, #-0x58]
   7afb8: a977e3bb     	ldp	x27, x24, [x29, #-0x88]
   7afbc: b85743ba     	ldur	w26, [x29, #-0x8c]
   7afc0: f85883ab     	ldur	x11, [x29, #-0x78]
   7afc4: a9799fa6     	ldp	x6, x7, [x29, #-0x68]
   7afc8: b85943a5     	ldur	w5, [x29, #-0x6c]
   7afcc: f85483be     	ldur	x30, [x29, #-0xb8]
   7afd0: 17fff811     	b	0x79014 <.text+0x70fa4>
   7afd4: f9400fe8     	ldr	x8, [sp, #0x18]
   7afd8: d2809524     	mov	x4, #0x4a9              // =1193
   7afdc: b85543aa     	ldur	w10, [x29, #-0xac]
   7afe0: f2a698e4     	movk	x4, #0x34c7, lsl #16
   7afe4: a977e3bb     	ldp	x27, x24, [x29, #-0x88]
   7afe8: f2d82244     	movk	x4, #0xc112, lsl #32
   7afec: f9401909     	ldr	x9, [x8, #0x30]
   7aff0: f2ffdfa4     	movk	x4, #0xfefd, lsl #48
   7aff4: b853c3a8     	ldur	w8, [x29, #-0xc4]
   7aff8: a9799fa6     	ldp	x6, x7, [x29, #-0x68]
   7affc: b81d43a8     	stur	w8, [x29, #-0x2c]
   7b000: f85583a8     	ldur	x8, [x29, #-0xa8]
   7b004: b85743ba     	ldur	w26, [x29, #-0x8c]
   7b008: f85883ab     	ldur	x11, [x29, #-0x78]
   7b00c: f81c83a8     	stur	x8, [x29, #-0x38]
   7b010: b85943a5     	ldur	w5, [x29, #-0x6c]
   7b014: a97633a8     	ldp	x8, x12, [x29, #-0xa0]
   7b018: f85483be     	ldur	x30, [x29, #-0xb8]
   7b01c: a93ba3a9     	stp	x9, x8, [x29, #-0x48]
   7b020: b85243a8     	ldur	w8, [x29, #-0xdc]
   7b024: f85283a9     	ldur	x9, [x29, #-0xd8]
   7b028: 293d2ba8     	stp	w8, w10, [x29, #-0x18]
   7b02c: f85303a8     	ldur	x8, [x29, #-0xd0]
   7b030: a93aa7a8     	stp	x8, x9, [x29, #-0x58]
   7b034: 17fff7f8     	b	0x79014 <.text+0x70fa4>
   7b038: b94077e8     	ldr	w8, [sp, #0x74]
   7b03c: d28f674a     	mov	x10, #0x7b3a            // =31546
   7b040: b85543a9     	ldur	w9, [x29, #-0xac]
   7b044: d29b3f0b     	mov	x11, #0xd9f8            // =55800
   7b048: f2b621ea     	movk	x10, #0xb10f, lsl #16
   7b04c: f2b5408b     	movk	x11, #0xaa04, lsl #16
   7b050: f2dc132a     	movk	x10, #0xe099, lsl #32
   7b054: f2c2dacb     	movk	x11, #0x16d6, lsl #32
   7b058: 6b08013f     	cmp	w9, w8
   7b05c: b853c3a8     	ldur	w8, [x29, #-0xc4]
   7b060: f2f5c02a     	movk	x10, #0xae01, lsl #48
   7b064: f2e435cb     	movk	x11, #0x21ae, lsl #48
   7b068: b81ec3a9     	stur	w9, [x29, #-0x14]
   7b06c: 9a8b0144     	csel	x4, x10, x11, eq
   7b070: b81d43a8     	stur	w8, [x29, #-0x2c]
   7b074: 1400005d     	b	0x7b1e8 <.text+0x73178>
   7b078: 2a1f03e0     	mov	w0, wzr
   7b07c: 52800021     	mov	w1, #0x1                // =1
   7b080: d503201f     	nop
   7b084: 10658d02     	adr	x2, 0x146224
   7b088: aa1e03f4     	mov	x20, x30
   7b08c: aa0703f5     	mov	x21, x7
   7b090: aa0603f3     	mov	x19, x6
   7b094: 9402f9db     	bl	0x139800 <Java_com_adjust_sdk_sig_NativeLibHelper_nSign+0x6d1fc>
   7b098: b853c3a8     	ldur	w8, [x29, #-0xc4]
   7b09c: d29689cb     	mov	x11, #0xb44e            // =46158
   7b0a0: d281a90c     	mov	x12, #0xd48             // =3400
   7b0a4: f2af232b     	movk	x11, #0x7919, lsl #16
   7b0a8: f2a960ec     	movk	x12, #0x4b07, lsl #16
   7b0ac: f2dd3b8b     	movk	x11, #0xe9dc, lsl #32
   7b0b0: b81d43a8     	stur	w8, [x29, #-0x2c]
   7b0b4: b85543a8     	ldur	w8, [x29, #-0xac]
   7b0b8: f2d2f8ec     	movk	x12, #0x97c7, lsl #32
   7b0bc: 7100001f     	cmp	w0, #0x0
   7b0c0: f2fe068b     	movk	x11, #0xf034, lsl #48
   7b0c4: f2e5754c     	movk	x12, #0x2baa, lsl #48
   7b0c8: b81ec3a8     	stur	w8, [x29, #-0x14]
   7b0cc: f85583a8     	ldur	x8, [x29, #-0xa8]
   7b0d0: 9a8b0184     	csel	x4, x12, x11, eq
   7b0d4: 1400017f     	b	0x7b6d0 <.text+0x73660>
   7b0d8: d503201f     	nop
   7b0dc: 1064b831     	adr	x17, 0x1447e0
   7b0e0: 528008cb     	mov	w11, #0x46              // =70
   7b0e4: d28bc344     	mov	x4, #0x5e1a             // =24090
   7b0e8: a977e3bb     	ldp	x27, x24, [x29, #-0x88]
   7b0ec: f0000640     	adrp	x0, 0x146000
   7b0f0: f2a1df44     	movk	x4, #0xefa, lsl #16
   7b0f4: 39402228     	ldrb	w8, [x17, #0x8]
   7b0f8: f2d2bb44     	movk	x4, #0x95da, lsl #32
   7b0fc: 39402629     	ldrb	w9, [x17, #0x9]
   7b100: f2e06964     	movk	x4, #0x34b, lsl #48
   7b104: 39402a2a     	ldrb	w10, [x17, #0xa]
   7b108: 4a0b0108     	eor	w8, w8, w11
   7b10c: fd400220     	ldr	d0, [x17]
   7b110: 4a0b0129     	eor	w9, w9, w11
   7b114: b85743ba     	ldur	w26, [x29, #-0x8c]
   7b118: 4a0b014b     	eor	w11, w10, w11
   7b11c: f85583aa     	ldur	x10, [x29, #-0xa8]
   7b120: 39002228     	strb	w8, [x17, #0x8]
   7b124: b853c3a8     	ldur	w8, [x29, #-0xc4]
   7b128: 39002629     	strb	w9, [x17, #0x9]
   7b12c: b85543a9     	ldur	w9, [x29, #-0xac]
   7b130: 2e291c00     	eor	v0.8b, v0.8b, v9.8b
   7b134: 39002a2b     	strb	w11, [x17, #0xa]
   7b138: b81d43a8     	stur	w8, [x29, #-0x2c]
   7b13c: f85883ab     	ldur	x11, [x29, #-0x78]
   7b140: a97633a8     	ldp	x8, x12, [x29, #-0xa0]
   7b144: fd000220     	str	d0, [x17]
   7b148: 52800031     	mov	w17, #0x1               // =1
   7b14c: a9799fa6     	ldp	x6, x7, [x29, #-0x68]
   7b150: a93c2ba8     	stp	x8, x10, [x29, #-0x40]
   7b154: b85243a8     	ldur	w8, [x29, #-0xdc]
   7b158: a9747baa     	ldp	x10, x30, [x29, #-0xc0]
   7b15c: 3918fc11     	strb	w17, [x0, #0x63f]
   7b160: 293d27a8     	stp	w8, w9, [x29, #-0x18]
   7b164: f85283a8     	ldur	x8, [x29, #-0xd8]
   7b168: b85943a5     	ldur	w5, [x29, #-0x6c]
   7b16c: a93b2ba8     	stp	x8, x10, [x29, #-0x50]
   7b170: f85303a8     	ldur	x8, [x29, #-0xd0]
   7b174: f81a83a8     	stur	x8, [x29, #-0x58]
   7b178: 17fff7a7     	b	0x79014 <.text+0x70fa4>
   7b17c: b94037ec     	ldr	w12, [sp, #0x34]
   7b180: b9406feb     	ldr	w11, [sp, #0x6c]
   7b184: 51016d88     	sub	w8, w12, #0x5b
   7b188: 321b0189     	orr	w9, w12, #0x20
   7b18c: 51016d6a     	sub	w10, w11, #0x5b
   7b190: 3100691f     	cmn	w8, #0x1a
   7b194: 1a893189     	csel	w9, w12, w9, lo
   7b198: 3100695f     	cmn	w10, #0x1a
   7b19c: f9401fea     	ldr	x10, [sp, #0x38]
   7b1a0: 321b0168     	orr	w8, w11, #0x20
   7b1a4: 1a883168     	csel	w8, w11, w8, lo
   7b1a8: 6b08013f     	cmp	w9, w8
   7b1ac: d299fa89     	mov	x9, #0xcfd4             // =53204
   7b1b0: 9100054a     	add	x10, x10, #0x1
   7b1b4: f2ac67a9     	movk	x9, #0x633d, lsl #16
   7b1b8: f2ded409     	movk	x9, #0xf6a0, lsl #32
   7b1bc: b853c3a8     	ldur	w8, [x29, #-0xc4]
   7b1c0: f2fa3349     	movk	x9, #0xd19a, lsl #48
   7b1c4: f90033ea     	str	x10, [sp, #0x60]
   7b1c8: d2803eca     	mov	x10, #0x1f6             // =502
   7b1cc: f2a380aa     	movk	x10, #0x1c05, lsl #16
   7b1d0: b81d43a8     	stur	w8, [x29, #-0x2c]
   7b1d4: f2d565ca     	movk	x10, #0xab2e, lsl #32
   7b1d8: f2efdaaa     	movk	x10, #0x7ed5, lsl #48
   7b1dc: 9a8a0124     	csel	x4, x9, x10, eq
   7b1e0: b85543a8     	ldur	w8, [x29, #-0xac]
   7b1e4: b81ec3a8     	stur	w8, [x29, #-0x14]
   7b1e8: f85583a9     	ldur	x9, [x29, #-0xa8]
   7b1ec: f85603a8     	ldur	x8, [x29, #-0xa0]
   7b1f0: a93c27a8     	stp	x8, x9, [x29, #-0x40]
   7b1f4: 1400018f     	b	0x7b830 <.text+0x737c0>
   7b1f8: b853c3a8     	ldur	w8, [x29, #-0xc4]
   7b1fc: d294488e     	mov	x14, #0xa244            // =41540
   7b200: f85583a9     	ldur	x9, [x29, #-0xa8]
   7b204: d293682f     	mov	x15, #0x9b41            // =39745
   7b208: f85483be     	ldur	x30, [x29, #-0xb8]
   7b20c: f2b53c6e     	movk	x14, #0xa9e3, lsl #16
   7b210: b81d43a8     	stur	w8, [x29, #-0x2c]
   7b214: b85543a8     	ldur	w8, [x29, #-0xac]
   7b218: a977e3bb     	ldp	x27, x24, [x29, #-0x88]
   7b21c: f2a23fcf     	movk	x15, #0x11fe, lsl #16
   7b220: f2cec64e     	movk	x14, #0x7632, lsl #32
   7b224: b81ec3a8     	stur	w8, [x29, #-0x14]
   7b228: f85603a8     	ldur	x8, [x29, #-0xa0]
   7b22c: 394003cd     	ldrb	w13, [x30]
   7b230: f2c8556f     	movk	x15, #0x42ab, lsl #32
   7b234: a9799fa6     	ldp	x6, x7, [x29, #-0x68]
   7b238: a93c27a8     	stp	x8, x9, [x29, #-0x40]
   7b23c: f2e9490e     	movk	x14, #0x4a48, lsl #48
   7b240: f85403a8     	ldur	x8, [x29, #-0xc0]
   7b244: 710001bf     	cmp	w13, #0x0
   7b248: f85283a9     	ldur	x9, [x29, #-0xd8]
   7b24c: f2eedc6f     	movk	x15, #0x76e3, lsl #48
   7b250: f85683ac     	ldur	x12, [x29, #-0x98]
   7b254: f9002ffe     	str	x30, [sp, #0x58]
   7b258: f81b83a8     	stur	x8, [x29, #-0x48]
   7b25c: b85243a8     	ldur	w8, [x29, #-0xdc]
   7b260: b85743ba     	ldur	w26, [x29, #-0x8c]
   7b264: b90017ed     	str	w13, [sp, #0x14]
   7b268: f85883ab     	ldur	x11, [x29, #-0x78]
   7b26c: 9a8e01e4     	csel	x4, x15, x14, eq
   7b270: b81e83a8     	stur	w8, [x29, #-0x18]
   7b274: f85303a8     	ldur	x8, [x29, #-0xd0]
   7b278: b85943a5     	ldur	w5, [x29, #-0x6c]
   7b27c: a93aa7a8     	stp	x8, x9, [x29, #-0x58]
   7b280: 17fff765     	b	0x79014 <.text+0x70fa4>
   7b284: d503201f     	nop
   7b288: 10657ce8     	adr	x8, 0x146224
   7b28c: d288466d     	mov	x13, #0x4233            // =16947
   7b290: d28c7c4e     	mov	x14, #0x63e2            // =25570
   7b294: f2a2bb2d     	movk	x13, #0x15d9, lsl #16
   7b298: f2a4fa2e     	movk	x14, #0x27d1, lsl #16
   7b29c: 089ffd1f     	stlrb	wzr, [x8]
   7b2a0: b0000648     	adrp	x8, 0x144000
   7b2a4: 911f5d08     	add	x8, x8, #0x7d7
   7b2a8: f85303a9     	ldur	x9, [x29, #-0xd0]
   7b2ac: b85543aa     	ldur	w10, [x29, #-0xac]
   7b2b0: f2c4650d     	movk	x13, #0x2328, lsl #32
   7b2b4: f85583ab     	ldur	x11, [x29, #-0xa8]
   7b2b8: f2c2e9ee     	movk	x14, #0x174f, lsl #32
   7b2bc: eb08013f     	cmp	x9, x8
   7b2c0: b853c3a8     	ldur	w8, [x29, #-0xc4]
   7b2c4: b81ec3aa     	stur	w10, [x29, #-0x14]
   7b2c8: f85603aa     	ldur	x10, [x29, #-0xa0]
   7b2cc: 3940012c     	ldrb	w12, [x9]
   7b2d0: f2ed452d     	movk	x13, #0x6a29, lsl #48
   7b2d4: b81d43a8     	stur	w8, [x29, #-0x2c]
   7b2d8: b85243a8     	ldur	w8, [x29, #-0xdc]
   7b2dc: a93c2faa     	stp	x10, x11, [x29, #-0x40]
   7b2e0: f85403ab     	ldur	x11, [x29, #-0xc0]
   7b2e4: f85283aa     	ldur	x10, [x29, #-0xd8]
   7b2e8: f2e7826e     	movk	x14, #0x3c13, lsl #48
   7b2ec: 7a401904     	ccmp	w8, #0x0, #0x4, ne
   7b2f0: b90073ec     	str	w12, [sp, #0x70]
   7b2f4: b81e83a8     	stur	w8, [x29, #-0x18]
   7b2f8: a93b2faa     	stp	x10, x11, [x29, #-0x50]
   7b2fc: 9a8d01c4     	csel	x4, x14, x13, eq
   7b300: f81a83a9     	stur	x9, [x29, #-0x58]
   7b304: b90047e8     	str	w8, [sp, #0x44]
   7b308: 1400006a     	b	0x7b4b0 <.text+0x73440>
   7b30c: b853c3a8     	ldur	w8, [x29, #-0xc4]
   7b310: b000064d     	adrp	x13, 0x144000
   7b314: 911f81ac     	add	x12, x13, #0x7e0
   7b318: f85583a9     	ldur	x9, [x29, #-0xa8]
   7b31c: f9401fed     	ldr	x13, [sp, #0x38]
   7b320: d29777c4     	mov	x4, #0xbbbe             // =48062
   7b324: b81d43a8     	stur	w8, [x29, #-0x2c]
   7b328: b85543a8     	ldur	w8, [x29, #-0xac]
   7b32c: a977e3bb     	ldp	x27, x24, [x29, #-0x88]
   7b330: a90ab7ec     	stp	x12, x13, [sp, #0xa8]
   7b334: f2ace624     	movk	x4, #0x6731, lsl #16
   7b338: b81ec3a8     	stur	w8, [x29, #-0x14]
   7b33c: f85603a8     	ldur	x8, [x29, #-0xa0]
   7b340: b9400ff0     	ldr	w16, [sp, #0xc]
   7b344: f2c643e4     	movk	x4, #0x321f, lsl #32
   7b348: f85683ac     	ldur	x12, [x29, #-0x98]
   7b34c: aa0603eb     	mov	x11, x6
   7b350: a93c27a8     	stp	x8, x9, [x29, #-0x40]
   7b354: f85403a8     	ldur	x8, [x29, #-0xc0]
   7b358: f85283a9     	ldur	x9, [x29, #-0xd8]
   7b35c: b900bff0     	str	w16, [sp, #0xbc]
   7b360: b85743ba     	ldur	w26, [x29, #-0x8c]
   7b364: 2a0003e5     	mov	w5, w0
   7b368: f81b83a8     	stur	x8, [x29, #-0x48]
   7b36c: b85243a8     	ldur	w8, [x29, #-0xdc]
   7b370: aa1303e6     	mov	x6, x19
   7b374: f2fd73a4     	movk	x4, #0xeb9d, lsl #48
   7b378: b81e83a8     	stur	w8, [x29, #-0x18]
   7b37c: f85303a8     	ldur	x8, [x29, #-0xd0]
   7b380: a93aa7a8     	stp	x8, x9, [x29, #-0x58]
   7b384: 17fff724     	b	0x79014 <.text+0x70fa4>
   7b388: b94057ec     	ldr	w12, [sp, #0x54]
   7b38c: b94077eb     	ldr	w11, [sp, #0x74]
   7b390: 51016d88     	sub	w8, w12, #0x5b
   7b394: 321b0189     	orr	w9, w12, #0x20
   7b398: 51016d6a     	sub	w10, w11, #0x5b
   7b39c: 3100691f     	cmn	w8, #0x1a
   7b3a0: 321b0168     	orr	w8, w11, #0x20
   7b3a4: 1a893189     	csel	w9, w12, w9, lo
   7b3a8: 3100695f     	cmn	w10, #0x1a
   7b3ac: 1a88316a     	csel	w10, w11, w8, lo
   7b3b0: b853c3a8     	ldur	w8, [x29, #-0xc4]
   7b3b4: 6b0a013f     	cmp	w9, w10
   7b3b8: d280aaea     	mov	x10, #0x557             // =1367
   7b3bc: d2937ecb     	mov	x11, #0x9bf6            // =39926
   7b3c0: f2ae910a     	movk	x10, #0x7488, lsl #16
   7b3c4: b81d43a8     	stur	w8, [x29, #-0x2c]
   7b3c8: b85543a8     	ldur	w8, [x29, #-0xac]
   7b3cc: f2bea7cb     	movk	x11, #0xf53e, lsl #16
   7b3d0: f2d3766a     	movk	x10, #0x9bb3, lsl #32
   7b3d4: f2ce78cb     	movk	x11, #0x73c6, lsl #32
   7b3d8: f2ff57ea     	movk	x10, #0xfabf, lsl #48
   7b3dc: f2e588ab     	movk	x11, #0x2c45, lsl #48
   7b3e0: b81ec3a8     	stur	w8, [x29, #-0x14]
   7b3e4: 9a8a0164     	csel	x4, x11, x10, eq
   7b3e8: 14000010     	b	0x7b428 <.text+0x733b8>
   7b3ec: b9406be8     	ldr	w8, [sp, #0x68]
   7b3f0: d28f2d2a     	mov	x10, #0x7969            // =31081
   7b3f4: d299d20b     	mov	x11, #0xce90            // =52880
   7b3f8: f2a8c88a     	movk	x10, #0x4644, lsl #16
   7b3fc: f2a6c5cb     	movk	x11, #0x362e, lsl #16
   7b400: f2c98c8a     	movk	x10, #0x4c64, lsl #32
   7b404: 6b08001f     	cmp	w0, w8
   7b408: b853c3a8     	ldur	w8, [x29, #-0xc4]
   7b40c: f2dd1deb     	movk	x11, #0xe8ef, lsl #32
   7b410: f2f5536a     	movk	x10, #0xaa9b, lsl #48
   7b414: f2eeda2b     	movk	x11, #0x76d1, lsl #48
   7b418: b81d43a8     	stur	w8, [x29, #-0x2c]
   7b41c: b85543a8     	ldur	w8, [x29, #-0xac]
   7b420: 9a8b0144     	csel	x4, x10, x11, eq
   7b424: b81ec3a8     	stur	w8, [x29, #-0x14]
   7b428: f85583a9     	ldur	x9, [x29, #-0xa8]
   7b42c: f85603a8     	ldur	x8, [x29, #-0xa0]
   7b430: a93c27a8     	stp	x8, x9, [x29, #-0x40]
   7b434: b85243a8     	ldur	w8, [x29, #-0xdc]
   7b438: f85403a9     	ldur	x9, [x29, #-0xc0]
   7b43c: b81e83a8     	stur	w8, [x29, #-0x18]
   7b440: f85283a8     	ldur	x8, [x29, #-0xd8]
   7b444: a93b27a8     	stp	x8, x9, [x29, #-0x50]
   7b448: 14000018     	b	0x7b4a8 <.text+0x73438>
   7b44c: f0000648     	adrp	x8, 0x146000
   7b450: f85583aa     	ldur	x10, [x29, #-0xa8]
   7b454: b85543a9     	ldur	w9, [x29, #-0xac]
   7b458: d28e8f2f     	mov	x15, #0x7479            // =29817
   7b45c: d28e8f70     	mov	x16, #0x747b            // =29819
   7b460: f2aff38f     	movk	x15, #0x7f9c, lsl #16
   7b464: 3958f90e     	ldrb	w14, [x8, #0x63e]
   7b468: f2bcd850     	movk	x16, #0xe6c2, lsl #16
   7b46c: b853c3a8     	ldur	w8, [x29, #-0xc4]
   7b470: f2de7f2f     	movk	x15, #0xf3f9, lsl #32
   7b474: f2c95550     	movk	x16, #0x4aaa, lsl #32
   7b478: f2fe41af     	movk	x15, #0xf20d, lsl #48
   7b47c: 710001df     	cmp	w14, #0x0
   7b480: f2e31390     	movk	x16, #0x189c, lsl #48
   7b484: b81d43a8     	stur	w8, [x29, #-0x2c]
   7b488: f85603a8     	ldur	x8, [x29, #-0xa0]
   7b48c: 9a8f1204     	csel	x4, x16, x15, ne
   7b490: a93c2ba8     	stp	x8, x10, [x29, #-0x40]
   7b494: b85243a8     	ldur	w8, [x29, #-0xdc]
   7b498: f85403aa     	ldur	x10, [x29, #-0xc0]
   7b49c: 293d27a8     	stp	w8, w9, [x29, #-0x18]
   7b4a0: f85283a8     	ldur	x8, [x29, #-0xd8]
   7b4a4: a93b2ba8     	stp	x8, x10, [x29, #-0x50]
   7b4a8: f85303a8     	ldur	x8, [x29, #-0xd0]
   7b4ac: f81a83a8     	stur	x8, [x29, #-0x58]
   7b4b0: a977e3bb     	ldp	x27, x24, [x29, #-0x88]
   7b4b4: aa0603eb     	mov	x11, x6
   7b4b8: f85683ac     	ldur	x12, [x29, #-0x98]
   7b4bc: b85743ba     	ldur	w26, [x29, #-0x8c]
   7b4c0: 14000159     	b	0x7ba24 <.text+0x739b4>
   7b4c4: a9799fa6     	ldp	x6, x7, [x29, #-0x68]
   7b4c8: f85583a9     	ldur	x9, [x29, #-0xa8]
   7b4cc: a977e3bb     	ldp	x27, x24, [x29, #-0x88]
   7b4d0: aa0603ed     	mov	x13, x6
   7b4d4: 910004e8     	add	x8, x7, #0x1
   7b4d8: b85743ba     	ldur	w26, [x29, #-0x8c]
   7b4dc: f85883ab     	ldur	x11, [x29, #-0x78]
   7b4e0: 38401dac     	ldrb	w12, [x13, #0x1]!
   7b4e4: f90077e8     	str	x8, [sp, #0xe8]
   7b4e8: b853c3a8     	ldur	w8, [x29, #-0xc4]
   7b4ec: b85943a5     	ldur	w5, [x29, #-0x6c]
   7b4f0: f9007bed     	str	x13, [sp, #0xf0]
   7b4f4: b811c3ac     	stur	w12, [x29, #-0xe4]
   7b4f8: f85683ac     	ldur	x12, [x29, #-0x98]
   7b4fc: b81d43a8     	stur	w8, [x29, #-0x2c]
   7b500: b85543a8     	ldur	w8, [x29, #-0xac]
   7b504: b81ec3a8     	stur	w8, [x29, #-0x14]
   7b508: f85603a8     	ldur	x8, [x29, #-0xa0]
   7b50c: a93c27a8     	stp	x8, x9, [x29, #-0x40]
   7b510: b85243a8     	ldur	w8, [x29, #-0xdc]
   7b514: f85403a9     	ldur	x9, [x29, #-0xc0]
   7b518: b81e83a8     	stur	w8, [x29, #-0x18]
   7b51c: f85283a8     	ldur	x8, [x29, #-0xd8]
   7b520: a93b27a8     	stp	x8, x9, [x29, #-0x50]
   7b524: f85303a8     	ldur	x8, [x29, #-0xd0]
   7b528: f81a83a8     	stur	x8, [x29, #-0x58]
   7b52c: d29a1804     	mov	x4, #0xd0c0             // =53440
   7b530: f85483be     	ldur	x30, [x29, #-0xb8]
   7b534: f2bb2144     	movk	x4, #0xd90a, lsl #16
   7b538: f2c8a564     	movk	x4, #0x452b, lsl #32
   7b53c: f2f59644     	movk	x4, #0xacb2, lsl #48
   7b540: 17fff6b5     	b	0x79014 <.text+0x70fa4>
   7b544: b853c3a8     	ldur	w8, [x29, #-0xc4]
   7b548: d503201f     	nop
   7b54c: 106493d1     	adr	x17, 0x1447c4
   7b550: f85583aa     	ldur	x10, [x29, #-0xa8]
   7b554: b85543a9     	ldur	w9, [x29, #-0xac]
   7b558: d290e524     	mov	x4, #0x8729             // =34601
   7b55c: b81d43a8     	stur	w8, [x29, #-0x2c]
   7b560: b85743ba     	ldur	w26, [x29, #-0x8c]
   7b564: a97633a8     	ldp	x8, x12, [x29, #-0xa0]
   7b568: f90067f1     	str	x17, [sp, #0xc8]
   7b56c: f2ac7ba4     	movk	x4, #0x63dd, lsl #16
   7b570: f9402ff1     	ldr	x17, [sp, #0x58]
   7b574: f2c12504     	movk	x4, #0x928, lsl #32
   7b578: a977e3bb     	ldp	x27, x24, [x29, #-0x88]
   7b57c: a93c2ba8     	stp	x8, x10, [x29, #-0x40]
   7b580: f2fc7b84     	movk	x4, #0xe3dc, lsl #48
   7b584: b85243a8     	ldur	w8, [x29, #-0xdc]
   7b588: f90063f1     	str	x17, [sp, #0xc0]
   7b58c: f85403aa     	ldur	x10, [x29, #-0xc0]
   7b590: a9799fa6     	ldp	x6, x7, [x29, #-0x68]
   7b594: 293d27a8     	stp	w8, w9, [x29, #-0x18]
   7b598: f85283a8     	ldur	x8, [x29, #-0xd8]
   7b59c: b94017f1     	ldr	w17, [sp, #0x14]
   7b5a0: f85883ab     	ldur	x11, [x29, #-0x78]
   7b5a4: a93b2ba8     	stp	x8, x10, [x29, #-0x50]
   7b5a8: f85303a8     	ldur	x8, [x29, #-0xd0]
   7b5ac: b85943a5     	ldur	w5, [x29, #-0x6c]
   7b5b0: b900dff1     	str	w17, [sp, #0xdc]
   7b5b4: f85483be     	ldur	x30, [x29, #-0xb8]
   7b5b8: f81a83a8     	stur	x8, [x29, #-0x58]
   7b5bc: 17fff696     	b	0x79014 <.text+0x70fa4>
   7b5c0: d503201f     	nop
   7b5c4: 10649000     	adr	x0, 0x1447c4
   7b5c8: a977e3bb     	ldp	x27, x24, [x29, #-0x88]
   7b5cc: d29774c4     	mov	x4, #0xbba6             // =48038
   7b5d0: 39400008     	ldrb	w8, [x0]
   7b5d4: f2bf2ac4     	movk	x4, #0xf956, lsl #16
   7b5d8: 3940080a     	ldrb	w10, [x0, #0x2]
   7b5dc: f2d8c8c4     	movk	x4, #0xc646, lsl #32
   7b5e0: 39400409     	ldrb	w9, [x0, #0x1]
   7b5e4: f2ecf2e4     	movk	x4, #0x6797, lsl #48
   7b5e8: 521d0908     	eor	w8, w8, #0x38
   7b5ec: 39400c0b     	ldrb	w11, [x0, #0x3]
   7b5f0: 3940100c     	ldrb	w12, [x0, #0x4]
   7b5f4: 521d0929     	eor	w9, w9, #0x38
   7b5f8: b85743ba     	ldur	w26, [x29, #-0x8c]
   7b5fc: 39000008     	strb	w8, [x0]
   7b600: 521d0948     	eor	w8, w10, #0x38
   7b604: 521d096a     	eor	w10, w11, #0x38
   7b608: 521d098b     	eor	w11, w12, #0x38
   7b60c: 39000409     	strb	w9, [x0, #0x1]
   7b610: 39401409     	ldrb	w9, [x0, #0x5]
   7b614: 39000808     	strb	w8, [x0, #0x2]
   7b618: b853c3a8     	ldur	w8, [x29, #-0xc4]
   7b61c: 39000c0a     	strb	w10, [x0, #0x3]
   7b620: f85583aa     	ldur	x10, [x29, #-0xa8]
   7b624: 521d0931     	eor	w17, w9, #0x38
   7b628: b85543a9     	ldur	w9, [x29, #-0xac]
   7b62c: b81d43a8     	stur	w8, [x29, #-0x2c]
   7b630: b85943a5     	ldur	w5, [x29, #-0x6c]
   7b634: a97633a8     	ldp	x8, x12, [x29, #-0xa0]
   7b638: 3900100b     	strb	w11, [x0, #0x4]
   7b63c: 39001411     	strb	w17, [x0, #0x5]
   7b640: 52800031     	mov	w17, #0x1               // =1
   7b644: f0000640     	adrp	x0, 0x146000
   7b648: f85883ab     	ldur	x11, [x29, #-0x78]
   7b64c: a93c2ba8     	stp	x8, x10, [x29, #-0x40]
   7b650: b85243a8     	ldur	w8, [x29, #-0xdc]
   7b654: f85403aa     	ldur	x10, [x29, #-0xc0]
   7b658: 3918f411     	strb	w17, [x0, #0x63d]
   7b65c: 293d27a8     	stp	w8, w9, [x29, #-0x18]
   7b660: f85283a8     	ldur	x8, [x29, #-0xd8]
   7b664: a93b2ba8     	stp	x8, x10, [x29, #-0x50]
   7b668: f85303a8     	ldur	x8, [x29, #-0xd0]
   7b66c: f81a83a8     	stur	x8, [x29, #-0x58]
   7b670: 17fff669     	b	0x79014 <.text+0x70fa4>
   7b674: 2a1f03e0     	mov	w0, wzr
   7b678: 52800021     	mov	w1, #0x1                // =1
   7b67c: d503201f     	nop
   7b680: 10655d42     	adr	x2, 0x146228
   7b684: aa1e03f4     	mov	x20, x30
   7b688: aa0703f5     	mov	x21, x7
   7b68c: aa0603f3     	mov	x19, x6
   7b690: 9402f85c     	bl	0x139800 <Java_com_adjust_sdk_sig_NativeLibHelper_nSign+0x6d1fc>
   7b694: b853c3a8     	ldur	w8, [x29, #-0xc4]
   7b698: d29fec2b     	mov	x11, #0xff61            // =65377
   7b69c: d295440c     	mov	x12, #0xaa20            // =43552
   7b6a0: f2be888b     	movk	x11, #0xf444, lsl #16
   7b6a4: f2a6022c     	movk	x12, #0x3011, lsl #16
   7b6a8: f2d0564b     	movk	x11, #0x82b2, lsl #32
   7b6ac: b81d43a8     	stur	w8, [x29, #-0x2c]
   7b6b0: b85543a8     	ldur	w8, [x29, #-0xac]
   7b6b4: f2d0ee8c     	movk	x12, #0x8774, lsl #32
   7b6b8: 7100001f     	cmp	w0, #0x0
   7b6bc: f2f3fa2b     	movk	x11, #0x9fd1, lsl #48
   7b6c0: f2edbcac     	movk	x12, #0x6de5, lsl #48
   7b6c4: b81ec3a8     	stur	w8, [x29, #-0x14]
   7b6c8: f85583a8     	ldur	x8, [x29, #-0xa8]
   7b6cc: 9a8c0164     	csel	x4, x11, x12, eq
   7b6d0: f81c83a8     	stur	x8, [x29, #-0x38]
   7b6d4: a97633a9     	ldp	x9, x12, [x29, #-0xa0]
   7b6d8: aa1303e6     	mov	x6, x19
   7b6dc: aa1503e7     	mov	x7, x21
   7b6e0: f85403a8     	ldur	x8, [x29, #-0xc0]
   7b6e4: aa1403fe     	mov	x30, x20
   7b6e8: a977e3bb     	ldp	x27, x24, [x29, #-0x88]
   7b6ec: a93ba7a8     	stp	x8, x9, [x29, #-0x48]
   7b6f0: b85243a8     	ldur	w8, [x29, #-0xdc]
   7b6f4: f85283a9     	ldur	x9, [x29, #-0xd8]
   7b6f8: b85743ba     	ldur	w26, [x29, #-0x8c]
   7b6fc: b81e83a8     	stur	w8, [x29, #-0x18]
   7b700: f85303a8     	ldur	x8, [x29, #-0xd0]
   7b704: f85883ab     	ldur	x11, [x29, #-0x78]
   7b708: b85943a5     	ldur	w5, [x29, #-0x6c]
   7b70c: a93aa7a8     	stp	x8, x9, [x29, #-0x58]
   7b710: 17fff641     	b	0x79014 <.text+0x70fa4>
   7b714: d503201f     	nop
   7b718: 106486d1     	adr	x17, 0x1447f0
   7b71c: a977e3bb     	ldp	x27, x24, [x29, #-0x88]
   7b720: f0000640     	adrp	x0, 0x146000
   7b724: 39402228     	ldrb	w8, [x17, #0x8]
   7b728: 39402a2a     	ldrb	w10, [x17, #0xa]
   7b72c: 39402629     	ldrb	w9, [x17, #0x9]
   7b730: 5203e508     	eor	w8, w8, #0x66666666
   7b734: 3940322c     	ldrb	w12, [x17, #0xc]
   7b738: 5203e54a     	eor	w10, w10, #0x66666666
   7b73c: 39402e2b     	ldrb	w11, [x17, #0xb]
   7b740: 5203e529     	eor	w9, w9, #0x66666666
   7b744: fd400220     	ldr	d0, [x17]
   7b748: 39002228     	strb	w8, [x17, #0x8]
   7b74c: 39403628     	ldrb	w8, [x17, #0xd]
   7b750: 39002a2a     	strb	w10, [x17, #0xa]
   7b754: 5203e58a     	eor	w10, w12, #0x66666666
   7b758: 39002629     	strb	w9, [x17, #0x9]
   7b75c: 5203e569     	eor	w9, w11, #0x66666666
   7b760: 5203e508     	eor	w8, w8, #0x66666666
   7b764: 2e2a1c00     	eor	v0.8b, v0.8b, v10.8b
   7b768: 3900322a     	strb	w10, [x17, #0xc]
   7b76c: f85583aa     	ldur	x10, [x29, #-0xa8]
   7b770: 39002e29     	strb	w9, [x17, #0xb]
   7b774: b85543a9     	ldur	w9, [x29, #-0xac]
   7b778: 39003628     	strb	w8, [x17, #0xd]
   7b77c: b853c3a8     	ldur	w8, [x29, #-0xc4]
   7b780: a9799fa6     	ldp	x6, x7, [x29, #-0x68]
   7b784: fd000220     	str	d0, [x17]
   7b788: 52800031     	mov	w17, #0x1               // =1
   7b78c: b81d43a8     	stur	w8, [x29, #-0x2c]
   7b790: b85743ba     	ldur	w26, [x29, #-0x8c]
   7b794: a97633a8     	ldp	x8, x12, [x29, #-0xa0]
   7b798: 39190011     	strb	w17, [x0, #0x640]
   7b79c: f85883ab     	ldur	x11, [x29, #-0x78]
   7b7a0: b85943a5     	ldur	w5, [x29, #-0x6c]
   7b7a4: a93c2ba8     	stp	x8, x10, [x29, #-0x40]
   7b7a8: b85243a8     	ldur	w8, [x29, #-0xdc]
   7b7ac: a9747baa     	ldp	x10, x30, [x29, #-0xc0]
   7b7b0: 293d27a8     	stp	w8, w9, [x29, #-0x18]
   7b7b4: f85283a8     	ldur	x8, [x29, #-0xd8]
   7b7b8: a93b2ba8     	stp	x8, x10, [x29, #-0x50]
   7b7bc: f85303a8     	ldur	x8, [x29, #-0xd0]
   7b7c0: f81a83a8     	stur	x8, [x29, #-0x58]
   7b7c4: 17fff614     	b	0x79014 <.text+0x70fa4>
   7b7c8: d503201f     	nop
   7b7cc: 106552a8     	adr	x8, 0x146220
   7b7d0: d2940a8d     	mov	x13, #0xa054            // =41044
   7b7d4: f2a953ed     	movk	x13, #0x4a9f, lsl #16
   7b7d8: 089ffd1f     	stlrb	wzr, [x8]
   7b7dc: b0000648     	adrp	x8, 0x144000
   7b7e0: 911f2108     	add	x8, x8, #0x7c8
   7b7e4: f85603a9     	ldur	x9, [x29, #-0xa0]
   7b7e8: b85543aa     	ldur	w10, [x29, #-0xac]
   7b7ec: f2d3896d     	movk	x13, #0x9c4b, lsl #32
   7b7f0: f2e1920d     	movk	x13, #0xc90, lsl #48
   7b7f4: 3940012c     	ldrb	w12, [x9]
   7b7f8: eb08013f     	cmp	x9, x8
   7b7fc: b853c3a8     	ldur	w8, [x29, #-0xc4]
   7b800: 7a401944     	ccmp	w10, #0x0, #0x4, ne
   7b804: b81ec3aa     	stur	w10, [x29, #-0x14]
   7b808: b90077ec     	str	w12, [sp, #0x74]
   7b80c: d288982c     	mov	x12, #0x44c1            // =17601
   7b810: b81d43a8     	stur	w8, [x29, #-0x2c]
   7b814: f85583a8     	ldur	x8, [x29, #-0xa8]
   7b818: f2b5518c     	movk	x12, #0xaa8c, lsl #16
   7b81c: b90057ea     	str	w10, [sp, #0x54]
   7b820: f2c93dcc     	movk	x12, #0x49ee, lsl #32
   7b824: f2f4ccec     	movk	x12, #0xa667, lsl #48
   7b828: a93c23a9     	stp	x9, x8, [x29, #-0x40]
   7b82c: 9a8d0184     	csel	x4, x12, x13, eq
   7b830: f85403a8     	ldur	x8, [x29, #-0xc0]
   7b834: f81b83a8     	stur	x8, [x29, #-0x48]
   7b838: b85243a8     	ldur	w8, [x29, #-0xdc]
   7b83c: b81e83a8     	stur	w8, [x29, #-0x18]
   7b840: 14000016     	b	0x7b898 <.text+0x73828>
   7b844: b94073e8     	ldr	w8, [sp, #0x70]
   7b848: d29a324a     	mov	x10, #0xd192            // =53650
   7b84c: b85243a9     	ldur	w9, [x29, #-0xdc]
   7b850: d295fc2b     	mov	x11, #0xafe1            // =45025
   7b854: f2a29d2a     	movk	x10, #0x14e9, lsl #16
   7b858: f2b9db6b     	movk	x11, #0xcedb, lsl #16
   7b85c: f2cc598a     	movk	x10, #0x62cc, lsl #32
   7b860: f2d451cb     	movk	x11, #0xa28e, lsl #32
   7b864: 6b08013f     	cmp	w9, w8
   7b868: b853c3a8     	ldur	w8, [x29, #-0xc4]
   7b86c: f2f45eea     	movk	x10, #0xa2f7, lsl #48
   7b870: f2f7592b     	movk	x11, #0xbac9, lsl #48
   7b874: 9a8b0144     	csel	x4, x10, x11, eq
   7b878: f85583aa     	ldur	x10, [x29, #-0xa8]
   7b87c: b81d43a8     	stur	w8, [x29, #-0x2c]
   7b880: b85543a8     	ldur	w8, [x29, #-0xac]
   7b884: 293d23a9     	stp	w9, w8, [x29, #-0x18]
   7b888: f85603a8     	ldur	x8, [x29, #-0xa0]
   7b88c: a93c2ba8     	stp	x8, x10, [x29, #-0x40]
   7b890: f85403a8     	ldur	x8, [x29, #-0xc0]
   7b894: f81b83a8     	stur	x8, [x29, #-0x48]
   7b898: f85283a8     	ldur	x8, [x29, #-0xd8]
   7b89c: f81b03a8     	stur	x8, [x29, #-0x50]
   7b8a0: f85303a8     	ldur	x8, [x29, #-0xd0]
   7b8a4: f85683ac     	ldur	x12, [x29, #-0x98]
   7b8a8: b85743ba     	ldur	w26, [x29, #-0x8c]
   7b8ac: f81a83a8     	stur	x8, [x29, #-0x58]
   7b8b0: a977e3bb     	ldp	x27, x24, [x29, #-0x88]
   7b8b4: f85883ab     	ldur	x11, [x29, #-0x78]
   7b8b8: b85943a5     	ldur	w5, [x29, #-0x6c]
   7b8bc: 17fff5d6     	b	0x79014 <.text+0x70fa4>
   7b8c0: b853c3a8     	ldur	w8, [x29, #-0xc4]
   7b8c4: d503201f     	nop
   7b8c8: 10647851     	adr	x17, 0x1447d0
   7b8cc: f85583aa     	ldur	x10, [x29, #-0xa8]
   7b8d0: b85543a9     	ldur	w9, [x29, #-0xac]
   7b8d4: d286a1a4     	mov	x4, #0x350d             // =13581
   7b8d8: b81d43a8     	stur	w8, [x29, #-0x2c]
   7b8dc: b85743ba     	ldur	w26, [x29, #-0x8c]
   7b8e0: a97633a8     	ldp	x8, x12, [x29, #-0xa0]
   7b8e4: f9004ff1     	str	x17, [sp, #0x98]
   7b8e8: f2b513a4     	movk	x4, #0xa89d, lsl #16
   7b8ec: f94027f1     	ldr	x17, [sp, #0x48]
   7b8f0: f2ded504     	movk	x4, #0xf6a8, lsl #32
   7b8f4: a977e3bb     	ldp	x27, x24, [x29, #-0x88]
   7b8f8: a93c2ba8     	stp	x8, x10, [x29, #-0x40]
   7b8fc: f2e076e4     	movk	x4, #0x3b7, lsl #48
   7b900: b85243a8     	ldur	w8, [x29, #-0xdc]
   7b904: f9004bf1     	str	x17, [sp, #0x90]
   7b908: f85403aa     	ldur	x10, [x29, #-0xc0]
   7b90c: b94013f1     	ldr	w17, [sp, #0x10]
   7b910: 293d27a8     	stp	w8, w9, [x29, #-0x18]
   7b914: f85283a8     	ldur	x8, [x29, #-0xd8]
   7b918: f85883ab     	ldur	x11, [x29, #-0x78]
   7b91c: b85943a5     	ldur	w5, [x29, #-0x6c]
   7b920: b900a7f1     	str	w17, [sp, #0xa4]
   7b924: a93b2ba8     	stp	x8, x10, [x29, #-0x50]
   7b928: f85303a8     	ldur	x8, [x29, #-0xd0]
   7b92c: f81a83a8     	stur	x8, [x29, #-0x58]
   7b930: 17fff5b9     	b	0x79014 <.text+0x70fa4>
   7b934: a972a7aa     	ldp	x10, x9, [x29, #-0xd8]
   7b938: d286a1a4     	mov	x4, #0x350d             // =13581
   7b93c: f85583ab     	ldur	x11, [x29, #-0xa8]
   7b940: f2b513a4     	movk	x4, #0xa89d, lsl #16
   7b944: a977e3bb     	ldp	x27, x24, [x29, #-0x88]
   7b948: aa0a03ed     	mov	x13, x10
   7b94c: f2ded504     	movk	x4, #0xf6a8, lsl #32
   7b950: 91000528     	add	x8, x9, #0x1
   7b954: b85743ba     	ldur	w26, [x29, #-0x8c]
   7b958: a9799fa6     	ldp	x6, x7, [x29, #-0x68]
   7b95c: f81a83a9     	stur	x9, [x29, #-0x58]
   7b960: f2e076e4     	movk	x4, #0x3b7, lsl #48
   7b964: f9004fe8     	str	x8, [sp, #0x98]
   7b968: b853c3a8     	ldur	w8, [x29, #-0xc4]
   7b96c: 38401dac     	ldrb	w12, [x13, #0x1]!
   7b970: b85943a5     	ldur	w5, [x29, #-0x6c]
   7b974: f9004bed     	str	x13, [sp, #0x90]
   7b978: b81d43a8     	stur	w8, [x29, #-0x2c]
   7b97c: b85543a8     	ldur	w8, [x29, #-0xac]
   7b980: b900a7ec     	str	w12, [sp, #0xa4]
   7b984: f85683ac     	ldur	x12, [x29, #-0x98]
   7b988: b81ec3a8     	stur	w8, [x29, #-0x14]
   7b98c: f85603a8     	ldur	x8, [x29, #-0xa0]
   7b990: a93c2fa8     	stp	x8, x11, [x29, #-0x40]
   7b994: f85883ab     	ldur	x11, [x29, #-0x78]
   7b998: a9747ba8     	ldp	x8, x30, [x29, #-0xc0]
   7b99c: a93b23aa     	stp	x10, x8, [x29, #-0x50]
   7b9a0: b85243a8     	ldur	w8, [x29, #-0xdc]
   7b9a4: b81e83a8     	stur	w8, [x29, #-0x18]
   7b9a8: 17fff59b     	b	0x79014 <.text+0x70fa4>
   7b9ac: b94027ec     	ldr	w12, [sp, #0x24]
   7b9b0: b81d43b6     	stur	w22, [x29, #-0x2c]
   7b9b4: b9406beb     	ldr	w11, [sp, #0x68]
   7b9b8: 293d53ad     	stp	w13, w20, [x29, #-0x18]
   7b9bc: a93c73b7     	stp	x23, x28, [x29, #-0x40]
   7b9c0: 2a1503fa     	mov	w26, w21
   7b9c4: 51016d88     	sub	w8, w12, #0x5b
   7b9c8: 321b0189     	orr	w9, w12, #0x20
   7b9cc: 51016d6a     	sub	w10, w11, #0x5b
   7b9d0: 3100691f     	cmn	w8, #0x1a
   7b9d4: 321b0168     	orr	w8, w11, #0x20
   7b9d8: 1a893189     	csel	w9, w12, w9, lo
   7b9dc: 3100695f     	cmn	w10, #0x1a
   7b9e0: a93b67ae     	stp	x14, x25, [x29, #-0x50]
   7b9e4: 1a88316a     	csel	w10, w11, w8, lo
   7b9e8: d292730b     	mov	x11, #0x9398            // =37784
   7b9ec: 6b0a013f     	cmp	w9, w10
   7b9f0: d2836d4a     	mov	x10, #0x1b6a            // =7018
   7b9f4: f2af9dea     	movk	x10, #0x7cef, lsl #16
   7b9f8: f2b35b8b     	movk	x11, #0x9adc, lsl #16
   7b9fc: f2c4a74a     	movk	x10, #0x253a, lsl #32
   7ba00: f2c9f82b     	movk	x11, #0x4fc1, lsl #32
   7ba04: f2f13bca     	movk	x10, #0x89de, lsl #48
   7ba08: f2eae92b     	movk	x11, #0x5749, lsl #48
   7ba0c: 9a8b0144     	csel	x4, x10, x11, eq
   7ba10: f85883ab     	ldur	x11, [x29, #-0x78]
   7ba14: f81a83af     	stur	x15, [x29, #-0x58]
   7ba18: aa1003ec     	mov	x12, x16
   7ba1c: aa0103fb     	mov	x27, x1
   7ba20: aa0203f8     	mov	x24, x2
   7ba24: 2a0003e5     	mov	w5, w0
   7ba28: aa1303e6     	mov	x6, x19
   7ba2c: 17fff57a     	b	0x79014 <.text+0x70fa4>
   7ba30: 120002c0     	and	w0, w22, #0x1
   7ba34: 910703ff     	add	sp, sp, #0x1c0
   7ba38: a9474ff4     	ldp	x20, x19, [sp, #0x70]
   7ba3c: a94657f6     	ldp	x22, x21, [sp, #0x60]
   7ba40: a9455ff8     	ldp	x24, x23, [sp, #0x50]
   7ba44: a94467fa     	ldp	x26, x25, [sp, #0x40]
   7ba48: a9436ffc     	ldp	x28, x27, [sp, #0x30]
   7ba4c: a9427bfd     	ldp	x29, x30, [sp, #0x20]
   7ba50: 6d4123e9     	ldp	d9, d8, [sp, #0x10]
   7ba54: fc4807ea     	ldr	d10, [sp], #0x80
   7ba58: d65f03c0     	ret
