
adjust-android-signature-3.67.0/jni/arm64-v8a/libsigner.so:	file format elf64-littleaarch64

Disassembly of section .text:

00000000000cc604 <Java_com_adjust_sdk_sig_NativeLibHelper_nSign>:
  12fa24: d10443ff     	sub	sp, sp, #0x110
  12fa28: a90f7bfd     	stp	x29, x30, [sp, #0xf0]
  12fa2c: a9104ffc     	stp	x28, x19, [sp, #0x100]
  12fa30: 9103c3fd     	add	x29, sp, #0xf0
  12fa34: a93917a4     	stp	x4, x5, [x29, #-0x70]
  12fa38: d101c3a9     	sub	x9, x29, #0x70
  12fa3c: a93a1fa6     	stp	x6, x7, [x29, #-0x60]
  12fa40: 928003eb     	mov	x11, #-0x20             // =-32
  12fa44: ad0007e0     	stp	q0, q1, [sp]
  12fa48: 910003ec     	mov	x12, sp
  12fa4c: ad010fe2     	stp	q2, q3, [sp, #0x20]
  12fa50: 91008129     	add	x9, x9, #0x20
  12fa54: ad0217e4     	stp	q4, q5, [sp, #0x40]
  12fa58: f2dff00b     	movk	x11, #0xff80, lsl #32
  12fa5c: ad031fe6     	stp	q6, q7, [sp, #0x60]
  12fa60: d53bd053     	mrs	x19, TPIDR_EL0
  12fa64: f9401668     	ldr	x8, [x19, #0x28]
  12fa68: 9102018c     	add	x12, x12, #0x80
  12fa6c: d100a3aa     	sub	x10, x29, #0x28
  12fa70: d10143a4     	sub	x4, x29, #0x50
  12fa74: f81f83a8     	stur	x8, [x29, #-0x8]
  12fa78: 910083a8     	add	x8, x29, #0x20
  12fa7c: a93eafac     	stp	x12, x11, [x29, #-0x18]
  12fa80: a93da7a8     	stp	x8, x9, [x29, #-0x28]
  12fa84: ad400540     	ldp	q0, q1, [x10]
  12fa88: ad3d87a0     	stp	q0, q1, [x29, #-0x50]
  12fa8c: 9400000a     	bl	0x12fab4 <Java_com_adjust_sdk_sig_NativeLibHelper_nSign+0x634b0>
  12fa90: f9401668     	ldr	x8, [x19, #0x28]
  12fa94: f85f83a9     	ldur	x9, [x29, #-0x8]
  12fa98: eb09011f     	cmp	x8, x9
  12fa9c: 540000a1     	b.ne	0x12fab0 <Java_com_adjust_sdk_sig_NativeLibHelper_nSign+0x634ac>
  12faa0: a9504ffc     	ldp	x28, x19, [sp, #0x100]
  12faa4: a94f7bfd     	ldp	x29, x30, [sp, #0xf0]
  12faa8: 910443ff     	add	sp, sp, #0x110
  12faac: d65f03c0     	ret
  12fab0: 940028d0     	bl	0x139df0 <__stack_chk_fail@plt>
  12fab4: fc190fe8     	str	d8, [sp, #-0x70]!
  12fab8: a9017bfd     	stp	x29, x30, [sp, #0x10]
  12fabc: a9026ffc     	stp	x28, x27, [sp, #0x20]
  12fac0: a90367fa     	stp	x26, x25, [sp, #0x30]
  12fac4: a9045ff8     	stp	x24, x23, [sp, #0x40]
  12fac8: a90557f6     	stp	x22, x21, [sp, #0x50]
  12facc: a9064ff4     	stp	x20, x19, [sp, #0x60]
  12fad0: 910043fd     	add	x29, sp, #0x10
  12fad4: d12143ff     	sub	sp, sp, #0x850
  12fad8: b9000fe2     	str	w2, [sp, #0xc]
  12fadc: aa0003f3     	mov	x19, x0
  12fae0: b9001fe1     	str	w1, [sp, #0x1c]
  12fae4: d53bd048     	mrs	x8, TPIDR_EL0
  12fae8: f90003e8     	str	x8, [sp]
  12faec: 911103e0     	add	x0, sp, #0x440
  12faf0: f9401508     	ldr	x8, [x8, #0x28]
  12faf4: 2a1f03e1     	mov	w1, wzr
  12faf8: 52808002     	mov	w2, #0x400              // =1024
  12fafc: aa0403f6     	mov	x22, x4
  12fb00: aa0303f7     	mov	x23, x3
  12fb04: f81e03a8     	stur	x8, [x29, #-0x20]
  12fb08: 940028c2     	bl	0x139e10 <memset@plt>
  12fb0c: 910103e0     	add	x0, sp, #0x40
  12fb10: 2a1f03e1     	mov	w1, wzr
  12fb14: 52808002     	mov	w2, #0x400              // =1024
  12fb18: 940028be     	bl	0x139e10 <memset@plt>
  12fb1c: ad4006c0     	ldp	q0, q1, [x22]
  12fb20: 910103e0     	add	x0, sp, #0x40
  12fb24: 910083e3     	add	x3, sp, #0x20
  12fb28: 52808001     	mov	w1, #0x400              // =1024
  12fb2c: aa1703e2     	mov	x2, x23
  12fb30: ad0107e0     	stp	q0, q1, [sp, #0x20]
  12fb34: 94002903     	bl	0x139f40 <vsnprintf@plt>
  12fb38: d285d72f     	mov	x15, #0x2eb9            // =11961
  12fb3c: d292b774     	mov	x20, #0x95bb            // =38331
  12fb40: d292990e     	mov	x14, #0x94c8            // =38088
  12fb44: d28edf8d     	mov	x13, #0x76fc            // =30460
  12fb48: f9000bf3     	str	x19, [sp, #0x10]
  12fb4c: f100027f     	cmp	x19, #0x0
  12fb50: f2b5b40f     	movk	x15, #0xada0, lsl #16
  12fb54: f2b5c694     	movk	x20, #0xae34, lsl #16
  12fb58: d292bbb0     	mov	x16, #0x95dd            // =38365
  12fb5c: d2884f58     	mov	x24, #0x427a            // =17018
  12fb60: d2872ab1     	mov	x17, #0x3955            // =14677
  12fb64: d280a377     	mov	x23, #0x51b             // =1307
  12fb68: d28d84b3     	mov	x19, #0x6c25            // =27685
  12fb6c: d297c15a     	mov	x26, #0xbe0a            // =48650
  12fb70: d28da855     	mov	x21, #0x6d42            // =27970
  12fb74: d2946382     	mov	x2, #0xa31c             // =41756
  12fb78: d292bba9     	mov	x9, #0x95dd             // =38365
  12fb7c: f2b59f0e     	movk	x14, #0xacf8, lsl #16
  12fb80: f2acd34d     	movk	x13, #0x669a, lsl #16
  12fb84: f2c1248f     	movk	x15, #0x924, lsl #32
  12fb88: f2dd2174     	movk	x20, #0xe90b, lsl #32
  12fb8c: f2af1b70     	movk	x16, #0x78db, lsl #16
  12fb90: f2a23a18     	movk	x24, #0x11d0, lsl #16
  12fb94: f2a24391     	movk	x17, #0x121c, lsl #16
  12fb98: f2b90f17     	movk	x23, #0xc878, lsl #16
  12fb9c: f2a29773     	movk	x19, #0x14bb, lsl #16
  12fba0: f2a61fba     	movk	x26, #0x30fd, lsl #16
  12fba4: f2a20475     	movk	x21, #0x1023, lsl #16
  12fba8: f2b085a2     	movk	x2, #0x842d, lsl #16
  12fbac: f2af1b69     	movk	x9, #0x78db, lsl #16
  12fbb0: f2c57f2e     	movk	x14, #0x2bf9, lsl #32
  12fbb4: f2c3044d     	movk	x13, #0x1822, lsl #32
  12fbb8: f2ff524f     	movk	x15, #0xfa92, lsl #48
  12fbbc: f2f50854     	movk	x20, #0xa842, lsl #48
  12fbc0: f2d3c050     	movk	x16, #0x9e02, lsl #32
  12fbc4: f2c31b18     	movk	x24, #0x18d8, lsl #32
  12fbc8: f2c022b1     	movk	x17, #0x115, lsl #32
  12fbcc: f2d9a7f7     	movk	x23, #0xcd3f, lsl #32
  12fbd0: f2dda7f3     	movk	x19, #0xed3f, lsl #32
  12fbd4: f2d8f97a     	movk	x26, #0xc7cb, lsl #32
  12fbd8: f2d69635     	movk	x21, #0xb4b1, lsl #32
  12fbdc: f2ded6c2     	movk	x2, #0xf6b6, lsl #32
  12fbe0: 0f06e728     	movi	v8.8b, #0xd9
  12fbe4: f2d3c049     	movk	x9, #0x9e02, lsl #32
  12fbe8: f2e036ee     	movk	x14, #0x1b7, lsl #48
  12fbec: f2e4660d     	movk	x13, #0x2330, lsl #48
  12fbf0: 9a8f029c     	csel	x28, x20, x15, eq
  12fbf4: f2e22430     	movk	x16, #0x1121, lsl #48
  12fbf8: f2f43b18     	movk	x24, #0xa1d8, lsl #48
  12fbfc: f2e57331     	movk	x17, #0x2b99, lsl #48
  12fc00: f2f92577     	movk	x23, #0xc92b, lsl #48
  12fc04: f2f5a933     	movk	x19, #0xad49, lsl #48
  12fc08: f2fa237a     	movk	x26, #0xd11b, lsl #48
  12fc0c: d503201f     	nop
  12fc10: 100b1f3b     	adr	x27, 0x145ff4
  12fc14: f2f7b215     	movk	x21, #0xbd90, lsl #48
  12fc18: f2e8e482     	movk	x2, #0x4724, lsl #48
  12fc1c: f2e22429     	movk	x9, #0x1121, lsl #48
  12fc20: aa0103f9     	mov	x25, x1
  12fc24: eb18013f     	cmp	x9, x24
  12fc28: 54001e00     	b.eq	0x12ffe8 <Java_com_adjust_sdk_sig_NativeLibHelper_nSign+0x639e4>
  12fc2c: aa0903e8     	mov	x8, x9
  12fc30: eb14013f     	cmp	x9, x20
  12fc34: 54001e60     	b.eq	0x130000 <Java_com_adjust_sdk_sig_NativeLibHelper_nSign+0x639fc>
  12fc38: eb13011f     	cmp	x8, x19
  12fc3c: 54000940     	b.eq	0x12fd64 <Java_com_adjust_sdk_sig_NativeLibHelper_nSign+0x63760>
  12fc40: d282cca9     	mov	x9, #0x1665             // =5733
  12fc44: aa1903e1     	mov	x1, x25
  12fc48: f2b52ac9     	movk	x9, #0xa956, lsl #16
  12fc4c: eb15011f     	cmp	x8, x21
  12fc50: f2c2b2c9     	movk	x9, #0x1596, lsl #32
  12fc54: f2fdc3c9     	movk	x9, #0xee1e, lsl #48
  12fc58: 54fffe40     	b.eq	0x12fc20 <Java_com_adjust_sdk_sig_NativeLibHelper_nSign+0x6361c>
  12fc5c: d287cce9     	mov	x9, #0x3e67             // =15975
  12fc60: aa1903e1     	mov	x1, x25
  12fc64: f2b71409     	movk	x9, #0xb8a0, lsl #16
  12fc68: eb17011f     	cmp	x8, x23
  12fc6c: f2d44fc9     	movk	x9, #0xa27e, lsl #32
  12fc70: f2ebec49     	movk	x9, #0x5f62, lsl #48
  12fc74: 54fffd60     	b.eq	0x12fc20 <Java_com_adjust_sdk_sig_NativeLibHelper_nSign+0x6361c>
  12fc78: eb1a011f     	cmp	x8, x26
  12fc7c: 54000800     	b.eq	0x12fd7c <Java_com_adjust_sdk_sig_NativeLibHelper_nSign+0x63778>
  12fc80: d2857e69     	mov	x9, #0x2bf3             // =11251
  12fc84: aa1903e1     	mov	x1, x25
  12fc88: f2a45de9     	movk	x9, #0x22ef, lsl #16
  12fc8c: eb0f011f     	cmp	x8, x15
  12fc90: f2cc3809     	movk	x9, #0x61c0, lsl #32
  12fc94: f2eaee49     	movk	x9, #0x5772, lsl #48
  12fc98: 54fffc40     	b.eq	0x12fc20 <Java_com_adjust_sdk_sig_NativeLibHelper_nSign+0x6361c>
  12fc9c: d28edf89     	mov	x9, #0x76fc             // =30460
  12fca0: aa1603e1     	mov	x1, x22
  12fca4: f2acd349     	movk	x9, #0x669a, lsl #16
  12fca8: eb0e011f     	cmp	x8, x14
  12fcac: f2c30449     	movk	x9, #0x1822, lsl #32
  12fcb0: f2e46609     	movk	x9, #0x2330, lsl #48
  12fcb4: 54fffb60     	b.eq	0x12fc20 <Java_com_adjust_sdk_sig_NativeLibHelper_nSign+0x6361c>
  12fcb8: aa1903e1     	mov	x1, x25
  12fcbc: aa1c03e9     	mov	x9, x28
  12fcc0: eb10011f     	cmp	x8, x16
  12fcc4: 54fffae0     	b.eq	0x12fc20 <Java_com_adjust_sdk_sig_NativeLibHelper_nSign+0x6361c>
  12fcc8: eb0d011f     	cmp	x8, x13
  12fccc: 540014c0     	b.eq	0x12ff64 <Java_com_adjust_sdk_sig_NativeLibHelper_nSign+0x63960>
  12fcd0: eb11011f     	cmp	x8, x17
  12fcd4: 54001240     	b.eq	0x12ff1c <Java_com_adjust_sdk_sig_NativeLibHelper_nSign+0x63918>
  12fcd8: d28edf89     	mov	x9, #0x76fc             // =30460
  12fcdc: aa1903e1     	mov	x1, x25
  12fce0: f2acd349     	movk	x9, #0x669a, lsl #16
  12fce4: eb02011f     	cmp	x8, x2
  12fce8: f2c30449     	movk	x9, #0x1822, lsl #32
  12fcec: f2e46609     	movk	x9, #0x2330, lsl #48
  12fcf0: 54fff980     	b.eq	0x12fc20 <Java_com_adjust_sdk_sig_NativeLibHelper_nSign+0x6361c>
  12fcf4: d2857e69     	mov	x9, #0x2bf3             // =11251
  12fcf8: d29da90a     	mov	x10, #0xed48            // =60744
  12fcfc: f2a45de9     	movk	x9, #0x22ef, lsl #16
  12fd00: f2adb06a     	movk	x10, #0x6d83, lsl #16
  12fd04: f2cc3809     	movk	x9, #0x61c0, lsl #32
  12fd08: aa1903e1     	mov	x1, x25
  12fd0c: f2eaee49     	movk	x9, #0x5772, lsl #48
  12fd10: f2d9978a     	movk	x10, #0xccbc, lsl #32
  12fd14: f2e9e5aa     	movk	x10, #0x4f2d, lsl #48
  12fd18: eb0a011f     	cmp	x8, x10
  12fd1c: 54fff820     	b.eq	0x12fc20 <Java_com_adjust_sdk_sig_NativeLibHelper_nSign+0x6361c>
  12fd20: eb09011f     	cmp	x8, x9
  12fd24: 540006a0     	b.eq	0x12fdf8 <Java_com_adjust_sdk_sig_NativeLibHelper_nSign+0x637f4>
  12fd28: d287cce9     	mov	x9, #0x3e67             // =15975
  12fd2c: f2b71409     	movk	x9, #0xb8a0, lsl #16
  12fd30: f2d44fc9     	movk	x9, #0xa27e, lsl #32
  12fd34: f2ebec49     	movk	x9, #0x5f62, lsl #48
  12fd38: eb09011f     	cmp	x8, x9
  12fd3c: 54000a80     	b.eq	0x12fe8c <Java_com_adjust_sdk_sig_NativeLibHelper_nSign+0x63888>
  12fd40: d282ccaa     	mov	x10, #0x1665            // =5733
  12fd44: aa1903e1     	mov	x1, x25
  12fd48: f2b52aca     	movk	x10, #0xa956, lsl #16
  12fd4c: aa0803e9     	mov	x9, x8
  12fd50: f2c2b2ca     	movk	x10, #0x1596, lsl #32
  12fd54: f2fdc3ca     	movk	x10, #0xee1e, lsl #48
  12fd58: eb0a011f     	cmp	x8, x10
  12fd5c: 54fff621     	b.ne	0x12fc20 <Java_com_adjust_sdk_sig_NativeLibHelper_nSign+0x6361c>
  12fd60: 140000af     	b	0x13001c <Java_com_adjust_sdk_sig_NativeLibHelper_nSign+0x63a18>
  12fd64: f00000a8     	adrp	x8, 0x146000
  12fd68: aa1903e1     	mov	x1, x25
  12fd6c: 396e2908     	ldrb	w8, [x8, #0xb8a]
  12fd70: 7100011f     	cmp	w8, #0x0
  12fd74: 9a9a12a9     	csel	x9, x21, x26, ne
  12fd78: 17ffffaa     	b	0x12fc20 <Java_com_adjust_sdk_sig_NativeLibHelper_nSign+0x6361c>
  12fd7c: 39400368     	ldrb	w8, [x27]
  12fd80: 528019c0     	mov	w0, #0xce               // =206
  12fd84: 39400769     	ldrb	w9, [x27, #0x1]
  12fd88: aa1903e1     	mov	x1, x25
  12fd8c: 39400b6a     	ldrb	w10, [x27, #0x2]
  12fd90: 4a000108     	eor	w8, w8, w0
  12fd94: 39400f6b     	ldrb	w11, [x27, #0x3]
  12fd98: 4a000129     	eor	w9, w9, w0
  12fd9c: 3940136c     	ldrb	w12, [x27, #0x4]
  12fda0: 4a00014a     	eor	w10, w10, w0
  12fda4: 39000368     	strb	w8, [x27]
  12fda8: 39401768     	ldrb	w8, [x27, #0x5]
  12fdac: 39000769     	strb	w9, [x27, #0x1]
  12fdb0: 39401b69     	ldrb	w9, [x27, #0x6]
  12fdb4: 39000b6a     	strb	w10, [x27, #0x2]
  12fdb8: 4a00016b     	eor	w11, w11, w0
  12fdbc: 4a000108     	eor	w8, w8, w0
  12fdc0: 4a00018c     	eor	w12, w12, w0
  12fdc4: 4a00012a     	eor	w10, w9, w0
  12fdc8: d282cca9     	mov	x9, #0x1665             // =5733
  12fdcc: f2b52ac9     	movk	x9, #0xa956, lsl #16
  12fdd0: 39000f6b     	strb	w11, [x27, #0x3]
  12fdd4: 39001768     	strb	w8, [x27, #0x5]
  12fdd8: f00000a8     	adrp	x8, 0x146000
  12fddc: 39001b6a     	strb	w10, [x27, #0x6]
  12fde0: 5280002a     	mov	w10, #0x1               // =1
  12fde4: f2c2b2c9     	movk	x9, #0x1596, lsl #32
  12fde8: 3900136c     	strb	w12, [x27, #0x4]
  12fdec: f2fdc3c9     	movk	x9, #0xee1e, lsl #48
  12fdf0: 392e290a     	strb	w10, [x8, #0xb8a]
  12fdf4: 17ffff8b     	b	0x12fc20 <Java_com_adjust_sdk_sig_NativeLibHelper_nSign+0x6361c>
  12fdf8: 2a1f03e0     	mov	w0, wzr
  12fdfc: 52800021     	mov	w1, #0x1                // =1
  12fe00: d503201f     	nop
  12fe04: 100b6c02     	adr	x2, 0x146b84
  12fe08: 9400267e     	bl	0x139800 <Java_com_adjust_sdk_sig_NativeLibHelper_nSign+0x6d1fc>
  12fe0c: d29da908     	mov	x8, #0xed48             // =60744
  12fe10: d2946382     	mov	x2, #0xa31c             // =41756
  12fe14: d2872ab1     	mov	x17, #0x3955            // =14677
  12fe18: d292bbb0     	mov	x16, #0x95dd            // =38365
  12fe1c: d285d72f     	mov	x15, #0x2eb9            // =11961
  12fe20: d292990e     	mov	x14, #0x94c8            // =38088
  12fe24: d28edf8d     	mov	x13, #0x76fc            // =30460
  12fe28: f2adb068     	movk	x8, #0x6d83, lsl #16
  12fe2c: f2b085a2     	movk	x2, #0x842d, lsl #16
  12fe30: f2a24391     	movk	x17, #0x121c, lsl #16
  12fe34: f2af1b70     	movk	x16, #0x78db, lsl #16
  12fe38: f2b5b40f     	movk	x15, #0xada0, lsl #16
  12fe3c: f2b59f0e     	movk	x14, #0xacf8, lsl #16
  12fe40: f2acd34d     	movk	x13, #0x669a, lsl #16
  12fe44: f2d99788     	movk	x8, #0xccbc, lsl #32
  12fe48: f2ded6c2     	movk	x2, #0xf6b6, lsl #32
  12fe4c: f2c022b1     	movk	x17, #0x115, lsl #32
  12fe50: f2d3c050     	movk	x16, #0x9e02, lsl #32
  12fe54: f2c1248f     	movk	x15, #0x924, lsl #32
  12fe58: f2c57f2e     	movk	x14, #0x2bf9, lsl #32
  12fe5c: f2c3044d     	movk	x13, #0x1822, lsl #32
  12fe60: 7100001f     	cmp	w0, #0x0
  12fe64: f2e9e5a8     	movk	x8, #0x4f2d, lsl #48
  12fe68: f2e8e482     	movk	x2, #0x4724, lsl #48
  12fe6c: f2e57331     	movk	x17, #0x2b99, lsl #48
  12fe70: f2e22430     	movk	x16, #0x1121, lsl #48
  12fe74: f2ff524f     	movk	x15, #0xfa92, lsl #48
  12fe78: f2e036ee     	movk	x14, #0x1b7, lsl #48
  12fe7c: f2e4660d     	movk	x13, #0x2330, lsl #48
  12fe80: aa1903e1     	mov	x1, x25
  12fe84: 9a880309     	csel	x9, x24, x8, eq
  12fe88: 17ffff66     	b	0x12fc20 <Java_com_adjust_sdk_sig_NativeLibHelper_nSign+0x6361c>
  12fe8c: d503201f     	nop
  12fe90: 100b67a8     	adr	x8, 0x146b84
  12fe94: 911103e0     	add	x0, sp, #0x440
  12fe98: 52808001     	mov	w1, #0x400              // =1024
  12fe9c: d503201f     	nop
  12fea0: 100b0a42     	adr	x2, 0x145fe8
  12fea4: 089ffd1f     	stlrb	wzr, [x8]
  12fea8: 911103f6     	add	x22, sp, #0x440
  12feac: f9400be3     	ldr	x3, [sp, #0x10]
  12feb0: b9401fe4     	ldr	w4, [sp, #0x1c]
  12feb4: 94000079     	bl	0x130098 <Java_com_adjust_sdk_sig_NativeLibHelper_nSign+0x63a94>
  12feb8: d2946382     	mov	x2, #0xa31c             // =41756
  12febc: d2872ab1     	mov	x17, #0x3955            // =14677
  12fec0: d292bbb0     	mov	x16, #0x95dd            // =38365
  12fec4: d285d72f     	mov	x15, #0x2eb9            // =11961
  12fec8: d292990e     	mov	x14, #0x94c8            // =38088
  12fecc: d28edf8d     	mov	x13, #0x76fc            // =30460
  12fed0: f2b085a2     	movk	x2, #0x842d, lsl #16
  12fed4: f2a24391     	movk	x17, #0x121c, lsl #16
  12fed8: f2af1b70     	movk	x16, #0x78db, lsl #16
  12fedc: f2b5b40f     	movk	x15, #0xada0, lsl #16
  12fee0: f2b59f0e     	movk	x14, #0xacf8, lsl #16
  12fee4: f2acd34d     	movk	x13, #0x669a, lsl #16
  12fee8: f2ded6c2     	movk	x2, #0xf6b6, lsl #32
  12feec: f2c022b1     	movk	x17, #0x115, lsl #32
  12fef0: f2d3c050     	movk	x16, #0x9e02, lsl #32
  12fef4: f2c1248f     	movk	x15, #0x924, lsl #32
  12fef8: f2c57f2e     	movk	x14, #0x2bf9, lsl #32
  12fefc: f2c3044d     	movk	x13, #0x1822, lsl #32
  12ff00: f2e8e482     	movk	x2, #0x4724, lsl #48
  12ff04: f2e57331     	movk	x17, #0x2b99, lsl #48
  12ff08: f2e22430     	movk	x16, #0x1121, lsl #48
  12ff0c: f2ff524f     	movk	x15, #0xfa92, lsl #48
  12ff10: f2e036ee     	movk	x14, #0x1b7, lsl #48
  12ff14: f2e4660d     	movk	x13, #0x2330, lsl #48
  12ff18: 1400003b     	b	0x130004 <Java_com_adjust_sdk_sig_NativeLibHelper_nSign+0x63a00>
  12ff1c: d503201f     	nop
  12ff20: 100b064a     	adr	x10, 0x145fe8
  12ff24: 52801b29     	mov	w9, #0xd9               // =217
  12ff28: aa1903e1     	mov	x1, x25
  12ff2c: 39402148     	ldrb	w8, [x10, #0x8]
  12ff30: fd400140     	ldr	d0, [x10]
  12ff34: 4a090108     	eor	w8, w8, w9
  12ff38: d287cce9     	mov	x9, #0x3e67             // =15975
  12ff3c: 2e281c00     	eor	v0.8b, v0.8b, v8.8b
  12ff40: f2b71409     	movk	x9, #0xb8a0, lsl #16
  12ff44: fd000140     	str	d0, [x10]
  12ff48: f2d44fc9     	movk	x9, #0xa27e, lsl #32
  12ff4c: 39002148     	strb	w8, [x10, #0x8]
  12ff50: f00000a8     	adrp	x8, 0x146000
  12ff54: 5280002a     	mov	w10, #0x1               // =1
  12ff58: f2ebec49     	movk	x9, #0x5f62, lsl #48
  12ff5c: 392e250a     	strb	w10, [x8, #0xb89]
  12ff60: 17ffff30     	b	0x12fc20 <Java_com_adjust_sdk_sig_NativeLibHelper_nSign+0x6361c>
  12ff64: 2a1f03e0     	mov	w0, wzr
  12ff68: 52800021     	mov	w1, #0x1                // =1
  12ff6c: d503201f     	nop
  12ff70: 100b60c2     	adr	x2, 0x146b88
  12ff74: 94002623     	bl	0x139800 <Java_com_adjust_sdk_sig_NativeLibHelper_nSign+0x6d1fc>
  12ff78: d2946382     	mov	x2, #0xa31c             // =41756
  12ff7c: d2872ab1     	mov	x17, #0x3955            // =14677
  12ff80: f2b085a2     	movk	x2, #0x842d, lsl #16
  12ff84: d292bbb0     	mov	x16, #0x95dd            // =38365
  12ff88: d285d72f     	mov	x15, #0x2eb9            // =11961
  12ff8c: d292990e     	mov	x14, #0x94c8            // =38088
  12ff90: d28edf8d     	mov	x13, #0x76fc            // =30460
  12ff94: f2ded6c2     	movk	x2, #0xf6b6, lsl #32
  12ff98: f2a24391     	movk	x17, #0x121c, lsl #16
  12ff9c: f2af1b70     	movk	x16, #0x78db, lsl #16
  12ffa0: f2b5b40f     	movk	x15, #0xada0, lsl #16
  12ffa4: f2b59f0e     	movk	x14, #0xacf8, lsl #16
  12ffa8: f2acd34d     	movk	x13, #0x669a, lsl #16
  12ffac: f2e8e482     	movk	x2, #0x4724, lsl #48
  12ffb0: f2c022b1     	movk	x17, #0x115, lsl #32
  12ffb4: f2d3c050     	movk	x16, #0x9e02, lsl #32
  12ffb8: f2c1248f     	movk	x15, #0x924, lsl #32
  12ffbc: f2c57f2e     	movk	x14, #0x2bf9, lsl #32
  12ffc0: f2c3044d     	movk	x13, #0x1822, lsl #32
  12ffc4: 7100001f     	cmp	w0, #0x0
  12ffc8: f2e57331     	movk	x17, #0x2b99, lsl #48
  12ffcc: f2e22430     	movk	x16, #0x1121, lsl #48
  12ffd0: f2ff524f     	movk	x15, #0xfa92, lsl #48
  12ffd4: f2e036ee     	movk	x14, #0x1b7, lsl #48
  12ffd8: f2e4660d     	movk	x13, #0x2330, lsl #48
  12ffdc: aa1903e1     	mov	x1, x25
  12ffe0: 9a820269     	csel	x9, x19, x2, eq
  12ffe4: 17ffff0f     	b	0x12fc20 <Java_com_adjust_sdk_sig_NativeLibHelper_nSign+0x6361c>
  12ffe8: f00000a8     	adrp	x8, 0x146000
  12ffec: aa1903e1     	mov	x1, x25
  12fff0: 396e2508     	ldrb	w8, [x8, #0xb89]
  12fff4: 7100011f     	cmp	w8, #0x0
  12fff8: 9a9112e9     	csel	x9, x23, x17, ne
  12fffc: 17ffff09     	b	0x12fc20 <Java_com_adjust_sdk_sig_NativeLibHelper_nSign+0x6361c>
  130000: aa1f03f6     	mov	x22, xzr
  130004: d2929909     	mov	x9, #0x94c8             // =38088
  130008: aa1903e1     	mov	x1, x25
  13000c: f2b59f09     	movk	x9, #0xacf8, lsl #16
  130010: f2c57f29     	movk	x9, #0x2bf9, lsl #32
  130014: f2e036e9     	movk	x9, #0x1b7, lsl #48
  130018: 17ffff02     	b	0x12fc20 <Java_com_adjust_sdk_sig_NativeLibHelper_nSign+0x6361c>
  13001c: d503201f     	nop
  130020: 100b5b48     	adr	x8, 0x146b88
  130024: d503201f     	nop
  130028: 100afe74     	adr	x20, 0x145ff4
  13002c: 910103e3     	add	x3, sp, #0x40
  130030: aa1403e1     	mov	x1, x20
  130034: 089ffd1f     	stlrb	wzr, [x8]
  130038: aa1903e2     	mov	x2, x25
  13003c: b9400ff3     	ldr	w19, [sp, #0xc]
  130040: 2a1303e0     	mov	w0, w19
  130044: 9400003a     	bl	0x13012c <Java_com_adjust_sdk_sig_NativeLibHelper_nSign+0x63b28>
  130048: 910103e3     	add	x3, sp, #0x40
  13004c: 2a1303e0     	mov	w0, w19
  130050: aa1403e1     	mov	x1, x20
  130054: aa1903e2     	mov	x2, x25
  130058: 94000034     	bl	0x130128 <Java_com_adjust_sdk_sig_NativeLibHelper_nSign+0x63b24>
  13005c: f94003e8     	ldr	x8, [sp]
  130060: f9401508     	ldr	x8, [x8, #0x28]
  130064: f85e03a9     	ldur	x9, [x29, #-0x20]
  130068: eb09011f     	cmp	x8, x9
  13006c: 54000141     	b.ne	0x130094 <Java_com_adjust_sdk_sig_NativeLibHelper_nSign+0x63a90>
  130070: 912143ff     	add	sp, sp, #0x850
  130074: a9464ff4     	ldp	x20, x19, [sp, #0x60]
  130078: a94557f6     	ldp	x22, x21, [sp, #0x50]
  13007c: a9445ff8     	ldp	x24, x23, [sp, #0x40]
  130080: a94367fa     	ldp	x26, x25, [sp, #0x30]
  130084: a9426ffc     	ldp	x28, x27, [sp, #0x20]
  130088: a9417bfd     	ldp	x29, x30, [sp, #0x10]
  13008c: fc4707e8     	ldr	d8, [sp], #0x70
  130090: d65f03c0     	ret
  130094: 94002757     	bl	0x139df0 <__stack_chk_fail@plt>
  130098: d10483ff     	sub	sp, sp, #0x120
  13009c: a9107bfd     	stp	x29, x30, [sp, #0x100]
  1300a0: a9114ffc     	stp	x28, x19, [sp, #0x110]
  1300a4: 910403fd     	add	x29, sp, #0x100
  1300a8: a93893a3     	stp	x3, x4, [x29, #-0x78]
  1300ac: d101e3a9     	sub	x9, x29, #0x78
  1300b0: a9399ba5     	stp	x5, x6, [x29, #-0x68]
  1300b4: 928004ea     	mov	x10, #-0x28             // =-40
  1300b8: f81a83a7     	stur	x7, [x29, #-0x58]
  1300bc: 910003eb     	mov	x11, sp
  1300c0: ad0007e0     	stp	q0, q1, [sp]
  1300c4: 9100a129     	add	x9, x9, #0x28
  1300c8: ad010fe2     	stp	q2, q3, [sp, #0x20]
  1300cc: f2dff00a     	movk	x10, #0xff80, lsl #32
  1300d0: ad0217e4     	stp	q4, q5, [sp, #0x40]
  1300d4: 9102016b     	add	x11, x11, #0x80
  1300d8: ad031fe6     	stp	q6, q7, [sp, #0x60]
  1300dc: d53bd053     	mrs	x19, TPIDR_EL0
  1300e0: f9401668     	ldr	x8, [x19, #0x28]
  1300e4: d100c3a3     	sub	x3, x29, #0x30
  1300e8: f81f83a8     	stur	x8, [x29, #-0x8]
  1300ec: 910083a8     	add	x8, x29, #0x20
  1300f0: a93c2bab     	stp	x11, x10, [x29, #-0x40]
  1300f4: a93b27a8     	stp	x8, x9, [x29, #-0x50]
  1300f8: ad7d87a0     	ldp	q0, q1, [x29, #-0x50]
  1300fc: ad3e87a0     	stp	q0, q1, [x29, #-0x30]
  130100: 94002790     	bl	0x139f40 <vsnprintf@plt>
  130104: f9401668     	ldr	x8, [x19, #0x28]
  130108: f85f83a9     	ldur	x9, [x29, #-0x8]
  13010c: eb09011f     	cmp	x8, x9
  130110: 540000a1     	b.ne	0x130124 <Java_com_adjust_sdk_sig_NativeLibHelper_nSign+0x63b20>
  130114: a9514ffc     	ldp	x28, x19, [sp, #0x110]
  130118: a9507bfd     	ldp	x29, x30, [sp, #0x100]
  13011c: 910483ff     	add	sp, sp, #0x120
  130120: d65f03c0     	ret
  130124: 94002733     	bl	0x139df0 <__stack_chk_fail@plt>
  130128: d65f03c0     	ret
  13012c: d10243ff     	sub	sp, sp, #0x90
  130130: a9037bfd     	stp	x29, x30, [sp, #0x30]
  130134: a9046ffc     	stp	x28, x27, [sp, #0x40]
  130138: a90567fa     	stp	x26, x25, [sp, #0x50]
  13013c: a9065ff8     	stp	x24, x23, [sp, #0x60]
  130140: a90757f6     	stp	x22, x21, [sp, #0x70]
  130144: a9084ff4     	stp	x20, x19, [sp, #0x80]
  130148: 9100c3fd     	add	x29, sp, #0x30
  13014c: d2857e68     	mov	x8, #0x2bf3             // =11251
  130150: d28edf89     	mov	x9, #0x76fc             // =30460
  130154: f2a45de8     	movk	x8, #0x22ef, lsl #16
  130158: f2acd349     	movk	x9, #0x669a, lsl #16
  13015c: f2cc3808     	movk	x8, #0x61c0, lsl #32
  130160: f2c30449     	movk	x9, #0x1822, lsl #32
  130164: f100005f     	cmp	x2, #0x0
  130168: f2eaee48     	movk	x8, #0x5772, lsl #48
  13016c: f2e46609     	movk	x9, #0x2330, lsl #48
  130170: d292b773     	mov	x19, #0x95bb            // =38331
  130174: d285d735     	mov	x21, #0x2eb9            // =11961
  130178: d2884f5c     	mov	x28, #0x427a            // =17018
  13017c: d292990e     	mov	x14, #0x94c8            // =38088
  130180: 9a880128     	csel	x8, x9, x8, eq
  130184: f2b5c693     	movk	x19, #0xae34, lsl #16
  130188: f2b5b415     	movk	x21, #0xada0, lsl #16
  13018c: d292bbaf     	mov	x15, #0x95dd            // =38365
  130190: d28d84ba     	mov	x26, #0x6c25            // =27685
  130194: d28da858     	mov	x24, #0x6d42            // =27970
  130198: d2991757     	mov	x23, #0xc8ba            // =51386
  13019c: d297c154     	mov	x20, #0xbe0a            // =48650
  1301a0: d282ccb6     	mov	x22, #0x1665            // =5733
  1301a4: d29dc090     	mov	x16, #0xee04            // =60932
  1301a8: d292bba9     	mov	x9, #0x95dd             // =38365
  1301ac: f2a23a1c     	movk	x28, #0x11d0, lsl #16
  1301b0: f2b59f0e     	movk	x14, #0xacf8, lsl #16
  1301b4: f2dd2173     	movk	x19, #0xe90b, lsl #32
  1301b8: f2c12495     	movk	x21, #0x924, lsl #32
  1301bc: f2af1b6f     	movk	x15, #0x78db, lsl #16
  1301c0: f2a2977a     	movk	x26, #0x14bb, lsl #16
  1301c4: f2a20478     	movk	x24, #0x1023, lsl #16
  1301c8: f2a41317     	movk	x23, #0x2098, lsl #16
  1301cc: f2a61fb4     	movk	x20, #0x30fd, lsl #16
  1301d0: f2b52ad6     	movk	x22, #0xa956, lsl #16
  1301d4: f2b00dd0     	movk	x16, #0x806e, lsl #16
  1301d8: f2af1b69     	movk	x9, #0x78db, lsl #16
  1301dc: f2c31b1c     	movk	x28, #0x18d8, lsl #32
  1301e0: f2c57f2e     	movk	x14, #0x2bf9, lsl #32
  1301e4: 7100101f     	cmp	w0, #0x4
  1301e8: f2f50853     	movk	x19, #0xa842, lsl #48
  1301ec: f2ff5255     	movk	x21, #0xfa92, lsl #48
  1301f0: f2d3c04f     	movk	x15, #0x9e02, lsl #32
  1301f4: f2dda7fa     	movk	x26, #0xed3f, lsl #32
  1301f8: f2d69638     	movk	x24, #0xb4b1, lsl #32
  1301fc: f2db20d7     	movk	x23, #0xd906, lsl #32
  130200: f2d8f974     	movk	x20, #0xc7cb, lsl #32
  130204: f2c2b2d6     	movk	x22, #0x1596, lsl #32
  130208: f2deb5b0     	movk	x16, #0xf5ad, lsl #32
  13020c: f2d3c049     	movk	x9, #0x9e02, lsl #32
  130210: f2f43b1c     	movk	x28, #0xa1d8, lsl #48
  130214: f2e036ee     	movk	x14, #0x1b7, lsl #48
  130218: 93407c0a     	sxtw	x10, w0
  13021c: 9a9332bb     	csel	x27, x21, x19, lo
  130220: f2e2242f     	movk	x15, #0x1121, lsl #48
  130224: f2f5a93a     	movk	x26, #0xad49, lsl #48
  130228: f2f7b218     	movk	x24, #0xbd90, lsl #48
  13022c: f2f665b7     	movk	x23, #0xb32d, lsl #48
  130230: f2fa2374     	movk	x20, #0xd11b, lsl #48
  130234: f2fdc3d6     	movk	x22, #0xee1e, lsl #48
  130238: f2e185d0     	movk	x16, #0xc2e, lsl #48
  13023c: f2e22429     	movk	x9, #0x1121, lsl #48
  130240: d503201f     	nop
  130244: 100aedd9     	adr	x25, 0x145ffc
  130248: f81f03a3     	stur	x3, [x29, #-0x10]
  13024c: a90107e2     	stp	x2, x1, [sp, #0x10]
  130250: a9002be8     	stp	x8, x10, [sp]
  130254: eb1c013f     	cmp	x9, x28
  130258: 54000b60     	b.eq	0x1303c4 <Java_com_adjust_sdk_sig_NativeLibHelper_nSign+0x63dc0>
  13025c: aa0903e8     	mov	x8, x9
  130260: d280a369     	mov	x9, #0x51b              // =1307
  130264: f2b90f09     	movk	x9, #0xc878, lsl #16
  130268: eb13011f     	cmp	x8, x19
  13026c: f2d9a7e9     	movk	x9, #0xcd3f, lsl #32
  130270: f2f92569     	movk	x9, #0xc92b, lsl #48
  130274: 54ffff00     	b.eq	0x130254 <Java_com_adjust_sdk_sig_NativeLibHelper_nSign+0x63c50>
  130278: eb1a011f     	cmp	x8, x26
  13027c: 54000b80     	b.eq	0x1303ec <Java_com_adjust_sdk_sig_NativeLibHelper_nSign+0x63de8>
  130280: d2884f49     	mov	x9, #0x427a             // =17018
  130284: eb17011f     	cmp	x8, x23
  130288: f2a23a09     	movk	x9, #0x11d0, lsl #16
  13028c: f2c31b09     	movk	x9, #0x18d8, lsl #32
  130290: f2f43b09     	movk	x9, #0xa1d8, lsl #48
  130294: 54fffe00     	b.eq	0x130254 <Java_com_adjust_sdk_sig_NativeLibHelper_nSign+0x63c50>
  130298: d2929909     	mov	x9, #0x94c8             // =38088
  13029c: eb18011f     	cmp	x8, x24
  1302a0: f2b59f09     	movk	x9, #0xacf8, lsl #16
  1302a4: f2c57f29     	movk	x9, #0x2bf9, lsl #32
  1302a8: f2e036e9     	movk	x9, #0x1b7, lsl #48
  1302ac: 54fffd40     	b.eq	0x130254 <Java_com_adjust_sdk_sig_NativeLibHelper_nSign+0x63c50>
  1302b0: d2946389     	mov	x9, #0xa31c             // =41756
  1302b4: eb14011f     	cmp	x8, x20
  1302b8: f2b085a9     	movk	x9, #0x842d, lsl #16
  1302bc: f2ded6c9     	movk	x9, #0xf6b6, lsl #32
  1302c0: f2e8e489     	movk	x9, #0x4724, lsl #48
  1302c4: 54fffc80     	b.eq	0x130254 <Java_com_adjust_sdk_sig_NativeLibHelper_nSign+0x63c50>
  1302c8: eb16011f     	cmp	x8, x22
  1302cc: 54000a20     	b.eq	0x130410 <Java_com_adjust_sdk_sig_NativeLibHelper_nSign+0x63e0c>
  1302d0: eb15011f     	cmp	x8, x21
  1302d4: 54000c60     	b.eq	0x130460 <Java_com_adjust_sdk_sig_NativeLibHelper_nSign+0x63e5c>
  1302d8: eb0e011f     	cmp	x8, x14
  1302dc: 54000d00     	b.eq	0x13047c <Java_com_adjust_sdk_sig_NativeLibHelper_nSign+0x63e78>
  1302e0: eb10011f     	cmp	x8, x16
  1302e4: 54000fe0     	b.eq	0x1304e0 <Java_com_adjust_sdk_sig_NativeLibHelper_nSign+0x63edc>
  1302e8: aa1b03e9     	mov	x9, x27
  1302ec: eb0f011f     	cmp	x8, x15
  1302f0: 54fffb20     	b.eq	0x130254 <Java_com_adjust_sdk_sig_NativeLibHelper_nSign+0x63c50>
  1302f4: d2946389     	mov	x9, #0xa31c             // =41756
  1302f8: d28edf8a     	mov	x10, #0x76fc            // =30460
  1302fc: f2b085a9     	movk	x9, #0x842d, lsl #16
  130300: f2acd34a     	movk	x10, #0x669a, lsl #16
  130304: f2ded6c9     	movk	x9, #0xf6b6, lsl #32
  130308: f2c3044a     	movk	x10, #0x1822, lsl #32
  13030c: f2e8e489     	movk	x9, #0x4724, lsl #48
  130310: f2e4660a     	movk	x10, #0x2330, lsl #48
  130314: eb0a011f     	cmp	x8, x10
  130318: 54fff9e0     	b.eq	0x130254 <Java_com_adjust_sdk_sig_NativeLibHelper_nSign+0x63c50>
  13031c: d29da909     	mov	x9, #0xed48             // =60744
  130320: d2872aaa     	mov	x10, #0x3955            // =14677
  130324: f2adb069     	movk	x9, #0x6d83, lsl #16
  130328: f2a2438a     	movk	x10, #0x121c, lsl #16
  13032c: f2d99789     	movk	x9, #0xccbc, lsl #32
  130330: f2c022aa     	movk	x10, #0x115, lsl #32
  130334: f2e9e5a9     	movk	x9, #0x4f2d, lsl #48
  130338: f2e5732a     	movk	x10, #0x2b99, lsl #48
  13033c: eb0a011f     	cmp	x8, x10
  130340: 54fff8a0     	b.eq	0x130254 <Java_com_adjust_sdk_sig_NativeLibHelper_nSign+0x63c50>
  130344: d2946389     	mov	x9, #0xa31c             // =41756
  130348: f2b085a9     	movk	x9, #0x842d, lsl #16
  13034c: f2ded6c9     	movk	x9, #0xf6b6, lsl #32
  130350: f2e8e489     	movk	x9, #0x4724, lsl #48
  130354: eb09011f     	cmp	x8, x9
  130358: 54000ce0     	b.eq	0x1304f4 <Java_com_adjust_sdk_sig_NativeLibHelper_nSign+0x63ef0>
  13035c: d29da909     	mov	x9, #0xed48             // =60744
  130360: f2adb069     	movk	x9, #0x6d83, lsl #16
  130364: f2d99789     	movk	x9, #0xccbc, lsl #32
  130368: f2e9e5a9     	movk	x9, #0x4f2d, lsl #48
  13036c: eb09011f     	cmp	x8, x9
  130370: 54000ea0     	b.eq	0x130544 <Java_com_adjust_sdk_sig_NativeLibHelper_nSign+0x63f40>
  130374: d2857e6a     	mov	x10, #0x2bf3            // =11251
  130378: f2a45dea     	movk	x10, #0x22ef, lsl #16
  13037c: f2cc380a     	movk	x10, #0x61c0, lsl #32
  130380: f2eaee4a     	movk	x10, #0x5772, lsl #48
  130384: eb0a011f     	cmp	x8, x10
  130388: 54fff660     	b.eq	0x130254 <Java_com_adjust_sdk_sig_NativeLibHelper_nSign+0x63c50>
  13038c: d287cce9     	mov	x9, #0x3e67             // =15975
  130390: f2b71409     	movk	x9, #0xb8a0, lsl #16
  130394: f2d44fc9     	movk	x9, #0xa27e, lsl #32
  130398: f2ebec49     	movk	x9, #0x5f62, lsl #48
  13039c: eb09011f     	cmp	x8, x9
  1303a0: 54001020     	b.eq	0x1305a4 <Java_com_adjust_sdk_sig_NativeLibHelper_nSign+0x63fa0>
  1303a4: d280a36a     	mov	x10, #0x51b             // =1307
  1303a8: aa0803e9     	mov	x9, x8
  1303ac: f2b90f0a     	movk	x10, #0xc878, lsl #16
  1303b0: f2d9a7ea     	movk	x10, #0xcd3f, lsl #32
  1303b4: f2f9256a     	movk	x10, #0xc92b, lsl #48
  1303b8: eb0a011f     	cmp	x8, x10
  1303bc: 54fff4c1     	b.ne	0x130254 <Java_com_adjust_sdk_sig_NativeLibHelper_nSign+0x63c50>
  1303c0: 14000097     	b	0x13061c <Java_com_adjust_sdk_sig_NativeLibHelper_nSign+0x64018>
  1303c4: d503201f     	nop
  1303c8: 100b3e68     	adr	x8, 0x146b94
  1303cc: d503201f     	nop
  1303d0: 100ae1a2     	adr	x2, 0x146004
  1303d4: 089ffd1f     	stlrb	wzr, [x8]
  1303d8: b85fc3a0     	ldur	w0, [x29, #-0x4]
  1303dc: f9400fe1     	ldr	x1, [sp, #0x18]
  1303e0: f85f03a3     	ldur	x3, [x29, #-0x10]
  1303e4: 9400273b     	bl	0x13a0d0 <__android_log_print@plt>
  1303e8: 1400002d     	b	0x13049c <Java_com_adjust_sdk_sig_NativeLibHelper_nSign+0x63e98>
  1303ec: d00000a8     	adrp	x8, 0x146000
  1303f0: 396e5508     	ldrb	w8, [x8, #0xb95]
  1303f4: 7100011f     	cmp	w8, #0x0
  1303f8: d287cce8     	mov	x8, #0x3e67             // =15975
  1303fc: f2b71408     	movk	x8, #0xb8a0, lsl #16
  130400: f2d44fc8     	movk	x8, #0xa27e, lsl #32
  130404: f2ebec48     	movk	x8, #0x5f62, lsl #48
  130408: 9a881309     	csel	x9, x24, x8, ne
  13040c: 17ffff92     	b	0x130254 <Java_com_adjust_sdk_sig_NativeLibHelper_nSign+0x63c50>
  130410: d503201f     	nop
  130414: 100adf8c     	adr	x12, 0x146004
  130418: 52800b2d     	mov	w13, #0x59              // =89
  13041c: 39400188     	ldrb	w8, [x12]
  130420: 3940098a     	ldrb	w10, [x12, #0x2]
  130424: 39400589     	ldrb	w9, [x12, #0x1]
  130428: 4a0d0108     	eor	w8, w8, w13
  13042c: 4a0d014a     	eor	w10, w10, w13
  130430: 4a0d012b     	eor	w11, w9, w13
  130434: d2884f49     	mov	x9, #0x427a             // =17018
  130438: 39000188     	strb	w8, [x12]
  13043c: d00000a8     	adrp	x8, 0x146000
  130440: 3900098a     	strb	w10, [x12, #0x2]
  130444: 5280002a     	mov	w10, #0x1               // =1
  130448: f2a23a09     	movk	x9, #0x11d0, lsl #16
  13044c: 3900058b     	strb	w11, [x12, #0x1]
  130450: f2c31b09     	movk	x9, #0x18d8, lsl #32
  130454: f2f43b09     	movk	x9, #0xa1d8, lsl #48
  130458: 392e590a     	strb	w10, [x8, #0xb96]
  13045c: 17ffff7e     	b	0x130254 <Java_com_adjust_sdk_sig_NativeLibHelper_nSign+0x63c50>
  130460: f94007e8     	ldr	x8, [sp, #0x8]
  130464: d0fff689     	adrp	x9, 0x2000
  130468: 913f8129     	add	x9, x9, #0xfe0
  13046c: b8687928     	ldr	w8, [x9, x8, lsl #2]
  130470: f94003e9     	ldr	x9, [sp]
  130474: b81fc3a8     	stur	w8, [x29, #-0x4]
  130478: 17ffff77     	b	0x130254 <Java_com_adjust_sdk_sig_NativeLibHelper_nSign+0x63c50>
  13047c: d503201f     	nop
  130480: 100b3888     	adr	x8, 0x146b90
  130484: aa1903e2     	mov	x2, x25
  130488: 089ffd1f     	stlrb	wzr, [x8]
  13048c: a94107e3     	ldp	x3, x1, [sp, #0x10]
  130490: b85fc3a0     	ldur	w0, [x29, #-0x4]
  130494: f85f03a4     	ldur	x4, [x29, #-0x10]
  130498: 9400270e     	bl	0x13a0d0 <__android_log_print@plt>
  13049c: d29dc090     	mov	x16, #0xee04            // =60932
  1304a0: d292bbaf     	mov	x15, #0x95dd            // =38365
  1304a4: d292990e     	mov	x14, #0x94c8            // =38088
  1304a8: d280a369     	mov	x9, #0x51b              // =1307
  1304ac: f2b00dd0     	movk	x16, #0x806e, lsl #16
  1304b0: f2af1b6f     	movk	x15, #0x78db, lsl #16
  1304b4: f2b59f0e     	movk	x14, #0xacf8, lsl #16
  1304b8: f2b90f09     	movk	x9, #0xc878, lsl #16
  1304bc: f2deb5b0     	movk	x16, #0xf5ad, lsl #32
  1304c0: f2d3c04f     	movk	x15, #0x9e02, lsl #32
  1304c4: f2c57f2e     	movk	x14, #0x2bf9, lsl #32
  1304c8: f2d9a7e9     	movk	x9, #0xcd3f, lsl #32
  1304cc: f2e185d0     	movk	x16, #0xc2e, lsl #48
  1304d0: f2e2242f     	movk	x15, #0x1121, lsl #48
  1304d4: f2e036ee     	movk	x14, #0x1b7, lsl #48
  1304d8: f2f92569     	movk	x9, #0xc92b, lsl #48
  1304dc: 17ffff5e     	b	0x130254 <Java_com_adjust_sdk_sig_NativeLibHelper_nSign+0x63c50>
  1304e0: d00000a8     	adrp	x8, 0x146000
  1304e4: 396e5908     	ldrb	w8, [x8, #0xb96]
  1304e8: 7100011f     	cmp	w8, #0x0
  1304ec: 9a9612e9     	csel	x9, x23, x22, ne
  1304f0: 17ffff59     	b	0x130254 <Java_com_adjust_sdk_sig_NativeLibHelper_nSign+0x63c50>
  1304f4: 2a1f03e0     	mov	w0, wzr
  1304f8: 52800021     	mov	w1, #0x1                // =1
  1304fc: d503201f     	nop
  130500: 100b34a2     	adr	x2, 0x146b94
  130504: 940024bf     	bl	0x139800 <Java_com_adjust_sdk_sig_NativeLibHelper_nSign+0x6d1fc>
  130508: d29dc090     	mov	x16, #0xee04            // =60932
  13050c: d292bbaf     	mov	x15, #0x95dd            // =38365
  130510: f2b00dd0     	movk	x16, #0x806e, lsl #16
  130514: d292990e     	mov	x14, #0x94c8            // =38088
  130518: f2deb5b0     	movk	x16, #0xf5ad, lsl #32
  13051c: f2af1b6f     	movk	x15, #0x78db, lsl #16
  130520: f2b59f0e     	movk	x14, #0xacf8, lsl #16
  130524: f2e185d0     	movk	x16, #0xc2e, lsl #48
  130528: f2d3c04f     	movk	x15, #0x9e02, lsl #32
  13052c: f2c57f2e     	movk	x14, #0x2bf9, lsl #32
  130530: 7100001f     	cmp	w0, #0x0
  130534: f2e2242f     	movk	x15, #0x1121, lsl #48
  130538: f2e036ee     	movk	x14, #0x1b7, lsl #48
  13053c: 9a940209     	csel	x9, x16, x20, eq
  130540: 17ffff45     	b	0x130254 <Java_com_adjust_sdk_sig_NativeLibHelper_nSign+0x63c50>
  130544: 2a1f03e0     	mov	w0, wzr
  130548: 52800021     	mov	w1, #0x1                // =1
  13054c: d503201f     	nop
  130550: 100b3202     	adr	x2, 0x146b90
  130554: 940024ab     	bl	0x139800 <Java_com_adjust_sdk_sig_NativeLibHelper_nSign+0x6d1fc>
  130558: d2872aa8     	mov	x8, #0x3955             // =14677
  13055c: d29dc090     	mov	x16, #0xee04            // =60932
  130560: d292bbaf     	mov	x15, #0x95dd            // =38365
  130564: d292990e     	mov	x14, #0x94c8            // =38088
  130568: f2a24388     	movk	x8, #0x121c, lsl #16
  13056c: f2b00dd0     	movk	x16, #0x806e, lsl #16
  130570: f2af1b6f     	movk	x15, #0x78db, lsl #16
  130574: f2b59f0e     	movk	x14, #0xacf8, lsl #16
  130578: f2c022a8     	movk	x8, #0x115, lsl #32
  13057c: f2deb5b0     	movk	x16, #0xf5ad, lsl #32
  130580: f2d3c04f     	movk	x15, #0x9e02, lsl #32
  130584: f2c57f2e     	movk	x14, #0x2bf9, lsl #32
  130588: 7100001f     	cmp	w0, #0x0
  13058c: f2e57328     	movk	x8, #0x2b99, lsl #48
  130590: f2e185d0     	movk	x16, #0xc2e, lsl #48
  130594: f2e2242f     	movk	x15, #0x1121, lsl #48
  130598: f2e036ee     	movk	x14, #0x1b7, lsl #48
  13059c: 9a880349     	csel	x9, x26, x8, eq
  1305a0: 17ffff2d     	b	0x130254 <Java_com_adjust_sdk_sig_NativeLibHelper_nSign+0x63c50>
  1305a4: 39400328     	ldrb	w8, [x25]
  1305a8: 52801211     	mov	w17, #0x90              // =144
  1305ac: 39400729     	ldrb	w9, [x25, #0x1]
  1305b0: 39400b2a     	ldrb	w10, [x25, #0x2]
  1305b4: 4a110108     	eor	w8, w8, w17
  1305b8: 3940132c     	ldrb	w12, [x25, #0x4]
  1305bc: 3940172d     	ldrb	w13, [x25, #0x5]
  1305c0: 4a110129     	eor	w9, w9, w17
  1305c4: 4a11014a     	eor	w10, w10, w17
  1305c8: 39400f2b     	ldrb	w11, [x25, #0x3]
  1305cc: 39000328     	strb	w8, [x25]
  1305d0: 39401b28     	ldrb	w8, [x25, #0x6]
  1305d4: 39000729     	strb	w9, [x25, #0x1]
  1305d8: 4a110189     	eor	w9, w12, w17
  1305dc: 39000b2a     	strb	w10, [x25, #0x2]
  1305e0: 4a1101aa     	eor	w10, w13, w17
  1305e4: 4a110108     	eor	w8, w8, w17
  1305e8: 4a11016b     	eor	w11, w11, w17
  1305ec: 39001329     	strb	w9, [x25, #0x4]
  1305f0: d2929909     	mov	x9, #0x94c8             // =38088
  1305f4: 3900172a     	strb	w10, [x25, #0x5]
  1305f8: 5280002a     	mov	w10, #0x1               // =1
  1305fc: 39001b28     	strb	w8, [x25, #0x6]
  130600: d00000a8     	adrp	x8, 0x146000
  130604: f2b59f09     	movk	x9, #0xacf8, lsl #16
  130608: 39000f2b     	strb	w11, [x25, #0x3]
  13060c: f2c57f29     	movk	x9, #0x2bf9, lsl #32
  130610: f2e036e9     	movk	x9, #0x1b7, lsl #48
  130614: 392e550a     	strb	w10, [x8, #0xb95]
  130618: 17ffff0f     	b	0x130254 <Java_com_adjust_sdk_sig_NativeLibHelper_nSign+0x63c50>
  13061c: a9484ff4     	ldp	x20, x19, [sp, #0x80]
  130620: a94757f6     	ldp	x22, x21, [sp, #0x70]
  130624: a9465ff8     	ldp	x24, x23, [sp, #0x60]
  130628: a94567fa     	ldp	x26, x25, [sp, #0x50]
  13062c: a9446ffc     	ldp	x28, x27, [sp, #0x40]
  130630: a9437bfd     	ldp	x29, x30, [sp, #0x30]
  130634: 910243ff     	add	sp, sp, #0x90
  130638: d65f03c0     	ret
