
/Users/sanbo/Desktop/api/qbdi/adjust-android-signature-3.67.0/jni/x86_64/libsigner.so:	file format elf64-x86-64

Disassembly of section .text:

000000000000e780 <.text>:
   a6356: 55                           	pushq	%rbp
   a6357: 41 57                        	pushq	%r15
   a6359: 41 56                        	pushq	%r14
   a635b: 41 55                        	pushq	%r13
   a635d: 41 54                        	pushq	%r12
   a635f: 53                           	pushq	%rbx
   a6360: 48 83 ec 48                  	subq	$0x48, %rsp
   a6364: 48 89 74 24 18               	movq	%rsi, 0x18(%rsp)
   a6369: 48 89 7c 24 20               	movq	%rdi, 0x20(%rsp)
   a636e: 48 bb bb f5 bd a2 c1 42 20 e5	movabsq	$-0x1adfbd3e5d420a45, %rbx # imm = 0xE52042C1A2BDF5BB
   a6378: 49 bd b8 df 08 c6 9b 4a 99 cd	movabsq	$-0x3266b56439f72048, %r13 # imm = 0xCD994A9BC608DFB8
   a6382: 48 be 05 5f 00 7e d1 04 67 ca	movabsq	$-0x3598fb2e81ffa0fb, %rsi # imm = 0xCA6704D17E005F05
   a638c: 48 bd 67 5d b3 67 fd 97 51 b3	movabsq	$-0x4cae6802984ca299, %rbp # imm = 0xB35197FD67B35D67
   a6396: 48 bf 1d 2b 2a 7f bb 1e 1b 75	movabsq	$0x751b1ebb7f2a2b1d, %rdi # imm = 0x751B1EBB7F2A2B1D
   a63a0: 48 89 4c 24 38               	movq	%rcx, 0x38(%rsp)
   a63a5: 48 85 c9                     	testq	%rcx, %rcx
   a63a8: 49 b8 6c bc eb 19 59 89 6d ab	movabsq	$-0x549276a6e6144394, %r8 # imm = 0xAB6D895919EBBC6C
   a63b2: 49 b9 7a 37 52 c5 37 1f 83 e8	movabsq	$-0x177ce0c83aadc886, %r9 # imm = 0xE8831F37C552377A
   a63bc: 4c 89 c8                     	movq	%r9, %rax
   a63bf: 49 0f 45 c0                  	cmovneq	%r8, %rax
   a63c3: 49 bf 79 0d 94 19 57 29 ab 61	movabsq	$0x61ab295719940d79, %r15 # imm = 0x61AB295719940D79
   a63cd: 48 89 54 24 28               	movq	%rdx, 0x28(%rsp)
   a63d2: 48 85 d2                     	testq	%rdx, %rdx
   a63d5: 49 0f 44 c1                  	cmoveq	%r9, %rax
   a63d9: 49 be c7 20 37 f0 02 1c 37 24	movabsq	$0x24371c02f03720c7, %r14 # imm = 0x24371C02F03720C7
   a63e3: 48 ba d6 f7 ac b9 a5 b3 b2 34	movabsq	$0x34b2b3a5b9acf7d6, %rdx # imm = 0x34B2B3A5B9ACF7D6
   a63ed: 49 bb e7 4a 04 aa 45 18 93 8b	movabsq	$-0x746ce7ba55fbb519, %r11 # imm = 0x8B931845AA044AE7
   a63f7: 48 89 d1                     	movq	%rdx, %rcx
   a63fa: 48 89 c2                     	movq	%rax, %rdx
   a63fd: 48 89 44 24 10               	movq	%rax, 0x10(%rsp)
   a6402: 48 89 c8                     	movq	%rcx, %rax
   a6405: 4c 89 f1                     	movq	%r14, %rcx
   a6408: 49 ba 2e 59 25 00 f4 14 21 88	movabsq	$-0x77deeb0bffdaa6d2, %r10 # imm = 0x882114F40025592E
   a6412: 4c 39 d0                     	cmpq	%r10, %rax
   a6415: 74 eb                        	je	0xa6402 <.text+0x97c82>
   a6417: 4c 39 d8                     	cmpq	%r11, %rax
   a641a: 0f 84 86 01 00 00            	je	0xa65a6 <.text+0x97e26>
   a6420: 48 89 e9                     	movq	%rbp, %rcx
   a6423: 49 ba 68 08 ea bc 42 ad 28 a2	movabsq	$-0x5dd752bd4315f798, %r10 # imm = 0xA228AD42BCEA0868
   a642d: 4c 39 d0                     	cmpq	%r10, %rax
   a6430: 74 d0                        	je	0xa6402 <.text+0x97c82>
   a6432: 48 89 f9                     	movq	%rdi, %rcx
   a6435: 49 ba 24 46 19 6d 1c 9a b6 a6	movabsq	$-0x594965e392e6b9dc, %r10 # imm = 0xA6B69A1C6D194624
   a643f: 4c 39 d0                     	cmpq	%r10, %rax
   a6442: 74 be                        	je	0xa6402 <.text+0x97c82>
   a6444: 4c 39 c0                     	cmpq	%r8, %rax
   a6447: 0f 84 87 01 00 00            	je	0xa65d4 <.text+0x97e54>
   a644d: 48 39 e8                     	cmpq	%rbp, %rax
   a6450: 0f 84 17 02 00 00            	je	0xa666d <.text+0x97eed>
   a6456: 4c 39 e8                     	cmpq	%r13, %rax
   a6459: 0f 84 60 02 00 00            	je	0xa66bf <.text+0x97f3f>
   a645f: 48 b9 85 96 41 7a 05 42 ae cf	movabsq	$-0x3051bdfa85be697b, %rcx # imm = 0xCFAE42057A419685
   a6469: 48 39 c8                     	cmpq	%rcx, %rax
   a646c: 0f 84 60 02 00 00            	je	0xa66d2 <.text+0x97f52>
   a6472: 48 39 d8                     	cmpq	%rbx, %rax
   a6475: 0f 84 7b 02 00 00            	je	0xa66f6 <.text+0x97f76>
   a647b: 4c 39 c8                     	cmpq	%r9, %rax
   a647e: 0f 84 15 03 00 00            	je	0xa6799 <.text+0x98019>
   a6484: 4c 89 f9                     	movq	%r15, %rcx
   a6487: 49 ba a0 e1 4c 16 17 43 33 eb	movabsq	$-0x14ccbce8e9b31e60, %r10 # imm = 0xEB334317164CE1A0
   a6491: 4c 39 d0                     	cmpq	%r10, %rax
   a6494: 0f 84 68 ff ff ff            	je	0xa6402 <.text+0x97c82>
   a649a: 48 b9 f5 45 a4 18 22 61 73 f3	movabsq	$-0xc8c9edde75bba0b, %rcx # imm = 0xF373612218A445F5
   a64a4: 48 39 c8                     	cmpq	%rcx, %rax
   a64a7: 0f 84 ff 02 00 00            	je	0xa67ac <.text+0x9802c>
   a64ad: 48 b9 cd 2c 74 48 be ba 3f ff	movabsq	$-0xc04541b78bd333, %rcx # imm = 0xFF3FBABE48742CCD
   a64b7: 48 39 c8                     	cmpq	%rcx, %rax
   a64ba: 0f 84 19 03 00 00            	je	0xa67d9 <.text+0x98059>
   a64c0: 48 89 f1                     	movq	%rsi, %rcx
   a64c3: 49 ba 98 dd 66 f8 bb ba 35 11	movabsq	$0x1135babbf866dd98, %r10 # imm = 0x1135BABBF866DD98
   a64cd: 4c 39 d0                     	cmpq	%r10, %rax
   a64d0: 0f 84 2c ff ff ff            	je	0xa6402 <.text+0x97c82>
   a64d6: 4c 89 f9                     	movq	%r15, %rcx
   a64d9: 49 ba 0f 59 d4 b1 b3 66 1c 15	movabsq	$0x151c66b3b1d4590f, %r10 # imm = 0x151C66B3B1D4590F
   a64e3: 4c 39 d0                     	cmpq	%r10, %rax
   a64e6: 0f 84 16 ff ff ff            	je	0xa6402 <.text+0x97c82>
   a64ec: 48 89 d9                     	movq	%rbx, %rcx
   a64ef: 49 ba 1f 9f 81 3e 89 5a 85 21	movabsq	$0x21855a893e819f1f, %r10 # imm = 0x21855A893E819F1F
   a64f9: 4c 39 d0                     	cmpq	%r10, %rax
   a64fc: 0f 84 00 ff ff ff            	je	0xa6402 <.text+0x97c82>
   a6502: 48 b9 7c 33 09 68 3f 02 95 23	movabsq	$0x2395023f6809337c, %rcx # imm = 0x2395023F6809337C
   a650c: 48 39 c8                     	cmpq	%rcx, %rax
   a650f: 0f 84 cb 02 00 00            	je	0xa67e0 <.text+0x98060>
   a6515: 4c 39 f0                     	cmpq	%r14, %rax
   a6518: 0f 84 4e 03 00 00            	je	0xa686c <.text+0x980ec>
   a651e: 48 89 d1                     	movq	%rdx, %rcx
   a6521: 49 ba d6 f7 ac b9 a5 b3 b2 34	movabsq	$0x34b2b3a5b9acf7d6, %r10 # imm = 0x34B2B3A5B9ACF7D6
   a652b: 4c 39 d0                     	cmpq	%r10, %rax
   a652e: 0f 84 ce fe ff ff            	je	0xa6402 <.text+0x97c82>
   a6534: 48 b9 a8 8d 40 06 22 d4 26 3c	movabsq	$0x3c26d42206408da8, %rcx # imm = 0x3C26D42206408DA8
   a653e: 48 39 c8                     	cmpq	%rcx, %rax
   a6541: 0f 84 4e 03 00 00            	je	0xa6895 <.text+0x98115>
   a6547: 48 b9 51 84 59 f7 7a 90 fa 45	movabsq	$0x45fa907af7598451, %rcx # imm = 0x45FA907AF7598451
   a6551: 48 39 c8                     	cmpq	%rcx, %rax
   a6554: 0f 84 4a 03 00 00            	je	0xa68a4 <.text+0x98124>
   a655a: 48 89 e9                     	movq	%rbp, %rcx
   a655d: 49 ba 3d 57 b4 ca e3 74 8a 51	movabsq	$0x518a74e3cab4573d, %r10 # imm = 0x518A74E3CAB4573D
   a6567: 4c 39 d0                     	cmpq	%r10, %rax
   a656a: 0f 84 92 fe ff ff            	je	0xa6402 <.text+0x97c82>
   a6570: 48 b9 10 9f e5 e9 1b 90 8b 5a	movabsq	$0x5a8b901be9e59f10, %rcx # imm = 0x5A8B901BE9E59F10
   a657a: 48 39 c8                     	cmpq	%rcx, %rax
   a657d: 0f 84 48 03 00 00            	je	0xa68cb <.text+0x9814b>
   a6583: 4c 39 f8                     	cmpq	%r15, %rax
   a6586: 0f 84 5c 03 00 00            	je	0xa68e8 <.text+0x98168>
   a658c: 48 39 f8                     	cmpq	%rdi, %rax
   a658f: 0f 84 7c 03 00 00            	je	0xa6911 <.text+0x98191>
   a6595: 48 89 c1                     	movq	%rax, %rcx
   a6598: 48 39 f0                     	cmpq	%rsi, %rax
   a659b: 0f 85 61 fe ff ff            	jne	0xa6402 <.text+0x97c82>
   a65a1: e9 7a 03 00 00               	jmp	0xa6920 <.text+0x981a0>
   a65a6: 81 35 38 75 09 00 55 55 55 55	xorl	$0x55555555, 0x97538(%rip) # imm = 0x55555555
                                                                        # 0x13dae8
   a65b0: 80 35 35 75 09 00 55         	xorb	$0x55, 0x97535(%rip)    # 0x13daec
   a65b7: 80 35 2f 75 09 00 55         	xorb	$0x55, 0x9752f(%rip)    # 0x13daed
   a65be: 80 35 29 75 09 00 55         	xorb	$0x55, 0x97529(%rip)    # 0x13daee
   a65c5: c6 05 45 8a 09 00 01         	movb	$0x1, 0x98a45(%rip)     # 0x13f011
   a65cc: 48 89 d9                     	movq	%rbx, %rcx
   a65cf: e9 2e fe ff ff               	jmp	0xa6402 <.text+0x97c82>
   a65d4: 4c 8b 6c 24 18               	movq	0x18(%rsp), %r13
   a65d9: 49 8b 45 00                  	movq	(%r13), %rax
   a65dd: 4c 89 ef                     	movq	%r13, %rdi
   a65e0: 48 8b 74 24 28               	movq	0x28(%rsp), %rsi
   a65e5: ff 90 f8 00 00 00            	callq	*0xf8(%rax)
   a65eb: 4d 89 fc                     	movq	%r15, %r12
   a65ee: 49 89 df                     	movq	%rbx, %r15
   a65f1: 48 89 c3                     	movq	%rax, %rbx
   a65f4: 4c 89 ef                     	movq	%r13, %rdi
   a65f7: 49 bd b8 df 08 c6 9b 4a 99 cd	movabsq	$-0x3266b56439f72048, %r13 # imm = 0xCD994A9BC608DFB8
   a6601: e8 3e 04 ff ff               	callq	0x96a44 <.text+0x882c4>
   a6606: 49 bb e7 4a 04 aa 45 18 93 8b	movabsq	$-0x746ce7ba55fbb519, %r11 # imm = 0x8B931845AA044AE7
   a6610: 48 8b 54 24 10               	movq	0x10(%rsp), %rdx
   a6615: 49 b9 7a 37 52 c5 37 1f 83 e8	movabsq	$-0x177ce0c83aadc886, %r9 # imm = 0xE8831F37C552377A
   a661f: 49 b8 6c bc eb 19 59 89 6d ab	movabsq	$-0x549276a6e6144394, %r8 # imm = 0xAB6D895919EBBC6C
   a6629: 48 bf 1d 2b 2a 7f bb 1e 1b 75	movabsq	$0x751b1ebb7f2a2b1d, %rdi # imm = 0x751B1EBB7F2A2B1D
   a6633: 48 be 05 5f 00 7e d1 04 67 ca	movabsq	$-0x3598fb2e81ffa0fb, %rsi # imm = 0xCA6704D17E005F05
   a663d: 48 89 5c 24 30               	movq	%rbx, 0x30(%rsp)
   a6642: 48 85 db                     	testq	%rbx, %rbx
   a6645: 4c 89 fb                     	movq	%r15, %rbx
   a6648: 4d 89 e7                     	movq	%r12, %r15
   a664b: 48 b9 0f 59 d4 b1 b3 66 1c 15	movabsq	$0x151c66b3b1d4590f, %rcx # imm = 0x151C66B3B1D4590F
   a6655: 49 ba f5 45 a4 18 22 61 73 f3	movabsq	$-0xc8c9edde75bba0b, %r10 # imm = 0xF373612218A445F5
   a665f: 49 0f 44 ca                  	cmoveq	%r10, %rcx
   a6663: 0f 94 44 24 0b               	sete	0xb(%rsp)
   a6668: e9 21 01 00 00               	jmp	0xa678e <.text+0x9800e>
   a666d: 48 8b 7c 24 18               	movq	0x18(%rsp), %rdi
   a6672: 48 8b 07                     	movq	(%rdi), %rax
   a6675: 48 8b 74 24 30               	movq	0x30(%rsp), %rsi
   a667a: ff 90 b8 00 00 00            	callq	*0xb8(%rax)
   a6680: 49 bb e7 4a 04 aa 45 18 93 8b	movabsq	$-0x746ce7ba55fbb519, %r11 # imm = 0x8B931845AA044AE7
   a668a: 48 8b 54 24 10               	movq	0x10(%rsp), %rdx
   a668f: 49 b9 7a 37 52 c5 37 1f 83 e8	movabsq	$-0x177ce0c83aadc886, %r9 # imm = 0xE8831F37C552377A
   a6699: 49 b8 6c bc eb 19 59 89 6d ab	movabsq	$-0x549276a6e6144394, %r8 # imm = 0xAB6D895919EBBC6C
   a66a3: 48 bf 1d 2b 2a 7f bb 1e 1b 75	movabsq	$0x751b1ebb7f2a2b1d, %rdi # imm = 0x751B1EBB7F2A2B1D
   a66ad: 48 be 05 5f 00 7e d1 04 67 ca	movabsq	$-0x3598fb2e81ffa0fb, %rsi # imm = 0xCA6704D17E005F05
   a66b7: 48 89 f1                     	movq	%rsi, %rcx
   a66ba: e9 43 fd ff ff               	jmp	0xa6402 <.text+0x97c82>
   a66bf: 48 8b 44 24 20               	movq	0x20(%rsp), %rax
   a66c4: 8b 4c 24 0c                  	movl	0xc(%rsp), %ecx
   a66c8: 89 08                        	movl	%ecx, (%rax)
   a66ca: 48 89 e9                     	movq	%rbp, %rcx
   a66cd: e9 30 fd ff ff               	jmp	0xa6402 <.text+0x97c82>
   a66d2: 80 3d 3a 89 09 00 00         	cmpb	$0x0, 0x9893a(%rip)     # 0x13f013
   a66d9: 48 b9 51 84 59 f7 7a 90 fa 45	movabsq	$0x45fa907af7598451, %rcx # imm = 0x45FA907AF7598451
   a66e3: 48 b8 24 46 19 6d 1c 9a b6 a6	movabsq	$-0x594965e392e6b9dc, %rax # imm = 0xA6B69A1C6D194624
   a66ed: 48 0f 45 c8                  	cmovneq	%rax, %rcx
   a66f1: e9 0c fd ff ff               	jmp	0xa6402 <.text+0x97c82>
   a66f6: c6 05 13 89 09 00 00         	movb	$0x0, 0x98913(%rip)     # 0x13f010
   a66fd: 4c 8b 6c 24 18               	movq	0x18(%rsp), %r13
   a6702: 49 8b 45 00                  	movq	(%r13), %rax
   a6706: 4c 89 ef                     	movq	%r13, %rdi
   a6709: 48 8b 74 24 30               	movq	0x30(%rsp), %rsi
   a670e: 48 8d 15 d3 73 09 00         	leaq	0x973d3(%rip), %rdx     # 0x13dae8
   a6715: 48 8d 0d d4 73 09 00         	leaq	0x973d4(%rip), %rcx     # 0x13daf0
   a671c: ff 90 08 01 00 00            	callq	*0x108(%rax)
   a6722: 49 89 c4                     	movq	%rax, %r12
   a6725: 4c 89 ef                     	movq	%r13, %rdi
   a6728: 49 bd b8 df 08 c6 9b 4a 99 cd	movabsq	$-0x3266b56439f72048, %r13 # imm = 0xCD994A9BC608DFB8
   a6732: e8 0d 03 ff ff               	callq	0x96a44 <.text+0x882c4>
   a6737: 49 bb e7 4a 04 aa 45 18 93 8b	movabsq	$-0x746ce7ba55fbb519, %r11 # imm = 0x8B931845AA044AE7
   a6741: 48 8b 54 24 10               	movq	0x10(%rsp), %rdx
   a6746: 49 b9 7a 37 52 c5 37 1f 83 e8	movabsq	$-0x177ce0c83aadc886, %r9 # imm = 0xE8831F37C552377A
   a6750: 49 b8 6c bc eb 19 59 89 6d ab	movabsq	$-0x549276a6e6144394, %r8 # imm = 0xAB6D895919EBBC6C
   a675a: 48 bf 1d 2b 2a 7f bb 1e 1b 75	movabsq	$0x751b1ebb7f2a2b1d, %rdi # imm = 0x751B1EBB7F2A2B1D
   a6764: 48 be 05 5f 00 7e d1 04 67 ca	movabsq	$-0x3598fb2e81ffa0fb, %rsi # imm = 0xCA6704D17E005F05
   a676e: 4c 89 64 24 40               	movq	%r12, 0x40(%rsp)
   a6773: 4d 85 e4                     	testq	%r12, %r12
   a6776: 48 b9 7c 33 09 68 3f 02 95 23	movabsq	$0x2395023f6809337c, %rcx # imm = 0x2395023F6809337C
   a6780: 49 ba a8 8d 40 06 22 d4 26 3c	movabsq	$0x3c26d42206408da8, %r10 # imm = 0x3C26D42206408DA8
   a678a: 49 0f 44 ca                  	cmoveq	%r10, %rcx
   a678e: 84 c0                        	testb	%al, %al
   a6790: 49 0f 45 ca                  	cmovneq	%r10, %rcx
   a6794: e9 69 fc ff ff               	jmp	0xa6402 <.text+0x97c82>
   a6799: 48 8b 44 24 20               	movq	0x20(%rsp), %rax
   a679e: c7 00 03 00 00 00            	movl	$0x3, (%rax)
   a67a4: 48 89 f1                     	movq	%rsi, %rcx
   a67a7: e9 56 fc ff ff               	jmp	0xa6402 <.text+0x97c82>
   a67ac: 48 8b 44 24 20               	movq	0x20(%rsp), %rax
   a67b1: c7 00 12 00 00 00            	movl	$0x12, (%rax)
   a67b7: f6 44 24 0b 01               	testb	$0x1, 0xb(%rsp)
   a67bc: 48 b9 68 08 ea bc 42 ad 28 a2	movabsq	$-0x5dd752bd4315f798, %rcx # imm = 0xA228AD42BCEA0868
   a67c6: 48 b8 98 dd 66 f8 bb ba 35 11	movabsq	$0x1135babbf866dd98, %rax # imm = 0x1135BABBF866DD98
   a67d0: 48 0f 45 c8                  	cmovneq	%rax, %rcx
   a67d4: e9 29 fc ff ff               	jmp	0xa6402 <.text+0x97c82>
   a67d9: 6a 28                        	pushq	$0x28
   a67db: e9 b7 00 00 00               	jmp	0xa6897 <.text+0x98117>
   a67e0: 4c 8b 6c 24 18               	movq	0x18(%rsp), %r13
   a67e5: 4d 8b 45 00                  	movq	(%r13), %r8
   a67e9: 4c 89 ef                     	movq	%r13, %rdi
   a67ec: 48 8b 74 24 28               	movq	0x28(%rsp), %rsi
   a67f1: 48 8b 54 24 40               	movq	0x40(%rsp), %rdx
   a67f6: 48 8b 4c 24 38               	movq	0x38(%rsp), %rcx
   a67fb: 31 c0                        	xorl	%eax, %eax
   a67fd: 41 ff 90 e8 01 00 00         	callq	*0x1e8(%r8)
   a6804: 4c 89 ef                     	movq	%r13, %rdi
   a6807: 49 bd b8 df 08 c6 9b 4a 99 cd	movabsq	$-0x3266b56439f72048, %r13 # imm = 0xCD994A9BC608DFB8
   a6811: e8 2e 02 ff ff               	callq	0x96a44 <.text+0x882c4>
   a6816: 49 bb e7 4a 04 aa 45 18 93 8b	movabsq	$-0x746ce7ba55fbb519, %r11 # imm = 0x8B931845AA044AE7
   a6820: 48 8b 54 24 10               	movq	0x10(%rsp), %rdx
   a6825: 49 b9 7a 37 52 c5 37 1f 83 e8	movabsq	$-0x177ce0c83aadc886, %r9 # imm = 0xE8831F37C552377A
   a682f: 49 b8 6c bc eb 19 59 89 6d ab	movabsq	$-0x549276a6e6144394, %r8 # imm = 0xAB6D895919EBBC6C
   a6839: 48 bf 1d 2b 2a 7f bb 1e 1b 75	movabsq	$0x751b1ebb7f2a2b1d, %rdi # imm = 0x751B1EBB7F2A2B1D
   a6843: 48 be 05 5f 00 7e d1 04 67 ca	movabsq	$-0x3598fb2e81ffa0fb, %rsi # imm = 0xCA6704D17E005F05
   a684d: 84 c0                        	testb	%al, %al
   a684f: 48 b9 3d 57 b4 ca e3 74 8a 51	movabsq	$0x518a74e3cab4573d, %rcx # imm = 0x518A74E3CAB4573D
   a6859: 48 b8 cd 2c 74 48 be ba 3f ff	movabsq	$-0xc04541b78bd333, %rax # imm = 0xFF3FBABE48742CCD
   a6863: 48 0f 45 c8                  	cmovneq	%rax, %rcx
   a6867: e9 96 fb ff ff               	jmp	0xa6402 <.text+0x97c82>
   a686c: 31 c0                        	xorl	%eax, %eax
   a686e: b1 01                        	movb	$0x1, %cl
   a6870: f0                           	lock
   a6871: 0f b0 0d 98 87 09 00         	cmpxchgb	%cl, 0x98798(%rip)      # 0x13f010
   a6878: 48 b9 2e 59 25 00 f4 14 21 88	movabsq	$-0x77deeb0bffdaa6d2, %rcx # imm = 0x882114F40025592E
   a6882: 48 b8 10 9f e5 e9 1b 90 8b 5a	movabsq	$0x5a8b901be9e59f10, %rax # imm = 0x5A8B901BE9E59F10
   a688c: 48 0f 44 c8                  	cmoveq	%rax, %rcx
   a6890: e9 6d fb ff ff               	jmp	0xa6402 <.text+0x97c82>
   a6895: 6a 12                        	pushq	$0x12
   a6897: 58                           	popq	%rax
   a6898: 89 44 24 0c                  	movl	%eax, 0xc(%rsp)
   a689c: 4c 89 e9                     	movq	%r13, %rcx
   a689f: e9 5e fb ff ff               	jmp	0xa6402 <.text+0x97c82>
   a68a4: 81 35 42 72 09 00 5e 5e 5e 5e	xorl	$0x5e5e5e5e, 0x97242(%rip) # imm = 0x5E5E5E5E
                                                                        # 0x13daf0
   a68ae: 80 35 3f 72 09 00 5e         	xorb	$0x5e, 0x9723f(%rip)    # 0x13daf4
   a68b5: 80 35 39 72 09 00 5e         	xorb	$0x5e, 0x97239(%rip)    # 0x13daf5
   a68bc: c6 05 50 87 09 00 01         	movb	$0x1, 0x98750(%rip)     # 0x13f013
   a68c3: 48 89 f9                     	movq	%rdi, %rcx
   a68c6: e9 37 fb ff ff               	jmp	0xa6402 <.text+0x97c82>
   a68cb: 80 3d 3f 87 09 00 00         	cmpb	$0x0, 0x9873f(%rip)     # 0x13f011
   a68d2: 4c 89 d9                     	movq	%r11, %rcx
   a68d5: 48 b8 1f 9f 81 3e 89 5a 85 21	movabsq	$0x21855a893e819f1f, %rax # imm = 0x21855A893E819F1F
   a68df: 48 0f 45 c8                  	cmovneq	%rax, %rcx
   a68e3: e9 1a fb ff ff               	jmp	0xa6402 <.text+0x97c82>
   a68e8: 31 c0                        	xorl	%eax, %eax
   a68ea: b1 01                        	movb	$0x1, %cl
   a68ec: f0                           	lock
   a68ed: 0f b0 0d 1e 87 09 00         	cmpxchgb	%cl, 0x9871e(%rip)      # 0x13f012
   a68f4: 48 b9 a0 e1 4c 16 17 43 33 eb	movabsq	$-0x14ccbce8e9b31e60, %rcx # imm = 0xEB334317164CE1A0
   a68fe: 48 b8 85 96 41 7a 05 42 ae cf	movabsq	$-0x3051bdfa85be697b, %rax # imm = 0xCFAE42057A419685
   a6908: 48 0f 44 c8                  	cmoveq	%rax, %rcx
   a690c: e9 f1 fa ff ff               	jmp	0xa6402 <.text+0x97c82>
   a6911: c6 05 fa 86 09 00 00         	movb	$0x0, 0x986fa(%rip)     # 0x13f012
   a6918: 4c 89 f1                     	movq	%r14, %rcx
   a691b: e9 e2 fa ff ff               	jmp	0xa6402 <.text+0x97c82>
   a6920: 48 83 c4 48                  	addq	$0x48, %rsp
   a6924: 5b                           	popq	%rbx
   a6925: 41 5c                        	popq	%r12
   a6927: 41 5d                        	popq	%r13
   a6929: 41 5e                        	popq	%r14
   a692b: 41 5f                        	popq	%r15
   a692d: 5d                           	popq	%rbp
   a692e: c3                           	retq
