
adjust-android-signature-3.67.0/jni/arm64-v8a/libsigner.so:	file format elf64-littleaarch64

Disassembly of section .text:

0000000000008070 <.text>:
   77f7c: d10383ff     	sub	sp, sp, #0xe0
   77f80: a9087bfd     	stp	x29, x30, [sp, #0x80]
   77f84: a9096ffc     	stp	x28, x27, [sp, #0x90]
   77f88: a90a67fa     	stp	x26, x25, [sp, #0xa0]
   77f8c: a90b5ff8     	stp	x24, x23, [sp, #0xb0]
   77f90: a90c57f6     	stp	x22, x21, [sp, #0xc0]
   77f94: a90d4ff4     	stp	x20, x19, [sp, #0xd0]
   77f98: 910203fd     	add	x29, sp, #0x80
   77f9c: d29c5ec1     	mov	x1, #0xe2f6             // =58102
   77fa0: d2943f42     	mov	x2, #0xa1fa             // =41466
   77fa4: d29e6d63     	mov	x3, #0xf36b             // =62315
   77fa8: d28685e4     	mov	x4, #0x342f             // =13359
   77fac: d2842ae5     	mov	x5, #0x2157             // =8535
   77fb0: d28cec87     	mov	x7, #0x6764             // =26468
   77fb4: d2894e46     	mov	x6, #0x4a72             // =19058
   77fb8: d299d451     	mov	x17, #0xcea2            // =52898
   77fbc: f2ba9ae1     	movk	x1, #0xd4d7, lsl #16
   77fc0: f2acc002     	movk	x2, #0x6600, lsl #16
   77fc4: f2a7a503     	movk	x3, #0x3d28, lsl #16
   77fc8: f2a3f724     	movk	x4, #0x1fb9, lsl #16
   77fcc: f2aec1e5     	movk	x5, #0x760f, lsl #16
   77fd0: f2ab12e7     	movk	x7, #0x5897, lsl #16
   77fd4: f2afef06     	movk	x6, #0x7f78, lsl #16
   77fd8: f2a32231     	movk	x17, #0x1911, lsl #16
   77fdc: f2d976a1     	movk	x1, #0xcbb5, lsl #32
   77fe0: f2d53122     	movk	x2, #0xa989, lsl #32
   77fe4: f2df9183     	movk	x3, #0xfc8c, lsl #32
   77fe8: f2c1aec4     	movk	x4, #0xd76, lsl #32
   77fec: f2c16cc5     	movk	x5, #0xb66, lsl #32
   77ff0: f2c24627     	movk	x7, #0x1231, lsl #32
   77ff4: f2ceb106     	movk	x6, #0x7588, lsl #32
   77ff8: f2d130b1     	movk	x17, #0x8985, lsl #32
   77ffc: 2a1f03e9     	mov	w9, wzr
   78000: 2a1f03ee     	mov	w14, wzr
   78004: f2fe8fe1     	movk	x1, #0xf47f, lsl #48
   78008: f2fc4d82     	movk	x2, #0xe26c, lsl #48
   7800c: f2f74363     	movk	x3, #0xba1b, lsl #48
   78010: f2f3e804     	movk	x4, #0x9f40, lsl #48
   78014: f2f3c345     	movk	x5, #0x9e1a, lsl #48
   78018: f2e80ca7     	movk	x7, #0x4065, lsl #48
   7801c: f2e70186     	movk	x6, #0x380c, lsl #48
   78020: f90007e0     	str	x0, [sp, #0x8]
   78024: f9400400     	ldr	x0, [x0, #0x8]
   78028: f2ea4ff1     	movk	x17, #0x527f, lsl #48
   7802c: b9001bff     	str	wzr, [sp, #0x18]
   78030: b9003bff     	str	wzr, [sp, #0x38]
   78034: b81ec3bf     	stur	wzr, [x29, #-0x14]
   78038: b90017ff     	str	wzr, [sp, #0x14]
   7803c: b9003fff     	str	wzr, [sp, #0x3c]
   78040: b81dc3bf     	stur	wzr, [x29, #-0x24]
   78044: aa1103ed     	mov	x13, x17
   78048: d29c5ed1     	mov	x17, #0xe2f6            // =58102
   7804c: f2ba9af1     	movk	x17, #0xd4d7, lsl #16
   78050: d28ebf7e     	mov	x30, #0x75fb            // =30203
   78054: f2d976b1     	movk	x17, #0xcbb5, lsl #32
   78058: f2b6a87e     	movk	x30, #0xb543, lsl #16
   7805c: f2fe8ff1     	movk	x17, #0xf47f, lsl #48
   78060: f2dff27e     	movk	x30, #0xff93, lsl #32
   78064: f2f10e9e     	movk	x30, #0x8874, lsl #48
   78068: eb1e01bf     	cmp	x13, x30
   7806c: 54fffec0     	b.eq	0x78044 <.text+0x6ffd4>
   78070: d28773d1     	mov	x17, #0x3b9e            // =15262
   78074: d29f8dbe     	mov	x30, #0xfc6d            // =64621
   78078: f2aeb5d1     	movk	x17, #0x75ae, lsl #16
   7807c: f2ad465e     	movk	x30, #0x6a32, lsl #16
   78080: f2ccbdb1     	movk	x17, #0x65ed, lsl #32
   78084: aa0003f7     	mov	x23, x0
   78088: aa1003f3     	mov	x19, x16
   7808c: aa0f03fa     	mov	x26, x15
   78090: 2a0e03f4     	mov	w20, w14
   78094: aa0c03fb     	mov	x27, x12
   78098: aa0b03f6     	mov	x22, x11
   7809c: aa0a03f9     	mov	x25, x10
   780a0: 2a0903fc     	mov	w28, w9
   780a4: 2a0803f8     	mov	w24, w8
   780a8: f2efa991     	movk	x17, #0x7d4c, lsl #48
   780ac: f2c947be     	movk	x30, #0x4a3d, lsl #32
   780b0: f2f1b15e     	movk	x30, #0x8d8a, lsl #48
   780b4: eb1e01bf     	cmp	x13, x30
   780b8: 54fffc60     	b.eq	0x78044 <.text+0x6ffd4>
   780bc: d29d9028     	mov	x8, #0xec81             // =60545
   780c0: f2bab9e8     	movk	x8, #0xd5cf, lsl #16
   780c4: f2d97ba8     	movk	x8, #0xcbdd, lsl #32
   780c8: f2f38f48     	movk	x8, #0x9c7a, lsl #48
   780cc: eb0801bf     	cmp	x13, x8
   780d0: 54003640     	b.eq	0x78798 <.text+0x70728>
   780d4: eb0501bf     	cmp	x13, x5
   780d8: 540038c0     	b.eq	0x787f0 <.text+0x70780>
   780dc: d28685f1     	mov	x17, #0x342f            // =13359
   780e0: d29232be     	mov	x30, #0x9195            // =37269
   780e4: f2a3f731     	movk	x17, #0x1fb9, lsl #16
   780e8: f2bdffbe     	movk	x30, #0xeffd, lsl #16
   780ec: f2c1aed1     	movk	x17, #0xd76, lsl #32
   780f0: 2a1803e8     	mov	w8, w24
   780f4: 2a1c03e9     	mov	w9, w28
   780f8: aa1903ea     	mov	x10, x25
   780fc: aa1603eb     	mov	x11, x22
   78100: aa1b03ec     	mov	x12, x27
   78104: 2a1403ee     	mov	w14, w20
   78108: aa1a03ef     	mov	x15, x26
   7810c: aa1303f0     	mov	x16, x19
   78110: aa1703e0     	mov	x0, x23
   78114: f2f3e811     	movk	x17, #0x9f40, lsl #48
   78118: f2dc667e     	movk	x30, #0xe333, lsl #32
   7811c: f2f3e3de     	movk	x30, #0x9f1e, lsl #48
   78120: eb1e01bf     	cmp	x13, x30
   78124: 54fff900     	b.eq	0x78044 <.text+0x6ffd4>
   78128: eb0401bf     	cmp	x13, x4
   7812c: 54003920     	b.eq	0x78850 <.text+0x707e0>
   78130: d28b6ce8     	mov	x8, #0x5b67             // =23399
   78134: f2b72b28     	movk	x8, #0xb959, lsl #16
   78138: f2dd4328     	movk	x8, #0xea19, lsl #32
   7813c: f2f4a908     	movk	x8, #0xa548, lsl #48
   78140: eb0801bf     	cmp	x13, x8
   78144: 54003b80     	b.eq	0x788b4 <.text+0x70844>
   78148: d2898e31     	mov	x17, #0x4c71            // =19569
   7814c: d29707be     	mov	x30, #0xb83d            // =47165
   78150: f2ba8bf1     	movk	x17, #0xd45f, lsl #16
   78154: f2b0fa5e     	movk	x30, #0x87d2, lsl #16
   78158: f2c65991     	movk	x17, #0x32cc, lsl #32
   7815c: b85fc3a8     	ldur	w8, [x29, #-0x4]
   78160: 2a1c03e9     	mov	w9, w28
   78164: aa1903ea     	mov	x10, x25
   78168: aa1603eb     	mov	x11, x22
   7816c: aa1b03ec     	mov	x12, x27
   78170: 2a1403ee     	mov	w14, w20
   78174: aa1a03ef     	mov	x15, x26
   78178: aa1303f0     	mov	x16, x19
   7817c: aa1703e0     	mov	x0, x23
   78180: f2e55dd1     	movk	x17, #0x2aee, lsl #48
   78184: f2c72d5e     	movk	x30, #0x396a, lsl #32
   78188: f2f5fc3e     	movk	x30, #0xafe1, lsl #48
   7818c: eb1e01bf     	cmp	x13, x30
   78190: 54fff5a0     	b.eq	0x78044 <.text+0x6ffd4>
   78194: d2842af1     	mov	x17, #0x2157            // =8535
   78198: d2814efe     	mov	x30, #0xa77             // =2679
   7819c: f2aec1f1     	movk	x17, #0x760f, lsl #16
   781a0: f2a0869e     	movk	x30, #0x434, lsl #16
   781a4: f2c16cd1     	movk	x17, #0xb66, lsl #32
   781a8: 2a1803e8     	mov	w8, w24
   781ac: 2a1c03e9     	mov	w9, w28
   781b0: aa1903ea     	mov	x10, x25
   781b4: aa1603eb     	mov	x11, x22
   781b8: aa1b03ec     	mov	x12, x27
   781bc: 2a1403ee     	mov	w14, w20
   781c0: aa1a03ef     	mov	x15, x26
   781c4: aa1303f0     	mov	x16, x19
   781c8: aa1703e0     	mov	x0, x23
   781cc: f2f3c351     	movk	x17, #0x9e1a, lsl #48
   781d0: f2c18b3e     	movk	x30, #0xc59, lsl #32
   781d4: f2f5fe3e     	movk	x30, #0xaff1, lsl #48
   781d8: eb1e01bf     	cmp	x13, x30
   781dc: 54fff340     	b.eq	0x78044 <.text+0x6ffd4>
   781e0: d28eb5d1     	mov	x17, #0x75ae            // =30126
   781e4: d292749e     	mov	x30, #0x93a4            // =37796
   781e8: f2af88d1     	movk	x17, #0x7c46, lsl #16
   781ec: f2b3101e     	movk	x30, #0x9880, lsl #16
   781f0: f2c01471     	movk	x17, #0xa3, lsl #32
   781f4: 2a1803e8     	mov	w8, w24
   781f8: 2a1c03e9     	mov	w9, w28
   781fc: aa1903ea     	mov	x10, x25
   78200: aa1603eb     	mov	x11, x22
   78204: aa1b03ec     	mov	x12, x27
   78208: 2a1403ee     	mov	w14, w20
   7820c: aa1a03ef     	mov	x15, x26
   78210: aa1303f0     	mov	x16, x19
   78214: aa1703e0     	mov	x0, x23
   78218: f2e27751     	movk	x17, #0x13ba, lsl #48
   7821c: f2d1f95e     	movk	x30, #0x8fca, lsl #32
   78220: f2f6097e     	movk	x30, #0xb04b, lsl #48
   78224: eb1e01bf     	cmp	x13, x30
   78228: 54fff0e0     	b.eq	0x78044 <.text+0x6ffd4>
   7822c: d28cec91     	mov	x17, #0x6764            // =26468
   78230: d2814a9e     	mov	x30, #0xa54             // =2644
   78234: f2ab12f1     	movk	x17, #0x5897, lsl #16
   78238: f2ab4d9e     	movk	x30, #0x5a6c, lsl #16
   7823c: f2c24631     	movk	x17, #0x1231, lsl #32
   78240: 2a1803e8     	mov	w8, w24
   78244: 2a1c03e9     	mov	w9, w28
   78248: aa1903ea     	mov	x10, x25
   7824c: aa1603eb     	mov	x11, x22
   78250: aa1b03ec     	mov	x12, x27
   78254: 2a1403ee     	mov	w14, w20
   78258: aa1a03ef     	mov	x15, x26
   7825c: aa1303f0     	mov	x16, x19
   78260: aa1703e0     	mov	x0, x23
   78264: f2e80cb1     	movk	x17, #0x4065, lsl #48
   78268: f2c5695e     	movk	x30, #0x2b4a, lsl #32
   7826c: f2f6b01e     	movk	x30, #0xb580, lsl #48
   78270: eb1e01bf     	cmp	x13, x30
   78274: 54ffee80     	b.eq	0x78044 <.text+0x6ffd4>
   78278: d2891d88     	mov	x8, #0x48ec             // =18668
   7827c: f2af6348     	movk	x8, #0x7b1a, lsl #16
   78280: f2cb8748     	movk	x8, #0x5c3a, lsl #32
   78284: f2f73d08     	movk	x8, #0xb9e8, lsl #48
   78288: eb0801bf     	cmp	x13, x8
   7828c: 54003400     	b.eq	0x7890c <.text+0x7089c>
   78290: eb0301bf     	cmp	x13, x3
   78294: 54003560     	b.eq	0x78940 <.text+0x708d0>
   78298: d28690a8     	mov	x8, #0x3485             // =13445
   7829c: f2aecd88     	movk	x8, #0x766c, lsl #16
   782a0: f2d177a8     	movk	x8, #0x8bbd, lsl #32
   782a4: f2f7b508     	movk	x8, #0xbda8, lsl #48
   782a8: eb0801bf     	cmp	x13, x8
   782ac: 54003720     	b.eq	0x78990 <.text+0x70920>
   782b0: d2810031     	mov	x17, #0x801             // =2049
   782b4: d282a7de     	mov	x30, #0x153e            // =5438
   782b8: f2be3e71     	movk	x17, #0xf1f3, lsl #16
   782bc: f2a012be     	movk	x30, #0x95, lsl #16
   782c0: f2dd6811     	movk	x17, #0xeb40, lsl #32
   782c4: 2a1803e8     	mov	w8, w24
   782c8: 2a1c03e9     	mov	w9, w28
   782cc: aa1903ea     	mov	x10, x25
   782d0: aa1603eb     	mov	x11, x22
   782d4: f85f03ac     	ldur	x12, [x29, #-0x10]
   782d8: 2a1403ee     	mov	w14, w20
   782dc: aa1a03ef     	mov	x15, x26
   782e0: aa1303f0     	mov	x16, x19
   782e4: aa1703e0     	mov	x0, x23
   782e8: f2e8f2d1     	movk	x17, #0x4796, lsl #48
   782ec: f2ce86de     	movk	x30, #0x7436, lsl #32
   782f0: f2f9c59e     	movk	x30, #0xce2c, lsl #48
   782f4: eb1e01bf     	cmp	x13, x30
   782f8: 54ffea60     	b.eq	0x78044 <.text+0x6ffd4>
   782fc: eb0201bf     	cmp	x13, x2
   78300: 540035c0     	b.eq	0x789b8 <.text+0x70948>
   78304: d2943f51     	mov	x17, #0xa1fa            // =41466
   78308: d2899e5e     	mov	x30, #0x4cf2            // =19698
   7830c: f2acc011     	movk	x17, #0x6600, lsl #16
   78310: f2a21dfe     	movk	x30, #0x10ef, lsl #16
   78314: f2d53131     	movk	x17, #0xa989, lsl #32
   78318: 2a1803e8     	mov	w8, w24
   7831c: 2a1c03e9     	mov	w9, w28
   78320: aa1903ea     	mov	x10, x25
   78324: aa1603eb     	mov	x11, x22
   78328: aa1b03ec     	mov	x12, x27
   7832c: 2a1403ee     	mov	w14, w20
   78330: aa1a03ef     	mov	x15, x26
   78334: aa1303f0     	mov	x16, x19
   78338: aa1703e0     	mov	x0, x23
   7833c: f2fc4d91     	movk	x17, #0xe26c, lsl #48
   78340: f2dd7d7e     	movk	x30, #0xebeb, lsl #32
   78344: f2fdc61e     	movk	x30, #0xee30, lsl #48
   78348: eb1e01bf     	cmp	x13, x30
   7834c: 54ffe7c0     	b.eq	0x78044 <.text+0x6ffd4>
   78350: d28685f1     	mov	x17, #0x342f            // =13359
   78354: d29902de     	mov	x30, #0xc816            // =51222
   78358: f2a3f731     	movk	x17, #0x1fb9, lsl #16
   7835c: f2aced1e     	movk	x30, #0x6768, lsl #16
   78360: f2c1aed1     	movk	x17, #0xd76, lsl #32
   78364: 2a1803e8     	mov	w8, w24
   78368: 2a1c03e9     	mov	w9, w28
   7836c: aa1903ea     	mov	x10, x25
   78370: aa1603eb     	mov	x11, x22
   78374: aa1b03ec     	mov	x12, x27
   78378: 2a1403ee     	mov	w14, w20
   7837c: aa1a03ef     	mov	x15, x26
   78380: aa1303f0     	mov	x16, x19
   78384: aa1703e0     	mov	x0, x23
   78388: f2f3e811     	movk	x17, #0x9f40, lsl #48
   7838c: f2da46de     	movk	x30, #0xd236, lsl #32
   78390: f2fe519e     	movk	x30, #0xf28c, lsl #48
   78394: eb1e01bf     	cmp	x13, x30
   78398: 54ffe560     	b.eq	0x78044 <.text+0x6ffd4>
   7839c: eb0101bf     	cmp	x13, x1
   783a0: 540032a0     	b.eq	0x789f4 <.text+0x70984>
   783a4: d298bde8     	mov	x8, #0xc5ef             // =50671
   783a8: f2be2968     	movk	x8, #0xf14b, lsl #16
   783ac: f2cf29a8     	movk	x8, #0x794d, lsl #32
   783b0: f2ff2488     	movk	x8, #0xf924, lsl #48
   783b4: eb0801bf     	cmp	x13, x8
   783b8: 540037a0     	b.eq	0x78aac <.text+0x70a3c>
   783bc: d2898e31     	mov	x17, #0x4c71            // =19569
   783c0: d284343e     	mov	x30, #0x21a1            // =8609
   783c4: f2ba8bf1     	movk	x17, #0xd45f, lsl #16
   783c8: f2b99c5e     	movk	x30, #0xcce2, lsl #16
   783cc: f2c65991     	movk	x17, #0x32cc, lsl #32
   783d0: b85fc3a8     	ldur	w8, [x29, #-0x4]
   783d4: 2a1c03e9     	mov	w9, w28
   783d8: aa1903ea     	mov	x10, x25
   783dc: aa1603eb     	mov	x11, x22
   783e0: aa1b03ec     	mov	x12, x27
   783e4: 2a1403ee     	mov	w14, w20
   783e8: aa1a03ef     	mov	x15, x26
   783ec: aa1303f0     	mov	x16, x19
   783f0: aa1703e0     	mov	x0, x23
   783f4: f2e55dd1     	movk	x17, #0x2aee, lsl #48
   783f8: f2c8ea1e     	movk	x30, #0x4750, lsl #32
   783fc: f2ff3dfe     	movk	x30, #0xf9ef, lsl #48
   78400: eb1e01bf     	cmp	x13, x30
   78404: 54ffe200     	b.eq	0x78044 <.text+0x6ffd4>
   78408: d28642c8     	mov	x8, #0x3216             // =12822
   7840c: f2bac168     	movk	x8, #0xd60b, lsl #16
   78410: f2c35408     	movk	x8, #0x1aa0, lsl #32
   78414: f2ff4908     	movk	x8, #0xfa48, lsl #48
   78418: eb0801bf     	cmp	x13, x8
   7841c: 54003660     	b.eq	0x78ae8 <.text+0x70a78>
   78420: d28b5d88     	mov	x8, #0x5aec             // =23276
   78424: f2a37788     	movk	x8, #0x1bbc, lsl #16
   78428: f2dea708     	movk	x8, #0xf538, lsl #32
   7842c: f2e03628     	movk	x8, #0x1b1, lsl #48
   78430: eb0801bf     	cmp	x13, x8
   78434: 54003600     	b.eq	0x78af4 <.text+0x70a84>
   78438: d28cec91     	mov	x17, #0x6764            // =26468
   7843c: d298ab3e     	mov	x30, #0xc559            // =50521
   78440: f2ab12f1     	movk	x17, #0x5897, lsl #16
   78444: f2a3dd3e     	movk	x30, #0x1ee9, lsl #16
   78448: f2c24631     	movk	x17, #0x1231, lsl #32
   7844c: 2a1803e8     	mov	w8, w24
   78450: 2a1c03e9     	mov	w9, w28
   78454: aa1903ea     	mov	x10, x25
   78458: aa1603eb     	mov	x11, x22
   7845c: aa1b03ec     	mov	x12, x27
   78460: b85ec3ae     	ldur	w14, [x29, #-0x14]
   78464: aa1503ef     	mov	x15, x21
   78468: f85e03b0     	ldur	x16, [x29, #-0x20]
   7846c: aa1703e0     	mov	x0, x23
   78470: f2e80cb1     	movk	x17, #0x4065, lsl #48
   78474: f2c97c7e     	movk	x30, #0x4be3, lsl #32
   78478: f2e2053e     	movk	x30, #0x1029, lsl #48
   7847c: eb1e01bf     	cmp	x13, x30
   78480: 54ffde20     	b.eq	0x78044 <.text+0x6ffd4>
   78484: d290fc28     	mov	x8, #0x87e1             // =34785
   78488: f2ad92a8     	movk	x8, #0x6c95, lsl #16
   7848c: f2cfebe8     	movk	x8, #0x7f5f, lsl #32
   78490: f2e21aa8     	movk	x8, #0x10d5, lsl #48
   78494: eb0801bf     	cmp	x13, x8
   78498: 54003560     	b.eq	0x78b44 <.text+0x70ad4>
   7849c: d28eb5c8     	mov	x8, #0x75ae             // =30126
   784a0: f2af88c8     	movk	x8, #0x7c46, lsl #16
   784a4: f2c01468     	movk	x8, #0xa3, lsl #32
   784a8: f2e27748     	movk	x8, #0x13ba, lsl #48
   784ac: eb0801bf     	cmp	x13, x8
   784b0: 54003680     	b.eq	0x78b80 <.text+0x70b10>
   784b4: d29c5ed1     	mov	x17, #0xe2f6            // =58102
   784b8: d29605de     	mov	x30, #0xb02e            // =45102
   784bc: a97cafaa     	ldp	x10, x11, [x29, #-0x38]
   784c0: f2ba9af1     	movk	x17, #0xd4d7, lsl #16
   784c4: f2b0df5e     	movk	x30, #0x86fa, lsl #16
   784c8: f2d976b1     	movk	x17, #0xcbb5, lsl #32
   784cc: 2a1803e8     	mov	w8, w24
   784d0: b85dc3a9     	ldur	w9, [x29, #-0x24]
   784d4: aa1b03ec     	mov	x12, x27
   784d8: 2a1403ee     	mov	w14, w20
   784dc: aa1a03ef     	mov	x15, x26
   784e0: aa1303f0     	mov	x16, x19
   784e4: aa1703e0     	mov	x0, x23
   784e8: f2fe8ff1     	movk	x17, #0xf47f, lsl #48
   784ec: f2db01be     	movk	x30, #0xd80d, lsl #32
   784f0: f2e6e49e     	movk	x30, #0x3724, lsl #48
   784f4: eb1e01bf     	cmp	x13, x30
   784f8: 54ffda60     	b.eq	0x78044 <.text+0x6ffd4>
   784fc: eb0601bf     	cmp	x13, x6
   78500: 54003660     	b.eq	0x78bcc <.text+0x70b5c>
   78504: d2943f51     	mov	x17, #0xa1fa            // =41466
   78508: d280e29e     	mov	x30, #0x714             // =1812
   7850c: f2acc011     	movk	x17, #0x6600, lsl #16
   78510: f2a8755e     	movk	x30, #0x43aa, lsl #16
   78514: f2d53131     	movk	x17, #0xa989, lsl #32
   78518: 2a1803e8     	mov	w8, w24
   7851c: 2a1c03e9     	mov	w9, w28
   78520: aa1903ea     	mov	x10, x25
   78524: aa1603eb     	mov	x11, x22
   78528: aa1b03ec     	mov	x12, x27
   7852c: 2a1403ee     	mov	w14, w20
   78530: aa1a03ef     	mov	x15, x26
   78534: aa1303f0     	mov	x16, x19
   78538: aa1703e0     	mov	x0, x23
   7853c: f2fc4d91     	movk	x17, #0xe26c, lsl #48
   78540: f2d95ffe     	movk	x30, #0xcaff, lsl #32
   78544: f2e78b9e     	movk	x30, #0x3c5c, lsl #48
   78548: eb1e01bf     	cmp	x13, x30
   7854c: 54ffd7c0     	b.eq	0x78044 <.text+0x6ffd4>
   78550: eb0701bf     	cmp	x13, x7
   78554: 540036c0     	b.eq	0x78c2c <.text+0x70bbc>
   78558: d2810028     	mov	x8, #0x801              // =2049
   7855c: f2be3e68     	movk	x8, #0xf1f3, lsl #16
   78560: f2dd6808     	movk	x8, #0xeb40, lsl #32
   78564: f2e8f2c8     	movk	x8, #0x4796, lsl #48
   78568: eb0801bf     	cmp	x13, x8
   7856c: 54003ca0     	b.eq	0x78d00 <.text+0x70c90>
   78570: d288fc28     	mov	x8, #0x47e1             // =18401
   78574: f2b7f2e8     	movk	x8, #0xbf97, lsl #16
   78578: f2de05a8     	movk	x8, #0xf02d, lsl #32
   7857c: f2e91608     	movk	x8, #0x48b0, lsl #48
   78580: eb0801bf     	cmp	x13, x8
   78584: 54003e80     	b.eq	0x78d54 <.text+0x70ce4>
   78588: d2842af1     	mov	x17, #0x2157            // =8535
   7858c: d297011e     	mov	x30, #0xb808            // =47112
   78590: f2aec1f1     	movk	x17, #0x760f, lsl #16
   78594: f2afbefe     	movk	x30, #0x7df7, lsl #16
   78598: f2c16cd1     	movk	x17, #0xb66, lsl #32
   7859c: 2a1803e8     	mov	w8, w24
   785a0: 2a1c03e9     	mov	w9, w28
   785a4: aa1903ea     	mov	x10, x25
   785a8: aa1603eb     	mov	x11, x22
   785ac: aa1b03ec     	mov	x12, x27
   785b0: 2a1403ee     	mov	w14, w20
   785b4: aa1a03ef     	mov	x15, x26
   785b8: aa1303f0     	mov	x16, x19
   785bc: aa1703e0     	mov	x0, x23
   785c0: f2f3c351     	movk	x17, #0x9e1a, lsl #48
   785c4: f2d0e5be     	movk	x30, #0x872d, lsl #32
   785c8: f2e97f3e     	movk	x30, #0x4bf9, lsl #48
   785cc: eb1e01bf     	cmp	x13, x30
   785d0: 54ffd3a0     	b.eq	0x78044 <.text+0x6ffd4>
   785d4: d2835528     	mov	x8, #0x1aa9             // =6825
   785d8: f2aa19a8     	movk	x8, #0x50cd, lsl #16
   785dc: f2c9fae8     	movk	x8, #0x4fd7, lsl #32
   785e0: f2ea3888     	movk	x8, #0x51c4, lsl #48
   785e4: eb0801bf     	cmp	x13, x8
   785e8: 54003dc0     	b.eq	0x78da0 <.text+0x70d30>
   785ec: d29e6d71     	mov	x17, #0xf36b            // =62315
   785f0: d299d45e     	mov	x30, #0xcea2            // =52898
   785f4: f2a7a511     	movk	x17, #0x3d28, lsl #16
   785f8: f2a3223e     	movk	x30, #0x1911, lsl #16
   785fc: f2df9191     	movk	x17, #0xfc8c, lsl #32
   78600: 2a1803e8     	mov	w8, w24
   78604: 2a1c03e9     	mov	w9, w28
   78608: aa1903ea     	mov	x10, x25
   7860c: aa1603eb     	mov	x11, x22
   78610: aa1b03ec     	mov	x12, x27
   78614: 2a1403ee     	mov	w14, w20
   78618: aa1a03ef     	mov	x15, x26
   7861c: aa1303f0     	mov	x16, x19
   78620: aa1703e0     	mov	x0, x23
   78624: f2f74371     	movk	x17, #0xba1b, lsl #48
   78628: f2d130be     	movk	x30, #0x8985, lsl #32
   7862c: f2ea4ffe     	movk	x30, #0x527f, lsl #48
   78630: eb1e01bf     	cmp	x13, x30
   78634: 54ffd080     	b.eq	0x78044 <.text+0x6ffd4>
   78638: d290b7c8     	mov	x8, #0x85be             // =34238
   7863c: f2bcda28     	movk	x8, #0xe6d1, lsl #16
   78640: f2c4cce8     	movk	x8, #0x2667, lsl #32
   78644: f2eade68     	movk	x8, #0x56f3, lsl #48
   78648: eb0801bf     	cmp	x13, x8
   7864c: 54003d20     	b.eq	0x78df0 <.text+0x70d80>
   78650: d2975f5e     	mov	x30, #0xbafa            // =47866
   78654: 2a1803e8     	mov	w8, w24
   78658: f2a043de     	movk	x30, #0x21e, lsl #16
   7865c: 2a1c03e9     	mov	w9, w28
   78660: aa1903ea     	mov	x10, x25
   78664: aa1603eb     	mov	x11, x22
   78668: aa1b03ec     	mov	x12, x27
   7866c: 2a1403ee     	mov	w14, w20
   78670: aa1a03ef     	mov	x15, x26
   78674: aa1303f0     	mov	x16, x19
   78678: f94023e0     	ldr	x0, [sp, #0x40]
   7867c: f2c189fe     	movk	x30, #0xc4f, lsl #32
   78680: f2eb557e     	movk	x30, #0x5aab, lsl #48
   78684: eb1e01bf     	cmp	x13, x30
   78688: 54ffcde0     	b.eq	0x78044 <.text+0x6ffd4>
   7868c: d282b828     	mov	x8, #0x15c1             // =5569
   78690: f2a85548     	movk	x8, #0x42aa, lsl #16
   78694: f2cab688     	movk	x8, #0x55b4, lsl #32
   78698: f2ee02a8     	movk	x8, #0x7015, lsl #48
   7869c: eb0801bf     	cmp	x13, x8
   786a0: 54003d20     	b.eq	0x78e44 <.text+0x70dd4>
   786a4: d2894e51     	mov	x17, #0x4a72            // =19058
   786a8: d28b955e     	mov	x30, #0x5caa            // =23722
   786ac: f2afef11     	movk	x17, #0x7f78, lsl #16
   786b0: f2aff71e     	movk	x30, #0x7fb8, lsl #16
   786b4: f2ceb111     	movk	x17, #0x7588, lsl #32
   786b8: 2a1803e8     	mov	w8, w24
   786bc: 2a1c03e9     	mov	w9, w28
   786c0: aa1903ea     	mov	x10, x25
   786c4: aa1603eb     	mov	x11, x22
   786c8: aa1b03ec     	mov	x12, x27
   786cc: 2a1403ee     	mov	w14, w20
   786d0: aa1a03ef     	mov	x15, x26
   786d4: aa1303f0     	mov	x16, x19
   786d8: aa1703e0     	mov	x0, x23
   786dc: f2e70191     	movk	x17, #0x380c, lsl #48
   786e0: f2d3c97e     	movk	x30, #0x9e4b, lsl #32
   786e4: f2eeef3e     	movk	x30, #0x7779, lsl #48
   786e8: eb1e01bf     	cmp	x13, x30
   786ec: 54ffcac0     	b.eq	0x78044 <.text+0x6ffd4>
   786f0: d28eb5d1     	mov	x17, #0x75ae            // =30126
   786f4: d288e37e     	mov	x30, #0x471b            // =18203
   786f8: f2af88d1     	movk	x17, #0x7c46, lsl #16
   786fc: f2bf581e     	movk	x30, #0xfac0, lsl #16
   78700: f2c01471     	movk	x17, #0xa3, lsl #32
   78704: 2a1803e8     	mov	w8, w24
   78708: 2a1c03e9     	mov	w9, w28
   7870c: aa1903ea     	mov	x10, x25
   78710: aa1603eb     	mov	x11, x22
   78714: aa1b03ec     	mov	x12, x27
   78718: 2a1403ee     	mov	w14, w20
   7871c: aa1a03ef     	mov	x15, x26
   78720: aa1303f0     	mov	x16, x19
   78724: aa1703e0     	mov	x0, x23
   78728: f2e27751     	movk	x17, #0x13ba, lsl #48
   7872c: f2d8a65e     	movk	x30, #0xc532, lsl #32
   78730: f2ef52de     	movk	x30, #0x7a96, lsl #48
   78734: eb1e01bf     	cmp	x13, x30
   78738: 54ffc860     	b.eq	0x78044 <.text+0x6ffd4>
   7873c: d28773c8     	mov	x8, #0x3b9e             // =15262
   78740: f2aeb5c8     	movk	x8, #0x75ae, lsl #16
   78744: f2ccbda8     	movk	x8, #0x65ed, lsl #32
   78748: f2efa988     	movk	x8, #0x7d4c, lsl #48
   7874c: eb0801bf     	cmp	x13, x8
   78750: 54003c00     	b.eq	0x78ed0 <.text+0x70e60>
   78754: aa1303f0     	mov	x16, x19
   78758: d2898e33     	mov	x19, #0x4c71            // =19569
   7875c: f2ba8bf3     	movk	x19, #0xd45f, lsl #16
   78760: 2a1803e8     	mov	w8, w24
   78764: 2a1c03e9     	mov	w9, w28
   78768: aa1903ea     	mov	x10, x25
   7876c: aa1603eb     	mov	x11, x22
   78770: aa1b03ec     	mov	x12, x27
   78774: 2a1403ee     	mov	w14, w20
   78778: aa1a03ef     	mov	x15, x26
   7877c: aa1703e0     	mov	x0, x23
   78780: aa0d03f1     	mov	x17, x13
   78784: f2c65993     	movk	x19, #0x32cc, lsl #32
   78788: f2e55dd3     	movk	x19, #0x2aee, lsl #48
   7878c: eb1301bf     	cmp	x13, x19
   78790: 54ffc5a1     	b.ne	0x78044 <.text+0x6ffd4>
   78794: 140001ec     	b	0x78f44 <.text+0x70ed4>
   78798: b9401fec     	ldr	w12, [sp, #0x1c]
   7879c: b9403feb     	ldr	w11, [sp, #0x3c]
   787a0: 51016d88     	sub	w8, w12, #0x5b
   787a4: 321b0189     	orr	w9, w12, #0x20
   787a8: 51016d6a     	sub	w10, w11, #0x5b
   787ac: 3100691f     	cmn	w8, #0x1a
   787b0: 321b0168     	orr	w8, w11, #0x20
   787b4: 1a893189     	csel	w9, w12, w9, lo
   787b8: 3100695f     	cmn	w10, #0x1a
   787bc: 1a88316a     	csel	w10, w11, w8, lo
   787c0: d288e36b     	mov	x11, #0x471b            // =18203
   787c4: 6b0a013f     	cmp	w9, w10
   787c8: d297010a     	mov	x10, #0xb808            // =47112
   787cc: f2afbeea     	movk	x10, #0x7df7, lsl #16
   787d0: f2bf580b     	movk	x11, #0xfac0, lsl #16
   787d4: f2d0e5aa     	movk	x10, #0x872d, lsl #32
   787d8: f2d8a64b     	movk	x11, #0xc532, lsl #32
   787dc: 2a1803e8     	mov	w8, w24
   787e0: 2a1c03e9     	mov	w9, w28
   787e4: f2e97f2a     	movk	x10, #0x4bf9, lsl #48
   787e8: f2ef52cb     	movk	x11, #0x7a96, lsl #48
   787ec: 140000e2     	b	0x78b74 <.text+0x70b04>
   787f0: b9401fec     	ldr	w12, [sp, #0x1c]
   787f4: b9403feb     	ldr	w11, [sp, #0x3c]
   787f8: 51016d88     	sub	w8, w12, #0x5b
   787fc: 321b0189     	orr	w9, w12, #0x20
   78800: 51016d6a     	sub	w10, w11, #0x5b
   78804: 3100691f     	cmn	w8, #0x1a
   78808: 1a893189     	csel	w9, w12, w9, lo
   7880c: 3100695f     	cmn	w10, #0x1a
   78810: f94013ea     	ldr	x10, [sp, #0x20]
   78814: 321b0168     	orr	w8, w11, #0x20
   78818: 1a883168     	csel	w8, w11, w8, lo
   7881c: 6b08013f     	cmp	w9, w8
   78820: d282a7c9     	mov	x9, #0x153e             // =5438
   78824: 9100054a     	add	x10, x10, #0x1
   78828: f2a012a9     	movk	x9, #0x95, lsl #16
   7882c: f2ce86c9     	movk	x9, #0x7436, lsl #32
   78830: 2a1803e8     	mov	w8, w24
   78834: f2f9c589     	movk	x9, #0xce2c, lsl #48
   78838: f81f03aa     	stur	x10, [x29, #-0x10]
   7883c: d284342a     	mov	x10, #0x21a1            // =8609
   78840: f2b99c4a     	movk	x10, #0xcce2, lsl #16
   78844: f2c8ea0a     	movk	x10, #0x4750, lsl #32
   78848: f2ff3dea     	movk	x10, #0xf9ef, lsl #48
   7884c: 14000018     	b	0x788ac <.text+0x7083c>
   78850: b9402fec     	ldr	w12, [sp, #0x2c]
   78854: b9403beb     	ldr	w11, [sp, #0x38]
   78858: 51016d88     	sub	w8, w12, #0x5b
   7885c: 321b0189     	orr	w9, w12, #0x20
   78860: 51016d6a     	sub	w10, w11, #0x5b
   78864: 3100691f     	cmn	w8, #0x1a
   78868: 1a893189     	csel	w9, w12, w9, lo
   7886c: 3100695f     	cmn	w10, #0x1a
   78870: f9401bea     	ldr	x10, [sp, #0x30]
   78874: 321b0168     	orr	w8, w11, #0x20
   78878: 1a883168     	csel	w8, w11, w8, lo
   7887c: 6b08013f     	cmp	w9, w8
   78880: d2975f49     	mov	x9, #0xbafa             // =47866
   78884: 9100054a     	add	x10, x10, #0x1
   78888: f2a043c9     	movk	x9, #0x21e, lsl #16
   7888c: f2c189e9     	movk	x9, #0xc4f, lsl #32
   78890: 2a1803e8     	mov	w8, w24
   78894: f2eb5569     	movk	x9, #0x5aab, lsl #48
   78898: f90023ea     	str	x10, [sp, #0x40]
   7889c: d28642ca     	mov	x10, #0x3216            // =12822
   788a0: f2bac16a     	movk	x10, #0xd60b, lsl #16
   788a4: f2c3540a     	movk	x10, #0x1aa0, lsl #32
   788a8: f2ff490a     	movk	x10, #0xfa48, lsl #48
   788ac: 9a890151     	csel	x17, x10, x9, eq
   788b0: 1400008f     	b	0x78aec <.text+0x70a7c>
   788b4: b9402fec     	ldr	w12, [sp, #0x2c]
   788b8: b9403beb     	ldr	w11, [sp, #0x38]
   788bc: 51016d88     	sub	w8, w12, #0x5b
   788c0: 321b0189     	orr	w9, w12, #0x20
   788c4: 51016d6a     	sub	w10, w11, #0x5b
   788c8: 3100691f     	cmn	w8, #0x1a
   788cc: 321b0168     	orr	w8, w11, #0x20
   788d0: 1a893189     	csel	w9, w12, w9, lo
   788d4: 3100695f     	cmn	w10, #0x1a
   788d8: 1a88316a     	csel	w10, w11, w8, lo
   788dc: d280e28b     	mov	x11, #0x714             // =1812
   788e0: 6b0a013f     	cmp	w9, w10
   788e4: d29902ca     	mov	x10, #0xc816            // =51222
   788e8: f2aced0a     	movk	x10, #0x6768, lsl #16
   788ec: f2a8754b     	movk	x11, #0x43aa, lsl #16
   788f0: f2da46ca     	movk	x10, #0xd236, lsl #32
   788f4: f2d95feb     	movk	x11, #0xcaff, lsl #32
   788f8: 2a1803e8     	mov	w8, w24
   788fc: 2a1c03e9     	mov	w9, w28
   78900: f2fe518a     	movk	x10, #0xf28c, lsl #48
   78904: f2e78b8b     	movk	x11, #0x3c5c, lsl #48
   78908: 1400009b     	b	0x78b74 <.text+0x70b04>
   7890c: b9403fe8     	ldr	w8, [sp, #0x3c]
   78910: d29d902a     	mov	x10, #0xec81            // =60545
   78914: d292748b     	mov	x11, #0x93a4            // =37796
   78918: f2bab9ea     	movk	x10, #0xd5cf, lsl #16
   7891c: f2b3100b     	movk	x11, #0x9880, lsl #16
   78920: f2d97baa     	movk	x10, #0xcbdd, lsl #32
   78924: f2d1f94b     	movk	x11, #0x8fca, lsl #32
   78928: 6b08029f     	cmp	w20, w8
   7892c: 2a1803e8     	mov	w8, w24
   78930: 2a1c03e9     	mov	w9, w28
   78934: f2f38f4a     	movk	x10, #0x9c7a, lsl #48
   78938: f2f6096b     	movk	x11, #0xb04b, lsl #48
   7893c: 1400008e     	b	0x78b74 <.text+0x70b04>
   78940: 394002ed     	ldrb	w13, [x23]
   78944: d298bdef     	mov	x15, #0xc5ef            // =50671
   78948: f2be296f     	movk	x15, #0xf14b, lsl #16
   7894c: 2a1803e8     	mov	w8, w24
   78950: f2cf29af     	movk	x15, #0x794d, lsl #32
   78954: f9001bf7     	str	x23, [sp, #0x30]
   78958: b9001bed     	str	w13, [sp, #0x18]
   7895c: 710001bf     	cmp	w13, #0x0
   78960: d290b7cd     	mov	x13, #0x85be            // =34238
   78964: f2ff248f     	movk	x15, #0xf924, lsl #48
   78968: f2bcda2d     	movk	x13, #0xe6d1, lsl #16
   7896c: 2a1c03e9     	mov	w9, w28
   78970: f2c4cced     	movk	x13, #0x2667, lsl #32
   78974: aa1903ea     	mov	x10, x25
   78978: f2eade6d     	movk	x13, #0x56f3, lsl #48
   7897c: aa1603eb     	mov	x11, x22
   78980: aa1b03ec     	mov	x12, x27
   78984: 2a1403ee     	mov	w14, w20
   78988: 9a8d01f1     	csel	x17, x15, x13, eq
   7898c: 140000d9     	b	0x78cf0 <.text+0x70c80>
   78990: d503201f     	nop
   78994: 1065f149     	adr	x9, 0x1447bc
   78998: f94013f5     	ldr	x21, [sp, #0x20]
   7899c: 2a1803e8     	mov	w8, w24
   789a0: b94017ec     	ldr	w12, [sp, #0x14]
   789a4: aa1903ea     	mov	x10, x25
   789a8: f81e03a9     	stur	x9, [x29, #-0x20]
   789ac: 2a1c03e9     	mov	w9, w28
   789b0: aa1603eb     	mov	x11, x22
   789b4: 1400007b     	b	0x78ba0 <.text+0x70b30>
   789b8: aa1903ed     	mov	x13, x25
   789bc: 910006c8     	add	x8, x22, #0x1
   789c0: 2a1c03e9     	mov	w9, w28
   789c4: aa1903ea     	mov	x10, x25
   789c8: aa1603eb     	mov	x11, x22
   789cc: 2a1403ee     	mov	w14, w20
   789d0: 38401dac     	ldrb	w12, [x13, #0x1]!
   789d4: f81d03a8     	stur	x8, [x29, #-0x30]
   789d8: 2a1803e8     	mov	w8, w24
   789dc: aa1a03ef     	mov	x15, x26
   789e0: aa1303f0     	mov	x16, x19
   789e4: b81dc3ac     	stur	w12, [x29, #-0x24]
   789e8: aa1b03ec     	mov	x12, x27
   789ec: f81c83ad     	stur	x13, [x29, #-0x38]
   789f0: 1400010f     	b	0x78e2c <.text+0x70dbc>
   789f4: 2a1f03e0     	mov	w0, wzr
   789f8: 52800021     	mov	w1, #0x1                // =1
   789fc: d503201f     	nop
   78a00: 1066c0e2     	adr	x2, 0x14621c
   78a04: 9403037f     	bl	0x139800 <Java_com_adjust_sdk_sig_NativeLibHelper_nSign+0x6d1fc>
   78a08: d2894e46     	mov	x6, #0x4a72             // =19058
   78a0c: d28cec87     	mov	x7, #0x6764             // =26468
   78a10: d2842ae5     	mov	x5, #0x2157             // =8535
   78a14: d28685e4     	mov	x4, #0x342f             // =13359
   78a18: d29e6d63     	mov	x3, #0xf36b             // =62315
   78a1c: d2943f42     	mov	x2, #0xa1fa             // =41466
   78a20: d29c5ec1     	mov	x1, #0xe2f6             // =58102
   78a24: d28ebf6b     	mov	x11, #0x75fb            // =30203
   78a28: d28b5d8c     	mov	x12, #0x5aec            // =23276
   78a2c: f2afef06     	movk	x6, #0x7f78, lsl #16
   78a30: f2ab12e7     	movk	x7, #0x5897, lsl #16
   78a34: f2aec1e5     	movk	x5, #0x760f, lsl #16
   78a38: f2a3f724     	movk	x4, #0x1fb9, lsl #16
   78a3c: f2a7a503     	movk	x3, #0x3d28, lsl #16
   78a40: f2acc002     	movk	x2, #0x6600, lsl #16
   78a44: f2ba9ae1     	movk	x1, #0xd4d7, lsl #16
   78a48: f2b6a86b     	movk	x11, #0xb543, lsl #16
   78a4c: f2a3778c     	movk	x12, #0x1bbc, lsl #16
   78a50: f2ceb106     	movk	x6, #0x7588, lsl #32
   78a54: f2c24627     	movk	x7, #0x1231, lsl #32
   78a58: f2c16cc5     	movk	x5, #0xb66, lsl #32
   78a5c: f2c1aec4     	movk	x4, #0xd76, lsl #32
   78a60: f2df9183     	movk	x3, #0xfc8c, lsl #32
   78a64: f2d53122     	movk	x2, #0xa989, lsl #32
   78a68: f2d976a1     	movk	x1, #0xcbb5, lsl #32
   78a6c: f2dff26b     	movk	x11, #0xff93, lsl #32
   78a70: f2dea70c     	movk	x12, #0xf538, lsl #32
   78a74: f2e70186     	movk	x6, #0x380c, lsl #48
   78a78: f2e80ca7     	movk	x7, #0x4065, lsl #48
   78a7c: f2f3c345     	movk	x5, #0x9e1a, lsl #48
   78a80: f2f3e804     	movk	x4, #0x9f40, lsl #48
   78a84: f2f74363     	movk	x3, #0xba1b, lsl #48
   78a88: f2fc4d82     	movk	x2, #0xe26c, lsl #48
   78a8c: f2fe8fe1     	movk	x1, #0xf47f, lsl #48
   78a90: 2a1803e8     	mov	w8, w24
   78a94: 2a1c03e9     	mov	w9, w28
   78a98: aa1903ea     	mov	x10, x25
   78a9c: f2f10e8b     	movk	x11, #0x8874, lsl #48
   78aa0: f2e0362c     	movk	x12, #0x1b1, lsl #48
   78aa4: 7100001f     	cmp	w0, #0x0
   78aa8: 1400008e     	b	0x78ce0 <.text+0x70c70>
   78aac: f94007e8     	ldr	x8, [sp, #0x8]
   78ab0: d2810031     	mov	x17, #0x801             // =2049
   78ab4: f2be3e71     	movk	x17, #0xf1f3, lsl #16
   78ab8: 2a1c03e9     	mov	w9, w28
   78abc: f2dd6811     	movk	x17, #0xeb40, lsl #32
   78ac0: aa1903ea     	mov	x10, x25
   78ac4: f9400d0c     	ldr	x12, [x8, #0x18]
   78ac8: 2a1803e8     	mov	w8, w24
   78acc: aa1603eb     	mov	x11, x22
   78ad0: 2a1403ee     	mov	w14, w20
   78ad4: aa1a03ef     	mov	x15, x26
   78ad8: aa1303f0     	mov	x16, x19
   78adc: aa1703e0     	mov	x0, x23
   78ae0: f2e8f2d1     	movk	x17, #0x4796, lsl #48
   78ae4: 17fffd58     	b	0x78044 <.text+0x6ffd4>
   78ae8: 52800028     	mov	w8, #0x1                // =1
   78aec: 2a1c03e9     	mov	w9, w28
   78af0: 14000022     	b	0x78b78 <.text+0x70b08>
   78af4: d0000668     	adrp	x8, 0x146000
   78af8: d28b9550     	mov	x16, #0x5caa            // =23722
   78afc: f2aff710     	movk	x16, #0x7fb8, lsl #16
   78b00: 2a1c03e9     	mov	w9, w28
   78b04: f2d3c970     	movk	x16, #0x9e4b, lsl #32
   78b08: aa1903ea     	mov	x10, x25
   78b0c: 3948750d     	ldrb	w13, [x8, #0x21d]
   78b10: f2eeef30     	movk	x16, #0x7779, lsl #48
   78b14: 2a1803e8     	mov	w8, w24
   78b18: aa1603eb     	mov	x11, x22
   78b1c: aa1b03ec     	mov	x12, x27
   78b20: 2a1403ee     	mov	w14, w20
   78b24: 710001bf     	cmp	w13, #0x0
   78b28: d288fc2d     	mov	x13, #0x47e1            // =18401
   78b2c: f2b7f2ed     	movk	x13, #0xbf97, lsl #16
   78b30: aa1a03ef     	mov	x15, x26
   78b34: f2de05ad     	movk	x13, #0xf02d, lsl #32
   78b38: f2e9160d     	movk	x13, #0x48b0, lsl #48
   78b3c: 9a8d1211     	csel	x17, x16, x13, ne
   78b40: 1400006d     	b	0x78cf4 <.text+0x70c84>
   78b44: b9403be8     	ldr	w8, [sp, #0x38]
   78b48: d28b6cea     	mov	x10, #0x5b67            // =23399
   78b4c: d2899e4b     	mov	x11, #0x4cf2            // =19698
   78b50: f2b72b2a     	movk	x10, #0xb959, lsl #16
   78b54: f2a21deb     	movk	x11, #0x10ef, lsl #16
   78b58: f2dd432a     	movk	x10, #0xea19, lsl #32
   78b5c: f2dd7d6b     	movk	x11, #0xebeb, lsl #32
   78b60: 6b08039f     	cmp	w28, w8
   78b64: 2a1803e8     	mov	w8, w24
   78b68: 2a1c03e9     	mov	w9, w28
   78b6c: f2f4a90a     	movk	x10, #0xa548, lsl #48
   78b70: f2fdc60b     	movk	x11, #0xee30, lsl #48
   78b74: 9a8a0171     	csel	x17, x11, x10, eq
   78b78: aa1903ea     	mov	x10, x25
   78b7c: 1400005a     	b	0x78ce4 <.text+0x70c74>
   78b80: aa1a03f5     	mov	x21, x26
   78b84: 91000668     	add	x8, x19, #0x1
   78b88: 2a1c03e9     	mov	w9, w28
   78b8c: aa1903ea     	mov	x10, x25
   78b90: aa1603eb     	mov	x11, x22
   78b94: f81e03a8     	stur	x8, [x29, #-0x20]
   78b98: 2a1803e8     	mov	w8, w24
   78b9c: 38401eac     	ldrb	w12, [x21, #0x1]!
   78ba0: d298ab31     	mov	x17, #0xc559            // =50521
   78ba4: b81ec3ac     	stur	w12, [x29, #-0x14]
   78ba8: f2a3dd31     	movk	x17, #0x1ee9, lsl #16
   78bac: aa1b03ec     	mov	x12, x27
   78bb0: f2c97c71     	movk	x17, #0x4be3, lsl #32
   78bb4: 2a1403ee     	mov	w14, w20
   78bb8: aa1a03ef     	mov	x15, x26
   78bbc: aa1303f0     	mov	x16, x19
   78bc0: aa1703e0     	mov	x0, x23
   78bc4: f2e20531     	movk	x17, #0x1029, lsl #48
   78bc8: 17fffd1f     	b	0x78044 <.text+0x6ffd4>
   78bcc: d503201f     	nop
   78bd0: 1066b268     	adr	x8, 0x14621c
   78bd4: d290fc2d     	mov	x13, #0x87e1            // =34785
   78bd8: 2a1c03e9     	mov	w9, w28
   78bdc: f2ad92ad     	movk	x13, #0x6c95, lsl #16
   78be0: aa1903ea     	mov	x10, x25
   78be4: 089ffd1f     	stlrb	wzr, [x8]
   78be8: 90000668     	adrp	x8, 0x144000
   78bec: 911efd08     	add	x8, x8, #0x7bf
   78bf0: 394002cc     	ldrb	w12, [x22]
   78bf4: eb0802df     	cmp	x22, x8
   78bf8: f2cfebed     	movk	x13, #0x7f5f, lsl #32
   78bfc: 7a401b84     	ccmp	w28, #0x0, #0x4, ne
   78c00: f2e21aad     	movk	x13, #0x10d5, lsl #48
   78c04: b9003bec     	str	w12, [sp, #0x38]
   78c08: d29232ac     	mov	x12, #0x9195            // =37269
   78c0c: f2bdffac     	movk	x12, #0xeffd, lsl #16
   78c10: 2a1803e8     	mov	w8, w24
   78c14: f2dc666c     	movk	x12, #0xe333, lsl #32
   78c18: aa1603eb     	mov	x11, x22
   78c1c: f2f3e3cc     	movk	x12, #0x9f1e, lsl #48
   78c20: b9002ffc     	str	w28, [sp, #0x2c]
   78c24: 9a8d0191     	csel	x17, x12, x13, eq
   78c28: 14000030     	b	0x78ce8 <.text+0x70c78>
   78c2c: 2a1f03e0     	mov	w0, wzr
   78c30: 52800021     	mov	w1, #0x1                // =1
   78c34: d503201f     	nop
   78c38: 1066af22     	adr	x2, 0x14621c
   78c3c: 940302f1     	bl	0x139800 <Java_com_adjust_sdk_sig_NativeLibHelper_nSign+0x6d1fc>
   78c40: d2894e46     	mov	x6, #0x4a72             // =19058
   78c44: d28cec87     	mov	x7, #0x6764             // =26468
   78c48: d2842ae5     	mov	x5, #0x2157             // =8535
   78c4c: d28685e4     	mov	x4, #0x342f             // =13359
   78c50: d29e6d63     	mov	x3, #0xf36b             // =62315
   78c54: d2943f42     	mov	x2, #0xa1fa             // =41466
   78c58: d29c5ec1     	mov	x1, #0xe2f6             // =58102
   78c5c: d2814a8b     	mov	x11, #0xa54             // =2644
   78c60: d283552c     	mov	x12, #0x1aa9            // =6825
   78c64: f2afef06     	movk	x6, #0x7f78, lsl #16
   78c68: f2ab12e7     	movk	x7, #0x5897, lsl #16
   78c6c: f2aec1e5     	movk	x5, #0x760f, lsl #16
   78c70: f2a3f724     	movk	x4, #0x1fb9, lsl #16
   78c74: f2a7a503     	movk	x3, #0x3d28, lsl #16
   78c78: f2acc002     	movk	x2, #0x6600, lsl #16
   78c7c: f2ba9ae1     	movk	x1, #0xd4d7, lsl #16
   78c80: f2ab4d8b     	movk	x11, #0x5a6c, lsl #16
   78c84: f2aa19ac     	movk	x12, #0x50cd, lsl #16
   78c88: f2ceb106     	movk	x6, #0x7588, lsl #32
   78c8c: f2c24627     	movk	x7, #0x1231, lsl #32
   78c90: f2c16cc5     	movk	x5, #0xb66, lsl #32
   78c94: f2c1aec4     	movk	x4, #0xd76, lsl #32
   78c98: f2df9183     	movk	x3, #0xfc8c, lsl #32
   78c9c: f2d53122     	movk	x2, #0xa989, lsl #32
   78ca0: f2d976a1     	movk	x1, #0xcbb5, lsl #32
   78ca4: f2c5694b     	movk	x11, #0x2b4a, lsl #32
   78ca8: f2c9faec     	movk	x12, #0x4fd7, lsl #32
   78cac: f2e70186     	movk	x6, #0x380c, lsl #48
   78cb0: f2e80ca7     	movk	x7, #0x4065, lsl #48
   78cb4: f2f3c345     	movk	x5, #0x9e1a, lsl #48
   78cb8: f2f3e804     	movk	x4, #0x9f40, lsl #48
   78cbc: f2f74363     	movk	x3, #0xba1b, lsl #48
   78cc0: f2fc4d82     	movk	x2, #0xe26c, lsl #48
   78cc4: f2fe8fe1     	movk	x1, #0xf47f, lsl #48
   78cc8: 2a1803e8     	mov	w8, w24
   78ccc: 2a1c03e9     	mov	w9, w28
   78cd0: 7100001f     	cmp	w0, #0x0
   78cd4: aa1903ea     	mov	x10, x25
   78cd8: f2f6b00b     	movk	x11, #0xb580, lsl #48
   78cdc: f2ea388c     	movk	x12, #0x51c4, lsl #48
   78ce0: 9a8b0191     	csel	x17, x12, x11, eq
   78ce4: aa1603eb     	mov	x11, x22
   78ce8: aa1b03ec     	mov	x12, x27
   78cec: 2a1403ee     	mov	w14, w20
   78cf0: aa1a03ef     	mov	x15, x26
   78cf4: aa1303f0     	mov	x16, x19
   78cf8: aa1703e0     	mov	x0, x23
   78cfc: 17fffcd2     	b	0x78044 <.text+0x6ffd4>
   78d00: 3940036d     	ldrb	w13, [x27]
   78d04: d28690ae     	mov	x14, #0x3485            // =13445
   78d08: f2aecd8e     	movk	x14, #0x766c, lsl #16
   78d0c: 2a1803e8     	mov	w8, w24
   78d10: f2d177ae     	movk	x14, #0x8bbd, lsl #32
   78d14: 2a1c03e9     	mov	w9, w28
   78d18: 710001bf     	cmp	w13, #0x0
   78d1c: b90017ed     	str	w13, [sp, #0x14]
   78d20: 1a9f07ed     	cset	w13, ne
   78d24: f2f7b50e     	movk	x14, #0xbda8, lsl #48
   78d28: aa1903ea     	mov	x10, x25
   78d2c: aa1603eb     	mov	x11, x22
   78d30: aa1b03ec     	mov	x12, x27
   78d34: f90013fb     	str	x27, [sp, #0x20]
   78d38: b81fc3ad     	stur	w13, [x29, #-0x4]
   78d3c: d29707ad     	mov	x13, #0xb83d            // =47165
   78d40: f2b0fa4d     	movk	x13, #0x87d2, lsl #16
   78d44: f2c72d4d     	movk	x13, #0x396a, lsl #32
   78d48: f2f5fc2d     	movk	x13, #0xafe1, lsl #48
   78d4c: 9a8d11d1     	csel	x17, x14, x13, ne
   78d50: 17ffffe7     	b	0x78cec <.text+0x70c7c>
   78d54: d503201f     	nop
   78d58: 1065d33e     	adr	x30, 0x1447bc
   78d5c: 52800b6c     	mov	w12, #0x5b              // =91
   78d60: d2894e51     	mov	x17, #0x4a72            // =19058
   78d64: f2afef11     	movk	x17, #0x7f78, lsl #16
   78d68: 2a1403ee     	mov	w14, w20
   78d6c: 394003c8     	ldrb	w8, [x30]
   78d70: f2ceb111     	movk	x17, #0x7588, lsl #32
   78d74: 394007c9     	ldrb	w9, [x30, #0x1]
   78d78: aa1a03ef     	mov	x15, x26
   78d7c: 39400bca     	ldrb	w10, [x30, #0x2]
   78d80: aa1303f0     	mov	x16, x19
   78d84: 4a0c0108     	eor	w8, w8, w12
   78d88: 39400fcb     	ldrb	w11, [x30, #0x3]
   78d8c: 4a0c0129     	eor	w9, w9, w12
   78d90: aa1703e0     	mov	x0, x23
   78d94: 4a0c014a     	eor	w10, w10, w12
   78d98: f2e70191     	movk	x17, #0x380c, lsl #48
   78d9c: 1400003c     	b	0x78e8c <.text+0x70e1c>
   78da0: d0000668     	adrp	x8, 0x146000
   78da4: d282b830     	mov	x16, #0x15c1            // =5569
   78da8: f2a85550     	movk	x16, #0x42aa, lsl #16
   78dac: 2a1c03e9     	mov	w9, w28
   78db0: f2cab690     	movk	x16, #0x55b4, lsl #32
   78db4: aa1903ea     	mov	x10, x25
   78db8: 3948750d     	ldrb	w13, [x8, #0x21d]
   78dbc: f2ee02b0     	movk	x16, #0x7015, lsl #48
   78dc0: 2a1803e8     	mov	w8, w24
   78dc4: aa1603eb     	mov	x11, x22
   78dc8: aa1b03ec     	mov	x12, x27
   78dcc: 2a1403ee     	mov	w14, w20
   78dd0: 710001bf     	cmp	w13, #0x0
   78dd4: d29f8dad     	mov	x13, #0xfc6d            // =64621
   78dd8: f2ad464d     	movk	x13, #0x6a32, lsl #16
   78ddc: aa1a03ef     	mov	x15, x26
   78de0: f2c947ad     	movk	x13, #0x4a3d, lsl #32
   78de4: f2f1b14d     	movk	x13, #0x8d8a, lsl #48
   78de8: 9a9011b1     	csel	x17, x13, x16, ne
   78dec: 17ffffc2     	b	0x78cf4 <.text+0x70c84>
   78df0: d503201f     	nop
   78df4: 1065ce4d     	adr	x13, 0x1447bc
   78df8: 2a1803e8     	mov	w8, w24
   78dfc: 2a1c03e9     	mov	w9, w28
   78e00: aa1903ea     	mov	x10, x25
   78e04: aa1603eb     	mov	x11, x22
   78e08: f81d03ad     	stur	x13, [x29, #-0x30]
   78e0c: f9401bed     	ldr	x13, [sp, #0x30]
   78e10: aa1b03ec     	mov	x12, x27
   78e14: 2a1403ee     	mov	w14, w20
   78e18: aa1a03ef     	mov	x15, x26
   78e1c: aa1303f0     	mov	x16, x19
   78e20: f81c83ad     	stur	x13, [x29, #-0x38]
   78e24: b9401bed     	ldr	w13, [sp, #0x18]
   78e28: b81dc3ad     	stur	w13, [x29, #-0x24]
   78e2c: d29605d1     	mov	x17, #0xb02e            // =45102
   78e30: aa1703e0     	mov	x0, x23
   78e34: f2b0df51     	movk	x17, #0x86fa, lsl #16
   78e38: f2db01b1     	movk	x17, #0xd80d, lsl #32
   78e3c: f2e6e491     	movk	x17, #0x3724, lsl #48
   78e40: 17fffc81     	b	0x78044 <.text+0x6ffd4>
   78e44: d503201f     	nop
   78e48: 1065cbbe     	adr	x30, 0x1447bc
   78e4c: 52800b6c     	mov	w12, #0x5b              // =91
   78e50: d28773d1     	mov	x17, #0x3b9e            // =15262
   78e54: f2aeb5d1     	movk	x17, #0x75ae, lsl #16
   78e58: 2a1403ee     	mov	w14, w20
   78e5c: 394003c8     	ldrb	w8, [x30]
   78e60: f2ccbdb1     	movk	x17, #0x65ed, lsl #32
   78e64: 394007c9     	ldrb	w9, [x30, #0x1]
   78e68: aa1a03ef     	mov	x15, x26
   78e6c: 39400bca     	ldrb	w10, [x30, #0x2]
   78e70: aa1303f0     	mov	x16, x19
   78e74: 4a0c0108     	eor	w8, w8, w12
   78e78: 39400fcb     	ldrb	w11, [x30, #0x3]
   78e7c: 4a0c0129     	eor	w9, w9, w12
   78e80: aa1703e0     	mov	x0, x23
   78e84: 4a0c014a     	eor	w10, w10, w12
   78e88: f2efa991     	movk	x17, #0x7d4c, lsl #48
   78e8c: 390003c8     	strb	w8, [x30]
   78e90: 394013c8     	ldrb	w8, [x30, #0x4]
   78e94: 4a0c016b     	eor	w11, w11, w12
   78e98: 390007c9     	strb	w9, [x30, #0x1]
   78e9c: 39000bca     	strb	w10, [x30, #0x2]
   78ea0: 2a1c03e9     	mov	w9, w28
   78ea4: 4a0c010d     	eor	w13, w8, w12
   78ea8: 2a1803e8     	mov	w8, w24
   78eac: 39000fcb     	strb	w11, [x30, #0x3]
   78eb0: aa1903ea     	mov	x10, x25
   78eb4: aa1603eb     	mov	x11, x22
   78eb8: aa1b03ec     	mov	x12, x27
   78ebc: 390013cd     	strb	w13, [x30, #0x4]
   78ec0: 5280002d     	mov	w13, #0x1               // =1
   78ec4: d0000673     	adrp	x19, 0x146000
   78ec8: 3908766d     	strb	w13, [x19, #0x21d]
   78ecc: 17fffc5e     	b	0x78044 <.text+0x6ffd4>
   78ed0: d503201f     	nop
   78ed4: 10669a48     	adr	x8, 0x14621c
   78ed8: d2814eed     	mov	x13, #0xa77             // =2679
   78edc: d2891d8e     	mov	x14, #0x48ec            // =18668
   78ee0: f2a0868d     	movk	x13, #0x434, lsl #16
   78ee4: f2af634e     	movk	x14, #0x7b1a, lsl #16
   78ee8: 089ffd1f     	stlrb	wzr, [x8]
   78eec: 90000668     	adrp	x8, 0x144000
   78ef0: 911efd08     	add	x8, x8, #0x7bf
   78ef4: 3940026c     	ldrb	w12, [x19]
   78ef8: eb08027f     	cmp	x19, x8
   78efc: f2c18b2d     	movk	x13, #0xc59, lsl #32
   78f00: 7a401a84     	ccmp	w20, #0x0, #0x4, ne
   78f04: f2cb874e     	movk	x14, #0x5c3a, lsl #32
   78f08: f2f5fe2d     	movk	x13, #0xaff1, lsl #48
   78f0c: f2f73d0e     	movk	x14, #0xb9e8, lsl #48
   78f10: 2a1803e8     	mov	w8, w24
   78f14: 2a1c03e9     	mov	w9, w28
   78f18: aa1903ea     	mov	x10, x25
   78f1c: aa1603eb     	mov	x11, x22
   78f20: b9003fec     	str	w12, [sp, #0x3c]
   78f24: aa1b03ec     	mov	x12, x27
   78f28: 9a8e01b1     	csel	x17, x13, x14, eq
   78f2c: 2a1403ee     	mov	w14, w20
   78f30: aa1a03ef     	mov	x15, x26
   78f34: aa1303f0     	mov	x16, x19
   78f38: b9001ff4     	str	w20, [sp, #0x1c]
   78f3c: aa1703e0     	mov	x0, x23
   78f40: 17fffc41     	b	0x78044 <.text+0x6ffd4>
   78f44: 12000300     	and	w0, w24, #0x1
   78f48: a94d4ff4     	ldp	x20, x19, [sp, #0xd0]
   78f4c: a94c57f6     	ldp	x22, x21, [sp, #0xc0]
   78f50: a94b5ff8     	ldp	x24, x23, [sp, #0xb0]
   78f54: a94a67fa     	ldp	x26, x25, [sp, #0xa0]
   78f58: a9496ffc     	ldp	x28, x27, [sp, #0x90]
   78f5c: a9487bfd     	ldp	x29, x30, [sp, #0x80]
   78f60: 910383ff     	add	sp, sp, #0xe0
   78f64: d65f03c0     	ret
