   18540: fc190fe8     	str	d8, [sp, #-0x70]!
   18544: a9017bfd     	stp	x29, x30, [sp, #0x10]
   18548: a9026ffc     	stp	x28, x27, [sp, #0x20]
   1854c: a90367fa     	stp	x26, x25, [sp, #0x30]
   18550: a9045ff8     	stp	x24, x23, [sp, #0x40]
   18554: a90557f6     	stp	x22, x21, [sp, #0x50]
   18558: a9064ff4     	stp	x20, x19, [sp, #0x60]
   1855c: 910043fd     	add	x29, sp, #0x10
   18560: d10e83ff     	sub	sp, sp, #0x3a0
   18564: d10203a8     	sub	x8, x29, #0x80
   18568: d10783a9     	sub	x9, x29, #0x1e0
   1856c: b81dc3bf     	stur	wzr, [x29, #-0x24]
   18570: d28e858e     	mov	x14, #0x742c            // =29740
   18574: b815c3bf     	stur	wzr, [x29, #-0xa4]
   18578: f2af4dce     	movk	x14, #0x7a6e, lsl #16
   1857c: f8100102     	stur	x2, [x8, #-0x100]
   18580: d100a3a8     	sub	x8, x29, #0x28
   18584: b81d83bf     	stur	wzr, [x29, #-0x28]
   18588: 0f02e468     	movi	v8.8b, #0x43
   1858c: b81543bf     	stur	wzr, [x29, #-0xac]
   18590: f2dc112e     	movk	x14, #0xe089, lsl #32
   18594: f8100101     	stur	x1, [x8, #-0x100]
   18598: d10743a8     	sub	x8, x29, #0x1d0
   1859c: f2ee752e     	movk	x14, #0x73a9, lsl #48
   185a0: f8100100     	stur	x0, [x8, #-0x100]
   185a4: d10113a8     	sub	x8, x29, #0x44
   185a8: b810011f     	stur	wzr, [x8, #-0x100]
   185ac: d10213a8     	sub	x8, x29, #0x84
   185b0: b810011f     	stur	wzr, [x8, #-0x100]
   185b4: d10233a8     	sub	x8, x29, #0x8c
   185b8: b810011f     	stur	wzr, [x8, #-0x100]
   185bc: d10123a8     	sub	x8, x29, #0x48
   185c0: b810011f     	stur	wzr, [x8, #-0x100]
   185c4: d53bd048     	mrs	x8, TPIDR_EL0
   185c8: b810013f     	stur	wzr, [x9, #-0x100]
   185cc: d107b3a9     	sub	x9, x29, #0x1ec
   185d0: b810013f     	stur	wzr, [x9, #-0x100]
   185d4: d10793a9     	sub	x9, x29, #0x1e4
   185d8: b810013f     	stur	wzr, [x9, #-0x100]
   185dc: d10763a9     	sub	x9, x29, #0x1d8
   185e0: b810013f     	stur	wzr, [x9, #-0x100]
   185e4: d107a3a9     	sub	x9, x29, #0x1e8
   185e8: b810013f     	stur	wzr, [x9, #-0x100]
   185ec: d10773a9     	sub	x9, x29, #0x1dc
   185f0: b810013f     	stur	wzr, [x9, #-0x100]
   185f4: d10253a9     	sub	x9, x29, #0x94
   185f8: b810013f     	stur	wzr, [x9, #-0x100]
   185fc: d10753a9     	sub	x9, x29, #0x1d4
   18600: b810013f     	stur	wzr, [x9, #-0x100]
   18604: d10243a9     	sub	x9, x29, #0x90
   18608: b810013f     	stur	wzr, [x9, #-0x100]
   1860c: d10223a9     	sub	x9, x29, #0x88
   18610: b810013f     	stur	wzr, [x9, #-0x100]
   18614: d10ac3a9     	sub	x9, x29, #0x2b0
   18618: f8100128     	stur	x8, [x9, #-0x100]
   1861c: f9401508     	ldr	x8, [x8, #0x28]
   18620: f81e03a8     	stur	x8, [x29, #-0x20]
   18624: aa0803e9     	mov	x9, x8
   18628: d280db48     	mov	x8, #0x6da              // =1754
   1862c: 297b57b8     	ldp	w24, w21, [x29, #-0x28]
   18630: f2ad8c48     	movk	x8, #0x6c62, lsl #16
   18634: aa0c03f9     	mov	x25, x12
   18638: aa0403fc     	mov	x28, x4
   1863c: aa0303f3     	mov	x19, x3
   18640: aa0b03fa     	mov	x26, x11
   18644: aa0203f7     	mov	x23, x2
   18648: aa0a03f6     	mov	x22, x10
   1864c: f85d03b4     	ldur	x20, [x29, #-0x30]
   18650: f2c53208     	movk	x8, #0x2990, lsl #32
   18654: f2f03008     	movk	x8, #0x8180, lsl #48
   18658: eb0801df     	cmp	x14, x8
   1865c: 54029ce0     	b.eq	0x1d9f8 <.text+0x15988>
   18660: aa0e03e0     	mov	x0, x14
   18664: d28b778e     	mov	x14, #0x5bbc            // =23484
   18668: f81c03a9     	stur	x9, [x29, #-0x40]
   1866c: aa0903e8     	mov	x8, x9
   18670: f2af9fce     	movk	x14, #0x7cfe, lsl #16
   18674: d297ada9     	mov	x9, #0xbd6d             // =48493
   18678: f2c81dee     	movk	x14, #0x40ef, lsl #32
   1867c: f2bcb4a9     	movk	x9, #0xe5a5, lsl #16
   18680: aa1603ea     	mov	x10, x22
   18684: aa1703e2     	mov	x2, x23
   18688: aa1a03eb     	mov	x11, x26
   1868c: aa1303e3     	mov	x3, x19
   18690: aa1c03e4     	mov	x4, x28
   18694: aa1903ec     	mov	x12, x25
   18698: f2f7dc8e     	movk	x14, #0xbee4, lsl #48
   1869c: f2d2e189     	movk	x9, #0x970c, lsl #32
   186a0: f2f0d129     	movk	x9, #0x8689, lsl #48
   186a4: 293b57b8     	stp	w24, w21, [x29, #-0x28]
   186a8: eb09001f     	cmp	x0, x9
   186ac: a93cd3a7     	stp	x7, x20, [x29, #-0x38]
   186b0: a93997a6     	stp	x6, x5, [x29, #-0x68]
   186b4: a938b7a1     	stp	x1, x13, [x29, #-0x78]
   186b8: a93b43af     	stp	x15, x16, [x29, #-0x50]
   186bc: f81a83be     	stur	x30, [x29, #-0x58]
   186c0: 54fffb20     	b.eq	0x18624 <.text+0x105b4>
   186c4: d280c148     	mov	x8, #0x60a              // =1546
   186c8: aa1103fb     	mov	x27, x17
   186cc: f2a9c728     	movk	x8, #0x4e39, lsl #16
   186d0: f2cf7f68     	movk	x8, #0x7bfb, lsl #32
   186d4: f2f0da88     	movk	x8, #0x86d4, lsl #48
   186d8: eb08001f     	cmp	x0, x8
   186dc: 54024ac0     	b.eq	0x1d034 <.text+0x14fc4>
   186e0: a97997a6     	ldp	x6, x5, [x29, #-0x68]
   186e4: d28677a9     	mov	x9, #0x33bd             // =13245
   186e8: aa1603ea     	mov	x10, x22
   186ec: a978b7a1     	ldp	x1, x13, [x29, #-0x78]
   186f0: f2a86309     	movk	x9, #0x4318, lsl #16
   186f4: aa1703e2     	mov	x2, x23
   186f8: a97c1fa8     	ldp	x8, x7, [x29, #-0x40]
   186fc: aa1a03eb     	mov	x11, x26
   18700: aa1303e3     	mov	x3, x19
   18704: a97b43af     	ldp	x15, x16, [x29, #-0x50]
   18708: aa1c03e4     	mov	x4, x28
   1870c: aa1903ec     	mov	x12, x25
   18710: f85a83be     	ldur	x30, [x29, #-0x58]
   18714: aa1b03f1     	mov	x17, x27
   18718: f2d6e789     	movk	x9, #0xb73c, lsl #32
   1871c: 293b57b8     	stp	w24, w21, [x29, #-0x28]
   18720: f2f12009     	movk	x9, #0x8900, lsl #48
   18724: f81d03b4     	stur	x20, [x29, #-0x30]
   18728: eb09001f     	cmp	x0, x9
   1872c: 54fff7c0     	b.eq	0x18624 <.text+0x105b4>
   18730: d280b568     	mov	x8, #0x5ab              // =1451
   18734: f2b85608     	movk	x8, #0xc2b0, lsl #16
   18738: f2c4d748     	movk	x8, #0x26ba, lsl #32
   1873c: f2f1e628     	movk	x8, #0x8f31, lsl #48
   18740: eb08001f     	cmp	x0, x8
   18744: 5401f4e0     	b.eq	0x1c5e0 <.text+0x14570>
   18748: d293ceee     	mov	x14, #0x9e77            // =40567
   1874c: d2953889     	mov	x9, #0xa9c4             // =43460
   18750: a97997a6     	ldp	x6, x5, [x29, #-0x68]
   18754: f2a9482e     	movk	x14, #0x4a41, lsl #16
   18758: f2a6b849     	movk	x9, #0x35c2, lsl #16
   1875c: a978b7a1     	ldp	x1, x13, [x29, #-0x78]
   18760: f2cc3b0e     	movk	x14, #0x61d8, lsl #32
   18764: aa1603ea     	mov	x10, x22
   18768: a97c1fa8     	ldp	x8, x7, [x29, #-0x40]
   1876c: aa1703e2     	mov	x2, x23
   18770: aa1a03eb     	mov	x11, x26
   18774: a97b43af     	ldp	x15, x16, [x29, #-0x50]
   18778: aa1303e3     	mov	x3, x19
   1877c: aa1c03e4     	mov	x4, x28
   18780: aa1903ec     	mov	x12, x25
   18784: f85a83be     	ldur	x30, [x29, #-0x58]
   18788: aa1b03f1     	mov	x17, x27
   1878c: f2e3f00e     	movk	x14, #0x1f80, lsl #48
   18790: f2c246a9     	movk	x9, #0x1235, lsl #32
   18794: 293b57b8     	stp	w24, w21, [x29, #-0x28]
   18798: f2f20e89     	movk	x9, #0x9074, lsl #48
   1879c: f81d03b4     	stur	x20, [x29, #-0x30]
   187a0: eb09001f     	cmp	x0, x9
   187a4: 54fff400     	b.eq	0x18624 <.text+0x105b4>
   187a8: d28cec68     	mov	x8, #0x6763             // =26467
   187ac: f2a70ee8     	movk	x8, #0x3877, lsl #16
   187b0: f2d410e8     	movk	x8, #0xa087, lsl #32
   187b4: f2f265a8     	movk	x8, #0x932d, lsl #48
   187b8: eb08001f     	cmp	x0, x8
   187bc: 54024ca0     	b.eq	0x1d150 <.text+0x150e0>
   187c0: d294a948     	mov	x8, #0xa54a             // =42314
   187c4: aa1b03f1     	mov	x17, x27
   187c8: f2b534c8     	movk	x8, #0xa9a6, lsl #16
   187cc: f2c8eea8     	movk	x8, #0x4775, lsl #32
   187d0: f2f27f28     	movk	x8, #0x93f9, lsl #48
   187d4: eb08001f     	cmp	x0, x8
   187d8: 540130c0     	b.eq	0x1adf0 <.text+0x12d80>
   187dc: d29bd528     	mov	x8, #0xdea9             // =57001
   187e0: f85883a1     	ldur	x1, [x29, #-0x78]
   187e4: f2a67048     	movk	x8, #0x3382, lsl #16
   187e8: f2d24928     	movk	x8, #0x9249, lsl #32
   187ec: f2f28988     	movk	x8, #0x944c, lsl #48
   187f0: eb08001f     	cmp	x0, x8
   187f4: f85c03a8     	ldur	x8, [x29, #-0x40]
   187f8: 540299a0     	b.eq	0x1db2c <.text+0x15abc>
   187fc: d28ca0ae     	mov	x14, #0x6505            // =25861
   18800: d29ed009     	mov	x9, #0xf680             // =63104
   18804: a97997a6     	ldp	x6, x5, [x29, #-0x68]
   18808: f2ad944e     	movk	x14, #0x6ca2, lsl #16
   1880c: f2b12749     	movk	x9, #0x893a, lsl #16
   18810: a97b43af     	ldp	x15, x16, [x29, #-0x50]
   18814: f2ca44ce     	movk	x14, #0x5226, lsl #32
   18818: aa1603ea     	mov	x10, x22
   1881c: aa1703e2     	mov	x2, x23
   18820: aa1a03eb     	mov	x11, x26
   18824: aa1303e3     	mov	x3, x19
   18828: aa1c03e4     	mov	x4, x28
   1882c: aa1903ec     	mov	x12, x25
   18830: f85903ad     	ldur	x13, [x29, #-0x70]
   18834: f85c83a7     	ldur	x7, [x29, #-0x38]
   18838: f2f89bce     	movk	x14, #0xc4de, lsl #48
   1883c: f85a83be     	ldur	x30, [x29, #-0x58]
   18840: f2cc8589     	movk	x9, #0x642c, lsl #32
   18844: f2f28b89     	movk	x9, #0x945c, lsl #48
   18848: 293b57b8     	stp	w24, w21, [x29, #-0x28]
   1884c: eb09001f     	cmp	x0, x9
   18850: f81d03b4     	stur	x20, [x29, #-0x30]
   18854: 54ffee80     	b.eq	0x18624 <.text+0x105b4>
   18858: d2808548     	mov	x8, #0x42a              // =1066
   1885c: f2b5e9a8     	movk	x8, #0xaf4d, lsl #16
   18860: f2d6d828     	movk	x8, #0xb6c1, lsl #32
   18864: f2f2ddc8     	movk	x8, #0x96ee, lsl #48
   18868: eb08001f     	cmp	x0, x8
   1886c: 54012940     	b.eq	0x1ad94 <.text+0x12d24>
   18870: d2978a0e     	mov	x14, #0xbc50            // =48208
   18874: d281c189     	mov	x9, #0xe0c              // =3596
   18878: a97997a6     	ldp	x6, x5, [x29, #-0x68]
   1887c: f2b7c50e     	movk	x14, #0xbe28, lsl #16
   18880: f2ba2509     	movk	x9, #0xd128, lsl #16
   18884: a978b7a1     	ldp	x1, x13, [x29, #-0x78]
   18888: f2c8152e     	movk	x14, #0x40a9, lsl #32
   1888c: aa1603ea     	mov	x10, x22
   18890: a97c1fa8     	ldp	x8, x7, [x29, #-0x40]
   18894: aa1703e2     	mov	x2, x23
   18898: aa1a03eb     	mov	x11, x26
   1889c: a97b43af     	ldp	x15, x16, [x29, #-0x50]
   188a0: aa1303e3     	mov	x3, x19
   188a4: aa1c03e4     	mov	x4, x28
   188a8: aa1903ec     	mov	x12, x25
   188ac: f85a83be     	ldur	x30, [x29, #-0x58]
   188b0: aa1b03f1     	mov	x17, x27
   188b4: f2e7742e     	movk	x14, #0x3ba1, lsl #48
   188b8: f2cb4b49     	movk	x9, #0x5a5a, lsl #32
   188bc: 293b57b8     	stp	w24, w21, [x29, #-0x28]
   188c0: f2f2df69     	movk	x9, #0x96fb, lsl #48
   188c4: f81d03b4     	stur	x20, [x29, #-0x30]
   188c8: eb09001f     	cmp	x0, x9
   188cc: 54ffeac0     	b.eq	0x18624 <.text+0x105b4>
   188d0: d288d48e     	mov	x14, #0x46a4            // =18084
   188d4: d28d8789     	mov	x9, #0x6c3c             // =27708
   188d8: a97997a6     	ldp	x6, x5, [x29, #-0x68]
   188dc: f2b416ae     	movk	x14, #0xa0b5, lsl #16
   188e0: f2b48889     	movk	x9, #0xa444, lsl #16
   188e4: a978b7a1     	ldp	x1, x13, [x29, #-0x78]
   188e8: f2cc7dee     	movk	x14, #0x63ef, lsl #32
   188ec: aa1603ea     	mov	x10, x22
   188f0: a97c1fa8     	ldp	x8, x7, [x29, #-0x40]
   188f4: aa1703e2     	mov	x2, x23
   188f8: aa1a03eb     	mov	x11, x26
   188fc: a97b43af     	ldp	x15, x16, [x29, #-0x50]
   18900: aa1303e3     	mov	x3, x19
   18904: aa1c03e4     	mov	x4, x28
   18908: aa1903ec     	mov	x12, x25
   1890c: f85a83be     	ldur	x30, [x29, #-0x58]
   18910: aa1b03f1     	mov	x17, x27
   18914: f2e5a94e     	movk	x14, #0x2d4a, lsl #48
   18918: f2c7dba9     	movk	x9, #0x3edd, lsl #32
   1891c: 293b57b8     	stp	w24, w21, [x29, #-0x28]
   18920: f2f2e1a9     	movk	x9, #0x970d, lsl #48
   18924: f81d03b4     	stur	x20, [x29, #-0x30]
   18928: eb09001f     	cmp	x0, x9
   1892c: 54ffe7c0     	b.eq	0x18624 <.text+0x105b4>
   18930: d28ca0ae     	mov	x14, #0x6505            // =25861
   18934: d2847f49     	mov	x9, #0x23fa             // =9210
   18938: a97997a6     	ldp	x6, x5, [x29, #-0x68]
   1893c: f2ad944e     	movk	x14, #0x6ca2, lsl #16
   18940: f2b7b849     	movk	x9, #0xbdc2, lsl #16
   18944: a978b7a1     	ldp	x1, x13, [x29, #-0x78]
   18948: f2ca44ce     	movk	x14, #0x5226, lsl #32
   1894c: aa1603ea     	mov	x10, x22
   18950: a97c1fa8     	ldp	x8, x7, [x29, #-0x40]
   18954: aa1703e2     	mov	x2, x23
   18958: aa1a03eb     	mov	x11, x26
   1895c: a97b43af     	ldp	x15, x16, [x29, #-0x50]
   18960: aa1303e3     	mov	x3, x19
   18964: aa1c03e4     	mov	x4, x28
   18968: aa1903ec     	mov	x12, x25
   1896c: f85a83be     	ldur	x30, [x29, #-0x58]
   18970: aa1b03f1     	mov	x17, x27
   18974: f2f89bce     	movk	x14, #0xc4de, lsl #48
   18978: f2cf8889     	movk	x9, #0x7c44, lsl #32
   1897c: 293b57b8     	stp	w24, w21, [x29, #-0x28]
   18980: f2f2e5a9     	movk	x9, #0x972d, lsl #48
   18984: f81d03b4     	stur	x20, [x29, #-0x30]
   18988: eb09001f     	cmp	x0, x9
   1898c: 54ffe4c0     	b.eq	0x18624 <.text+0x105b4>
   18990: d28dd5ee     	mov	x14, #0x6eaf            // =28335
   18994: d28109e9     	mov	x9, #0x84f              // =2127
   18998: a97793ac     	ldp	x12, x4, [x29, #-0x88]
   1899c: f2aba00e     	movk	x14, #0x5d00, lsl #16
   189a0: f2ae3889     	movk	x9, #0x71c4, lsl #16
   189a4: a97997a6     	ldp	x6, x5, [x29, #-0x68]
   189a8: f2c5b64e     	movk	x14, #0x2db2, lsl #32
   189ac: aa1603ea     	mov	x10, x22
   189b0: a978b7a1     	ldp	x1, x13, [x29, #-0x78]
   189b4: aa1703e2     	mov	x2, x23
   189b8: aa1a03eb     	mov	x11, x26
   189bc: a97c1fa8     	ldp	x8, x7, [x29, #-0x40]
   189c0: aa1303e3     	mov	x3, x19
   189c4: aa1b03f1     	mov	x17, x27
   189c8: a97b43af     	ldp	x15, x16, [x29, #-0x50]
   189cc: f2ed1aae     	movk	x14, #0x68d5, lsl #48
   189d0: f2c1ef29     	movk	x9, #0xf79, lsl #32
   189d4: f85a83be     	ldur	x30, [x29, #-0x58]
   189d8: f2f2e8a9     	movk	x9, #0x9745, lsl #48
   189dc: eb09001f     	cmp	x0, x9
   189e0: 293b57b8     	stp	w24, w21, [x29, #-0x28]
   189e4: f81d03b4     	stur	x20, [x29, #-0x30]
   189e8: 54ffe1e0     	b.eq	0x18624 <.text+0x105b4>
   189ec: d29aad28     	mov	x8, #0xd569             // =54633
   189f0: f2a243e8     	movk	x8, #0x121f, lsl #16
   189f4: f2db37e8     	movk	x8, #0xd9bf, lsl #32
   189f8: f2f311c8     	movk	x8, #0x988e, lsl #48
   189fc: eb08001f     	cmp	x0, x8
   18a00: 54027a60     	b.eq	0x1d94c <.text+0x158dc>
   18a04: d29c202e     	mov	x14, #0xe101            // =57601
   18a08: d285e5a9     	mov	x9, #0x2f2d             // =12077
   18a0c: a97997a6     	ldp	x6, x5, [x29, #-0x68]
   18a10: f2a1cbce     	movk	x14, #0xe5e, lsl #16
   18a14: f2a6b3e9     	movk	x9, #0x359f, lsl #16
   18a18: a978b7a1     	ldp	x1, x13, [x29, #-0x78]
   18a1c: f2d8dd8e     	movk	x14, #0xc6ec, lsl #32
   18a20: aa1603ea     	mov	x10, x22
   18a24: a97c1fa8     	ldp	x8, x7, [x29, #-0x40]
   18a28: aa1703e2     	mov	x2, x23
   18a2c: aa1a03eb     	mov	x11, x26
   18a30: a97b43af     	ldp	x15, x16, [x29, #-0x50]
   18a34: aa1303e3     	mov	x3, x19
   18a38: aa1c03e4     	mov	x4, x28
   18a3c: aa1903ec     	mov	x12, x25
   18a40: f85a83be     	ldur	x30, [x29, #-0x58]
   18a44: aa1b03f1     	mov	x17, x27
   18a48: f2e70c8e     	movk	x14, #0x3864, lsl #48
   18a4c: f2c1d9c9     	movk	x9, #0xece, lsl #32
   18a50: 293b57b8     	stp	w24, w21, [x29, #-0x28]
   18a54: f2f311e9     	movk	x9, #0x988f, lsl #48
   18a58: f81d03b4     	stur	x20, [x29, #-0x30]
   18a5c: eb09001f     	cmp	x0, x9
   18a60: 54ffde20     	b.eq	0x18624 <.text+0x105b4>
   18a64: d29c0f48     	mov	x8, #0xe07a             // =57466
   18a68: f2b569a8     	movk	x8, #0xab4d, lsl #16
   18a6c: f2cb0388     	movk	x8, #0x581c, lsl #32
   18a70: f2f355c8     	movk	x8, #0x9aae, lsl #48
   18a74: eb08001f     	cmp	x0, x8
   18a78: 54014bc0     	b.eq	0x1b3f0 <.text+0x13380>
   18a7c: d2940dce     	mov	x14, #0xa06e            // =41070
   18a80: d28d6d69     	mov	x9, #0x6b6b             // =27499
   18a84: a97997a6     	ldp	x6, x5, [x29, #-0x68]
   18a88: f2b505ce     	movk	x14, #0xa82e, lsl #16
   18a8c: f2ad7029     	movk	x9, #0x6b81, lsl #16
   18a90: a978b7a1     	ldp	x1, x13, [x29, #-0x78]
   18a94: f2d0d1ee     	movk	x14, #0x868f, lsl #32
   18a98: aa1703e2     	mov	x2, x23
   18a9c: a97c1fa8     	ldp	x8, x7, [x29, #-0x40]
   18aa0: aa1a03eb     	mov	x11, x26
   18aa4: aa1303e3     	mov	x3, x19
   18aa8: a97b43af     	ldp	x15, x16, [x29, #-0x50]
   18aac: aa1c03e4     	mov	x4, x28
   18ab0: aa1903ec     	mov	x12, x25
   18ab4: f85703aa     	ldur	x10, [x29, #-0x90]
   18ab8: aa1b03f1     	mov	x17, x27
   18abc: f85a83be     	ldur	x30, [x29, #-0x58]
   18ac0: f2fa0f2e     	movk	x14, #0xd079, lsl #48
   18ac4: f2c4a1c9     	movk	x9, #0x250e, lsl #32
   18ac8: 293b57b8     	stp	w24, w21, [x29, #-0x28]
   18acc: f2f387e9     	movk	x9, #0x9c3f, lsl #48
   18ad0: f81d03b4     	stur	x20, [x29, #-0x30]
   18ad4: eb09001f     	cmp	x0, x9
   18ad8: 54ffda60     	b.eq	0x18624 <.text+0x105b4>
   18adc: d28832c8     	mov	x8, #0x4196             // =16790
   18ae0: f2b6c848     	movk	x8, #0xb642, lsl #16
   18ae4: f2c65668     	movk	x8, #0x32b3, lsl #32
   18ae8: f2f3c028     	movk	x8, #0x9e01, lsl #48
   18aec: eb08001f     	cmp	x0, x8
   18af0: 54024f00     	b.eq	0x1d4d0 <.text+0x15460>
   18af4: d293158e     	mov	x14, #0x98ac            // =39084
   18af8: d284a809     	mov	x9, #0x2540             // =9536
   18afc: a97997a6     	ldp	x6, x5, [x29, #-0x68]
   18b00: f2b97b6e     	movk	x14, #0xcbdb, lsl #16
   18b04: f2b69049     	movk	x9, #0xb482, lsl #16
   18b08: a978b7a1     	ldp	x1, x13, [x29, #-0x78]
   18b0c: f2c32cce     	movk	x14, #0x1966, lsl #32
   18b10: aa1603ea     	mov	x10, x22
   18b14: a97c1fa8     	ldp	x8, x7, [x29, #-0x40]
   18b18: aa1703e2     	mov	x2, x23
   18b1c: aa1a03eb     	mov	x11, x26
   18b20: a97b43af     	ldp	x15, x16, [x29, #-0x50]
   18b24: aa1303e3     	mov	x3, x19
   18b28: aa1c03e4     	mov	x4, x28
   18b2c: aa1903ec     	mov	x12, x25
   18b30: f85a83be     	ldur	x30, [x29, #-0x58]
   18b34: aa1b03f1     	mov	x17, x27
   18b38: f2e9166e     	movk	x14, #0x48b3, lsl #48
   18b3c: f2c1a229     	movk	x9, #0xd11, lsl #32
   18b40: 293b57b8     	stp	w24, w21, [x29, #-0x28]
   18b44: f2f43469     	movk	x9, #0xa1a3, lsl #48
   18b48: f81d03b4     	stur	x20, [x29, #-0x30]
   18b4c: eb09001f     	cmp	x0, x9
   18b50: 54ffd6a0     	b.eq	0x18624 <.text+0x105b4>
   18b54: d281ee68     	mov	x8, #0xf73              // =3955
   18b58: f2bcf908     	movk	x8, #0xe7c8, lsl #16
   18b5c: f2d81a68     	movk	x8, #0xc0d3, lsl #32
   18b60: f2f49f08     	movk	x8, #0xa4f8, lsl #48
   18b64: eb08001f     	cmp	x0, x8
   18b68: 54013280     	b.eq	0x1b1b8 <.text+0x13148>
   18b6c: d282eece     	mov	x14, #0x1776            // =6006
   18b70: d28f55a9     	mov	x9, #0x7aad             // =31405
   18b74: a97997a6     	ldp	x6, x5, [x29, #-0x68]
   18b78: f2b4998e     	movk	x14, #0xa4cc, lsl #16
   18b7c: f2b35909     	movk	x9, #0x9ac8, lsl #16
   18b80: a97c1fa8     	ldp	x8, x7, [x29, #-0x40]
   18b84: f2cbf48e     	movk	x14, #0x5fa4, lsl #32
   18b88: aa1603ea     	mov	x10, x22
   18b8c: a97b43af     	ldp	x15, x16, [x29, #-0x50]
   18b90: aa1703e2     	mov	x2, x23
   18b94: aa1a03eb     	mov	x11, x26
   18b98: aa1303e3     	mov	x3, x19
   18b9c: aa1c03e4     	mov	x4, x28
   18ba0: aa1903ec     	mov	x12, x25
   18ba4: f85903ad     	ldur	x13, [x29, #-0x70]
   18ba8: f85a83be     	ldur	x30, [x29, #-0x58]
   18bac: aa1b03f1     	mov	x17, x27
   18bb0: f85683a1     	ldur	x1, [x29, #-0x98]
   18bb4: f2fb946e     	movk	x14, #0xdca3, lsl #48
   18bb8: f2cde1e9     	movk	x9, #0x6f0f, lsl #32
   18bbc: 293b57b8     	stp	w24, w21, [x29, #-0x28]
   18bc0: f2f4eb49     	movk	x9, #0xa75a, lsl #48
   18bc4: f81d03b4     	stur	x20, [x29, #-0x30]
   18bc8: eb09001f     	cmp	x0, x9
   18bcc: 54ffd2c0     	b.eq	0x18624 <.text+0x105b4>
   18bd0: d2885528     	mov	x8, #0x42a9             // =17065
   18bd4: f2aa5c68     	movk	x8, #0x52e3, lsl #16
   18bd8: f2d737c8     	movk	x8, #0xb9be, lsl #32
   18bdc: f2f52208     	movk	x8, #0xa910, lsl #48
   18be0: eb08001f     	cmp	x0, x8
   18be4: 5401eca0     	b.eq	0x1c978 <.text+0x14908>
   18be8: d292a86e     	mov	x14, #0x9543            // =38211
   18bec: d29936c9     	mov	x9, #0xc9b6             // =51638
   18bf0: a97807a3     	ldp	x3, x1, [x29, #-0x80]
   18bf4: f2b9efce     	movk	x14, #0xcf7e, lsl #16
   18bf8: f2ae6989     	movk	x9, #0x734c, lsl #16
   18bfc: a97997a6     	ldp	x6, x5, [x29, #-0x68]
   18c00: f2cbfaee     	movk	x14, #0x5fd7, lsl #32
   18c04: aa1603ea     	mov	x10, x22
   18c08: a97c1fa8     	ldp	x8, x7, [x29, #-0x40]
   18c0c: aa1703e2     	mov	x2, x23
   18c10: aa1a03eb     	mov	x11, x26
   18c14: a97b43af     	ldp	x15, x16, [x29, #-0x50]
   18c18: aa1c03e4     	mov	x4, x28
   18c1c: aa1903ec     	mov	x12, x25
   18c20: f85903ad     	ldur	x13, [x29, #-0x70]
   18c24: aa1b03f1     	mov	x17, x27
   18c28: f85a83be     	ldur	x30, [x29, #-0x58]
   18c2c: f2ee732e     	movk	x14, #0x7399, lsl #48
   18c30: f2d893e9     	movk	x9, #0xc49f, lsl #32
   18c34: 293b57b8     	stp	w24, w21, [x29, #-0x28]
   18c38: f2f55509     	movk	x9, #0xaaa8, lsl #48
   18c3c: f81d03b4     	stur	x20, [x29, #-0x30]
   18c40: eb09001f     	cmp	x0, x9
   18c44: 54ffcf00     	b.eq	0x18624 <.text+0x105b4>
   18c48: d2969aa8     	mov	x8, #0xb4d5             // =46293
   18c4c: f2ab32a8     	movk	x8, #0x5995, lsl #16
   18c50: f2d41948     	movk	x8, #0xa0ca, lsl #32
   18c54: f2f58548     	movk	x8, #0xac2a, lsl #48
   18c58: eb08001f     	cmp	x0, x8
   18c5c: 54026180     	b.eq	0x1d88c <.text+0x1581c>
   18c60: d29b8568     	mov	x8, #0xdc2b             // =56363
   18c64: f85883a1     	ldur	x1, [x29, #-0x78]
   18c68: f2ba3f88     	movk	x8, #0xd1fc, lsl #16
   18c6c: f85c03a9     	ldur	x9, [x29, #-0x40]
   18c70: f2d8ce68     	movk	x8, #0xc673, lsl #32
   18c74: aa1b03f1     	mov	x17, x27
   18c78: f2f5b688     	movk	x8, #0xadb4, lsl #48
   18c7c: eb08001f     	cmp	x0, x8
   18c80: 5400f380     	b.eq	0x1aaf0 <.text+0x12a80>
   18c84: d294dbce     	mov	x14, #0xa6de            // =42718
   18c88: aa0903e8     	mov	x8, x9
   18c8c: a97997a6     	ldp	x6, x5, [x29, #-0x68]
   18c90: f2bb982e     	movk	x14, #0xdcc1, lsl #16
   18c94: d2862ca9     	mov	x9, #0x3165             // =12645
   18c98: a97b43af     	ldp	x15, x16, [x29, #-0x50]
   18c9c: f2c9000e     	movk	x14, #0x4800, lsl #32
   18ca0: f2bba7e9     	movk	x9, #0xdd3f, lsl #16
   18ca4: aa1603ea     	mov	x10, x22
   18ca8: aa1703e2     	mov	x2, x23
   18cac: aa1a03eb     	mov	x11, x26
   18cb0: aa1303e3     	mov	x3, x19
   18cb4: aa1c03e4     	mov	x4, x28
   18cb8: aa1903ec     	mov	x12, x25
   18cbc: f85903ad     	ldur	x13, [x29, #-0x70]
   18cc0: f2e6c04e     	movk	x14, #0x3602, lsl #48
   18cc4: f85c83a7     	ldur	x7, [x29, #-0x38]
   18cc8: f2c41209     	movk	x9, #0x2090, lsl #32
   18ccc: f85a83be     	ldur	x30, [x29, #-0x58]
   18cd0: f2f5e0a9     	movk	x9, #0xaf05, lsl #48
   18cd4: eb09001f     	cmp	x0, x9
   18cd8: 293b57b8     	stp	w24, w21, [x29, #-0x28]
   18cdc: f81d03b4     	stur	x20, [x29, #-0x30]
   18ce0: 54ffca20     	b.eq	0x18624 <.text+0x105b4>
   18ce4: d28144e8     	mov	x8, #0xa27              // =2599
   18ce8: f2bbae08     	movk	x8, #0xdd70, lsl #16
   18cec: f2ca6008     	movk	x8, #0x5300, lsl #32
   18cf0: f2f5e308     	movk	x8, #0xaf18, lsl #48
   18cf4: eb08001f     	cmp	x0, x8
   18cf8: 54012400     	b.eq	0x1b178 <.text+0x13108>
   18cfc: d29efa68     	mov	x8, #0xf7d3             // =63443
   18d00: aa1b03f1     	mov	x17, x27
   18d04: f2a86b68     	movk	x8, #0x435b, lsl #16
   18d08: f2ce3c68     	movk	x8, #0x71e3, lsl #32
   18d0c: f2f61768     	movk	x8, #0xb0bb, lsl #48
   18d10: eb08001f     	cmp	x0, x8
   18d14: 540257e0     	b.eq	0x1d810 <.text+0x157a0>
   18d18: d29c202e     	mov	x14, #0xe101            // =57601
   18d1c: d29461e9     	mov	x9, #0xa30f             // =41743
   18d20: a97997a6     	ldp	x6, x5, [x29, #-0x68]
   18d24: f2a1cbce     	movk	x14, #0xe5e, lsl #16
   18d28: f2a6a8e9     	movk	x9, #0x3547, lsl #16
   18d2c: a978b7a1     	ldp	x1, x13, [x29, #-0x78]
   18d30: f2d8dd8e     	movk	x14, #0xc6ec, lsl #32
   18d34: aa1603ea     	mov	x10, x22
   18d38: a97c1fa8     	ldp	x8, x7, [x29, #-0x40]
   18d3c: aa1703e2     	mov	x2, x23
   18d40: aa1a03eb     	mov	x11, x26
   18d44: a97b43af     	ldp	x15, x16, [x29, #-0x50]
   18d48: aa1303e3     	mov	x3, x19
   18d4c: aa1c03e4     	mov	x4, x28
   18d50: aa1903ec     	mov	x12, x25
   18d54: f85a83be     	ldur	x30, [x29, #-0x58]
   18d58: f2e70c8e     	movk	x14, #0x3864, lsl #48
   18d5c: f2d3be69     	movk	x9, #0x9df3, lsl #32
   18d60: f2f65389     	movk	x9, #0xb29c, lsl #48
   18d64: 293b57b8     	stp	w24, w21, [x29, #-0x28]
   18d68: eb09001f     	cmp	x0, x9
   18d6c: f81d03b4     	stur	x20, [x29, #-0x30]
   18d70: 54ffc5a0     	b.eq	0x18624 <.text+0x105b4>
   18d74: d286cfa8     	mov	x8, #0x367d             // =13949
   18d78: f2a88dc8     	movk	x8, #0x446e, lsl #16
   18d7c: f2c42108     	movk	x8, #0x2108, lsl #32
   18d80: f2f65a48     	movk	x8, #0xb2d2, lsl #48
   18d84: eb08001f     	cmp	x0, x8
   18d88: 540247c0     	b.eq	0x1d680 <.text+0x15610>
   18d8c: d2836b68     	mov	x8, #0x1b5b             // =7003
   18d90: aa1b03f1     	mov	x17, x27
   18d94: f2bc3508     	movk	x8, #0xe1a8, lsl #16
   18d98: f2d60b88     	movk	x8, #0xb05c, lsl #32
   18d9c: f2f6a968     	movk	x8, #0xb54b, lsl #48
   18da0: eb08001f     	cmp	x0, x8
   18da4: 54017d40     	b.eq	0x1bd4c <.text+0x13cdc>
   18da8: d298896e     	mov	x14, #0xc44b            // =50251
   18dac: d2813949     	mov	x9, #0x9ca              // =2506
   18db0: a97997a6     	ldp	x6, x5, [x29, #-0x68]
   18db4: f2b3214e     	movk	x14, #0x990a, lsl #16
   18db8: f2ad0a29     	movk	x9, #0x6851, lsl #16
   18dbc: a978b7a1     	ldp	x1, x13, [x29, #-0x78]
   18dc0: f2ce026e     	movk	x14, #0x7013, lsl #32
   18dc4: aa1603ea     	mov	x10, x22
   18dc8: a97c1fa8     	ldp	x8, x7, [x29, #-0x40]
   18dcc: aa1703e2     	mov	x2, x23
   18dd0: aa1a03eb     	mov	x11, x26
   18dd4: a97b43af     	ldp	x15, x16, [x29, #-0x50]
   18dd8: aa1303e3     	mov	x3, x19
   18ddc: aa1c03e4     	mov	x4, x28
   18de0: aa1903ec     	mov	x12, x25
   18de4: f85a83be     	ldur	x30, [x29, #-0x58]
   18de8: f2e27c2e     	movk	x14, #0x13e1, lsl #48
   18dec: f2d128c9     	movk	x9, #0x8946, lsl #32
   18df0: f2f705e9     	movk	x9, #0xb82f, lsl #48
   18df4: 293b57b8     	stp	w24, w21, [x29, #-0x28]
   18df8: eb09001f     	cmp	x0, x9
   18dfc: f81d03b4     	stur	x20, [x29, #-0x30]
   18e00: 54ffc120     	b.eq	0x18624 <.text+0x105b4>
   18e04: d28c4e48     	mov	x8, #0x6272             // =25202
   18e08: f2a1fa28     	movk	x8, #0xfd1, lsl #16
   18e0c: f2dcabc8     	movk	x8, #0xe55e, lsl #32
   18e10: f2f78388     	movk	x8, #0xbc1c, lsl #48
   18e14: eb08001f     	cmp	x0, x8
   18e18: 540256e0     	b.eq	0x1d8f4 <.text+0x15884>
   18e1c: d295e5a8     	mov	x8, #0xaf2d             // =44845
   18e20: aa1b03f1     	mov	x17, x27
   18e24: f2a57f08     	movk	x8, #0x2bf8, lsl #16
   18e28: f2cc84e8     	movk	x8, #0x6427, lsl #32
   18e2c: f2f79a28     	movk	x8, #0xbcd1, lsl #48
   18e30: eb08001f     	cmp	x0, x8
   18e34: 5400f860     	b.eq	0x1ad40 <.text+0x12cd0>
   18e38: d289b888     	mov	x8, #0x4dc4             // =19908
   18e3c: f2bb4e28     	movk	x8, #0xda71, lsl #16
   18e40: f2d93788     	movk	x8, #0xc9bc, lsl #32
   18e44: f2f7c3c8     	movk	x8, #0xbe1e, lsl #48
   18e48: eb08001f     	cmp	x0, x8
   18e4c: 54022420     	b.eq	0x1d2d0 <.text+0x15260>
   18e50: d28b7788     	mov	x8, #0x5bbc             // =23484
   18e54: f2af9fc8     	movk	x8, #0x7cfe, lsl #16
   18e58: f2c81de8     	movk	x8, #0x40ef, lsl #32
   18e5c: f2f7dc88     	movk	x8, #0xbee4, lsl #48
   18e60: eb08001f     	cmp	x0, x8
   18e64: 540225c0     	b.eq	0x1d31c <.text+0x152ac>
   18e68: d28e5808     	mov	x8, #0x72c0             // =29376
   18e6c: f2b17468     	movk	x8, #0x8ba3, lsl #16
   18e70: f2c58348     	movk	x8, #0x2c1a, lsl #32
   18e74: f2f80448     	movk	x8, #0xc022, lsl #48
   18e78: eb08001f     	cmp	x0, x8
   18e7c: 540258e0     	b.eq	0x1d998 <.text+0x15928>
   18e80: b855c3a8     	ldur	w8, [x29, #-0xa4]
   18e84: 53103d0b     	lsl	w11, w8, #16
   18e88: d281c168     	mov	x8, #0xe0b              // =3595
   18e8c: f2a3eb68     	movk	x8, #0x1f5b, lsl #16
   18e90: f2d6f6e8     	movk	x8, #0xb7b7, lsl #32
   18e94: f2f82b08     	movk	x8, #0xc158, lsl #48
   18e98: eb08001f     	cmp	x0, x8
   18e9c: 54025e40     	b.eq	0x1da64 <.text+0x159f4>
   18ea0: d296ec48     	mov	x8, #0xb762             // =46946
   18ea4: f2b487e8     	movk	x8, #0xa43f, lsl #16
   18ea8: f2ddee88     	movk	x8, #0xef74, lsl #32
   18eac: f2f83fc8     	movk	x8, #0xc1fe, lsl #48
   18eb0: eb08001f     	cmp	x0, x8
   18eb4: 54024320     	b.eq	0x1d718 <.text+0x156a8>
   18eb8: d2962c48     	mov	x8, #0xb162             // =45410
   18ebc: f85c03a9     	ldur	x9, [x29, #-0x40]
   18ec0: f2a2e428     	movk	x8, #0x1721, lsl #16
   18ec4: f2c951c8     	movk	x8, #0x4a8e, lsl #32
   18ec8: f2f86148     	movk	x8, #0xc30a, lsl #48
   18ecc: eb08001f     	cmp	x0, x8
   18ed0: 5400fb40     	b.eq	0x1ae38 <.text+0x12dc8>
   18ed4: d28ca0a8     	mov	x8, #0x6505             // =25861
   18ed8: f2ad9448     	movk	x8, #0x6ca2, lsl #16
   18edc: f2ca44c8     	movk	x8, #0x5226, lsl #32
   18ee0: f2f89bc8     	movk	x8, #0xc4de, lsl #48
   18ee4: eb08001f     	cmp	x0, x8
   18ee8: 54022640     	b.eq	0x1d3b0 <.text+0x15340>
   18eec: d282eece     	mov	x14, #0x1776            // =6006
   18ef0: aa0903e8     	mov	x8, x9
   18ef4: a97997a6     	ldp	x6, x5, [x29, #-0x68]
   18ef8: f2b4998e     	movk	x14, #0xa4cc, lsl #16
   18efc: d29d9fa9     	mov	x9, #0xecfd             // =60669
   18f00: a97b43af     	ldp	x15, x16, [x29, #-0x50]
   18f04: f2cbf48e     	movk	x14, #0x5fa4, lsl #32
   18f08: f2a38089     	movk	x9, #0x1c04, lsl #16
   18f0c: b81583ab     	stur	w11, [x29, #-0xa8]
   18f10: aa1603ea     	mov	x10, x22
   18f14: aa1703e2     	mov	x2, x23
   18f18: aa1a03eb     	mov	x11, x26
   18f1c: aa1303e3     	mov	x3, x19
   18f20: aa1c03e4     	mov	x4, x28
   18f24: aa1903ec     	mov	x12, x25
   18f28: f85903ad     	ldur	x13, [x29, #-0x70]
   18f2c: f85c83a7     	ldur	x7, [x29, #-0x38]
   18f30: f2fb946e     	movk	x14, #0xdca3, lsl #48
   18f34: f85a83be     	ldur	x30, [x29, #-0x58]
   18f38: f2d47069     	movk	x9, #0xa383, lsl #32
   18f3c: f85603a1     	ldur	x1, [x29, #-0xa0]
   18f40: f2f91ce9     	movk	x9, #0xc8e7, lsl #48
   18f44: eb09001f     	cmp	x0, x9
   18f48: 293b57b8     	stp	w24, w21, [x29, #-0x28]
   18f4c: f81d03b4     	stur	x20, [x29, #-0x30]
   18f50: 54ffb6a0     	b.eq	0x18624 <.text+0x105b4>
   18f54: d2845ec8     	mov	x8, #0x22f6             // =8950
   18f58: f2b1aee8     	movk	x8, #0x8d77, lsl #16
   18f5c: f2cbe7a8     	movk	x8, #0x5f3d, lsl #32
   18f60: f2f95488     	movk	x8, #0xcaa4, lsl #48
   18f64: eb08001f     	cmp	x0, x8
   18f68: 540155a0     	b.eq	0x1ba1c <.text+0x139ac>
   18f6c: d2807aa8     	mov	x8, #0x3d5              // =981
   18f70: aa1b03f1     	mov	x17, x27
   18f74: f2af8b48     	movk	x8, #0x7c5a, lsl #16
   18f78: f2c9f048     	movk	x8, #0x4f82, lsl #32
   18f7c: f2f97d68     	movk	x8, #0xcbeb, lsl #48
   18f80: eb08001f     	cmp	x0, x8
   18f84: 54012800     	b.eq	0x1b484 <.text+0x13414>
   18f88: d29c202e     	mov	x14, #0xe101            // =57601
   18f8c: d293cbc9     	mov	x9, #0x9e5e             // =40542
   18f90: a97997a6     	ldp	x6, x5, [x29, #-0x68]
   18f94: f2a1cbce     	movk	x14, #0xe5e, lsl #16
   18f98: f2a3ef49     	movk	x9, #0x1f7a, lsl #16
   18f9c: a978b7a1     	ldp	x1, x13, [x29, #-0x78]
   18fa0: f2d8dd8e     	movk	x14, #0xc6ec, lsl #32
   18fa4: aa1603ea     	mov	x10, x22
   18fa8: a97c1fa8     	ldp	x8, x7, [x29, #-0x40]
   18fac: aa1703e2     	mov	x2, x23
   18fb0: aa1a03eb     	mov	x11, x26
   18fb4: a97b43af     	ldp	x15, x16, [x29, #-0x50]
   18fb8: aa1303e3     	mov	x3, x19
   18fbc: aa1c03e4     	mov	x4, x28
   18fc0: aa1903ec     	mov	x12, x25
   18fc4: f85a83be     	ldur	x30, [x29, #-0x58]
   18fc8: f2e70c8e     	movk	x14, #0x3864, lsl #48
   18fcc: f2c3ffc9     	movk	x9, #0x1ffe, lsl #32
   18fd0: f2f9b909     	movk	x9, #0xcdc8, lsl #48
   18fd4: 293b57b8     	stp	w24, w21, [x29, #-0x28]
   18fd8: eb09001f     	cmp	x0, x9
   18fdc: f81d03b4     	stur	x20, [x29, #-0x30]
   18fe0: 54ffb220     	b.eq	0x18624 <.text+0x105b4>
   18fe4: d286cb88     	mov	x8, #0x365c             // =13916
   18fe8: f2b65c48     	movk	x8, #0xb2e2, lsl #16
   18fec: f2dc81e8     	movk	x8, #0xe40f, lsl #32
   18ff0: f2f9f088     	movk	x8, #0xcf84, lsl #48
   18ff4: eb08001f     	cmp	x0, x8
   18ff8: 5400dbc0     	b.eq	0x1ab70 <.text+0x12b00>
   18ffc: d29b1aa8     	mov	x8, #0xd8d5             // =55509
   19000: f2bcb3a8     	movk	x8, #0xe59d, lsl #16
   19004: f2d069e8     	movk	x8, #0x834f, lsl #32
   19008: f2fa0588     	movk	x8, #0xd02c, lsl #48
   1900c: eb08001f     	cmp	x0, x8
   19010: 54011ae0     	b.eq	0x1b36c <.text+0x132fc>
   19014: d2940dc8     	mov	x8, #0xa06e             // =41070
   19018: aa1b03f1     	mov	x17, x27
   1901c: f2b505c8     	movk	x8, #0xa82e, lsl #16
   19020: f2d0d1e8     	movk	x8, #0x868f, lsl #32
   19024: f2fa0f28     	movk	x8, #0xd079, lsl #48
   19028: eb08001f     	cmp	x0, x8
   1902c: 54023bc0     	b.eq	0x1d7a4 <.text+0x15734>
   19030: d295dc88     	mov	x8, #0xaee4             // =44772
   19034: f2b9c988     	movk	x8, #0xce4c, lsl #16
   19038: f2c10aa8     	movk	x8, #0x855, lsl #32
   1903c: f2fa45a8     	movk	x8, #0xd22d, lsl #48
   19040: eb08001f     	cmp	x0, x8
   19044: 5401cdc0     	b.eq	0x1c9fc <.text+0x1498c>
   19048: d2974848     	mov	x8, #0xba42             // =47682
   1904c: f2af6148     	movk	x8, #0x7b0a, lsl #16
   19050: f2c86188     	movk	x8, #0x430c, lsl #32
   19054: f2faae88     	movk	x8, #0xd574, lsl #48
   19058: eb08001f     	cmp	x0, x8
   1905c: 54019180     	b.eq	0x1c28c <.text+0x1421c>
   19060: d28363a8     	mov	x8, #0x1b1d             // =6941
   19064: f2a19188     	movk	x8, #0xc8c, lsl #16
   19068: f2c296c8     	movk	x8, #0x14b6, lsl #32
   1906c: f2fb1a48     	movk	x8, #0xd8d2, lsl #48
   19070: eb08001f     	cmp	x0, x8
   19074: 5401f000     	b.eq	0x1ce74 <.text+0x14e04>
   19078: d280854e     	mov	x14, #0x42a             // =1066
   1907c: d287e029     	mov	x9, #0x3f01             // =16129
   19080: a97997a6     	ldp	x6, x5, [x29, #-0x68]
   19084: f2b5e9ae     	movk	x14, #0xaf4d, lsl #16
   19088: f2ba6d89     	movk	x9, #0xd36c, lsl #16
   1908c: a978b7a1     	ldp	x1, x13, [x29, #-0x78]
   19090: f2d6d82e     	movk	x14, #0xb6c1, lsl #32
   19094: aa1603ea     	mov	x10, x22
   19098: a97c1fa8     	ldp	x8, x7, [x29, #-0x40]
   1909c: aa1703e2     	mov	x2, x23
   190a0: aa1a03eb     	mov	x11, x26
   190a4: a97b43af     	ldp	x15, x16, [x29, #-0x50]
   190a8: aa1303e3     	mov	x3, x19
   190ac: aa1c03e4     	mov	x4, x28
   190b0: aa1903ec     	mov	x12, x25
   190b4: f85a83be     	ldur	x30, [x29, #-0x58]
   190b8: f2f2ddce     	movk	x14, #0x96ee, lsl #48
   190bc: f2ca3909     	movk	x9, #0x51c8, lsl #32
   190c0: f2fb1ca9     	movk	x9, #0xd8e5, lsl #48
   190c4: 293b57b8     	stp	w24, w21, [x29, #-0x28]
   190c8: eb09001f     	cmp	x0, x9
   190cc: f81d03b4     	stur	x20, [x29, #-0x30]
   190d0: 54ffaaa0     	b.eq	0x18624 <.text+0x105b4>
   190d4: a97a7bad     	ldp	x13, x30, [x29, #-0x60]
   190d8: d28d140e     	mov	x14, #0x68a0            // =26784
   190dc: d28c3ee9     	mov	x9, #0x61f7             // =25079
   190e0: a97c1fa8     	ldp	x8, x7, [x29, #-0x40]
   190e4: f2b5164e     	movk	x14, #0xa8b2, lsl #16
   190e8: f2be3829     	movk	x9, #0xf1c1, lsl #16
   190ec: a97b43af     	ldp	x15, x16, [x29, #-0x50]
   190f0: f2d2eb8e     	movk	x14, #0x975c, lsl #32
   190f4: aa1603ea     	mov	x10, x22
   190f8: aa1703e2     	mov	x2, x23
   190fc: aa1a03eb     	mov	x11, x26
   19100: aa1303e3     	mov	x3, x19
   19104: aa1c03e4     	mov	x4, x28
   19108: aa1903ec     	mov	x12, x25
   1910c: aa0d03e5     	mov	x5, x13
   19110: f85483a6     	ldur	x6, [x29, #-0xb8]
   19114: aa1b03f1     	mov	x17, x27
   19118: f85883a1     	ldur	x1, [x29, #-0x78]
   1911c: f2e6dfae     	movk	x14, #0x36fd, lsl #48
   19120: f2c50b89     	movk	x9, #0x285c, lsl #32
   19124: 293b57b8     	stp	w24, w21, [x29, #-0x28]
   19128: f2fb25a9     	movk	x9, #0xd92d, lsl #48
   1912c: f81d03b4     	stur	x20, [x29, #-0x30]
   19130: eb09001f     	cmp	x0, x9
   19134: 54ffa780     	b.eq	0x18624 <.text+0x105b4>
   19138: d2928108     	mov	x8, #0x9408             // =37896
   1913c: f2be7ca8     	movk	x8, #0xf3e5, lsl #16
   19140: f2d58228     	movk	x8, #0xac11, lsl #32
   19144: f2fb27c8     	movk	x8, #0xd93e, lsl #48
   19148: eb08001f     	cmp	x0, x8
   1914c: 540223a0     	b.eq	0x1d5c0 <.text+0x15550>
   19150: d28879a8     	mov	x8, #0x43cd             // =17357
   19154: aa1b03f1     	mov	x17, x27
   19158: f2a3cee8     	movk	x8, #0x1e77, lsl #16
   1915c: f2de5a28     	movk	x8, #0xf2d1, lsl #32
   19160: f2fb35e8     	movk	x8, #0xd9af, lsl #48
   19164: eb08001f     	cmp	x0, x8
   19168: 540225a0     	b.eq	0x1d61c <.text+0x155ac>
   1916c: d282eec8     	mov	x8, #0x1776             // =6006
   19170: f85883a1     	ldur	x1, [x29, #-0x78]
   19174: f2b49988     	movk	x8, #0xa4cc, lsl #16
   19178: f2cbf488     	movk	x8, #0x5fa4, lsl #32
   1917c: f2fb9468     	movk	x8, #0xdca3, lsl #48
   19180: eb08001f     	cmp	x0, x8
   19184: f85c03a8     	ldur	x8, [x29, #-0x40]
   19188: 5400f020     	b.eq	0x1af8c <.text+0x12f1c>
   1918c: d29c202e     	mov	x14, #0xe101            // =57601
   19190: d2862f29     	mov	x9, #0x3179             // =12665
   19194: a97997a6     	ldp	x6, x5, [x29, #-0x68]
   19198: f2a1cbce     	movk	x14, #0xe5e, lsl #16
   1919c: f2b58ee9     	movk	x9, #0xac77, lsl #16
   191a0: a97b43af     	ldp	x15, x16, [x29, #-0x50]
   191a4: f2d8dd8e     	movk	x14, #0xc6ec, lsl #32
   191a8: aa1603ea     	mov	x10, x22
   191ac: aa1703e2     	mov	x2, x23
   191b0: aa1a03eb     	mov	x11, x26
   191b4: aa1303e3     	mov	x3, x19
   191b8: aa1c03e4     	mov	x4, x28
   191bc: aa1903ec     	mov	x12, x25
   191c0: f85903ad     	ldur	x13, [x29, #-0x70]
   191c4: f85c83a7     	ldur	x7, [x29, #-0x38]
   191c8: f2e70c8e     	movk	x14, #0x3864, lsl #48
   191cc: f85a83be     	ldur	x30, [x29, #-0x58]
   191d0: f2c3ff29     	movk	x9, #0x1ff9, lsl #32
   191d4: f2fba569     	movk	x9, #0xdd2b, lsl #48
   191d8: 293b57b8     	stp	w24, w21, [x29, #-0x28]
   191dc: eb09001f     	cmp	x0, x9
   191e0: f81d03b4     	stur	x20, [x29, #-0x30]
   191e4: 54ffa200     	b.eq	0x18624 <.text+0x105b4>
   191e8: d28f36a8     	mov	x8, #0x79b5             // =31157
   191ec: f2b88d28     	movk	x8, #0xc469, lsl #16
   191f0: f2d89be8     	movk	x8, #0xc4df, lsl #32
   191f4: f2fbc2a8     	movk	x8, #0xde15, lsl #48
   191f8: eb08001f     	cmp	x0, x8
   191fc: 54013720     	b.eq	0x1b8e0 <.text+0x13870>
   19200: d29f0c68     	mov	x8, #0xf863             // =63587
   19204: aa1b03f1     	mov	x17, x27
   19208: f2aa3e68     	movk	x8, #0x51f3, lsl #16
   1920c: f2d00a68     	movk	x8, #0x8053, lsl #32
   19210: f2fbe728     	movk	x8, #0xdf39, lsl #48
   19214: eb08001f     	cmp	x0, x8
   19218: 54021320     	b.eq	0x1d47c <.text+0x1540c>
   1921c: b85543a8     	ldur	w8, [x29, #-0xac]
   19220: d29dfb0e     	mov	x14, #0xefd8            // =61400
   19224: a97997a6     	ldp	x6, x5, [x29, #-0x68]
   19228: f2a54c2e     	movk	x14, #0x2a61, lsl #16
   1922c: d2857e09     	mov	x9, #0x2bf0             // =11248
   19230: 293b23b8     	stp	w24, w8, [x29, #-0x28]
   19234: f2ce56ce     	movk	x14, #0x72b6, lsl #32
   19238: a978b7a1     	ldp	x1, x13, [x29, #-0x78]
   1923c: f2a03949     	movk	x9, #0x1ca, lsl #16
   19240: aa1603ea     	mov	x10, x22
   19244: a97c1fa8     	ldp	x8, x7, [x29, #-0x40]
   19248: aa1703e2     	mov	x2, x23
   1924c: aa1a03eb     	mov	x11, x26
   19250: a97b43af     	ldp	x15, x16, [x29, #-0x50]
   19254: aa1303e3     	mov	x3, x19
   19258: aa1c03e4     	mov	x4, x28
   1925c: aa1903ec     	mov	x12, x25
   19260: f85a83be     	ldur	x30, [x29, #-0x58]
   19264: f2ea47ee     	movk	x14, #0x523f, lsl #48
   19268: f2d51f09     	movk	x9, #0xa8f8, lsl #32
   1926c: f2fbf449     	movk	x9, #0xdfa2, lsl #48
   19270: f81d03b4     	stur	x20, [x29, #-0x30]
   19274: eb09001f     	cmp	x0, x9
   19278: 54ff9d60     	b.eq	0x18624 <.text+0x105b4>
   1927c: d2815868     	mov	x8, #0xac3              // =2755
   19280: f2a46528     	movk	x8, #0x2329, lsl #16
   19284: f2d28888     	movk	x8, #0x9444, lsl #32
   19288: f2fc4f48     	movk	x8, #0xe27a, lsl #48
   1928c: eb08001f     	cmp	x0, x8
   19290: 5401ea20     	b.eq	0x1cfd4 <.text+0x14f64>
   19294: d2963f48     	mov	x8, #0xb1fa             // =45562
   19298: f2a2b308     	movk	x8, #0x1598, lsl #16
   1929c: f2c82608     	movk	x8, #0x4130, lsl #32
   192a0: f2fc5808     	movk	x8, #0xe2c0, lsl #48
   192a4: eb08001f     	cmp	x0, x8
   192a8: 5400e220     	b.eq	0x1aeec <.text+0x12e7c>
   192ac: d298a2c8     	mov	x8, #0xc516             // =50454
   192b0: f2ab9de8     	movk	x8, #0x5cef, lsl #16
   192b4: f2d99848     	movk	x8, #0xccc2, lsl #32
   192b8: f2fc9608     	movk	x8, #0xe4b0, lsl #48
   192bc: eb08001f     	cmp	x0, x8
   192c0: 5400fca0     	b.eq	0x1b254 <.text+0x131e4>
   192c4: d28b778e     	mov	x14, #0x5bbc            // =23484
   192c8: d2959a69     	mov	x9, #0xacd3             // =44243
   192cc: a97997a6     	ldp	x6, x5, [x29, #-0x68]
   192d0: f2af9fce     	movk	x14, #0x7cfe, lsl #16
   192d4: f2ba3b89     	movk	x9, #0xd1dc, lsl #16
   192d8: a978b7a1     	ldp	x1, x13, [x29, #-0x78]
   192dc: f2c81dee     	movk	x14, #0x40ef, lsl #32
   192e0: aa1603ea     	mov	x10, x22
   192e4: a97c1fa8     	ldp	x8, x7, [x29, #-0x40]
   192e8: aa1703e2     	mov	x2, x23
   192ec: aa1a03eb     	mov	x11, x26
   192f0: a97b43af     	ldp	x15, x16, [x29, #-0x50]
   192f4: aa1303e3     	mov	x3, x19
   192f8: aa1c03e4     	mov	x4, x28
   192fc: aa1903ec     	mov	x12, x25
   19300: f85a83be     	ldur	x30, [x29, #-0x58]
   19304: aa1b03f1     	mov	x17, x27
   19308: f2f7dc8e     	movk	x14, #0xbee4, lsl #48
   1930c: f2d80f09     	movk	x9, #0xc078, lsl #32
   19310: 293b57b8     	stp	w24, w21, [x29, #-0x28]
   19314: f2fca269     	movk	x9, #0xe513, lsl #48
   19318: f81d03b4     	stur	x20, [x29, #-0x30]
   1931c: eb09001f     	cmp	x0, x9
   19320: 54ff9820     	b.eq	0x18624 <.text+0x105b4>
   19324: d285da88     	mov	x8, #0x2ed4             // =11988
   19328: f2ab3648     	movk	x8, #0x59b2, lsl #16
   1932c: f2cbfd08     	movk	x8, #0x5fe8, lsl #32
   19330: f2fcb828     	movk	x8, #0xe5c1, lsl #48
   19334: eb08001f     	cmp	x0, x8
   19338: 54014c80     	b.eq	0x1bcc8 <.text+0x13c58>
   1933c: d29e5a68     	mov	x8, #0xf2d3             // =62163
   19340: aa1b03f1     	mov	x17, x27
   19344: f2bc1ee8     	movk	x8, #0xe0f7, lsl #16
   19348: f2d08fa8     	movk	x8, #0x847d, lsl #32
   1934c: f2fcc3c8     	movk	x8, #0xe61e, lsl #48
   19350: eb08001f     	cmp	x0, x8
   19354: 54013dc0     	b.eq	0x1bb0c <.text+0x13a9c>
   19358: d2899648     	mov	x8, #0x4cb2             // =19634
   1935c: f2a7f468     	movk	x8, #0x3fa3, lsl #16
   19360: f2ddc428     	movk	x8, #0xee21, lsl #32
   19364: f2fccb08     	movk	x8, #0xe658, lsl #48
   19368: eb08001f     	cmp	x0, x8
   1936c: 5400c3e0     	b.eq	0x1abe8 <.text+0x12b78>
   19370: d29c202e     	mov	x14, #0xe101            // =57601
   19374: d2829729     	mov	x9, #0x14b9             // =5305
   19378: a97997a6     	ldp	x6, x5, [x29, #-0x68]
   1937c: f2a1cbce     	movk	x14, #0xe5e, lsl #16
   19380: f2b25329     	movk	x9, #0x9299, lsl #16
   19384: a978b7a1     	ldp	x1, x13, [x29, #-0x78]
   19388: f2d8dd8e     	movk	x14, #0xc6ec, lsl #32
   1938c: aa1603ea     	mov	x10, x22
   19390: a97c1fa8     	ldp	x8, x7, [x29, #-0x40]
   19394: aa1703e2     	mov	x2, x23
   19398: aa1a03eb     	mov	x11, x26
   1939c: a97b43af     	ldp	x15, x16, [x29, #-0x50]
   193a0: aa1303e3     	mov	x3, x19
   193a4: aa1c03e4     	mov	x4, x28
   193a8: aa1903ec     	mov	x12, x25
   193ac: f85a83be     	ldur	x30, [x29, #-0x58]
   193b0: f2e70c8e     	movk	x14, #0x3864, lsl #48
   193b4: f2c0aea9     	movk	x9, #0x575, lsl #32
   193b8: f2fce749     	movk	x9, #0xe73a, lsl #48
   193bc: 293b57b8     	stp	w24, w21, [x29, #-0x28]
   193c0: eb09001f     	cmp	x0, x9
   193c4: f81d03b4     	stur	x20, [x29, #-0x30]
   193c8: 54ff92e0     	b.eq	0x18624 <.text+0x105b4>
   193cc: d281be68     	mov	x8, #0xdf3              // =3571
   193d0: f2a8e9c8     	movk	x8, #0x474e, lsl #16
   193d4: f2ccdbc8     	movk	x8, #0x66de, lsl #32
   193d8: f2fceb08     	movk	x8, #0xe758, lsl #48
   193dc: eb08001f     	cmp	x0, x8
   193e0: 5400c400     	b.eq	0x1ac60 <.text+0x12bf0>
   193e4: d28c3eee     	mov	x14, #0x61f7            // =25079
   193e8: d28a9dc9     	mov	x9, #0x54ee             // =21742
   193ec: a9791bad     	ldp	x13, x6, [x29, #-0x70]
   193f0: f2be382e     	movk	x14, #0xf1c1, lsl #16
   193f4: f2b235e9     	movk	x9, #0x91af, lsl #16
   193f8: a97c1fa8     	ldp	x8, x7, [x29, #-0x40]
   193fc: f2c50b8e     	movk	x14, #0x285c, lsl #32
   19400: aa1603ea     	mov	x10, x22
   19404: a97b43af     	ldp	x15, x16, [x29, #-0x50]
   19408: aa1703e2     	mov	x2, x23
   1940c: aa1a03eb     	mov	x11, x26
   19410: aa1303e3     	mov	x3, x19
   19414: aa1c03e4     	mov	x4, x28
   19418: aa1903ec     	mov	x12, x25
   1941c: f85403a5     	ldur	x5, [x29, #-0xc0]
   19420: f85a83be     	ldur	x30, [x29, #-0x58]
   19424: aa1b03f1     	mov	x17, x27
   19428: f85883a1     	ldur	x1, [x29, #-0x78]
   1942c: f2fb25ae     	movk	x14, #0xd92d, lsl #48
   19430: f2c037a9     	movk	x9, #0x1bd, lsl #32
   19434: 293b57b8     	stp	w24, w21, [x29, #-0x28]
   19438: f2fd0829     	movk	x9, #0xe841, lsl #48
   1943c: f81d03b4     	stur	x20, [x29, #-0x30]
   19440: eb09001f     	cmp	x0, x9
   19444: 54ff8f00     	b.eq	0x18624 <.text+0x105b4>
   19448: d2808388     	mov	x8, #0x41c              // =1052
   1944c: f2ba1c88     	movk	x8, #0xd0e4, lsl #16
   19450: f2c48048     	movk	x8, #0x2402, lsl #32
   19454: f2fd5948     	movk	x8, #0xeaca, lsl #48
   19458: eb08001f     	cmp	x0, x8
   1945c: 54011f80     	b.eq	0x1b84c <.text+0x137dc>
   19460: d289674e     	mov	x14, #0x4b3a            // =19258
   19464: d289d469     	mov	x9, #0x4ea3             // =20131
   19468: a9732fa2     	ldp	x2, x11, [x29, #-0xd0]
   1946c: f2a45d6e     	movk	x14, #0x22eb, lsl #16
   19470: f2bc4629     	movk	x9, #0xe231, lsl #16
   19474: a97997a6     	ldp	x6, x5, [x29, #-0x68]
   19478: f2cad3ce     	movk	x14, #0x569e, lsl #32
   1947c: aa1603ea     	mov	x10, x22
   19480: a978b7a1     	ldp	x1, x13, [x29, #-0x78]
   19484: aa1303e3     	mov	x3, x19
   19488: aa1c03e4     	mov	x4, x28
   1948c: a97c1fa8     	ldp	x8, x7, [x29, #-0x40]
   19490: aa1903ec     	mov	x12, x25
   19494: aa1b03f1     	mov	x17, x27
   19498: a97b43af     	ldp	x15, x16, [x29, #-0x50]
   1949c: f2e3e14e     	movk	x14, #0x1f0a, lsl #48
   194a0: f2cc5149     	movk	x9, #0x628a, lsl #32
   194a4: f85a83be     	ldur	x30, [x29, #-0x58]
   194a8: f2fe2a29     	movk	x9, #0xf151, lsl #48
   194ac: eb09001f     	cmp	x0, x9
   194b0: 293b57b8     	stp	w24, w21, [x29, #-0x28]
   194b4: f81d03b4     	stur	x20, [x29, #-0x30]
   194b8: 54ff8b60     	b.eq	0x18624 <.text+0x105b4>
   194bc: d2888e4e     	mov	x14, #0x4472            // =17522
   194c0: d297d049     	mov	x9, #0xbe82             // =48770
   194c4: a97997a6     	ldp	x6, x5, [x29, #-0x68]
   194c8: f2bd8f8e     	movk	x14, #0xec7c, lsl #16
   194cc: f2a2f749     	movk	x9, #0x17ba, lsl #16
   194d0: a978b7a1     	ldp	x1, x13, [x29, #-0x78]
   194d4: f2c5b88e     	movk	x14, #0x2dc4, lsl #32
   194d8: aa1603ea     	mov	x10, x22
   194dc: a97c1fa8     	ldp	x8, x7, [x29, #-0x40]
   194e0: aa1703e2     	mov	x2, x23
   194e4: aa1a03eb     	mov	x11, x26
   194e8: a97b43af     	ldp	x15, x16, [x29, #-0x50]
   194ec: aa1303e3     	mov	x3, x19
   194f0: aa1c03e4     	mov	x4, x28
   194f4: aa1903ec     	mov	x12, x25
   194f8: f85a83be     	ldur	x30, [x29, #-0x58]
   194fc: aa1b03f1     	mov	x17, x27
   19500: f2ede04e     	movk	x14, #0x6f02, lsl #48
   19504: f2cac909     	movk	x9, #0x5648, lsl #32
   19508: 293b57b8     	stp	w24, w21, [x29, #-0x28]
   1950c: f2fe88c9     	movk	x9, #0xf446, lsl #48
   19510: f81d03b4     	stur	x20, [x29, #-0x30]
   19514: eb09001f     	cmp	x0, x9
   19518: 54ff8860     	b.eq	0x18624 <.text+0x105b4>
   1951c: d293158e     	mov	x14, #0x98ac            // =39084
   19520: d29d3449     	mov	x9, #0xe9a2             // =59810
   19524: a97997a6     	ldp	x6, x5, [x29, #-0x68]
   19528: f2b97b6e     	movk	x14, #0xcbdb, lsl #16
   1952c: f2ba7669     	movk	x9, #0xd3b3, lsl #16
   19530: a978b7a1     	ldp	x1, x13, [x29, #-0x78]
   19534: f2c32cce     	movk	x14, #0x1966, lsl #32
   19538: aa1603ea     	mov	x10, x22
   1953c: a97c1fa8     	ldp	x8, x7, [x29, #-0x40]
   19540: aa1703e2     	mov	x2, x23
   19544: aa1a03eb     	mov	x11, x26
   19548: a97b43af     	ldp	x15, x16, [x29, #-0x50]
   1954c: aa1303e3     	mov	x3, x19
   19550: aa1c03e4     	mov	x4, x28
   19554: aa1903ec     	mov	x12, x25
   19558: f85283be     	ldur	x30, [x29, #-0xd8]
   1955c: aa1b03f1     	mov	x17, x27
   19560: f2e9166e     	movk	x14, #0x48b3, lsl #48
   19564: f2d7cca9     	movk	x9, #0xbe65, lsl #32
   19568: 293b57b8     	stp	w24, w21, [x29, #-0x28]
   1956c: f2fee849     	movk	x9, #0xf742, lsl #48
   19570: f81d03b4     	stur	x20, [x29, #-0x30]
   19574: eb09001f     	cmp	x0, x9
   19578: 54ff8560     	b.eq	0x18624 <.text+0x105b4>
   1957c: d29c202e     	mov	x14, #0xe101            // =57601
   19580: d28833a9     	mov	x9, #0x419d             // =16797
   19584: a97997a6     	ldp	x6, x5, [x29, #-0x68]
   19588: f2a1cbce     	movk	x14, #0xe5e, lsl #16
   1958c: f2b6d669     	movk	x9, #0xb6b3, lsl #16
   19590: a978b7a1     	ldp	x1, x13, [x29, #-0x78]
   19594: f2d8dd8e     	movk	x14, #0xc6ec, lsl #32
   19598: aa1603ea     	mov	x10, x22
   1959c: a97c1fa8     	ldp	x8, x7, [x29, #-0x40]
   195a0: aa1703e2     	mov	x2, x23
   195a4: aa1a03eb     	mov	x11, x26
   195a8: a97b43af     	ldp	x15, x16, [x29, #-0x50]
   195ac: aa1303e3     	mov	x3, x19
   195b0: aa1c03e4     	mov	x4, x28
   195b4: aa1903ec     	mov	x12, x25
   195b8: f85a83be     	ldur	x30, [x29, #-0x58]
   195bc: aa1b03f1     	mov	x17, x27
   195c0: f2e70c8e     	movk	x14, #0x3864, lsl #48
   195c4: f2ccf509     	movk	x9, #0x67a8, lsl #32
   195c8: 293b57b8     	stp	w24, w21, [x29, #-0x28]
   195cc: f2ff4e29     	movk	x9, #0xfa71, lsl #48
   195d0: f81d03b4     	stur	x20, [x29, #-0x30]
   195d4: eb09001f     	cmp	x0, x9
   195d8: 54ff8260     	b.eq	0x18624 <.text+0x105b4>
   195dc: d289b88e     	mov	x14, #0x4dc4            // =19908
   195e0: d297ee29     	mov	x9, #0xbf71             // =49009
   195e4: a97997a6     	ldp	x6, x5, [x29, #-0x68]
   195e8: f2bb4e2e     	movk	x14, #0xda71, lsl #16
   195ec: f2b505e9     	movk	x9, #0xa82f, lsl #16
   195f0: a978b7a1     	ldp	x1, x13, [x29, #-0x78]
   195f4: f2d9378e     	movk	x14, #0xc9bc, lsl #32
   195f8: aa1603ea     	mov	x10, x22
   195fc: a97c1fa8     	ldp	x8, x7, [x29, #-0x40]
   19600: aa1703e2     	mov	x2, x23
   19604: aa1a03eb     	mov	x11, x26
   19608: a97b43af     	ldp	x15, x16, [x29, #-0x50]
   1960c: aa1303e3     	mov	x3, x19
   19610: aa1c03e4     	mov	x4, x28
   19614: aa1903ec     	mov	x12, x25
   19618: f85a83be     	ldur	x30, [x29, #-0x58]
   1961c: aa1b03f1     	mov	x17, x27
   19620: f2f7c3ce     	movk	x14, #0xbe1e, lsl #48
   19624: f2cee449     	movk	x9, #0x7722, lsl #32
   19628: 293b57b8     	stp	w24, w21, [x29, #-0x28]
   1962c: f2ff5549     	movk	x9, #0xfaaa, lsl #48
   19630: f81d03b4     	stur	x20, [x29, #-0x30]
   19634: eb09001f     	cmp	x0, x9
   19638: 54ff7f60     	b.eq	0x18624 <.text+0x105b4>
   1963c: a97c3fa8     	ldp	x8, x15, [x29, #-0x40]
   19640: d29ddf2e     	mov	x14, #0xeef9            // =61177
   19644: d297db69     	mov	x9, #0xbedb             // =48859
   19648: a97997a6     	ldp	x6, x5, [x29, #-0x68]
   1964c: f2ae484e     	movk	x14, #0x7242, lsl #16
   19650: f2ac4ee9     	movk	x9, #0x6277, lsl #16
   19654: a978b7a1     	ldp	x1, x13, [x29, #-0x78]
   19658: f2d1166e     	movk	x14, #0x88b3, lsl #32
   1965c: aa1603ea     	mov	x10, x22
   19660: aa1703e2     	mov	x2, x23
   19664: aa1a03eb     	mov	x11, x26
   19668: aa1303e3     	mov	x3, x19
   1966c: aa1c03e4     	mov	x4, x28
   19670: aa1903ec     	mov	x12, x25
   19674: aa0f03e7     	mov	x7, x15
   19678: f85203b0     	ldur	x16, [x29, #-0xe0]
   1967c: aa1b03f1     	mov	x17, x27
   19680: f85a83be     	ldur	x30, [x29, #-0x58]
   19684: f2efd88e     	movk	x14, #0x7ec4, lsl #48
   19688: f2cd99c9     	movk	x9, #0x6cce, lsl #32
   1968c: 293b57b8     	stp	w24, w21, [x29, #-0x28]
   19690: f2ff6169     	movk	x9, #0xfb0b, lsl #48
   19694: f81d03b4     	stur	x20, [x29, #-0x30]
   19698: eb09001f     	cmp	x0, x9
   1969c: 54ff7c40     	b.eq	0x18624 <.text+0x105b4>
   196a0: d282e448     	mov	x8, #0x1722             // =5922
   196a4: f2b01828     	movk	x8, #0x80c1, lsl #16
   196a8: f2df7028     	movk	x8, #0xfb81, lsl #32
   196ac: f2ff86a8     	movk	x8, #0xfc35, lsl #48
   196b0: eb08001f     	cmp	x0, x8
   196b4: 5401c580     	b.eq	0x1cf64 <.text+0x14ef4>
   196b8: d28b778e     	mov	x14, #0x5bbc            // =23484
   196bc: d2906969     	mov	x9, #0x834b             // =33611
   196c0: a97997a6     	ldp	x6, x5, [x29, #-0x68]
   196c4: f2af9fce     	movk	x14, #0x7cfe, lsl #16
   196c8: f2b3c109     	movk	x9, #0x9e08, lsl #16
   196cc: a978b7a1     	ldp	x1, x13, [x29, #-0x78]
   196d0: f2c81dee     	movk	x14, #0x40ef, lsl #32
   196d4: aa1603ea     	mov	x10, x22
   196d8: a97c1fa8     	ldp	x8, x7, [x29, #-0x40]
   196dc: aa1703e2     	mov	x2, x23
   196e0: aa1a03eb     	mov	x11, x26
   196e4: a97b43af     	ldp	x15, x16, [x29, #-0x50]
   196e8: aa1303e3     	mov	x3, x19
   196ec: aa1c03e4     	mov	x4, x28
   196f0: aa1903ec     	mov	x12, x25
   196f4: f85a83be     	ldur	x30, [x29, #-0x58]
   196f8: aa1b03f1     	mov	x17, x27
   196fc: f2f7dc8e     	movk	x14, #0xbee4, lsl #48
   19700: f2c12ca9     	movk	x9, #0x965, lsl #32
   19704: 293b57b8     	stp	w24, w21, [x29, #-0x28]
   19708: f2ffb9e9     	movk	x9, #0xfdcf, lsl #48
   1970c: f81d03b4     	stur	x20, [x29, #-0x30]
   19710: eb09001f     	cmp	x0, x9
   19714: 54ff7880     	b.eq	0x18624 <.text+0x105b4>
   19718: d2861aa8     	mov	x8, #0x30d5             // =12501
   1971c: f2a955a8     	movk	x8, #0x4aad, lsl #16
   19720: f2dd5028     	movk	x8, #0xea81, lsl #32
   19724: f2ffbb08     	movk	x8, #0xfdd8, lsl #48
   19728: eb08001f     	cmp	x0, x8
   1972c: 5400ac00     	b.eq	0x1acac <.text+0x12c3c>
   19730: d28f0188     	mov	x8, #0x780c             // =30732
   19734: aa1b03f1     	mov	x17, x27
   19738: f2bfb3e8     	movk	x8, #0xfd9f, lsl #16
   1973c: f2c22608     	movk	x8, #0x1130, lsl #32
   19740: f2ffbfa8     	movk	x8, #0xfdfd, lsl #48
   19744: eb08001f     	cmp	x0, x8
   19748: 5400dee0     	b.eq	0x1b324 <.text+0x132b4>
   1974c: d289ac28     	mov	x8, #0x4d61             // =19809
   19750: f2a40728     	movk	x8, #0x2039, lsl #16
   19754: f2dc2528     	movk	x8, #0xe129, lsl #32
   19758: f2ffd248     	movk	x8, #0xfe92, lsl #48
   1975c: eb08001f     	cmp	x0, x8
   19760: 5401ca00     	b.eq	0x1d0a0 <.text+0x15030>
   19764: d285d6e8     	mov	x8, #0x2eb7             // =11959
   19768: f2bb57c8     	movk	x8, #0xdabe, lsl #16
   1976c: f2d8dbc8     	movk	x8, #0xc6de, lsl #32
   19770: f2fff088     	movk	x8, #0xff84, lsl #48
   19774: eb08001f     	cmp	x0, x8
   19778: 5400dbc0     	b.eq	0x1b2f0 <.text+0x13280>
   1977c: d282972e     	mov	x14, #0x14b9            // =5305
   19780: d2953ea9     	mov	x9, #0xa9f5             // =43509
   19784: a97997a6     	ldp	x6, x5, [x29, #-0x68]
   19788: f2b2532e     	movk	x14, #0x9299, lsl #16
   1978c: f2a8e049     	movk	x9, #0x4702, lsl #16
   19790: a978b7a1     	ldp	x1, x13, [x29, #-0x78]
   19794: f2c0aeae     	movk	x14, #0x575, lsl #32
   19798: aa1603ea     	mov	x10, x22
   1979c: a97c1fa8     	ldp	x8, x7, [x29, #-0x40]
   197a0: aa1703e2     	mov	x2, x23
   197a4: aa1a03eb     	mov	x11, x26
   197a8: a97b43af     	ldp	x15, x16, [x29, #-0x50]
   197ac: aa1303e3     	mov	x3, x19
   197b0: aa1c03e4     	mov	x4, x28
   197b4: aa1903ec     	mov	x12, x25
   197b8: f85a83be     	ldur	x30, [x29, #-0x58]
   197bc: f2fce74e     	movk	x14, #0xe73a, lsl #48
   197c0: f2dfca49     	movk	x9, #0xfe52, lsl #32
   197c4: f2fff3c9     	movk	x9, #0xff9e, lsl #48
   197c8: 293b57b8     	stp	w24, w21, [x29, #-0x28]
   197cc: eb09001f     	cmp	x0, x9
   197d0: f81d03b4     	stur	x20, [x29, #-0x30]
   197d4: 54ff7280     	b.eq	0x18624 <.text+0x105b4>
   197d8: d295e908     	mov	x8, #0xaf48             // =44872
   197dc: f2bdb0c8     	movk	x8, #0xed86, lsl #16
   197e0: f2cf7d48     	movk	x8, #0x7bea, lsl #32
   197e4: f2e03be8     	movk	x8, #0x1df, lsl #48
   197e8: eb08001f     	cmp	x0, x8
   197ec: 54019840     	b.eq	0x1caf4 <.text+0x14a84>
   197f0: f85183a8     	ldur	x8, [x29, #-0xe8]
   197f4: d296c68e     	mov	x14, #0xb634            // =46644
   197f8: a97997a6     	ldp	x6, x5, [x29, #-0x68]
   197fc: f2a953ee     	movk	x14, #0x4a9f, lsl #16
   19800: d28b93c9     	mov	x9, #0x5c9e             // =23710
   19804: f81d03a8     	stur	x8, [x29, #-0x30]
   19808: f2d738ee     	movk	x14, #0xb9c7, lsl #32
   1980c: a978b7a1     	ldp	x1, x13, [x29, #-0x78]
   19810: f2bdd5e9     	movk	x9, #0xeeaf, lsl #16
   19814: aa1603ea     	mov	x10, x22
   19818: a97c1fa8     	ldp	x8, x7, [x29, #-0x40]
   1981c: aa1703e2     	mov	x2, x23
   19820: aa1a03eb     	mov	x11, x26
   19824: a97b43af     	ldp	x15, x16, [x29, #-0x50]
   19828: aa1303e3     	mov	x3, x19
   1982c: aa1c03e4     	mov	x4, x28
   19830: aa1903ec     	mov	x12, x25
   19834: f85a83be     	ldur	x30, [x29, #-0x58]
   19838: aa1b03f1     	mov	x17, x27
   1983c: f2e1036e     	movk	x14, #0x81b, lsl #48
   19840: f2db0f69     	movk	x9, #0xd87b, lsl #32
   19844: 293b57b8     	stp	w24, w21, [x29, #-0x28]
   19848: f2e042c9     	movk	x9, #0x216, lsl #48
   1984c: eb09001f     	cmp	x0, x9
   19850: 54ff6ea0     	b.eq	0x18624 <.text+0x105b4>
   19854: d2958ce8     	mov	x8, #0xac67             // =44135
   19858: f2aa0dc8     	movk	x8, #0x506e, lsl #16
   1985c: f2dc59e8     	movk	x8, #0xe2cf, lsl #32
   19860: f2e05048     	movk	x8, #0x282, lsl #48
   19864: eb08001f     	cmp	x0, x8
   19868: 5400b160     	b.eq	0x1ae94 <.text+0x12e24>
   1986c: d296c688     	mov	x8, #0xb634             // =46644
   19870: aa1b03f1     	mov	x17, x27
   19874: f2a953e8     	movk	x8, #0x4a9f, lsl #16
   19878: f2d738e8     	movk	x8, #0xb9c7, lsl #32
   1987c: f2e10368     	movk	x8, #0x81b, lsl #48
   19880: eb08001f     	cmp	x0, x8
   19884: 5401dca0     	b.eq	0x1d418 <.text+0x153a8>
   19888: d295dd88     	mov	x8, #0xaeec             // =44780
   1988c: f2bb7608     	movk	x8, #0xdbb0, lsl #16
   19890: f2c44c48     	movk	x8, #0x2262, lsl #32
   19894: f2e135e8     	movk	x8, #0x9af, lsl #48
   19898: eb08001f     	cmp	x0, x8
   1989c: 5401c9c0     	b.eq	0x1d1d4 <.text+0x15164>
   198a0: d298a2ce     	mov	x14, #0xc516            // =50454
   198a4: d29df7e9     	mov	x9, #0xefbf             // =61375
   198a8: a97997a6     	ldp	x6, x5, [x29, #-0x68]
   198ac: f2ab9dee     	movk	x14, #0x5cef, lsl #16
   198b0: f2ba1e29     	movk	x9, #0xd0f1, lsl #16
   198b4: a978b7a1     	ldp	x1, x13, [x29, #-0x78]
   198b8: f2d9984e     	movk	x14, #0xccc2, lsl #32
   198bc: aa1603ea     	mov	x10, x22
   198c0: a97c1fa8     	ldp	x8, x7, [x29, #-0x40]
   198c4: aa1703e2     	mov	x2, x23
   198c8: aa1a03eb     	mov	x11, x26
   198cc: a97b43af     	ldp	x15, x16, [x29, #-0x50]
   198d0: aa1303e3     	mov	x3, x19
   198d4: aa1c03e4     	mov	x4, x28
   198d8: aa1903ec     	mov	x12, x25
   198dc: f85a83be     	ldur	x30, [x29, #-0x58]
   198e0: f2fc960e     	movk	x14, #0xe4b0, lsl #48
   198e4: f2c3f1c9     	movk	x9, #0x1f8e, lsl #32
   198e8: f2e18a09     	movk	x9, #0xc50, lsl #48
   198ec: 293b57b8     	stp	w24, w21, [x29, #-0x28]
   198f0: eb09001f     	cmp	x0, x9
   198f4: f81d03b4     	stur	x20, [x29, #-0x30]
   198f8: 54ff6960     	b.eq	0x18624 <.text+0x105b4>
   198fc: d2832b68     	mov	x8, #0x195b             // =6491
   19900: f2b969a8     	movk	x8, #0xcb4d, lsl #16
   19904: f2d63bc8     	movk	x8, #0xb1de, lsl #32
   19908: f2e1bf28     	movk	x8, #0xdf9, lsl #48
   1990c: eb08001f     	cmp	x0, x8
   19910: 5400bb00     	b.eq	0x1b070 <.text+0x13000>
   19914: d293ceee     	mov	x14, #0x9e77            // =40567
   19918: d280ac49     	mov	x9, #0x562              // =1378
   1991c: a97997a6     	ldp	x6, x5, [x29, #-0x68]
   19920: f2a9482e     	movk	x14, #0x4a41, lsl #16
   19924: f2b3d3a9     	movk	x9, #0x9e9d, lsl #16
   19928: a978b7a1     	ldp	x1, x13, [x29, #-0x78]
   1992c: f2cc3b0e     	movk	x14, #0x61d8, lsl #32
   19930: aa1603ea     	mov	x10, x22
   19934: a97c1fa8     	ldp	x8, x7, [x29, #-0x40]
   19938: aa1703e2     	mov	x2, x23
   1993c: aa1a03eb     	mov	x11, x26
   19940: a97b43af     	ldp	x15, x16, [x29, #-0x50]
   19944: aa1303e3     	mov	x3, x19
   19948: aa1c03e4     	mov	x4, x28
   1994c: aa1903ec     	mov	x12, x25
   19950: f85a83be     	ldur	x30, [x29, #-0x58]
   19954: aa1b03f1     	mov	x17, x27
   19958: f2e3f00e     	movk	x14, #0x1f80, lsl #48
   1995c: f2c64549     	movk	x9, #0x322a, lsl #32
   19960: 293b57b8     	stp	w24, w21, [x29, #-0x28]
   19964: f2e1dae9     	movk	x9, #0xed7, lsl #48
   19968: f81d03b4     	stur	x20, [x29, #-0x30]
   1996c: eb09001f     	cmp	x0, x9
   19970: 54ff65a0     	b.eq	0x18624 <.text+0x105b4>
   19974: d29d4c88     	mov	x8, #0xea64             // =60004
   19978: f2a7a548     	movk	x8, #0x3d2a, lsl #16
   1997c: f2c63748     	movk	x8, #0x31ba, lsl #32
   19980: f2e215a8     	movk	x8, #0x10ad, lsl #48
   19984: eb08001f     	cmp	x0, x8
   19988: 5400df20     	b.eq	0x1b56c <.text+0x134fc>
   1998c: d2878088     	mov	x8, #0x3c04             // =15364
   19990: aa1b03f1     	mov	x17, x27
   19994: f2a00468     	movk	x8, #0x23, lsl #16
   19998: f2c43ac8     	movk	x8, #0x21d6, lsl #32
   1999c: f2e21ac8     	movk	x8, #0x10d6, lsl #48
   199a0: eb08001f     	cmp	x0, x8
   199a4: 5401dd80     	b.eq	0x1d554 <.text+0x154e4>
   199a8: d2941e48     	mov	x8, #0xa0f2             // =41202
   199ac: f2a3b4c8     	movk	x8, #0x1da6, lsl #16
   199b0: f2ce07a8     	movk	x8, #0x703d, lsl #32
   199b4: f2e21ca8     	movk	x8, #0x10e5, lsl #48
   199b8: eb08001f     	cmp	x0, x8
   199bc: 5401cd40     	b.eq	0x1d364 <.text+0x152f4>
   199c0: d2801b88     	mov	x8, #0xdc               // =220
   199c4: f2b5c828     	movk	x8, #0xae41, lsl #16
   199c8: f2d949c8     	movk	x8, #0xca4e, lsl #32
   199cc: f2e24148     	movk	x8, #0x120a, lsl #48
   199d0: eb08001f     	cmp	x0, x8
   199d4: 5400e4a0     	b.eq	0x1b668 <.text+0x135f8>
   199d8: d2988968     	mov	x8, #0xc44b             // =50251
   199dc: f2b32148     	movk	x8, #0x990a, lsl #16
   199e0: f2ce0268     	movk	x8, #0x7013, lsl #32
   199e4: f2e27c28     	movk	x8, #0x13e1, lsl #48
   199e8: eb08001f     	cmp	x0, x8
   199ec: 540129a0     	b.eq	0x1bf20 <.text+0x13eb0>
   199f0: d29dfb0e     	mov	x14, #0xefd8            // =61400
   199f4: d297e109     	mov	x9, #0xbf08             // =48904
   199f8: a97997a6     	ldp	x6, x5, [x29, #-0x68]
   199fc: f2a54c2e     	movk	x14, #0x2a61, lsl #16
   19a00: f2a98a69     	movk	x9, #0x4c53, lsl #16
   19a04: a978b7a1     	ldp	x1, x13, [x29, #-0x78]
   19a08: f2ce56ce     	movk	x14, #0x72b6, lsl #32
   19a0c: aa1603ea     	mov	x10, x22
   19a10: a97c1fa8     	ldp	x8, x7, [x29, #-0x40]
   19a14: aa1703e2     	mov	x2, x23
   19a18: aa1a03eb     	mov	x11, x26
   19a1c: a97b43af     	ldp	x15, x16, [x29, #-0x50]
   19a20: aa1303e3     	mov	x3, x19
   19a24: aa1c03e4     	mov	x4, x28
   19a28: aa1903ec     	mov	x12, x25
   19a2c: f85a83be     	ldur	x30, [x29, #-0x58]
   19a30: f2ea47ee     	movk	x14, #0x523f, lsl #48
   19a34: f2ddf669     	movk	x9, #0xefb3, lsl #32
   19a38: f2e2efa9     	movk	x9, #0x177d, lsl #48
   19a3c: 293b63b8     	stp	w24, w24, [x29, #-0x28]
   19a40: eb09001f     	cmp	x0, x9
   19a44: f81d03b4     	stur	x20, [x29, #-0x30]
   19a48: 54ff5ee0     	b.eq	0x18624 <.text+0x105b4>
   19a4c: d2800408     	mov	x8, #0x20               // =32
   19a50: f2b49108     	movk	x8, #0xa488, lsl #16
   19a54: f2c1d9c8     	movk	x8, #0xece, lsl #32
   19a58: f2e30768     	movk	x8, #0x183b, lsl #48
   19a5c: eb08001f     	cmp	x0, x8
   19a60: 5401be80     	b.eq	0x1d230 <.text+0x151c0>
   19a64: d292a86e     	mov	x14, #0x9543            // =38211
   19a68: d28a16a9     	mov	x9, #0x50b5             // =20661
   19a6c: a97997a6     	ldp	x6, x5, [x29, #-0x68]
   19a70: f2b9efce     	movk	x14, #0xcf7e, lsl #16
   19a74: f2b48469     	movk	x9, #0xa423, lsl #16
   19a78: a978b7a1     	ldp	x1, x13, [x29, #-0x78]
   19a7c: f2cbfaee     	movk	x14, #0x5fd7, lsl #32
   19a80: aa1603ea     	mov	x10, x22
   19a84: a97c1fa8     	ldp	x8, x7, [x29, #-0x40]
   19a88: aa1703e2     	mov	x2, x23
   19a8c: aa1a03eb     	mov	x11, x26
   19a90: a97b43af     	ldp	x15, x16, [x29, #-0x50]
   19a94: aa1c03e4     	mov	x4, x28
   19a98: aa1903ec     	mov	x12, x25
   19a9c: f85103a3     	ldur	x3, [x29, #-0xf0]
   19aa0: aa1b03f1     	mov	x17, x27
   19aa4: f85a83be     	ldur	x30, [x29, #-0x58]
   19aa8: f2ee732e     	movk	x14, #0x7399, lsl #48
   19aac: f2c97709     	movk	x9, #0x4bb8, lsl #32
   19ab0: 293b57b8     	stp	w24, w21, [x29, #-0x28]
   19ab4: f2e31229     	movk	x9, #0x1891, lsl #48
   19ab8: f81d03b4     	stur	x20, [x29, #-0x30]
   19abc: eb09001f     	cmp	x0, x9
   19ac0: 54ff5b20     	b.eq	0x18624 <.text+0x105b4>
   19ac4: d293dc68     	mov	x8, #0x9ee3             // =40675
   19ac8: f2bf0368     	movk	x8, #0xf81b, lsl #16
   19acc: f2d7dfa8     	movk	x8, #0xbefd, lsl #32
   19ad0: f2e37a48     	movk	x8, #0x1bd2, lsl #48
   19ad4: eb08001f     	cmp	x0, x8
   19ad8: 54018480     	b.eq	0x1cb68 <.text+0x14af8>
   19adc: d28e0e48     	mov	x8, #0x7072             // =28786
   19ae0: aa1b03f1     	mov	x17, x27
   19ae4: f2b09328     	movk	x8, #0x8499, lsl #16
   19ae8: f2c26468     	movk	x8, #0x1323, lsl #32
   19aec: f2e38a68     	movk	x8, #0x1c53, lsl #48
   19af0: eb08001f     	cmp	x0, x8
   19af4: 54019220     	b.eq	0x1cd38 <.text+0x14cc8>
   19af8: d282972e     	mov	x14, #0x14b9            // =5305
   19afc: d28f7669     	mov	x9, #0x7bb3             // =31667
   19b00: a97997a6     	ldp	x6, x5, [x29, #-0x68]
   19b04: f2b2532e     	movk	x14, #0x9299, lsl #16
   19b08: f2b8ec89     	movk	x9, #0xc764, lsl #16
   19b0c: a978b7a1     	ldp	x1, x13, [x29, #-0x78]
   19b10: f2c0aeae     	movk	x14, #0x575, lsl #32
   19b14: aa1603ea     	mov	x10, x22
   19b18: a97c1fa8     	ldp	x8, x7, [x29, #-0x40]
   19b1c: aa1703e2     	mov	x2, x23
   19b20: aa1a03eb     	mov	x11, x26
   19b24: a97b43af     	ldp	x15, x16, [x29, #-0x50]
   19b28: aa1303e3     	mov	x3, x19
   19b2c: aa1c03e4     	mov	x4, x28
   19b30: aa1903ec     	mov	x12, x25
   19b34: f85a83be     	ldur	x30, [x29, #-0x58]
   19b38: f2fce74e     	movk	x14, #0xe73a, lsl #48
   19b3c: f2cc5329     	movk	x9, #0x6299, lsl #32
   19b40: f2e3c989     	movk	x9, #0x1e4c, lsl #48
   19b44: 293b57b8     	stp	w24, w21, [x29, #-0x28]
   19b48: eb09001f     	cmp	x0, x9
   19b4c: f81d03b4     	stur	x20, [x29, #-0x30]
   19b50: 54ff56a0     	b.eq	0x18624 <.text+0x105b4>
   19b54: d289f6c8     	mov	x8, #0x4fb6             // =20406
   19b58: f2a2a188     	movk	x8, #0x150c, lsl #16
   19b5c: f2cc7d08     	movk	x8, #0x63e8, lsl #32
   19b60: f2e3cf28     	movk	x8, #0x1e79, lsl #48
   19b64: eb08001f     	cmp	x0, x8
   19b68: 5400a5c0     	b.eq	0x1b020 <.text+0x12fb0>
   19b6c: d2896748     	mov	x8, #0x4b3a             // =19258
   19b70: f85883a9     	ldur	x9, [x29, #-0x78]
   19b74: f2a45d68     	movk	x8, #0x22eb, lsl #16
   19b78: aa1b03f1     	mov	x17, x27
   19b7c: f2cad3c8     	movk	x8, #0x569e, lsl #32
   19b80: f2e3e148     	movk	x8, #0x1f0a, lsl #48
   19b84: eb08001f     	cmp	x0, x8
   19b88: 54017580     	b.eq	0x1ca38 <.text+0x149c8>
   19b8c: d293cee8     	mov	x8, #0x9e77             // =40567
   19b90: f2a94828     	movk	x8, #0x4a41, lsl #16
   19b94: f2cc3b08     	movk	x8, #0x61d8, lsl #32
   19b98: f2e3f008     	movk	x8, #0x1f80, lsl #48
   19b9c: eb08001f     	cmp	x0, x8
   19ba0: 54009c80     	b.eq	0x1af30 <.text+0x12ec0>
   19ba4: d2823388     	mov	x8, #0x119c             // =4508
   19ba8: f2a29ca8     	movk	x8, #0x14e5, lsl #16
   19bac: f2c96e28     	movk	x8, #0x4b71, lsl #32
   19bb0: f2e405a8     	movk	x8, #0x202d, lsl #48
   19bb4: eb08001f     	cmp	x0, x8
   19bb8: 5400a880     	b.eq	0x1b0c8 <.text+0x13058>
   19bbc: d2846128     	mov	x8, #0x2309             // =8969
   19bc0: f2b82708     	movk	x8, #0xc138, lsl #16
   19bc4: f2df3708     	movk	x8, #0xf9b8, lsl #32
   19bc8: f2e42008     	movk	x8, #0x2100, lsl #48
   19bcc: eb08001f     	cmp	x0, x8
   19bd0: 5400e080     	b.eq	0x1b7e0 <.text+0x13770>
   19bd4: d284a3a8     	mov	x8, #0x251d             // =9501
   19bd8: f2b11d28     	movk	x8, #0x88e9, lsl #16
   19bdc: f2dd8108     	movk	x8, #0xec08, lsl #32
   19be0: f2e43748     	movk	x8, #0x21ba, lsl #48
   19be4: eb08001f     	cmp	x0, x8
   19be8: 54015300     	b.eq	0x1c648 <.text+0x145d8>
   19bec: d2946a48     	mov	x8, #0xa352             // =41810
   19bf0: f2b63ec8     	movk	x8, #0xb1f6, lsl #16
   19bf4: f2d1b928     	movk	x8, #0x8dc9, lsl #32
   19bf8: f2e4a768     	movk	x8, #0x253b, lsl #48
   19bfc: eb08001f     	cmp	x0, x8
   19c00: 54016520     	b.eq	0x1c8a4 <.text+0x14834>
   19c04: d29f5dc8     	mov	x8, #0xfaee             // =64238
   19c08: f2bbcb28     	movk	x8, #0xde59, lsl #16
   19c0c: f2cb97a8     	movk	x8, #0x5cbd, lsl #32
   19c10: f2e4d588     	movk	x8, #0x26ac, lsl #48
   19c14: eb08001f     	cmp	x0, x8
   19c18: 54014020     	b.eq	0x1c41c <.text+0x143ac>
   19c1c: d2963f4e     	mov	x14, #0xb1fa            // =45562
   19c20: aa0903e1     	mov	x1, x9
   19c24: a97997a6     	ldp	x6, x5, [x29, #-0x68]
   19c28: f2a2b30e     	movk	x14, #0x1598, lsl #16
   19c2c: d2909469     	mov	x9, #0x84a3             // =33955
   19c30: a97c1fa8     	ldp	x8, x7, [x29, #-0x40]
   19c34: f2c8260e     	movk	x14, #0x4130, lsl #32
   19c38: f2a80d89     	movk	x9, #0x406c, lsl #16
   19c3c: a97b43af     	ldp	x15, x16, [x29, #-0x50]
   19c40: aa1603ea     	mov	x10, x22
   19c44: aa1703e2     	mov	x2, x23
   19c48: aa1a03eb     	mov	x11, x26
   19c4c: aa1303e3     	mov	x3, x19
   19c50: aa1c03e4     	mov	x4, x28
   19c54: aa1903ec     	mov	x12, x25
   19c58: f85903ad     	ldur	x13, [x29, #-0x70]
   19c5c: f2fc580e     	movk	x14, #0xe2c0, lsl #48
   19c60: f85a83be     	ldur	x30, [x29, #-0x58]
   19c64: f2d60da9     	movk	x9, #0xb06d, lsl #32
   19c68: f2e4ee69     	movk	x9, #0x2773, lsl #48
   19c6c: 293b57b8     	stp	w24, w21, [x29, #-0x28]
   19c70: eb09001f     	cmp	x0, x9
   19c74: f81d03b4     	stur	x20, [x29, #-0x30]
   19c78: 54ff4d60     	b.eq	0x18624 <.text+0x105b4>
   19c7c: d29b57c8     	mov	x8, #0xdabe             // =55998
   19c80: f2b2d008     	movk	x8, #0x9680, lsl #16
   19c84: f2cdde68     	movk	x8, #0x6ef3, lsl #32
   19c88: f2e52508     	movk	x8, #0x2928, lsl #48
   19c8c: eb08001f     	cmp	x0, x8
   19c90: 54019220     	b.eq	0x1ced4 <.text+0x14e64>
   19c94: d29632c8     	mov	x8, #0xb196             // =45462
   19c98: aa1b03f1     	mov	x17, x27
   19c9c: f2b747c8     	movk	x8, #0xba3e, lsl #16
   19ca0: f2ceb848     	movk	x8, #0x75c2, lsl #32
   19ca4: f2e53a08     	movk	x8, #0x29d0, lsl #48
   19ca8: eb08001f     	cmp	x0, x8
   19cac: 5401a220     	b.eq	0x1d0f0 <.text+0x15080>
   19cb0: d29b2cc8     	mov	x8, #0xd966             // =55654
   19cb4: f2b0e288     	movk	x8, #0x8714, lsl #16
   19cb8: f2d16f48     	movk	x8, #0x8b7a, lsl #32
   19cbc: f2e56de8     	movk	x8, #0x2b6f, lsl #48
   19cc0: eb08001f     	cmp	x0, x8
   19cc4: 5400a260     	b.eq	0x1b110 <.text+0x130a0>
   19cc8: d2836b6e     	mov	x14, #0x1b5b            // =7003
   19ccc: d28ca6a9     	mov	x9, #0x6535             // =25909
   19cd0: a97997a6     	ldp	x6, x5, [x29, #-0x68]
   19cd4: f2bc350e     	movk	x14, #0xe1a8, lsl #16
   19cd8: f2a47fa9     	movk	x9, #0x23fd, lsl #16
   19cdc: a978b7a1     	ldp	x1, x13, [x29, #-0x78]
   19ce0: f2d60b8e     	movk	x14, #0xb05c, lsl #32
   19ce4: aa1603ea     	mov	x10, x22
   19ce8: a97c1fa8     	ldp	x8, x7, [x29, #-0x40]
   19cec: aa1703e2     	mov	x2, x23
   19cf0: aa1a03eb     	mov	x11, x26
   19cf4: a97b43af     	ldp	x15, x16, [x29, #-0x50]
   19cf8: aa1303e3     	mov	x3, x19
   19cfc: aa1c03e4     	mov	x4, x28
   19d00: aa1903ec     	mov	x12, x25
   19d04: f85a83be     	ldur	x30, [x29, #-0x58]
   19d08: f2f6a96e     	movk	x14, #0xb54b, lsl #48
   19d0c: f2d56149     	movk	x9, #0xab0a, lsl #32
   19d10: f2e58aa9     	movk	x9, #0x2c55, lsl #48
   19d14: 293b57b8     	stp	w24, w21, [x29, #-0x28]
   19d18: eb09001f     	cmp	x0, x9
   19d1c: f81d03b4     	stur	x20, [x29, #-0x30]
   19d20: 54ff4820     	b.eq	0x18624 <.text+0x105b4>
   19d24: f85083a8     	ldur	x8, [x29, #-0xf8]
   19d28: d296c68e     	mov	x14, #0xb634            // =46644
   19d2c: a97997a6     	ldp	x6, x5, [x29, #-0x68]
   19d30: f2a953ee     	movk	x14, #0x4a9f, lsl #16
   19d34: d288d489     	mov	x9, #0x46a4             // =18084
   19d38: f81d03a8     	stur	x8, [x29, #-0x30]
   19d3c: f2d738ee     	movk	x14, #0xb9c7, lsl #32
   19d40: a978b7a1     	ldp	x1, x13, [x29, #-0x78]
   19d44: f2b416a9     	movk	x9, #0xa0b5, lsl #16
   19d48: aa1603ea     	mov	x10, x22
   19d4c: a97c1fa8     	ldp	x8, x7, [x29, #-0x40]
   19d50: aa1703e2     	mov	x2, x23
   19d54: aa1a03eb     	mov	x11, x26
   19d58: a97b43af     	ldp	x15, x16, [x29, #-0x50]
   19d5c: aa1303e3     	mov	x3, x19
   19d60: aa1c03e4     	mov	x4, x28
   19d64: aa1903ec     	mov	x12, x25
   19d68: f85a83be     	ldur	x30, [x29, #-0x58]
   19d6c: aa1b03f1     	mov	x17, x27
   19d70: f2e1036e     	movk	x14, #0x81b, lsl #48
   19d74: f2cc7de9     	movk	x9, #0x63ef, lsl #32
   19d78: 293b57b8     	stp	w24, w21, [x29, #-0x28]
   19d7c: f2e5a949     	movk	x9, #0x2d4a, lsl #48
   19d80: eb09001f     	cmp	x0, x9
   19d84: 54ff4500     	b.eq	0x18624 <.text+0x105b4>
   19d88: d2940dce     	mov	x14, #0xa06e            // =41070
   19d8c: d297e229     	mov	x9, #0xbf11             // =48913
   19d90: a97997a6     	ldp	x6, x5, [x29, #-0x68]
   19d94: f2b505ce     	movk	x14, #0xa82e, lsl #16
   19d98: f2b85349     	movk	x9, #0xc29a, lsl #16
   19d9c: a978b7a1     	ldp	x1, x13, [x29, #-0x78]
   19da0: f2d0d1ee     	movk	x14, #0x868f, lsl #32
   19da4: aa1703e2     	mov	x2, x23
   19da8: a97c1fa8     	ldp	x8, x7, [x29, #-0x40]
   19dac: aa1a03eb     	mov	x11, x26
   19db0: aa1303e3     	mov	x3, x19
   19db4: a97b43af     	ldp	x15, x16, [x29, #-0x50]
   19db8: aa1c03e4     	mov	x4, x28
   19dbc: aa1903ec     	mov	x12, x25
   19dc0: f85003aa     	ldur	x10, [x29, #-0x100]
   19dc4: aa1b03f1     	mov	x17, x27
   19dc8: f85a83be     	ldur	x30, [x29, #-0x58]
   19dcc: f2fa0f2e     	movk	x14, #0xd079, lsl #48
   19dd0: f2df6d49     	movk	x9, #0xfb6a, lsl #32
   19dd4: 293b57b8     	stp	w24, w21, [x29, #-0x28]
   19dd8: f2e5b849     	movk	x9, #0x2dc2, lsl #48
   19ddc: f81d03b4     	stur	x20, [x29, #-0x30]
   19de0: eb09001f     	cmp	x0, x9
   19de4: 54ff4200     	b.eq	0x18624 <.text+0x105b4>
   19de8: d29f9f08     	mov	x8, #0xfcf8             // =64760
   19dec: f2b68688     	movk	x8, #0xb434, lsl #16
   19df0: f2d3dfa8     	movk	x8, #0x9efd, lsl #32
   19df4: f2e60928     	movk	x8, #0x3049, lsl #48
   19df8: eb08001f     	cmp	x0, x8
   19dfc: 54010720     	b.eq	0x1bee0 <.text+0x13e70>
   19e00: d2860148     	mov	x8, #0x300a             // =12298
   19e04: aa1b03f1     	mov	x17, x27
   19e08: f2be7268     	movk	x8, #0xf393, lsl #16
   19e0c: f2c9d9c8     	movk	x8, #0x4ece, lsl #32
   19e10: f2e62e28     	movk	x8, #0x3171, lsl #48
   19e14: eb08001f     	cmp	x0, x8
   19e18: 54009f40     	b.eq	0x1b200 <.text+0x13190>
   19e1c: d29d1f88     	mov	x8, #0xe8fc             // =59644
   19e20: f2b21948     	movk	x8, #0x90ca, lsl #16
   19e24: f2dbbe88     	movk	x8, #0xddf4, lsl #32
   19e28: f2e674a8     	movk	x8, #0x33a5, lsl #48
   19e2c: eb08001f     	cmp	x0, x8
   19e30: 54017c40     	b.eq	0x1cdb8 <.text+0x14d48>
   19e34: d29fabe8     	mov	x8, #0xfd5f             // =64863
   19e38: f2aaae68     	movk	x8, #0x5573, lsl #16
   19e3c: f2c447c8     	movk	x8, #0x223e, lsl #32
   19e40: f2e676c8     	movk	x8, #0x33b6, lsl #48
   19e44: eb08001f     	cmp	x0, x8
   19e48: 5400abe0     	b.eq	0x1b3c4 <.text+0x13354>
   19e4c: d2890548     	mov	x8, #0x482a             // =18474
   19e50: f2a5c5a8     	movk	x8, #0x2e2d, lsl #16
   19e54: f2c017c8     	movk	x8, #0xbe, lsl #32
   19e58: f2e69e08     	movk	x8, #0x34f0, lsl #48
   19e5c: eb08001f     	cmp	x0, x8
   19e60: 5400eee0     	b.eq	0x1bc3c <.text+0x13bcc>
   19e64: d294dbc8     	mov	x8, #0xa6de             // =42718
   19e68: f2bb9828     	movk	x8, #0xdcc1, lsl #16
   19e6c: f2c90008     	movk	x8, #0x4800, lsl #32
   19e70: f2e6c048     	movk	x8, #0x3602, lsl #48
   19e74: eb08001f     	cmp	x0, x8
   19e78: 54011720     	b.eq	0x1c15c <.text+0x140ec>
   19e7c: d28d1408     	mov	x8, #0x68a0             // =26784
   19e80: f2b51648     	movk	x8, #0xa8b2, lsl #16
   19e84: f2d2eb88     	movk	x8, #0x975c, lsl #32
   19e88: f2e6dfa8     	movk	x8, #0x36fd, lsl #48
   19e8c: eb08001f     	cmp	x0, x8
   19e90: 54017020     	b.eq	0x1cc94 <.text+0x14c24>
   19e94: d29f592e     	mov	x14, #0xfac9            // =64201
   19e98: d29c2029     	mov	x9, #0xe101             // =57601
   19e9c: a97997a6     	ldp	x6, x5, [x29, #-0x68]
   19ea0: f2a3738e     	movk	x14, #0x1b9c, lsl #16
   19ea4: f2a1cbc9     	movk	x9, #0xe5e, lsl #16
   19ea8: a978b7a1     	ldp	x1, x13, [x29, #-0x78]
   19eac: f2c265ae     	movk	x14, #0x132d, lsl #32
   19eb0: aa1603ea     	mov	x10, x22
   19eb4: a97c1fa8     	ldp	x8, x7, [x29, #-0x40]
   19eb8: aa1703e2     	mov	x2, x23
   19ebc: aa1a03eb     	mov	x11, x26
   19ec0: a97b43af     	ldp	x15, x16, [x29, #-0x50]
   19ec4: aa1303e3     	mov	x3, x19
   19ec8: aa1c03e4     	mov	x4, x28
   19ecc: aa1903ec     	mov	x12, x25
   19ed0: f85a83be     	ldur	x30, [x29, #-0x58]
   19ed4: f2eca98e     	movk	x14, #0x654c, lsl #48
   19ed8: f2d8dd89     	movk	x9, #0xc6ec, lsl #32
   19edc: f2e70c89     	movk	x9, #0x3864, lsl #48
   19ee0: 293b57b8     	stp	w24, w21, [x29, #-0x28]
   19ee4: eb09001f     	cmp	x0, x9
   19ee8: f81d03b4     	stur	x20, [x29, #-0x30]
   19eec: 54ff39c0     	b.eq	0x18624 <.text+0x105b4>
   19ef0: d2978a08     	mov	x8, #0xbc50             // =48208
   19ef4: f2b7c508     	movk	x8, #0xbe28, lsl #16
   19ef8: f2c81528     	movk	x8, #0x40a9, lsl #32
   19efc: f2e77428     	movk	x8, #0x3ba1, lsl #48
   19f00: eb08001f     	cmp	x0, x8
   19f04: 5400b900     	b.eq	0x1b624 <.text+0x135b4>
   19f08: d10023a8     	sub	x8, x29, #0x8
   19f0c: d289b88e     	mov	x14, #0x4dc4            // =19908
   19f10: a97997a6     	ldp	x6, x5, [x29, #-0x68]
   19f14: f2bb4e2e     	movk	x14, #0xda71, lsl #16
   19f18: d28ad949     	mov	x9, #0x56ca             // =22218
   19f1c: f8500111     	ldur	x17, [x8, #-0x100]
   19f20: d10043a8     	sub	x8, x29, #0x10
   19f24: a978b7a1     	ldp	x1, x13, [x29, #-0x78]
   19f28: f2d9378e     	movk	x14, #0xc9bc, lsl #32
   19f2c: f2a1cec9     	movk	x9, #0xe76, lsl #16
   19f30: a97b43af     	ldp	x15, x16, [x29, #-0x50]
   19f34: aa1603ea     	mov	x10, x22
   19f38: aa1703e2     	mov	x2, x23
   19f3c: aa1a03eb     	mov	x11, x26
   19f40: aa1303e3     	mov	x3, x19
   19f44: aa1c03e4     	mov	x4, x28
   19f48: aa1903ec     	mov	x12, x25
   19f4c: f85c83a7     	ldur	x7, [x29, #-0x38]
   19f50: f2f7c3ce     	movk	x14, #0xbe1e, lsl #48
   19f54: f85a83be     	ldur	x30, [x29, #-0x58]
   19f58: f2d6c8a9     	movk	x9, #0xb645, lsl #32
   19f5c: f8500108     	ldur	x8, [x8, #-0x100]
   19f60: f2e7cb69     	movk	x9, #0x3e5b, lsl #48
   19f64: eb09001f     	cmp	x0, x9
   19f68: 293b57b8     	stp	w24, w21, [x29, #-0x28]
   19f6c: f81d03b4     	stur	x20, [x29, #-0x30]
   19f70: 54ff35a0     	b.eq	0x18624 <.text+0x105b4>
   19f74: d291b048     	mov	x8, #0x8d82             // =36226
   19f78: f2b4e188     	movk	x8, #0xa70c, lsl #16
   19f7c: f2c7bd48     	movk	x8, #0x3dea, lsl #32
   19f80: f2e87808     	movk	x8, #0x43c0, lsl #48
   19f84: eb08001f     	cmp	x0, x8
   19f88: 540164e0     	b.eq	0x1cc24 <.text+0x14bb4>
   19f8c: d10063a8     	sub	x8, x29, #0x18
   19f90: d297db6e     	mov	x14, #0xbedb            // =48859
   19f94: a97997a6     	ldp	x6, x5, [x29, #-0x68]
   19f98: f2ac4eee     	movk	x14, #0x6277, lsl #16
   19f9c: d2966469     	mov	x9, #0xb323             // =45859
   19fa0: a978b7a1     	ldp	x1, x13, [x29, #-0x78]
   19fa4: f2cd99ce     	movk	x14, #0x6cce, lsl #32
   19fa8: f2b8c1c9     	movk	x9, #0xc60e, lsl #16
   19fac: a97b43af     	ldp	x15, x16, [x29, #-0x50]
   19fb0: aa1603ea     	mov	x10, x22
   19fb4: aa1703e2     	mov	x2, x23
   19fb8: aa1a03eb     	mov	x11, x26
   19fbc: aa1303e3     	mov	x3, x19
   19fc0: aa1c03e4     	mov	x4, x28
   19fc4: aa1903ec     	mov	x12, x25
   19fc8: f8500107     	ldur	x7, [x8, #-0x100]
   19fcc: aa1b03f1     	mov	x17, x27
   19fd0: f85a83be     	ldur	x30, [x29, #-0x58]
   19fd4: f2ff616e     	movk	x14, #0xfb0b, lsl #48
   19fd8: f85c03a8     	ldur	x8, [x29, #-0x40]
   19fdc: f2ddf069     	movk	x9, #0xef83, lsl #32
   19fe0: f2e88369     	movk	x9, #0x441b, lsl #48
   19fe4: 293b57b8     	stp	w24, w21, [x29, #-0x28]
   19fe8: eb09001f     	cmp	x0, x9
   19fec: f81d03b4     	stur	x20, [x29, #-0x30]
   19ff0: 54ff31a0     	b.eq	0x18624 <.text+0x105b4>
   19ff4: d296052e     	mov	x14, #0xb029            // =45097
   19ff8: d299dca9     	mov	x9, #0xcee5             // =52965
   19ffc: a97997a6     	ldp	x6, x5, [x29, #-0x68]
   1a000: f2a9164e     	movk	x14, #0x48b2, lsl #16
   1a004: f2a922c9     	movk	x9, #0x4916, lsl #16
   1a008: a978b7a1     	ldp	x1, x13, [x29, #-0x78]
   1a00c: f2c8064e     	movk	x14, #0x4032, lsl #32
   1a010: aa1603ea     	mov	x10, x22
   1a014: a97c1fa8     	ldp	x8, x7, [x29, #-0x40]
   1a018: aa1703e2     	mov	x2, x23
   1a01c: aa1a03eb     	mov	x11, x26
   1a020: a97b43af     	ldp	x15, x16, [x29, #-0x50]
   1a024: aa1303e3     	mov	x3, x19
   1a028: aa1c03e4     	mov	x4, x28
   1a02c: aa1903ec     	mov	x12, x25
   1a030: f85a83be     	ldur	x30, [x29, #-0x58]
   1a034: aa1b03f1     	mov	x17, x27
   1a038: f2ebaf0e     	movk	x14, #0x5d78, lsl #48
   1a03c: f2d481a9     	movk	x9, #0xa40d, lsl #32
   1a040: 293b57b8     	stp	w24, w21, [x29, #-0x28]
   1a044: f2e8cd69     	movk	x9, #0x466b, lsl #48
   1a048: f81d03b4     	stur	x20, [x29, #-0x30]
   1a04c: eb09001f     	cmp	x0, x9
   1a050: 54ff2ea0     	b.eq	0x18624 <.text+0x105b4>
   1a054: d288d48e     	mov	x14, #0x46a4            // =18084
   1a058: d289c689     	mov	x9, #0x4e34             // =20020
   1a05c: a97997a6     	ldp	x6, x5, [x29, #-0x68]
   1a060: f2b416ae     	movk	x14, #0xa0b5, lsl #16
   1a064: f2b7e9e9     	movk	x9, #0xbf4f, lsl #16
   1a068: a978b7a1     	ldp	x1, x13, [x29, #-0x78]
   1a06c: f2cc7dee     	movk	x14, #0x63ef, lsl #32
   1a070: aa1603ea     	mov	x10, x22
   1a074: a97c1fa8     	ldp	x8, x7, [x29, #-0x40]
   1a078: aa1703e2     	mov	x2, x23
   1a07c: aa1a03eb     	mov	x11, x26
   1a080: a97b43af     	ldp	x15, x16, [x29, #-0x50]
   1a084: aa1303e3     	mov	x3, x19
   1a088: aa1c03e4     	mov	x4, x28
   1a08c: aa1903ec     	mov	x12, x25
   1a090: f85a83be     	ldur	x30, [x29, #-0x58]
   1a094: aa1b03f1     	mov	x17, x27
   1a098: f2e5a94e     	movk	x14, #0x2d4a, lsl #48
   1a09c: f2d90ae9     	movk	x9, #0xc857, lsl #32
   1a0a0: 293b57b8     	stp	w24, w21, [x29, #-0x28]
   1a0a4: f2e8eea9     	movk	x9, #0x4775, lsl #48
   1a0a8: f81d03b4     	stur	x20, [x29, #-0x30]
   1a0ac: eb09001f     	cmp	x0, x9
   1a0b0: 54ff2ba0     	b.eq	0x18624 <.text+0x105b4>
   1a0b4: d2931588     	mov	x8, #0x98ac             // =39084
   1a0b8: f2b97b68     	movk	x8, #0xcbdb, lsl #16
   1a0bc: f2c32cc8     	movk	x8, #0x1966, lsl #32
   1a0c0: f2e91668     	movk	x8, #0x48b3, lsl #48
   1a0c4: eb08001f     	cmp	x0, x8
   1a0c8: 54014f40     	b.eq	0x1cab0 <.text+0x14a40>
   1a0cc: d28b778e     	mov	x14, #0x5bbc            // =23484
   1a0d0: d29d9009     	mov	x9, #0xec80             // =60544
   1a0d4: a97997a6     	ldp	x6, x5, [x29, #-0x68]
   1a0d8: f2af9fce     	movk	x14, #0x7cfe, lsl #16
   1a0dc: f2a4be29     	movk	x9, #0x25f1, lsl #16
   1a0e0: a978b7a1     	ldp	x1, x13, [x29, #-0x78]
   1a0e4: f2c81dee     	movk	x14, #0x40ef, lsl #32
   1a0e8: aa1603ea     	mov	x10, x22
   1a0ec: a97c1fa8     	ldp	x8, x7, [x29, #-0x40]
   1a0f0: aa1703e2     	mov	x2, x23
   1a0f4: aa1a03eb     	mov	x11, x26
   1a0f8: a97b43af     	ldp	x15, x16, [x29, #-0x50]
   1a0fc: aa1303e3     	mov	x3, x19
   1a100: aa1c03e4     	mov	x4, x28
   1a104: aa1903ec     	mov	x12, x25
   1a108: f85a83be     	ldur	x30, [x29, #-0x58]
   1a10c: aa1b03f1     	mov	x17, x27
   1a110: f2f7dc8e     	movk	x14, #0xbee4, lsl #48
   1a114: f2ca1789     	movk	x9, #0x50bc, lsl #32
   1a118: 293b57b8     	stp	w24, w21, [x29, #-0x28]
   1a11c: f2e97749     	movk	x9, #0x4bba, lsl #48
   1a120: f81d03b4     	stur	x20, [x29, #-0x30]
   1a124: eb09001f     	cmp	x0, x9
   1a128: 54ff27e0     	b.eq	0x18624 <.text+0x105b4>
   1a12c: d29c202e     	mov	x14, #0xe101            // =57601
   1a130: d29ddea9     	mov	x9, #0xeef5             // =61173
   1a134: a97997a6     	ldp	x6, x5, [x29, #-0x68]
   1a138: f2a1cbce     	movk	x14, #0xe5e, lsl #16
   1a13c: f2bc6209     	movk	x9, #0xe310, lsl #16
   1a140: a978b7a1     	ldp	x1, x13, [x29, #-0x78]
   1a144: f2d8dd8e     	movk	x14, #0xc6ec, lsl #32
   1a148: aa1603ea     	mov	x10, x22
   1a14c: a97c1fa8     	ldp	x8, x7, [x29, #-0x40]
   1a150: aa1703e2     	mov	x2, x23
   1a154: aa1a03eb     	mov	x11, x26
   1a158: a97b43af     	ldp	x15, x16, [x29, #-0x50]
   1a15c: aa1303e3     	mov	x3, x19
   1a160: aa1c03e4     	mov	x4, x28
   1a164: aa1903ec     	mov	x12, x25
   1a168: f85a83be     	ldur	x30, [x29, #-0x58]
   1a16c: aa1b03f1     	mov	x17, x27
   1a170: f2e70c8e     	movk	x14, #0x3864, lsl #48
   1a174: f2d4ab69     	movk	x9, #0xa55b, lsl #32
   1a178: 293b57b8     	stp	w24, w21, [x29, #-0x28]
   1a17c: f2e99029     	movk	x9, #0x4c81, lsl #48
   1a180: f81d03b4     	stur	x20, [x29, #-0x30]
   1a184: eb09001f     	cmp	x0, x9
   1a188: 54ff24e0     	b.eq	0x18624 <.text+0x105b4>
   1a18c: d2850168     	mov	x8, #0x280b             // =10251
   1a190: f2b6cdc8     	movk	x8, #0xb66e, lsl #16
   1a194: f2def2e8     	movk	x8, #0xf797, lsl #32
   1a198: f2e9a928     	movk	x8, #0x4d49, lsl #48
   1a19c: eb08001f     	cmp	x0, x8
   1a1a0: 54015a00     	b.eq	0x1cce0 <.text+0x14c70>
   1a1a4: d28b778e     	mov	x14, #0x5bbc            // =23484
   1a1a8: d28e8969     	mov	x9, #0x744b             // =29771
   1a1ac: a97997a6     	ldp	x6, x5, [x29, #-0x68]
   1a1b0: f2af9fce     	movk	x14, #0x7cfe, lsl #16
   1a1b4: f2afc109     	movk	x9, #0x7e08, lsl #16
   1a1b8: a978b7a1     	ldp	x1, x13, [x29, #-0x78]
   1a1bc: f2c81dee     	movk	x14, #0x40ef, lsl #32
   1a1c0: aa1603ea     	mov	x10, x22
   1a1c4: a97c1fa8     	ldp	x8, x7, [x29, #-0x40]
   1a1c8: aa1703e2     	mov	x2, x23
   1a1cc: aa1a03eb     	mov	x11, x26
   1a1d0: a97b43af     	ldp	x15, x16, [x29, #-0x50]
   1a1d4: aa1303e3     	mov	x3, x19
   1a1d8: aa1c03e4     	mov	x4, x28
   1a1dc: aa1903ec     	mov	x12, x25
   1a1e0: f85a83be     	ldur	x30, [x29, #-0x58]
   1a1e4: aa1b03f1     	mov	x17, x27
   1a1e8: f2f7dc8e     	movk	x14, #0xbee4, lsl #48
   1a1ec: f2cf5449     	movk	x9, #0x7aa2, lsl #32
   1a1f0: 293b57b8     	stp	w24, w21, [x29, #-0x28]
   1a1f4: f2e9e0c9     	movk	x9, #0x4f06, lsl #48
   1a1f8: f81d03b4     	stur	x20, [x29, #-0x30]
   1a1fc: eb09001f     	cmp	x0, x9
   1a200: 54ff2120     	b.eq	0x18624 <.text+0x105b4>
   1a204: d29fd6a8     	mov	x8, #0xfeb5             // =65205
   1a208: f2a39128     	movk	x8, #0x1c89, lsl #16
   1a20c: f2ccdce8     	movk	x8, #0x66e7, lsl #32
   1a210: f2e9ec68     	movk	x8, #0x4f63, lsl #48
   1a214: eb08001f     	cmp	x0, x8
   1a218: 54014e00     	b.eq	0x1cbd8 <.text+0x14b68>
   1a21c: d28f858e     	mov	x14, #0x7c2c            // =31788
   1a220: d2931789     	mov	x9, #0x98bc             // =39100
   1a224: a97997a6     	ldp	x6, x5, [x29, #-0x68]
   1a228: f2bf07ae     	movk	x14, #0xf83d, lsl #16
   1a22c: f2b5c8e9     	movk	x9, #0xae47, lsl #16
   1a230: a978b7a1     	ldp	x1, x13, [x29, #-0x78]
   1a234: f2c4cc0e     	movk	x14, #0x2660, lsl #32
   1a238: aa1603ea     	mov	x10, x22
   1a23c: a97c1fa8     	ldp	x8, x7, [x29, #-0x40]
   1a240: aa1703e2     	mov	x2, x23
   1a244: aa1a03eb     	mov	x11, x26
   1a248: a97b43af     	ldp	x15, x16, [x29, #-0x50]
   1a24c: aa1303e3     	mov	x3, x19
   1a250: aa1c03e4     	mov	x4, x28
   1a254: aa1903ec     	mov	x12, x25
   1a258: f85a83be     	ldur	x30, [x29, #-0x58]
   1a25c: aa1b03f1     	mov	x17, x27
   1a260: f2eb3d0e     	movk	x14, #0x59e8, lsl #48
   1a264: f2ca7c09     	movk	x9, #0x53e0, lsl #32
   1a268: 293b57b8     	stp	w24, w21, [x29, #-0x28]
   1a26c: f2ea06e9     	movk	x9, #0x5037, lsl #48
   1a270: f81d03b4     	stur	x20, [x29, #-0x30]
   1a274: eb09001f     	cmp	x0, x9
   1a278: 54ff1d60     	b.eq	0x18624 <.text+0x105b4>
   1a27c: d28b4108     	mov	x8, #0x5a08             // =23048
   1a280: f2b80088     	movk	x8, #0xc004, lsl #16
   1a284: f2dc87a8     	movk	x8, #0xe43d, lsl #32
   1a288: f2ea1248     	movk	x8, #0x5092, lsl #48
   1a28c: eb08001f     	cmp	x0, x8
   1a290: 54012080     	b.eq	0x1c6a0 <.text+0x14630>
   1a294: d29c8e68     	mov	x8, #0xe473             // =58483
   1a298: aa1b03f1     	mov	x17, x27
   1a29c: f2aae2a8     	movk	x8, #0x5715, lsl #16
   1a2a0: f2d4c428     	movk	x8, #0xa621, lsl #32
   1a2a4: f2ea41c8     	movk	x8, #0x520e, lsl #48
   1a2a8: eb08001f     	cmp	x0, x8
   1a2ac: 540129a0     	b.eq	0x1c7e0 <.text+0x14770>
   1a2b0: d29dfb08     	mov	x8, #0xefd8             // =61400
   1a2b4: f2a54c28     	movk	x8, #0x2a61, lsl #16
   1a2b8: f2ce56c8     	movk	x8, #0x72b6, lsl #32
   1a2bc: f2ea47e8     	movk	x8, #0x523f, lsl #48
   1a2c0: eb08001f     	cmp	x0, x8
   1a2c4: 5400f220     	b.eq	0x1c108 <.text+0x14098>
   1a2c8: d283f4e8     	mov	x8, #0x1fa7             // =8103
   1a2cc: f2b95048     	movk	x8, #0xca82, lsl #16
   1a2d0: f2df2808     	movk	x8, #0xf940, lsl #32
   1a2d4: f2ea91e8     	movk	x8, #0x548f, lsl #48
   1a2d8: eb08001f     	cmp	x0, x8
   1a2dc: 540115c0     	b.eq	0x1c594 <.text+0x14524>
   1a2e0: d298b748     	mov	x8, #0xc5ba             // =50618
   1a2e4: f2aa2508     	movk	x8, #0x5128, lsl #16
   1a2e8: f2c0d028     	movk	x8, #0x681, lsl #32
   1a2ec: f2eaa008     	movk	x8, #0x5500, lsl #48
   1a2f0: eb08001f     	cmp	x0, x8
   1a2f4: 54009e00     	b.eq	0x1b6b4 <.text+0x13644>
   1a2f8: d29d9768     	mov	x8, #0xecbb             // =60603
   1a2fc: f2a9cde8     	movk	x8, #0x4e6f, lsl #16
   1a300: f2cc6188     	movk	x8, #0x630c, lsl #32
   1a304: f2eac2e8     	movk	x8, #0x5617, lsl #48
   1a308: eb08001f     	cmp	x0, x8
   1a30c: 54008f80     	b.eq	0x1b4fc <.text+0x1348c>
   1a310: d280b56e     	mov	x14, #0x5ab             // =1451
   1a314: d281c9e9     	mov	x9, #0xe4f              // =3663
   1a318: a97997a6     	ldp	x6, x5, [x29, #-0x68]
   1a31c: f2b8560e     	movk	x14, #0xc2b0, lsl #16
   1a320: f2b6bf29     	movk	x9, #0xb5f9, lsl #16
   1a324: a978b7a1     	ldp	x1, x13, [x29, #-0x78]
   1a328: f2c4d74e     	movk	x14, #0x26ba, lsl #32
   1a32c: aa1603ea     	mov	x10, x22
   1a330: a97c1fa8     	ldp	x8, x7, [x29, #-0x40]
   1a334: aa1703e2     	mov	x2, x23
   1a338: aa1a03eb     	mov	x11, x26
   1a33c: a97b43af     	ldp	x15, x16, [x29, #-0x50]
   1a340: aa1303e3     	mov	x3, x19
   1a344: aa1c03e4     	mov	x4, x28
   1a348: aa1903ec     	mov	x12, x25
   1a34c: f85a83be     	ldur	x30, [x29, #-0x58]
   1a350: f2f1e62e     	movk	x14, #0x8f31, lsl #48
   1a354: f2da59c9     	movk	x9, #0xd2ce, lsl #32
   1a358: f2eb2569     	movk	x9, #0x592b, lsl #48
   1a35c: 293b57b8     	stp	w24, w21, [x29, #-0x28]
   1a360: eb09001f     	cmp	x0, x9
   1a364: f81d03b4     	stur	x20, [x29, #-0x30]
   1a368: 54ff15e0     	b.eq	0x18624 <.text+0x105b4>
   1a36c: d28f8588     	mov	x8, #0x7c2c             // =31788
   1a370: f2bf07a8     	movk	x8, #0xf83d, lsl #16
   1a374: f2c4cc08     	movk	x8, #0x2660, lsl #32
   1a378: f2eb3d08     	movk	x8, #0x59e8, lsl #48
   1a37c: eb08001f     	cmp	x0, x8
   1a380: 54007960     	b.eq	0x1b2ac <.text+0x1323c>
   1a384: d29c202e     	mov	x14, #0xe101            // =57601
   1a388: d2842209     	mov	x9, #0x2110             // =8464
   1a38c: a97997a6     	ldp	x6, x5, [x29, #-0x68]
   1a390: f2a1cbce     	movk	x14, #0xe5e, lsl #16
   1a394: f2a826e9     	movk	x9, #0x4137, lsl #16
   1a398: a978b7a1     	ldp	x1, x13, [x29, #-0x78]
   1a39c: f2d8dd8e     	movk	x14, #0xc6ec, lsl #32
   1a3a0: aa1603ea     	mov	x10, x22
   1a3a4: a97c1fa8     	ldp	x8, x7, [x29, #-0x40]
   1a3a8: aa1703e2     	mov	x2, x23
   1a3ac: aa1a03eb     	mov	x11, x26
   1a3b0: a97b43af     	ldp	x15, x16, [x29, #-0x50]
   1a3b4: aa1303e3     	mov	x3, x19
   1a3b8: aa1c03e4     	mov	x4, x28
   1a3bc: aa1903ec     	mov	x12, x25
   1a3c0: f85a83be     	ldur	x30, [x29, #-0x58]
   1a3c4: aa1b03f1     	mov	x17, x27
   1a3c8: f2e70c8e     	movk	x14, #0x3864, lsl #48
   1a3cc: f2ca7ca9     	movk	x9, #0x53e5, lsl #32
   1a3d0: 293b57b8     	stp	w24, w21, [x29, #-0x28]
   1a3d4: f2eb4869     	movk	x9, #0x5a43, lsl #48
   1a3d8: f81d03b4     	stur	x20, [x29, #-0x30]
   1a3dc: eb09001f     	cmp	x0, x9
   1a3e0: 54ff1220     	b.eq	0x18624 <.text+0x105b4>
   1a3e4: d2999008     	mov	x8, #0xcc80             // =52352
   1a3e8: f2b64328     	movk	x8, #0xb219, lsl #16
   1a3ec: f2c8c3a8     	movk	x8, #0x461d, lsl #32
   1a3f0: f2eb7c08     	movk	x8, #0x5be0, lsl #48
   1a3f4: eb08001f     	cmp	x0, x8
   1a3f8: 5400f2e0     	b.eq	0x1c254 <.text+0x141e4>
   1a3fc: d2960528     	mov	x8, #0xb029             // =45097
   1a400: aa1b03f1     	mov	x17, x27
   1a404: f2a91648     	movk	x8, #0x48b2, lsl #16
   1a408: f2c80648     	movk	x8, #0x4032, lsl #32
   1a40c: f2ebaf08     	movk	x8, #0x5d78, lsl #48
   1a410: eb08001f     	cmp	x0, x8
   1a414: 54008e40     	b.eq	0x1b5dc <.text+0x1356c>
   1a418: a97997a6     	ldp	x6, x5, [x29, #-0x68]
   1a41c: d294d589     	mov	x9, #0xa6ac             // =42668
   1a420: aa1603ea     	mov	x10, x22
   1a424: a978b7a1     	ldp	x1, x13, [x29, #-0x78]
   1a428: f2a2ab49     	movk	x9, #0x155a, lsl #16
   1a42c: aa1703e2     	mov	x2, x23
   1a430: a97c1fa8     	ldp	x8, x7, [x29, #-0x40]
   1a434: aa1a03eb     	mov	x11, x26
   1a438: aa1303e3     	mov	x3, x19
   1a43c: a97b43af     	ldp	x15, x16, [x29, #-0x50]
   1a440: aa1c03e4     	mov	x4, x28
   1a444: aa1903ec     	mov	x12, x25
   1a448: f85a83be     	ldur	x30, [x29, #-0x58]
   1a44c: f2c5f6c9     	movk	x9, #0x2fb6, lsl #32
   1a450: f2ebcaa9     	movk	x9, #0x5e55, lsl #48
   1a454: 293b57b8     	stp	w24, w21, [x29, #-0x28]
   1a458: eb09001f     	cmp	x0, x9
   1a45c: f81d03b4     	stur	x20, [x29, #-0x30]
   1a460: 54ff0e20     	b.eq	0x18624 <.text+0x105b4>
   1a464: d2978a0e     	mov	x14, #0xbc50            // =48208
   1a468: d289c569     	mov	x9, #0x4e2b             // =20011
   1a46c: a97997a6     	ldp	x6, x5, [x29, #-0x68]
   1a470: f2b7c50e     	movk	x14, #0xbe28, lsl #16
   1a474: f2a86de9     	movk	x9, #0x436f, lsl #16
   1a478: a978b7a1     	ldp	x1, x13, [x29, #-0x78]
   1a47c: f2c8152e     	movk	x14, #0x40a9, lsl #32
   1a480: aa1603ea     	mov	x10, x22
   1a484: a97c1fa8     	ldp	x8, x7, [x29, #-0x40]
   1a488: aa1703e2     	mov	x2, x23
   1a48c: aa1a03eb     	mov	x11, x26
   1a490: a97b43af     	ldp	x15, x16, [x29, #-0x50]
   1a494: aa1303e3     	mov	x3, x19
   1a498: aa1c03e4     	mov	x4, x28
   1a49c: aa1903ec     	mov	x12, x25
   1a4a0: f85a83be     	ldur	x30, [x29, #-0x58]
   1a4a4: aa1b03f1     	mov	x17, x27
   1a4a8: f2e7742e     	movk	x14, #0x3ba1, lsl #48
   1a4ac: f2db1ec9     	movk	x9, #0xd8f6, lsl #32
   1a4b0: 293b57b8     	stp	w24, w21, [x29, #-0x28]
   1a4b4: f2ebe609     	movk	x9, #0x5f30, lsl #48
   1a4b8: f81d03b4     	stur	x20, [x29, #-0x30]
   1a4bc: eb09001f     	cmp	x0, x9
   1a4c0: 54ff0b20     	b.eq	0x18624 <.text+0x105b4>
   1a4c4: d280854e     	mov	x14, #0x42a             // =1066
   1a4c8: d2961aa9     	mov	x9, #0xb0d5             // =45269
   1a4cc: a97997a6     	ldp	x6, x5, [x29, #-0x68]
   1a4d0: f2b5e9ae     	movk	x14, #0xaf4d, lsl #16
   1a4d4: f2a44669     	movk	x9, #0x2233, lsl #16
   1a4d8: a978b7a1     	ldp	x1, x13, [x29, #-0x78]
   1a4dc: f2d6d82e     	movk	x14, #0xb6c1, lsl #32
   1a4e0: aa1603ea     	mov	x10, x22
   1a4e4: a97c1fa8     	ldp	x8, x7, [x29, #-0x40]
   1a4e8: aa1703e2     	mov	x2, x23
   1a4ec: aa1a03eb     	mov	x11, x26
   1a4f0: a97b43af     	ldp	x15, x16, [x29, #-0x50]
   1a4f4: aa1303e3     	mov	x3, x19
   1a4f8: aa1c03e4     	mov	x4, x28
   1a4fc: aa1903ec     	mov	x12, x25
   1a500: f85a83be     	ldur	x30, [x29, #-0x58]
   1a504: aa1b03f1     	mov	x17, x27
   1a508: f2f2ddce     	movk	x14, #0x96ee, lsl #48
   1a50c: f2c00e29     	movk	x9, #0x71, lsl #32
   1a510: 293b57b8     	stp	w24, w21, [x29, #-0x28]
   1a514: f2ebf9e9     	movk	x9, #0x5fcf, lsl #48
   1a518: f81d03b4     	stur	x20, [x29, #-0x30]
   1a51c: eb09001f     	cmp	x0, x9
   1a520: 54ff0820     	b.eq	0x18624 <.text+0x105b4>
   1a524: d296e308     	mov	x8, #0xb718             // =46872
   1a528: f2af4548     	movk	x8, #0x7a2a, lsl #16
   1a52c: f2cad348     	movk	x8, #0x569a, lsl #32
   1a530: f2ec3fc8     	movk	x8, #0x61fe, lsl #48
   1a534: eb08001f     	cmp	x0, x8
   1a538: 54010ee0     	b.eq	0x1c714 <.text+0x146a4>
   1a53c: d285c108     	mov	x8, #0x2e08             // =11784
   1a540: aa1b03f1     	mov	x17, x27
   1a544: f2a3c7a8     	movk	x8, #0x1e3d, lsl #16
   1a548: f2c545a8     	movk	x8, #0x2a2d, lsl #32
   1a54c: f2ec5b68     	movk	x8, #0x62db, lsl #48
   1a550: eb08001f     	cmp	x0, x8
   1a554: 5400af60     	b.eq	0x1bb40 <.text+0x13ad0>
   1a558: d28c8748     	mov	x8, #0x643a             // =25658
   1a55c: f2b8ed48     	movk	x8, #0xc76a, lsl #16
   1a560: f2df01e8     	movk	x8, #0xf80f, lsl #32
   1a564: f2ec7d28     	movk	x8, #0x63e9, lsl #48
   1a568: eb08001f     	cmp	x0, x8
   1a56c: 5400d060     	b.eq	0x1bf78 <.text+0x13f08>
   1a570: d29f5928     	mov	x8, #0xfac9             // =64201
   1a574: f2a37388     	movk	x8, #0x1b9c, lsl #16
   1a578: f2c265a8     	movk	x8, #0x132d, lsl #32
   1a57c: f2eca988     	movk	x8, #0x654c, lsl #48
   1a580: eb08001f     	cmp	x0, x8
   1a584: 5400b360     	b.eq	0x1bbf0 <.text+0x13b80>
   1a588: d2982668     	mov	x8, #0xc133             // =49459
   1a58c: f2bf5388     	movk	x8, #0xfa9c, lsl #16
   1a590: f2c56ba8     	movk	x8, #0x2b5d, lsl #32
   1a594: f2ecbe68     	movk	x8, #0x65f3, lsl #48
   1a598: eb08001f     	cmp	x0, x8
   1a59c: 5400fc00     	b.eq	0x1c51c <.text+0x144ac>
   1a5a0: d28dd5e8     	mov	x8, #0x6eaf             // =28335
   1a5a4: f2aba008     	movk	x8, #0x5d00, lsl #16
   1a5a8: f2c5b648     	movk	x8, #0x2db2, lsl #32
   1a5ac: f2ed1aa8     	movk	x8, #0x68d5, lsl #48
   1a5b0: eb08001f     	cmp	x0, x8
   1a5b4: 5400f840     	b.eq	0x1c4bc <.text+0x1444c>
   1a5b8: d297fa28     	mov	x8, #0xbfd1             // =49105
   1a5bc: f2aa6fe8     	movk	x8, #0x537f, lsl #16
   1a5c0: f2cbeee8     	movk	x8, #0x5f77, lsl #32
   1a5c4: f2ed3848     	movk	x8, #0x69c2, lsl #48
   1a5c8: eb08001f     	cmp	x0, x8
   1a5cc: 54009c40     	b.eq	0x1b954 <.text+0x138e4>
   1a5d0: d297e828     	mov	x8, #0xbf41             // =48961
   1a5d4: f2adeee8     	movk	x8, #0x6f77, lsl #16
   1a5d8: f2c837a8     	movk	x8, #0x41bd, lsl #32
   1a5dc: f2ed4388     	movk	x8, #0x6a1c, lsl #48
   1a5e0: eb08001f     	cmp	x0, x8
   1a5e4: 5400eaa0     	b.eq	0x1c338 <.text+0x142c8>
   1a5e8: d2845be8     	mov	x8, #0x22df             // =8927
   1a5ec: f2ac72e8     	movk	x8, #0x6397, lsl #16
   1a5f0: f2d27988     	movk	x8, #0x93cc, lsl #32
   1a5f4: f2ed4908     	movk	x8, #0x6a48, lsl #48
   1a5f8: eb08001f     	cmp	x0, x8
   1a5fc: 5400bb40     	b.eq	0x1bd64 <.text+0x13cf4>
   1a600: d29c202e     	mov	x14, #0xe101            // =57601
   1a604: d282ec09     	mov	x9, #0x1760             // =5984
   1a608: a97997a6     	ldp	x6, x5, [x29, #-0x68]
   1a60c: f2a1cbce     	movk	x14, #0xe5e, lsl #16
   1a610: f2aa51a9     	movk	x9, #0x528d, lsl #16
   1a614: a978b7a1     	ldp	x1, x13, [x29, #-0x78]
   1a618: f2d8dd8e     	movk	x14, #0xc6ec, lsl #32
   1a61c: aa1603ea     	mov	x10, x22
   1a620: a97c1fa8     	ldp	x8, x7, [x29, #-0x40]
   1a624: aa1703e2     	mov	x2, x23
   1a628: aa1a03eb     	mov	x11, x26
   1a62c: a97b43af     	ldp	x15, x16, [x29, #-0x50]
   1a630: aa1303e3     	mov	x3, x19
   1a634: aa1c03e4     	mov	x4, x28
   1a638: aa1903ec     	mov	x12, x25
   1a63c: f85a83be     	ldur	x30, [x29, #-0x58]
   1a640: f2e70c8e     	movk	x14, #0x3864, lsl #48
   1a644: f2c6ee09     	movk	x9, #0x3770, lsl #32
   1a648: f2ed6329     	movk	x9, #0x6b19, lsl #48
   1a64c: 293b57b8     	stp	w24, w21, [x29, #-0x28]
   1a650: eb09001f     	cmp	x0, x9
   1a654: f81d03b4     	stur	x20, [x29, #-0x30]
   1a658: 54fefe60     	b.eq	0x18624 <.text+0x105b4>
   1a65c: d29a9ea8     	mov	x8, #0xd4f5             // =54517
   1a660: f2ba4e88     	movk	x8, #0xd274, lsl #16
   1a664: f2c753c8     	movk	x8, #0x3a9e, lsl #32
   1a668: f2ed74e8     	movk	x8, #0x6ba7, lsl #48
   1a66c: eb08001f     	cmp	x0, x8
   1a670: 54009520     	b.eq	0x1b914 <.text+0x138a4>
   1a674: d2972ca8     	mov	x8, #0xb965             // =47461
   1a678: aa1b03f1     	mov	x17, x27
   1a67c: f2a7d288     	movk	x8, #0x3e94, lsl #16
   1a680: f2d88188     	movk	x8, #0xc40c, lsl #32
   1a684: f2edc788     	movk	x8, #0x6e3c, lsl #48
   1a688: eb08001f     	cmp	x0, x8
   1a68c: 54010da0     	b.eq	0x1c840 <.text+0x147d0>
   1a690: d2888e48     	mov	x8, #0x4472             // =17522
   1a694: f2bd8f88     	movk	x8, #0xec7c, lsl #16
   1a698: f2c5b888     	movk	x8, #0x2dc4, lsl #32
   1a69c: f2ede048     	movk	x8, #0x6f02, lsl #48
   1a6a0: eb08001f     	cmp	x0, x8
   1a6a4: 5400d8a0     	b.eq	0x1c1b8 <.text+0x14148>
   1a6a8: d296052e     	mov	x14, #0xb029            // =45097
   1a6ac: d298f3a9     	mov	x9, #0xc79d             // =51101
   1a6b0: a97997a6     	ldp	x6, x5, [x29, #-0x68]
   1a6b4: f2a9164e     	movk	x14, #0x48b2, lsl #16
   1a6b8: f2a27dc9     	movk	x9, #0x13ee, lsl #16
   1a6bc: a978b7a1     	ldp	x1, x13, [x29, #-0x78]
   1a6c0: f2c8064e     	movk	x14, #0x4032, lsl #32
   1a6c4: aa1603ea     	mov	x10, x22
   1a6c8: a97c1fa8     	ldp	x8, x7, [x29, #-0x40]
   1a6cc: aa1703e2     	mov	x2, x23
   1a6d0: aa1a03eb     	mov	x11, x26
   1a6d4: a97b43af     	ldp	x15, x16, [x29, #-0x50]
   1a6d8: aa1303e3     	mov	x3, x19
   1a6dc: aa1c03e4     	mov	x4, x28
   1a6e0: aa1903ec     	mov	x12, x25
   1a6e4: f85a83be     	ldur	x30, [x29, #-0x58]
   1a6e8: f2ebaf0e     	movk	x14, #0x5d78, lsl #48
   1a6ec: f2cab549     	movk	x9, #0x55aa, lsl #32
   1a6f0: f2ede5a9     	movk	x9, #0x6f2d, lsl #48
   1a6f4: 293b57b8     	stp	w24, w21, [x29, #-0x28]
   1a6f8: eb09001f     	cmp	x0, x9
   1a6fc: f81d03b4     	stur	x20, [x29, #-0x30]
   1a700: 54fef920     	b.eq	0x18624 <.text+0x105b4>
   1a704: d29e4528     	mov	x8, #0xf229             // =61993
   1a708: f2ab3e08     	movk	x8, #0x59f0, lsl #16
   1a70c: f2d39388     	movk	x8, #0x9c9c, lsl #32
   1a710: f2edff28     	movk	x8, #0x6ff9, lsl #48
   1a714: eb08001f     	cmp	x0, x8
   1a718: 5400b0a0     	b.eq	0x1bd2c <.text+0x13cbc>
   1a71c: d2806208     	mov	x8, #0x310              // =784
   1a720: aa1b03f1     	mov	x17, x27
   1a724: f2ad94a8     	movk	x8, #0x6ca5, lsl #16
   1a728: f2d1f088     	movk	x8, #0x8f84, lsl #32
   1a72c: f2ee1588     	movk	x8, #0x70ac, lsl #48
   1a730: eb08001f     	cmp	x0, x8
   1a734: 54010220     	b.eq	0x1c778 <.text+0x14708>
   1a738: d29993c8     	mov	x8, #0xcc9e             // =52382
   1a73c: f2a32ca8     	movk	x8, #0x1965, lsl #16
   1a740: f2c1da48     	movk	x8, #0xed2, lsl #32
   1a744: f2ee2108     	movk	x8, #0x7108, lsl #48
   1a748: eb08001f     	cmp	x0, x8
   1a74c: 540081a0     	b.eq	0x1b780 <.text+0x13710>
   1a750: d2872168     	mov	x8, #0x390b             // =14603
   1a754: f85883a1     	ldur	x1, [x29, #-0x78]
   1a758: f2bcdea8     	movk	x8, #0xe6f5, lsl #16
   1a75c: f85c03a9     	ldur	x9, [x29, #-0x40]
   1a760: f2d66768     	movk	x8, #0xb33b, lsl #32
   1a764: f2ee2f28     	movk	x8, #0x7179, lsl #48
   1a768: eb08001f     	cmp	x0, x8
   1a76c: 5400c240     	b.eq	0x1bfb4 <.text+0x13f44>
   1a770: d29b1aae     	mov	x14, #0xd8d5            // =55509
   1a774: aa0903e8     	mov	x8, x9
   1a778: a97997a6     	ldp	x6, x5, [x29, #-0x68]
   1a77c: f2bcb3ae     	movk	x14, #0xe59d, lsl #16
   1a780: d289f329     	mov	x9, #0x4f99             // =20377
   1a784: a97b43af     	ldp	x15, x16, [x29, #-0x50]
   1a788: f2d069ee     	movk	x14, #0x834f, lsl #32
   1a78c: f2b319a9     	movk	x9, #0x98cd, lsl #16
   1a790: aa1603ea     	mov	x10, x22
   1a794: aa1703e2     	mov	x2, x23
   1a798: aa1a03eb     	mov	x11, x26
   1a79c: aa1303e3     	mov	x3, x19
   1a7a0: aa1c03e4     	mov	x4, x28
   1a7a4: aa1903ec     	mov	x12, x25
   1a7a8: f85903ad     	ldur	x13, [x29, #-0x70]
   1a7ac: f2fa058e     	movk	x14, #0xd02c, lsl #48
   1a7b0: f85c83a7     	ldur	x7, [x29, #-0x38]
   1a7b4: f2d24029     	movk	x9, #0x9201, lsl #32
   1a7b8: f85a83be     	ldur	x30, [x29, #-0x58]
   1a7bc: f2ee3d89     	movk	x9, #0x71ec, lsl #48
   1a7c0: eb09001f     	cmp	x0, x9
   1a7c4: 293b57b8     	stp	w24, w21, [x29, #-0x28]
   1a7c8: f81d03b4     	stur	x20, [x29, #-0x30]
   1a7cc: 54fef2c0     	b.eq	0x18624 <.text+0x105b4>
   1a7d0: b85543a8     	ldur	w8, [x29, #-0xac]
   1a7d4: d297e10e     	mov	x14, #0xbf08            // =48904
   1a7d8: a97997a6     	ldp	x6, x5, [x29, #-0x68]
   1a7dc: f2a98a6e     	movk	x14, #0x4c53, lsl #16
   1a7e0: d28582e9     	mov	x9, #0x2c17             // =11287
   1a7e4: 293b57a8     	stp	w8, w21, [x29, #-0x28]
   1a7e8: f2ddf66e     	movk	x14, #0xefb3, lsl #32
   1a7ec: a978b7a1     	ldp	x1, x13, [x29, #-0x78]
   1a7f0: f2b74829     	movk	x9, #0xba41, lsl #16
   1a7f4: aa1603ea     	mov	x10, x22
   1a7f8: a97c1fa8     	ldp	x8, x7, [x29, #-0x40]
   1a7fc: aa1703e2     	mov	x2, x23
   1a800: aa1a03eb     	mov	x11, x26
   1a804: a97b43af     	ldp	x15, x16, [x29, #-0x50]
   1a808: aa1303e3     	mov	x3, x19
   1a80c: aa1c03e4     	mov	x4, x28
   1a810: aa1903ec     	mov	x12, x25
   1a814: f85a83be     	ldur	x30, [x29, #-0x58]
   1a818: aa1b03f1     	mov	x17, x27
   1a81c: f2e2efae     	movk	x14, #0x177d, lsl #48
   1a820: f2c06749     	movk	x9, #0x33a, lsl #32
   1a824: f81d03b4     	stur	x20, [x29, #-0x30]
   1a828: f2ee4de9     	movk	x9, #0x726f, lsl #48
   1a82c: eb09001f     	cmp	x0, x9
   1a830: 54feefa0     	b.eq	0x18624 <.text+0x105b4>
   1a834: d292a868     	mov	x8, #0x9543             // =38211
   1a838: f2b9efc8     	movk	x8, #0xcf7e, lsl #16
   1a83c: f2cbfae8     	movk	x8, #0x5fd7, lsl #32
   1a840: f2ee7328     	movk	x8, #0x7399, lsl #48
   1a844: eb08001f     	cmp	x0, x8
   1a848: 5400d9c0     	b.eq	0x1c380 <.text+0x14310>
   1a84c: d2963f4e     	mov	x14, #0xb1fa            // =45562
   1a850: d28e8589     	mov	x9, #0x742c             // =29740
   1a854: a97997a6     	ldp	x6, x5, [x29, #-0x68]
   1a858: f2a2b30e     	movk	x14, #0x1598, lsl #16
   1a85c: f2af4dc9     	movk	x9, #0x7a6e, lsl #16
   1a860: a978b7a1     	ldp	x1, x13, [x29, #-0x78]
   1a864: f2c8260e     	movk	x14, #0x4130, lsl #32
   1a868: aa1603ea     	mov	x10, x22
   1a86c: a97c1fa8     	ldp	x8, x7, [x29, #-0x40]
   1a870: aa1703e2     	mov	x2, x23
   1a874: aa1a03eb     	mov	x11, x26
   1a878: a97b43af     	ldp	x15, x16, [x29, #-0x50]
   1a87c: aa1303e3     	mov	x3, x19
   1a880: aa1c03e4     	mov	x4, x28
   1a884: aa1903ec     	mov	x12, x25
   1a888: f85a83be     	ldur	x30, [x29, #-0x58]
   1a88c: aa1b03f1     	mov	x17, x27
   1a890: f2fc580e     	movk	x14, #0xe2c0, lsl #48
   1a894: f2dc1129     	movk	x9, #0xe089, lsl #32
   1a898: 293b57b8     	stp	w24, w21, [x29, #-0x28]
   1a89c: f2ee7529     	movk	x9, #0x73a9, lsl #48
   1a8a0: f81d03b4     	stur	x20, [x29, #-0x30]
   1a8a4: eb09001f     	cmp	x0, x9
   1a8a8: 54feebe0     	b.eq	0x18624 <.text+0x105b4>
   1a8ac: d29c202e     	mov	x14, #0xe101            // =57601
   1a8b0: d2812fc9     	mov	x9, #0x97e              // =2430
   1a8b4: a97997a6     	ldp	x6, x5, [x29, #-0x68]
   1a8b8: f2a1cbce     	movk	x14, #0xe5e, lsl #16
   1a8bc: f2bec789     	movk	x9, #0xf63c, lsl #16
   1a8c0: a978b7a1     	ldp	x1, x13, [x29, #-0x78]
   1a8c4: f2d8dd8e     	movk	x14, #0xc6ec, lsl #32
   1a8c8: aa1603ea     	mov	x10, x22
   1a8cc: a97c1fa8     	ldp	x8, x7, [x29, #-0x40]
   1a8d0: aa1703e2     	mov	x2, x23
   1a8d4: aa1a03eb     	mov	x11, x26
   1a8d8: a97b43af     	ldp	x15, x16, [x29, #-0x50]
   1a8dc: aa1303e3     	mov	x3, x19
   1a8e0: aa1c03e4     	mov	x4, x28
   1a8e4: aa1903ec     	mov	x12, x25
   1a8e8: f85a83be     	ldur	x30, [x29, #-0x58]
   1a8ec: aa1b03f1     	mov	x17, x27
   1a8f0: f2e70c8e     	movk	x14, #0x3864, lsl #48
   1a8f4: f2decb69     	movk	x9, #0xf65b, lsl #32
   1a8f8: 293b57b8     	stp	w24, w21, [x29, #-0x28]
   1a8fc: f2eecac9     	movk	x9, #0x7656, lsl #48
   1a900: f81d03b4     	stur	x20, [x29, #-0x30]
   1a904: eb09001f     	cmp	x0, x9
   1a908: 54fee8e0     	b.eq	0x18624 <.text+0x105b4>
   1a90c: d281f3a8     	mov	x8, #0xf9d              // =3997
   1a910: f2a528a8     	movk	x8, #0x2945, lsl #16
   1a914: f2ccb0a8     	movk	x8, #0x6585, lsl #32
   1a918: f2eecd88     	movk	x8, #0x766c, lsl #48
   1a91c: eb08001f     	cmp	x0, x8
   1a920: 5400b840     	b.eq	0x1c028 <.text+0x13fb8>
   1a924: d284b808     	mov	x8, #0x25c0             // =9664
   1a928: aa1b03f1     	mov	x17, x27
   1a92c: f2a1e068     	movk	x8, #0xf03, lsl #16
   1a930: f2cddfe8     	movk	x8, #0x6eff, lsl #32
   1a934: f2eed5e8     	movk	x8, #0x76af, lsl #48
   1a938: eb08001f     	cmp	x0, x8
   1a93c: 5400a900     	b.eq	0x1be5c <.text+0x13dec>
   1a940: d29d68c8     	mov	x8, #0xeb46             // =60230
   1a944: f2b7ea68     	movk	x8, #0xbf53, lsl #16
   1a948: f2d18ca8     	movk	x8, #0x8c65, lsl #32
   1a94c: f2eefee8     	movk	x8, #0x77f7, lsl #48
   1a950: eb08001f     	cmp	x0, x8
   1a954: 54006da0     	b.eq	0x1b708 <.text+0x13698>
   1a958: d2908048     	mov	x8, #0x8402             // =33794
   1a95c: f2bd88c8     	movk	x8, #0xec46, lsl #16
   1a960: f2c00248     	movk	x8, #0x12, lsl #32
   1a964: f2ef3a68     	movk	x8, #0x79d3, lsl #48
   1a968: eb08001f     	cmp	x0, x8
   1a96c: 5400ba20     	b.eq	0x1c0b0 <.text+0x14040>
   1a970: d2994e68     	mov	x8, #0xca73             // =51827
   1a974: f2a40128     	movk	x8, #0x2009, lsl #16
   1a978: f2da3fc8     	movk	x8, #0xd1fe, lsl #32
   1a97c: f2ef7bc8     	movk	x8, #0x7bde, lsl #48
   1a980: eb08001f     	cmp	x0, x8
   1a984: 5400a260     	b.eq	0x1bdd0 <.text+0x13d60>
   1a988: d2988628     	mov	x8, #0xc431             // =50225
   1a98c: f2b177e8     	movk	x8, #0x8bbf, lsl #16
   1a990: f2d8f448     	movk	x8, #0xc7a2, lsl #32
   1a994: f2ef8188     	movk	x8, #0x7c0c, lsl #48
   1a998: eb08001f     	cmp	x0, x8
   1a99c: 54007740     	b.eq	0x1b884 <.text+0x13814>
   1a9a0: d2836b6e     	mov	x14, #0x1b5b            // =7003
   1a9a4: d29a7a89     	mov	x9, #0xd3d4             // =54228
   1a9a8: a97997a6     	ldp	x6, x5, [x29, #-0x68]
   1a9ac: f2bc350e     	movk	x14, #0xe1a8, lsl #16
   1a9b0: f2be47a9     	movk	x9, #0xf23d, lsl #16
   1a9b4: a978b7a1     	ldp	x1, x13, [x29, #-0x78]
   1a9b8: f2d60b8e     	movk	x14, #0xb05c, lsl #32
   1a9bc: aa1603ea     	mov	x10, x22
   1a9c0: a97c1fa8     	ldp	x8, x7, [x29, #-0x40]
   1a9c4: aa1703e2     	mov	x2, x23
   1a9c8: aa1a03eb     	mov	x11, x26
   1a9cc: a97b43af     	ldp	x15, x16, [x29, #-0x50]
   1a9d0: aa1303e3     	mov	x3, x19
   1a9d4: aa1c03e4     	mov	x4, x28
   1a9d8: aa1903ec     	mov	x12, x25
   1a9dc: f85a83be     	ldur	x30, [x29, #-0x58]
   1a9e0: f2f6a96e     	movk	x14, #0xb54b, lsl #48
   1a9e4: f2cae089     	movk	x9, #0x5704, lsl #32
   1a9e8: f2ef9669     	movk	x9, #0x7cb3, lsl #48
   1a9ec: 293b57b8     	stp	w24, w21, [x29, #-0x28]
   1a9f0: eb09001f     	cmp	x0, x9
   1a9f4: f81d03b4     	stur	x20, [x29, #-0x30]
   1a9f8: 54fee160     	b.eq	0x18624 <.text+0x105b4>
   1a9fc: d296ec4e     	mov	x14, #0xb762            // =46946
   1aa00: d2855049     	mov	x9, #0x2a82             // =10882
   1aa04: a97997a6     	ldp	x6, x5, [x29, #-0x68]
   1aa08: f2b487ee     	movk	x14, #0xa43f, lsl #16
   1aa0c: f2a83f49     	movk	x9, #0x41fa, lsl #16
   1aa10: a978b7a1     	ldp	x1, x13, [x29, #-0x78]
   1aa14: f2ddee8e     	movk	x14, #0xef74, lsl #32
   1aa18: aa1603ea     	mov	x10, x22
   1aa1c: a97c1fa8     	ldp	x8, x7, [x29, #-0x40]
   1aa20: aa1703e2     	mov	x2, x23
   1aa24: aa1a03eb     	mov	x11, x26
   1aa28: a97b43af     	ldp	x15, x16, [x29, #-0x50]
   1aa2c: aa1303e3     	mov	x3, x19
   1aa30: aa1c03e4     	mov	x4, x28
   1aa34: aa1903ec     	mov	x12, x25
   1aa38: f85a83be     	ldur	x30, [x29, #-0x58]
   1aa3c: aa1b03f1     	mov	x17, x27
   1aa40: f2f83fce     	movk	x14, #0xc1fe, lsl #48
   1aa44: f2c9d329     	movk	x9, #0x4e99, lsl #32
   1aa48: 293b57b8     	stp	w24, w21, [x29, #-0x28]
   1aa4c: f2ef96c9     	movk	x9, #0x7cb6, lsl #48
   1aa50: f81d03b4     	stur	x20, [x29, #-0x30]
   1aa54: eb09001f     	cmp	x0, x9
   1aa58: 54fede60     	b.eq	0x18624 <.text+0x105b4>
   1aa5c: d29ddf28     	mov	x8, #0xeef9             // =61177
   1aa60: f2ae4848     	movk	x8, #0x7242, lsl #16
   1aa64: f2d11668     	movk	x8, #0x88b3, lsl #32
   1aa68: f2efd888     	movk	x8, #0x7ec4, lsl #48
   1aa6c: eb08001f     	cmp	x0, x8
   1aa70: 54007a80     	b.eq	0x1b9c0 <.text+0x13950>
   1aa74: d289df48     	mov	x8, #0x4efa             // =20218
   1aa78: f85883a1     	ldur	x1, [x29, #-0x78]
   1aa7c: f2afa008     	movk	x8, #0x7d00, lsl #16
   1aa80: f85c03a9     	ldur	x9, [x29, #-0x40]
   1aa84: f2d11d08     	movk	x8, #0x88e8, lsl #32
   1aa88: f2effda8     	movk	x8, #0x7fed, lsl #48
   1aa8c: eb08001f     	cmp	x0, x8
   1aa90: 54007f60     	b.eq	0x1ba7c <.text+0x13a0c>
   1aa94: a97997a6     	ldp	x6, x5, [x29, #-0x68]
   1aa98: aa0903e8     	mov	x8, x9
   1aa9c: d280b149     	mov	x9, #0x58a              // =1418
   1aaa0: a97b43af     	ldp	x15, x16, [x29, #-0x50]
   1aaa4: f2b463e9     	movk	x9, #0xa31f, lsl #16
   1aaa8: aa1603ea     	mov	x10, x22
   1aaac: aa1703e2     	mov	x2, x23
   1aab0: aa1a03eb     	mov	x11, x26
   1aab4: aa1303e3     	mov	x3, x19
   1aab8: aa1c03e4     	mov	x4, x28
   1aabc: aa1903ec     	mov	x12, x25
   1aac0: f85903ad     	ldur	x13, [x29, #-0x70]
   1aac4: f85c83a7     	ldur	x7, [x29, #-0x38]
   1aac8: aa1b03f1     	mov	x17, x27
   1aacc: f85a83be     	ldur	x30, [x29, #-0x58]
   1aad0: aa0003ee     	mov	x14, x0
   1aad4: f2cd57a9     	movk	x9, #0x6abd, lsl #32
   1aad8: 293b57b8     	stp	w24, w21, [x29, #-0x28]
   1aadc: f2f52bc9     	movk	x9, #0xa95e, lsl #48
   1aae0: f81d03b4     	stur	x20, [x29, #-0x30]
   1aae4: eb09001f     	cmp	x0, x9
   1aae8: 54fed9e1     	b.ne	0x18624 <.text+0x105b4>
   1aaec: 14000c2b     	b	0x1db98 <.text+0x15b28>
   1aaf0: d10383a8     	sub	x8, x29, #0xe0
   1aaf4: aa0903e0     	mov	x0, x9
   1aaf8: d2878089     	mov	x9, #0x3c04             // =15364
   1aafc: 293b57b8     	stp	w24, w21, [x29, #-0x28]
   1ab00: f2a00469     	movk	x9, #0x23, lsl #16
   1ab04: f81d03b4     	stur	x20, [x29, #-0x30]
   1ab08: f850010d     	ldur	x13, [x8, #-0x100]
   1ab0c: d2850168     	mov	x8, #0x280b             // =10251
   1ab10: f2b6cdc8     	movk	x8, #0xb66e, lsl #16
   1ab14: f2c43ac9     	movk	x9, #0x21d6, lsl #32
   1ab18: f2def2e8     	movk	x8, #0xf797, lsl #32
   1ab1c: f2e21ac9     	movk	x9, #0x10d6, lsl #48
   1ab20: f10001bf     	cmp	x13, #0x0
   1ab24: f2e9a928     	movk	x8, #0x4d49, lsl #48
   1ab28: 9a88012e     	csel	x14, x9, x8, eq
   1ab2c: d10a23a8     	sub	x8, x29, #0x288
   1ab30: d105a3a9     	sub	x9, x29, #0x168
   1ab34: aa1603ea     	mov	x10, x22
   1ab38: aa1703e2     	mov	x2, x23
   1ab3c: aa1a03eb     	mov	x11, x26
   1ab40: f810010d     	stur	x13, [x8, #-0x100]
   1ab44: d10583a8     	sub	x8, x29, #0x160
   1ab48: aa1303e3     	mov	x3, x19
   1ab4c: aa1c03e4     	mov	x4, x28
   1ab50: aa1903ec     	mov	x12, x25
   1ab54: f8500108     	ldur	x8, [x8, #-0x100]
   1ab58: f8100128     	stur	x8, [x9, #-0x100]
   1ab5c: d103a3a8     	sub	x8, x29, #0xe8
   1ab60: d105c3a9     	sub	x9, x29, #0x170
   1ab64: f8500108     	ldur	x8, [x8, #-0x100]
   1ab68: f8100128     	stur	x8, [x9, #-0x100]
   1ab6c: 14000527     	b	0x1c008 <.text+0x13f98>
   1ab70: f85603a0     	ldur	x0, [x29, #-0xa0]
   1ab74: 94047cb3     	bl	0x139e40 <strdup@plt>
   1ab78: d2953888     	mov	x8, #0xa9c4             // =43460
   1ab7c: d28833a9     	mov	x9, #0x419d             // =16797
   1ab80: f2a6b848     	movk	x8, #0x35c2, lsl #16
   1ab84: f2b6d669     	movk	x9, #0xb6b3, lsl #16
   1ab88: f2c246a8     	movk	x8, #0x1235, lsl #32
   1ab8c: f2ccf509     	movk	x9, #0x67a8, lsl #32
   1ab90: f100001f     	cmp	x0, #0x0
   1ab94: f2f20e88     	movk	x8, #0x9074, lsl #48
   1ab98: f2ff4e29     	movk	x9, #0xfa71, lsl #48
   1ab9c: f85a83be     	ldur	x30, [x29, #-0x58]
   1aba0: 9a89010e     	csel	x14, x8, x9, eq
   1aba4: d10103a9     	sub	x9, x29, #0x40
   1aba8: a97997a6     	ldp	x6, x5, [x29, #-0x68]
   1abac: 293b57b8     	stp	w24, w21, [x29, #-0x28]
   1abb0: aa1603ea     	mov	x10, x22
   1abb4: a978b7a1     	ldp	x1, x13, [x29, #-0x78]
   1abb8: f81d03b4     	stur	x20, [x29, #-0x30]
   1abbc: aa1703e2     	mov	x2, x23
   1abc0: a97c1fa8     	ldp	x8, x7, [x29, #-0x40]
   1abc4: aa1a03eb     	mov	x11, x26
   1abc8: aa1303e3     	mov	x3, x19
   1abcc: a97b43af     	ldp	x15, x16, [x29, #-0x50]
   1abd0: aa1c03e4     	mov	x4, x28
   1abd4: aa1903ec     	mov	x12, x25
   1abd8: f8500129     	ldur	x9, [x9, #-0x100]
   1abdc: aa1b03f1     	mov	x17, x27
   1abe0: f9000120     	str	x0, [x9]
   1abe4: 17fff690     	b	0x18624 <.text+0x105b4>
   1abe8: d10aa3a8     	sub	x8, x29, #0x2a8
   1abec: d100e3ab     	sub	x11, x29, #0x38
   1abf0: a97997a6     	ldp	x6, x5, [x29, #-0x68]
   1abf4: aa1603ea     	mov	x10, x22
   1abf8: aa1703e2     	mov	x2, x23
   1abfc: f8500108     	ldur	x8, [x8, #-0x100]
   1ac00: aa1303e3     	mov	x3, x19
   1ac04: f850016b     	ldur	x11, [x11, #-0x100]
   1ac08: aa1c03e4     	mov	x4, x28
   1ac0c: aa1903ec     	mov	x12, x25
   1ac10: f85903ad     	ldur	x13, [x29, #-0x70]
   1ac14: d1000509     	sub	x9, x8, #0x1
   1ac18: d100a3a8     	sub	x8, x29, #0x28
   1ac1c: 293b57b8     	stp	w24, w21, [x29, #-0x28]
   1ac20: f81d03b4     	stur	x20, [x29, #-0x30]
   1ac24: f8500108     	ldur	x8, [x8, #-0x100]
   1ac28: f81703a9     	stur	x9, [x29, #-0x90]
   1ac2c: 3869696e     	ldrb	w14, [x11, x9]
   1ac30: aa1a03eb     	mov	x11, x26
   1ac34: 38696908     	ldrb	w8, [x8, x9]
   1ac38: d289d469     	mov	x9, #0x4ea3             // =20131
   1ac3c: f2bc4629     	movk	x9, #0xe231, lsl #16
   1ac40: f2cc5149     	movk	x9, #0x628a, lsl #32
   1ac44: f2fe2a29     	movk	x9, #0xf151, lsl #48
   1ac48: 6b0e011f     	cmp	w8, w14
   1ac4c: d28d6d68     	mov	x8, #0x6b6b             // =27499
   1ac50: f2ad7028     	movk	x8, #0x6b81, lsl #16
   1ac54: f2c4a1c8     	movk	x8, #0x250e, lsl #32
   1ac58: f2f387e8     	movk	x8, #0x9c3f, lsl #48
   1ac5c: 14000419     	b	0x1bcc0 <.text+0x13c50>
   1ac60: f85683a8     	ldur	x8, [x29, #-0x98]
   1ac64: d2812fc9     	mov	x9, #0x97e              // =2430
   1ac68: f2bec789     	movk	x9, #0xf63c, lsl #16
   1ac6c: aa1603ea     	mov	x10, x22
   1ac70: f2decb69     	movk	x9, #0xf65b, lsl #32
   1ac74: aa1703e2     	mov	x2, x23
   1ac78: 39400108     	ldrb	w8, [x8]
   1ac7c: aa1a03eb     	mov	x11, x26
   1ac80: aa1303e3     	mov	x3, x19
   1ac84: f2eecac9     	movk	x9, #0x7656, lsl #48
   1ac88: 293b57b8     	stp	w24, w21, [x29, #-0x28]
   1ac8c: b815c3a8     	stur	w8, [x29, #-0xa4]
   1ac90: 7100011f     	cmp	w8, #0x0
   1ac94: d29efa68     	mov	x8, #0xf7d3             // =63443
   1ac98: f81d03b4     	stur	x20, [x29, #-0x30]
   1ac9c: f2a86b68     	movk	x8, #0x435b, lsl #16
   1aca0: f2ce3c68     	movk	x8, #0x71e3, lsl #32
   1aca4: f2f61768     	movk	x8, #0xb0bb, lsl #48
   1aca8: 14000106     	b	0x1b0c0 <.text+0x13050>
   1acac: b0000940     	adrp	x0, 0x143000
   1acb0: 91050000     	add	x0, x0, #0x140
   1acb4: 528013cb     	mov	w11, #0x9e              // =158
   1acb8: d296ec4e     	mov	x14, #0xb762            // =46946
   1acbc: a97997a6     	ldp	x6, x5, [x29, #-0x68]
   1acc0: f2b487ee     	movk	x14, #0xa43f, lsl #16
   1acc4: 293b57b8     	stp	w24, w21, [x29, #-0x28]
   1acc8: 39400008     	ldrb	w8, [x0]
   1accc: f2ddee8e     	movk	x14, #0xef74, lsl #32
   1acd0: 39400409     	ldrb	w9, [x0, #0x1]
   1acd4: f81d03b4     	stur	x20, [x29, #-0x30]
   1acd8: 3940080a     	ldrb	w10, [x0, #0x2]
   1acdc: aa1703e2     	mov	x2, x23
   1ace0: 4a0b0108     	eor	w8, w8, w11
   1ace4: f85a83be     	ldur	x30, [x29, #-0x58]
   1ace8: 4a0b0129     	eor	w9, w9, w11
   1acec: aa1303e3     	mov	x3, x19
   1acf0: 4a0b014a     	eor	w10, w10, w11
   1acf4: aa1c03e4     	mov	x4, x28
   1acf8: 39000008     	strb	w8, [x0]
   1acfc: 39400c08     	ldrb	w8, [x0, #0x3]
   1ad00: 39000409     	strb	w9, [x0, #0x1]
   1ad04: aa1903ec     	mov	x12, x25
   1ad08: a978b7a1     	ldp	x1, x13, [x29, #-0x78]
   1ad0c: 4a0b0109     	eor	w9, w8, w11
   1ad10: 3900080a     	strb	w10, [x0, #0x2]
   1ad14: a97c1fa8     	ldp	x8, x7, [x29, #-0x40]
   1ad18: aa1603ea     	mov	x10, x22
   1ad1c: aa1a03eb     	mov	x11, x26
   1ad20: a97b43af     	ldp	x15, x16, [x29, #-0x50]
   1ad24: 39000c09     	strb	w9, [x0, #0x3]
   1ad28: 52800029     	mov	w9, #0x1                // =1
   1ad2c: 90000960     	adrp	x0, 0x146000
   1ad30: aa1b03f1     	mov	x17, x27
   1ad34: f2f83fce     	movk	x14, #0xc1fe, lsl #48
   1ad38: 391b1c09     	strb	w9, [x0, #0x6c7]
   1ad3c: 17fff63a     	b	0x18624 <.text+0x105b4>
   1ad40: d100a3a8     	sub	x8, x29, #0x28
   1ad44: d10113a9     	sub	x9, x29, #0x44
   1ad48: 293b57b8     	stp	w24, w21, [x29, #-0x28]
   1ad4c: aa1603ea     	mov	x10, x22
   1ad50: f81d03b4     	stur	x20, [x29, #-0x30]
   1ad54: aa1703e2     	mov	x2, x23
   1ad58: f8500108     	ldur	x8, [x8, #-0x100]
   1ad5c: aa1a03eb     	mov	x11, x26
   1ad60: aa1303e3     	mov	x3, x19
   1ad64: 39400108     	ldrb	w8, [x8]
   1ad68: b8100128     	stur	w8, [x9, #-0x100]
   1ad6c: 7100011f     	cmp	w8, #0x0
   1ad70: d297ada8     	mov	x8, #0xbd6d             // =48493
   1ad74: d29d9fa9     	mov	x9, #0xecfd             // =60669
   1ad78: f2bcb4a8     	movk	x8, #0xe5a5, lsl #16
   1ad7c: f2a38089     	movk	x9, #0x1c04, lsl #16
   1ad80: f2d2e188     	movk	x8, #0x970c, lsl #32
   1ad84: f2d47069     	movk	x9, #0xa383, lsl #32
   1ad88: f2f0d128     	movk	x8, #0x8689, lsl #48
   1ad8c: f2f91ce9     	movk	x9, #0xc8e7, lsl #48
   1ad90: 140008d6     	b	0x1d0e8 <.text+0x15078>
   1ad94: d10743a9     	sub	x9, x29, #0x1d0
   1ad98: d280b14e     	mov	x14, #0x58a             // =1418
   1ad9c: a97997a6     	ldp	x6, x5, [x29, #-0x68]
   1ada0: f2b463ee     	movk	x14, #0xa31f, lsl #16
   1ada4: 293b57b8     	stp	w24, w21, [x29, #-0x28]
   1ada8: a978b7a1     	ldp	x1, x13, [x29, #-0x78]
   1adac: f2cd57ae     	movk	x14, #0x6abd, lsl #32
   1adb0: f81d03b4     	stur	x20, [x29, #-0x30]
   1adb4: a97c1fa8     	ldp	x8, x7, [x29, #-0x40]
   1adb8: aa1603ea     	mov	x10, x22
   1adbc: aa1703e2     	mov	x2, x23
   1adc0: a97b43af     	ldp	x15, x16, [x29, #-0x50]
   1adc4: aa1a03eb     	mov	x11, x26
   1adc8: aa1303e3     	mov	x3, x19
   1adcc: f8500120     	ldur	x0, [x9, #-0x100]
   1add0: 52800109     	mov	w9, #0x8                // =8
   1add4: f85a83be     	ldur	x30, [x29, #-0x58]
   1add8: aa1c03e4     	mov	x4, x28
   1addc: aa1903ec     	mov	x12, x25
   1ade0: aa1b03f1     	mov	x17, x27
   1ade4: f2f52bce     	movk	x14, #0xa95e, lsl #48
   1ade8: b9000009     	str	w9, [x0]
   1adec: 17fff60e     	b	0x18624 <.text+0x105b4>
   1adf0: a97997a6     	ldp	x6, x5, [x29, #-0x68]
   1adf4: d297e10e     	mov	x14, #0xbf08            // =48904
   1adf8: 293b57bf     	stp	wzr, w21, [x29, #-0x28]
   1adfc: a978b7a1     	ldp	x1, x13, [x29, #-0x78]
   1ae00: f2a98a6e     	movk	x14, #0x4c53, lsl #16
   1ae04: f81d03b4     	stur	x20, [x29, #-0x30]
   1ae08: a97c1fa8     	ldp	x8, x7, [x29, #-0x40]
   1ae0c: f2ddf66e     	movk	x14, #0xefb3, lsl #32
   1ae10: aa1603ea     	mov	x10, x22
   1ae14: a97b43af     	ldp	x15, x16, [x29, #-0x50]
   1ae18: aa1703e2     	mov	x2, x23
   1ae1c: aa1a03eb     	mov	x11, x26
   1ae20: f85a83be     	ldur	x30, [x29, #-0x58]
   1ae24: aa1303e3     	mov	x3, x19
   1ae28: aa1c03e4     	mov	x4, x28
   1ae2c: aa1903ec     	mov	x12, x25
   1ae30: f2e2efae     	movk	x14, #0x177d, lsl #48
   1ae34: 17fff5fc     	b	0x18624 <.text+0x105b4>
   1ae38: a97997a6     	ldp	x6, x5, [x29, #-0x68]
   1ae3c: d10803aa     	sub	x10, x29, #0x200
   1ae40: d29f592e     	mov	x14, #0xfac9            // =64201
   1ae44: a978b7a1     	ldp	x1, x13, [x29, #-0x78]
   1ae48: f2a3738e     	movk	x14, #0x1b9c, lsl #16
   1ae4c: b81dc3b5     	stur	w21, [x29, #-0x24]
   1ae50: a97b43af     	ldp	x15, x16, [x29, #-0x50]
   1ae54: f2c265ae     	movk	x14, #0x132d, lsl #32
   1ae58: b81d83b8     	stur	w24, [x29, #-0x28]
   1ae5c: f85603a8     	ldur	x8, [x29, #-0xa0]
   1ae60: f81d03b4     	stur	x20, [x29, #-0x30]
   1ae64: f85c83a7     	ldur	x7, [x29, #-0x38]
   1ae68: aa1703e2     	mov	x2, x23
   1ae6c: f85a83be     	ldur	x30, [x29, #-0x58]
   1ae70: aa1a03eb     	mov	x11, x26
   1ae74: f8100148     	stur	x8, [x10, #-0x100]
   1ae78: aa1603ea     	mov	x10, x22
   1ae7c: aa1303e3     	mov	x3, x19
   1ae80: aa1c03e4     	mov	x4, x28
   1ae84: aa1903ec     	mov	x12, x25
   1ae88: aa0903e8     	mov	x8, x9
   1ae8c: f2eca98e     	movk	x14, #0x654c, lsl #48
   1ae90: 17fff5e5     	b	0x18624 <.text+0x105b4>
   1ae94: b0000949     	adrp	x9, 0x143000
   1ae98: d294dbce     	mov	x14, #0xa6de            // =42718
   1ae9c: 4f03e7a1     	movi	v1.16b, #0x7d
   1aea0: f85a83be     	ldur	x30, [x29, #-0x58]
   1aea4: a97997a6     	ldp	x6, x5, [x29, #-0x68]
   1aea8: f2bb982e     	movk	x14, #0xdcc1, lsl #16
   1aeac: 293b57b8     	stp	w24, w21, [x29, #-0x28]
   1aeb0: a978b7a1     	ldp	x1, x13, [x29, #-0x78]
   1aeb4: f2c9000e     	movk	x14, #0x4800, lsl #32
   1aeb8: f81d03b4     	stur	x20, [x29, #-0x30]
   1aebc: a97c1fa8     	ldp	x8, x7, [x29, #-0x40]
   1aec0: aa1603ea     	mov	x10, x22
   1aec4: aa1703e2     	mov	x2, x23
   1aec8: a97b43af     	ldp	x15, x16, [x29, #-0x50]
   1aecc: aa1a03eb     	mov	x11, x26
   1aed0: aa1303e3     	mov	x3, x19
   1aed4: 3dc04120     	ldr	q0, [x9, #0x100]
   1aed8: aa1c03e4     	mov	x4, x28
   1aedc: aa1903ec     	mov	x12, x25
   1aee0: aa1b03f1     	mov	x17, x27
   1aee4: f2e6c04e     	movk	x14, #0x3602, lsl #48
   1aee8: 14000638     	b	0x1c7c8 <.text+0x14758>
   1aeec: 2a1f03e0     	mov	w0, wzr
   1aef0: 52800021     	mov	w1, #0x1                // =1
   1aef4: 90000962     	adrp	x2, 0x146000
   1aef8: 91112042     	add	x2, x2, #0x448
   1aefc: 94047a41     	bl	0x139800 <Java_com_adjust_sdk_sig_NativeLibHelper_nSign+0x6d1fc>
   1af00: d29aad28     	mov	x8, #0xd569             // =54633
   1af04: d2909469     	mov	x9, #0x84a3             // =33955
   1af08: f2a243e8     	movk	x8, #0x121f, lsl #16
   1af0c: f2a80d89     	movk	x9, #0x406c, lsl #16
   1af10: f2db37e8     	movk	x8, #0xd9bf, lsl #32
   1af14: f2d60da9     	movk	x9, #0xb06d, lsl #32
   1af18: f2f311c8     	movk	x8, #0x988e, lsl #48
   1af1c: f2e4ee69     	movk	x9, #0x2773, lsl #48
   1af20: 7100001f     	cmp	w0, #0x0
   1af24: 293b57b8     	stp	w24, w21, [x29, #-0x28]
   1af28: f81d03b4     	stur	x20, [x29, #-0x30]
   1af2c: 140004c8     	b	0x1c24c <.text+0x141dc>
   1af30: aa0903e1     	mov	x1, x9
   1af34: d10743a9     	sub	x9, x29, #0x1d0
   1af38: a97997a6     	ldp	x6, x5, [x29, #-0x68]
   1af3c: d298a2ce     	mov	x14, #0xc516            // =50454
   1af40: 293b57b8     	stp	w24, w21, [x29, #-0x28]
   1af44: a97c1fa8     	ldp	x8, x7, [x29, #-0x40]
   1af48: f2ab9dee     	movk	x14, #0x5cef, lsl #16
   1af4c: f81d03b4     	stur	x20, [x29, #-0x30]
   1af50: a97b43af     	ldp	x15, x16, [x29, #-0x50]
   1af54: f2d9984e     	movk	x14, #0xccc2, lsl #32
   1af58: aa1603ea     	mov	x10, x22
   1af5c: f8500120     	ldur	x0, [x9, #-0x100]
   1af60: 52800049     	mov	w9, #0x2                // =2
   1af64: f85903ad     	ldur	x13, [x29, #-0x70]
   1af68: aa1703e2     	mov	x2, x23
   1af6c: f85a83be     	ldur	x30, [x29, #-0x58]
   1af70: aa1a03eb     	mov	x11, x26
   1af74: aa1303e3     	mov	x3, x19
   1af78: aa1c03e4     	mov	x4, x28
   1af7c: aa1903ec     	mov	x12, x25
   1af80: f2fc960e     	movk	x14, #0xe4b0, lsl #48
   1af84: b9000009     	str	w9, [x0]
   1af88: 17fff5a7     	b	0x18624 <.text+0x105b4>
   1af8c: aa0803e0     	mov	x0, x8
   1af90: aa0103e9     	mov	x9, x1
   1af94: d100c3a8     	sub	x8, x29, #0x30
   1af98: f85a03a5     	ldur	x5, [x29, #-0x60]
   1af9c: b81dc3b5     	stur	w21, [x29, #-0x24]
   1afa0: aa1603ea     	mov	x10, x22
   1afa4: b81d83b8     	stur	w24, [x29, #-0x28]
   1afa8: aa1703e2     	mov	x2, x23
   1afac: f8100101     	stur	x1, [x8, #-0x100]
   1afb0: aa1a03eb     	mov	x11, x26
   1afb4: 38401528     	ldrb	w8, [x9], #0x1
   1afb8: f81683a9     	stur	x9, [x29, #-0x98]
   1afbc: d10113a9     	sub	x9, x29, #0x44
   1afc0: f81d03b4     	stur	x20, [x29, #-0x30]
   1afc4: aa1303e3     	mov	x3, x19
   1afc8: 7100011f     	cmp	w8, #0x0
   1afcc: aa1c03e4     	mov	x4, x28
   1afd0: b850012c     	ldur	w12, [x9, #-0x100]
   1afd4: 1a9f17ed     	cset	w13, eq
   1afd8: d109f3a9     	sub	x9, x29, #0x27c
   1afdc: 6b0c011f     	cmp	w8, w12
   1afe0: aa1903ec     	mov	x12, x25
   1afe4: 1a9f17e8     	cset	w8, eq
   1afe8: b8100128     	stur	w8, [x9, #-0x100]
   1afec: 1a9f15a8     	csinc	w8, w13, wzr, ne
   1aff0: 7100011f     	cmp	w8, #0x0
   1aff4: d28f55a8     	mov	x8, #0x7aad             // =31405
   1aff8: d29632c9     	mov	x9, #0xb196             // =45462
   1affc: f2b35908     	movk	x8, #0x9ac8, lsl #16
   1b000: f2b747c9     	movk	x9, #0xba3e, lsl #16
   1b004: f85903ad     	ldur	x13, [x29, #-0x70]
   1b008: f2cde1e8     	movk	x8, #0x6f0f, lsl #32
   1b00c: f2ceb849     	movk	x9, #0x75c2, lsl #32
   1b010: f2f4eb48     	movk	x8, #0xa75a, lsl #48
   1b014: f2e53a09     	movk	x9, #0x29d0, lsl #48
   1b018: 9a88112e     	csel	x14, x9, x8, ne
   1b01c: 140003fd     	b	0x1c010 <.text+0x13fa0>
   1b020: d10303a8     	sub	x8, x29, #0xc0
   1b024: d10563a9     	sub	x9, x29, #0x158
   1b028: a97997a6     	ldp	x6, x5, [x29, #-0x68]
   1b02c: aa1603ea     	mov	x10, x22
   1b030: aa1703e2     	mov	x2, x23
   1b034: a97b43af     	ldp	x15, x16, [x29, #-0x50]
   1b038: f810011f     	stur	xzr, [x8, #-0x100]
   1b03c: 92800008     	mov	x8, #-0x1               // =-1
   1b040: aa1a03eb     	mov	x11, x26
   1b044: aa1303e3     	mov	x3, x19
   1b048: aa1c03e4     	mov	x4, x28
   1b04c: aa1903ec     	mov	x12, x25
   1b050: f85903ad     	ldur	x13, [x29, #-0x70]
   1b054: aa1b03f1     	mov	x17, x27
   1b058: f85c83a7     	ldur	x7, [x29, #-0x38]
   1b05c: f8100128     	stur	x8, [x9, #-0x100]
   1b060: f85a83be     	ldur	x30, [x29, #-0x58]
   1b064: 293b57b8     	stp	w24, w21, [x29, #-0x28]
   1b068: f81d03b4     	stur	x20, [x29, #-0x30]
   1b06c: 1400024e     	b	0x1b9a4 <.text+0x13934>
   1b070: d100a3a8     	sub	x8, x29, #0x28
   1b074: d101d3a9     	sub	x9, x29, #0x74
   1b078: 293b57b8     	stp	w24, w21, [x29, #-0x28]
   1b07c: aa1603ea     	mov	x10, x22
   1b080: f81d03b4     	stur	x20, [x29, #-0x30]
   1b084: aa1703e2     	mov	x2, x23
   1b088: f8500108     	ldur	x8, [x8, #-0x100]
   1b08c: aa1a03eb     	mov	x11, x26
   1b090: aa1303e3     	mov	x3, x19
   1b094: 39400508     	ldrb	w8, [x8, #0x1]
   1b098: b8100128     	stur	w8, [x9, #-0x100]
   1b09c: 7100011f     	cmp	w8, #0x0
   1b0a0: d281be68     	mov	x8, #0xdf3              // =3571
   1b0a4: d29d9009     	mov	x9, #0xec80             // =60544
   1b0a8: f2a8e9c8     	movk	x8, #0x474e, lsl #16
   1b0ac: f2a4be29     	movk	x9, #0x25f1, lsl #16
   1b0b0: f2ccdbc8     	movk	x8, #0x66de, lsl #32
   1b0b4: f2ca1789     	movk	x9, #0x50bc, lsl #32
   1b0b8: f2fceb08     	movk	x8, #0xe758, lsl #48
   1b0bc: f2e97749     	movk	x9, #0x4bba, lsl #48
   1b0c0: 9a88012e     	csel	x14, x9, x8, eq
   1b0c4: 1400098a     	b	0x1d6ec <.text+0x1567c>
   1b0c8: 52800020     	mov	w0, #0x1                // =1
   1b0cc: 52800201     	mov	w1, #0x10               // =16
   1b0d0: aa1103fb     	mov	x27, x17
   1b0d4: 94047b5f     	bl	0x139e50 <calloc@plt>
   1b0d8: d10103a8     	sub	x8, x29, #0x40
   1b0dc: d280ac49     	mov	x9, #0x562              // =1378
   1b0e0: f2b3d3a9     	movk	x9, #0x9e9d, lsl #16
   1b0e4: 293b57b8     	stp	w24, w21, [x29, #-0x28]
   1b0e8: f2c64549     	movk	x9, #0x322a, lsl #32
   1b0ec: f100001f     	cmp	x0, #0x0
   1b0f0: f8100100     	stur	x0, [x8, #-0x100]
   1b0f4: d2885528     	mov	x8, #0x42a9             // =17065
   1b0f8: f2aa5c68     	movk	x8, #0x52e3, lsl #16
   1b0fc: f81d03b4     	stur	x20, [x29, #-0x30]
   1b100: f2d737c8     	movk	x8, #0xb9be, lsl #32
   1b104: f2e1dae9     	movk	x9, #0xed7, lsl #48
   1b108: f2f52208     	movk	x8, #0xa910, lsl #48
   1b10c: 14000882     	b	0x1d314 <.text+0x152a4>
   1b110: d101c3a9     	sub	x9, x29, #0x70
   1b114: d100e3a8     	sub	x8, x29, #0x38
   1b118: 293b57b8     	stp	w24, w21, [x29, #-0x28]
   1b11c: aa1603ea     	mov	x10, x22
   1b120: f81d03b4     	stur	x20, [x29, #-0x30]
   1b124: aa1703e2     	mov	x2, x23
   1b128: f8500129     	ldur	x9, [x9, #-0x100]
   1b12c: aa1a03eb     	mov	x11, x26
   1b130: f8500108     	ldur	x8, [x8, #-0x100]
   1b134: aa1303e3     	mov	x3, x19
   1b138: aa1c03e4     	mov	x4, x28
   1b13c: 38696908     	ldrb	w8, [x8, x9]
   1b140: d10753a9     	sub	x9, x29, #0x1d4
   1b144: b850012c     	ldur	w12, [x9, #-0x100]
   1b148: d28f0189     	mov	x9, #0x780c             // =30732
   1b14c: f2bfb3e9     	movk	x9, #0xfd9f, lsl #16
   1b150: f2c22609     	movk	x9, #0x1130, lsl #32
   1b154: 6b08019f     	cmp	w12, w8
   1b158: d2815868     	mov	x8, #0xac3              // =2755
   1b15c: f2a46528     	movk	x8, #0x2329, lsl #16
   1b160: f2ffbfa9     	movk	x9, #0xfdfd, lsl #48
   1b164: f2d28888     	movk	x8, #0x9444, lsl #32
   1b168: aa1903ec     	mov	x12, x25
   1b16c: f2fc4f48     	movk	x8, #0xe27a, lsl #48
   1b170: 9a89010e     	csel	x14, x8, x9, eq
   1b174: 140009be     	b	0x1d86c <.text+0x157fc>
   1b178: d10063a8     	sub	x8, x29, #0x18
   1b17c: d104c3a9     	sub	x9, x29, #0x130
   1b180: 293b57b8     	stp	w24, w21, [x29, #-0x28]
   1b184: f8500108     	ldur	x8, [x8, #-0x100]
   1b188: f8500129     	ldur	x9, [x9, #-0x100]
   1b18c: eb09011f     	cmp	x8, x9
   1b190: d28879a8     	mov	x8, #0x43cd             // =17357
   1b194: d2966469     	mov	x9, #0xb323             // =45859
   1b198: f2a3cee8     	movk	x8, #0x1e77, lsl #16
   1b19c: f2b8c1c9     	movk	x9, #0xc60e, lsl #16
   1b1a0: f2de5a28     	movk	x8, #0xf2d1, lsl #32
   1b1a4: f2ddf069     	movk	x9, #0xef83, lsl #32
   1b1a8: f2fb35e8     	movk	x8, #0xd9af, lsl #48
   1b1ac: f2e88369     	movk	x9, #0x441b, lsl #48
   1b1b0: 9a88012e     	csel	x14, x9, x8, eq
   1b1b4: 14000949     	b	0x1d6d8 <.text+0x15668>
   1b1b8: f0000948     	adrp	x8, 0x146000
   1b1bc: d2862ca9     	mov	x9, #0x3165             // =12645
   1b1c0: f2bba7e9     	movk	x9, #0xdd3f, lsl #16
   1b1c4: 293b57b8     	stp	w24, w21, [x29, #-0x28]
   1b1c8: f2c41209     	movk	x9, #0x2090, lsl #32
   1b1cc: f81d03b4     	stur	x20, [x29, #-0x30]
   1b1d0: 395b0d08     	ldrb	w8, [x8, #0x6c3]
   1b1d4: aa1603ea     	mov	x10, x22
   1b1d8: aa1703e2     	mov	x2, x23
   1b1dc: aa1a03eb     	mov	x11, x26
   1b1e0: aa1303e3     	mov	x3, x19
   1b1e4: f2f5e0a9     	movk	x9, #0xaf05, lsl #48
   1b1e8: 7100011f     	cmp	w8, #0x0
   1b1ec: d2958ce8     	mov	x8, #0xac67             // =44135
   1b1f0: f2aa0dc8     	movk	x8, #0x506e, lsl #16
   1b1f4: f2dc59e8     	movk	x8, #0xe2cf, lsl #32
   1b1f8: f2e05048     	movk	x8, #0x282, lsl #48
   1b1fc: 140009e5     	b	0x1d990 <.text+0x15920>
   1b200: d104a3a8     	sub	x8, x29, #0x128
   1b204: d10323aa     	sub	x10, x29, #0xc8
   1b208: a97997a6     	ldp	x6, x5, [x29, #-0x68]
   1b20c: 293b57b8     	stp	w24, w21, [x29, #-0x28]
   1b210: aa1703e2     	mov	x2, x23
   1b214: f8500109     	ldur	x9, [x8, #-0x100]
   1b218: f81d03b4     	stur	x20, [x29, #-0x30]
   1b21c: a97b43af     	ldp	x15, x16, [x29, #-0x50]
   1b220: aa1a03eb     	mov	x11, x26
   1b224: aa1303e3     	mov	x3, x19
   1b228: 91000528     	add	x8, x9, #0x1
   1b22c: f85903ad     	ldur	x13, [x29, #-0x70]
   1b230: f85c83a7     	ldur	x7, [x29, #-0x38]
   1b234: aa1c03e4     	mov	x4, x28
   1b238: f85a83be     	ldur	x30, [x29, #-0x58]
   1b23c: aa1903ec     	mov	x12, x25
   1b240: f8100148     	stur	x8, [x10, #-0x100]
   1b244: d10603a8     	sub	x8, x29, #0x180
   1b248: aa1603ea     	mov	x10, x22
   1b24c: f8100109     	stur	x9, [x8, #-0x100]
   1b250: 140009a2     	b	0x1d8d8 <.text+0x15868>
   1b254: d10283a8     	sub	x8, x29, #0xa0
   1b258: f8500100     	ldur	x0, [x8, #-0x100]
   1b25c: 94047b01     	bl	0x139e60 <fclose@plt>
   1b260: a97997a6     	ldp	x6, x5, [x29, #-0x68]
   1b264: d280b14e     	mov	x14, #0x58a             // =1418
   1b268: 293b57b8     	stp	w24, w21, [x29, #-0x28]
   1b26c: a978b7a1     	ldp	x1, x13, [x29, #-0x78]
   1b270: f2b463ee     	movk	x14, #0xa31f, lsl #16
   1b274: f81d03b4     	stur	x20, [x29, #-0x30]
   1b278: a97c1fa8     	ldp	x8, x7, [x29, #-0x40]
   1b27c: f2cd57ae     	movk	x14, #0x6abd, lsl #32
   1b280: aa1603ea     	mov	x10, x22
   1b284: a97b43af     	ldp	x15, x16, [x29, #-0x50]
   1b288: aa1703e2     	mov	x2, x23
   1b28c: aa1a03eb     	mov	x11, x26
   1b290: f85a83be     	ldur	x30, [x29, #-0x58]
   1b294: aa1303e3     	mov	x3, x19
   1b298: aa1c03e4     	mov	x4, x28
   1b29c: aa1903ec     	mov	x12, x25
   1b2a0: aa1b03f1     	mov	x17, x27
   1b2a4: f2f52bce     	movk	x14, #0xa95e, lsl #48
   1b2a8: 17fff4df     	b	0x18624 <.text+0x105b4>
   1b2ac: 2a1f03e0     	mov	w0, wzr
   1b2b0: 52800021     	mov	w1, #0x1                // =1
   1b2b4: f0000942     	adrp	x2, 0x146000
   1b2b8: 91112042     	add	x2, x2, #0x448
   1b2bc: 94047951     	bl	0x139800 <Java_com_adjust_sdk_sig_NativeLibHelper_nSign+0x6d1fc>
   1b2c0: d281ee68     	mov	x8, #0xf73              // =3955
   1b2c4: d2931789     	mov	x9, #0x98bc             // =39100
   1b2c8: f2bcf908     	movk	x8, #0xe7c8, lsl #16
   1b2cc: f2b5c8e9     	movk	x9, #0xae47, lsl #16
   1b2d0: f2d81a68     	movk	x8, #0xc0d3, lsl #32
   1b2d4: f2ca7c09     	movk	x9, #0x53e0, lsl #32
   1b2d8: 293b57b8     	stp	w24, w21, [x29, #-0x28]
   1b2dc: 7100001f     	cmp	w0, #0x0
   1b2e0: f81d03b4     	stur	x20, [x29, #-0x30]
   1b2e4: f2f49f08     	movk	x8, #0xa4f8, lsl #48
   1b2e8: f2ea06e9     	movk	x9, #0x5037, lsl #48
   1b2ec: 140003d8     	b	0x1c24c <.text+0x141dc>
   1b2f0: d10963a8     	sub	x8, x29, #0x258
   1b2f4: d10083a9     	sub	x9, x29, #0x20
   1b2f8: aa1f03e2     	mov	x2, xzr
   1b2fc: b81dc3b5     	stur	w21, [x29, #-0x24]
   1b300: b81d83b8     	stur	w24, [x29, #-0x28]
   1b304: f8500108     	ldur	x8, [x8, #-0x100]
   1b308: f8500129     	ldur	x9, [x9, #-0x100]
   1b30c: cb080128     	sub	x8, x9, x8
   1b310: d101a3a9     	sub	x9, x29, #0x68
   1b314: f8500129     	ldur	x9, [x9, #-0x100]
   1b318: eb09011f     	cmp	x8, x9
   1b31c: 9a89810b     	csel	x11, x8, x9, hi
   1b320: 14000008     	b	0x1b340 <.text+0x132d0>
   1b324: d10363a8     	sub	x8, x29, #0xd8
   1b328: d101c3a9     	sub	x9, x29, #0x70
   1b32c: aa1f03e2     	mov	x2, xzr
   1b330: 293b57b8     	stp	w24, w21, [x29, #-0x28]
   1b334: f8500108     	ldur	x8, [x8, #-0x100]
   1b338: f8500129     	ldur	x9, [x9, #-0x100]
   1b33c: cb08012b     	sub	x11, x9, x8
   1b340: a97997a6     	ldp	x6, x5, [x29, #-0x68]
   1b344: aa1603ea     	mov	x10, x22
   1b348: aa1303e3     	mov	x3, x19
   1b34c: a97b43af     	ldp	x15, x16, [x29, #-0x50]
   1b350: aa1c03e4     	mov	x4, x28
   1b354: aa1903ec     	mov	x12, x25
   1b358: f85903ad     	ldur	x13, [x29, #-0x70]
   1b35c: f81d03b4     	stur	x20, [x29, #-0x30]
   1b360: f85c83a7     	ldur	x7, [x29, #-0x38]
   1b364: f85a83be     	ldur	x30, [x29, #-0x58]
   1b368: 14000972     	b	0x1d930 <.text+0x158c0>
   1b36c: a97997a6     	ldp	x6, x5, [x29, #-0x68]
   1b370: d28f858e     	mov	x14, #0x7c2c            // =31788
   1b374: f0000949     	adrp	x9, 0x146000
   1b378: 91114129     	add	x9, x9, #0x450
   1b37c: f85a83be     	ldur	x30, [x29, #-0x58]
   1b380: a978b7a1     	ldp	x1, x13, [x29, #-0x78]
   1b384: f2bf07ae     	movk	x14, #0xf83d, lsl #16
   1b388: 293b57b8     	stp	w24, w21, [x29, #-0x28]
   1b38c: a97c1fa8     	ldp	x8, x7, [x29, #-0x40]
   1b390: f2c4cc0e     	movk	x14, #0x2660, lsl #32
   1b394: f81d03b4     	stur	x20, [x29, #-0x30]
   1b398: a97b43af     	ldp	x15, x16, [x29, #-0x50]
   1b39c: aa1603ea     	mov	x10, x22
   1b3a0: aa1703e2     	mov	x2, x23
   1b3a4: aa1a03eb     	mov	x11, x26
   1b3a8: aa1303e3     	mov	x3, x19
   1b3ac: aa1c03e4     	mov	x4, x28
   1b3b0: aa1903ec     	mov	x12, x25
   1b3b4: aa1b03f1     	mov	x17, x27
   1b3b8: f2eb3d0e     	movk	x14, #0x59e8, lsl #48
   1b3bc: 089ffd3f     	stlrb	wzr, [x9]
   1b3c0: 17fff499     	b	0x18624 <.text+0x105b4>
   1b3c4: d106a3a8     	sub	x8, x29, #0x1a8
   1b3c8: d103e3ab     	sub	x11, x29, #0xf8
   1b3cc: 293b57b8     	stp	w24, w21, [x29, #-0x28]
   1b3d0: aa1603ea     	mov	x10, x22
   1b3d4: f81d03b4     	stur	x20, [x29, #-0x30]
   1b3d8: f8500109     	ldur	x9, [x8, #-0x100]
   1b3dc: 38401d28     	ldrb	w8, [x9, #0x1]!
   1b3e0: f8100169     	stur	x9, [x11, #-0x100]
   1b3e4: d10213a9     	sub	x9, x29, #0x84
   1b3e8: b8100128     	stur	w8, [x9, #-0x100]
   1b3ec: 140000ee     	b	0x1b7a4 <.text+0x13734>
   1b3f0: d10503a8     	sub	x8, x29, #0x140
   1b3f4: d10083a9     	sub	x9, x29, #0x20
   1b3f8: a97997a6     	ldp	x6, x5, [x29, #-0x68]
   1b3fc: 293b57b8     	stp	w24, w21, [x29, #-0x28]
   1b400: aa1603ea     	mov	x10, x22
   1b404: f850010f     	ldur	x15, [x8, #-0x100]
   1b408: d10643a8     	sub	x8, x29, #0x190
   1b40c: f8500129     	ldur	x9, [x9, #-0x100]
   1b410: f81d03b4     	stur	x20, [x29, #-0x30]
   1b414: f85903ad     	ldur	x13, [x29, #-0x70]
   1b418: aa1703e2     	mov	x2, x23
   1b41c: f8500110     	ldur	x16, [x8, #-0x100]
   1b420: aa1a03eb     	mov	x11, x26
   1b424: aa1303e3     	mov	x3, x19
   1b428: aa1c03e4     	mov	x4, x28
   1b42c: aa1903ec     	mov	x12, x25
   1b430: cb0f0208     	sub	x8, x16, x15
   1b434: f81803b0     	stur	x16, [x29, #-0x80]
   1b438: eb09011f     	cmp	x8, x9
   1b43c: d28109e8     	mov	x8, #0x84f              // =2127
   1b440: d29936c9     	mov	x9, #0xc9b6             // =51638
   1b444: f2ae3888     	movk	x8, #0x71c4, lsl #16
   1b448: f2ae6989     	movk	x9, #0x734c, lsl #16
   1b44c: f2c1ef28     	movk	x8, #0xf79, lsl #32
   1b450: f2d893e9     	movk	x9, #0xc49f, lsl #32
   1b454: f2f2e8a8     	movk	x8, #0x9745, lsl #48
   1b458: f2f55509     	movk	x9, #0xaaa8, lsl #48
   1b45c: 9a89b10e     	csel	x14, x8, x9, lt
   1b460: d104e3a8     	sub	x8, x29, #0x138
   1b464: d101a3a9     	sub	x9, x29, #0x68
   1b468: f8500108     	ldur	x8, [x8, #-0x100]
   1b46c: f8100128     	stur	x8, [x9, #-0x100]
   1b470: d100e3a8     	sub	x8, x29, #0x38
   1b474: f810010f     	stur	x15, [x8, #-0x100]
   1b478: d10a63a8     	sub	x8, x29, #0x298
   1b47c: f810010f     	stur	x15, [x8, #-0x100]
   1b480: 140008a0     	b	0x1d700 <.text+0x15690>
   1b484: 90000949     	adrp	x9, 0x143000
   1b488: 91044129     	add	x9, x9, #0x110
   1b48c: 5280072d     	mov	w13, #0x39              // =57
   1b490: d29b1aae     	mov	x14, #0xd8d5            // =55509
   1b494: a97997a6     	ldp	x6, x5, [x29, #-0x68]
   1b498: f2bcb3ae     	movk	x14, #0xe59d, lsl #16
   1b49c: 293b57b8     	stp	w24, w21, [x29, #-0x28]
   1b4a0: 39400128     	ldrb	w8, [x9]
   1b4a4: f2d069ee     	movk	x14, #0x834f, lsl #32
   1b4a8: 3940052c     	ldrb	w12, [x9, #0x1]
   1b4ac: f81d03b4     	stur	x20, [x29, #-0x30]
   1b4b0: a97b43af     	ldp	x15, x16, [x29, #-0x50]
   1b4b4: 4a0d0108     	eor	w8, w8, w13
   1b4b8: aa1603ea     	mov	x10, x22
   1b4bc: 4a0d0180     	eor	w0, w12, w13
   1b4c0: f85a83be     	ldur	x30, [x29, #-0x58]
   1b4c4: a978b7a1     	ldp	x1, x13, [x29, #-0x78]
   1b4c8: 39000128     	strb	w8, [x9]
   1b4cc: aa1703e2     	mov	x2, x23
   1b4d0: a97c1fa8     	ldp	x8, x7, [x29, #-0x40]
   1b4d4: 39000520     	strb	w0, [x9, #0x1]
   1b4d8: 52800029     	mov	w9, #0x1                // =1
   1b4dc: f0000940     	adrp	x0, 0x146000
   1b4e0: aa1a03eb     	mov	x11, x26
   1b4e4: aa1303e3     	mov	x3, x19
   1b4e8: aa1c03e4     	mov	x4, x28
   1b4ec: aa1903ec     	mov	x12, x25
   1b4f0: f2fa058e     	movk	x14, #0xd02c, lsl #48
   1b4f4: 391b1409     	strb	w9, [x0, #0x6c5]
   1b4f8: 17fff44b     	b	0x18624 <.text+0x105b4>
   1b4fc: d104a3a8     	sub	x8, x29, #0x128
   1b500: d10663a9     	sub	x9, x29, #0x198
   1b504: 293b57b8     	stp	w24, w21, [x29, #-0x28]
   1b508: aa1603ea     	mov	x10, x22
   1b50c: f81d03b4     	stur	x20, [x29, #-0x30]
   1b510: aa1703e2     	mov	x2, x23
   1b514: f8500108     	ldur	x8, [x8, #-0x100]
   1b518: aa1a03eb     	mov	x11, x26
   1b51c: f850012c     	ldur	x12, [x9, #-0x100]
   1b520: d10083a9     	sub	x9, x29, #0x20
   1b524: aa1303e3     	mov	x3, x19
   1b528: aa1c03e4     	mov	x4, x28
   1b52c: 8b080188     	add	x8, x12, x8
   1b530: f8500129     	ldur	x9, [x9, #-0x100]
   1b534: f81203a8     	stur	x8, [x29, #-0xe0]
   1b538: eb09011f     	cmp	x8, x9
   1b53c: d289f6c8     	mov	x8, #0x4fb6             // =20406
   1b540: d29f5dc9     	mov	x9, #0xfaee             // =64238
   1b544: f2a2a188     	movk	x8, #0x150c, lsl #16
   1b548: f2bbcb29     	movk	x9, #0xde59, lsl #16
   1b54c: f2cc7d08     	movk	x8, #0x63e8, lsl #32
   1b550: f2cb97a9     	movk	x9, #0x5cbd, lsl #32
   1b554: f2e3cf28     	movk	x8, #0x1e79, lsl #48
   1b558: f2e4d589     	movk	x9, #0x26ac, lsl #48
   1b55c: 9a88312e     	csel	x14, x9, x8, lo
   1b560: d10063a8     	sub	x8, x29, #0x18
   1b564: f810010c     	stur	x12, [x8, #-0x100]
   1b568: 140008c0     	b	0x1d868 <.text+0x157f8>
   1b56c: d10943a9     	sub	x9, x29, #0x250
   1b570: d102a3a8     	sub	x8, x29, #0xa8
   1b574: 293b57b8     	stp	w24, w21, [x29, #-0x28]
   1b578: aa1603ea     	mov	x10, x22
   1b57c: f81d03b4     	stur	x20, [x29, #-0x30]
   1b580: aa1703e2     	mov	x2, x23
   1b584: f8500129     	ldur	x9, [x9, #-0x100]
   1b588: aa1a03eb     	mov	x11, x26
   1b58c: f8500108     	ldur	x8, [x8, #-0x100]
   1b590: aa1303e3     	mov	x3, x19
   1b594: aa1c03e4     	mov	x4, x28
   1b598: aa1903ec     	mov	x12, x25
   1b59c: f8697908     	ldr	x8, [x8, x9, lsl #3]
   1b5a0: d10963a9     	sub	x9, x29, #0x258
   1b5a4: f8100128     	stur	x8, [x9, #-0x100]
   1b5a8: d10083a9     	sub	x9, x29, #0x20
   1b5ac: f8500129     	ldur	x9, [x9, #-0x100]
   1b5b0: eb08013f     	cmp	x9, x8
   1b5b4: d285d6e8     	mov	x8, #0x2eb7             // =11959
   1b5b8: d29e4529     	mov	x9, #0xf229             // =61993
   1b5bc: f2bb57c8     	movk	x8, #0xdabe, lsl #16
   1b5c0: f2ab3e09     	movk	x9, #0x59f0, lsl #16
   1b5c4: f2d8dbc8     	movk	x8, #0xc6de, lsl #32
   1b5c8: f2d39389     	movk	x9, #0x9c9c, lsl #32
   1b5cc: f2fff088     	movk	x8, #0xff84, lsl #48
   1b5d0: f2edff29     	movk	x9, #0x6ff9, lsl #48
   1b5d4: 9a88012e     	csel	x14, x9, x8, eq
   1b5d8: 14000847     	b	0x1d6f4 <.text+0x15684>
   1b5dc: 2a1f03e0     	mov	w0, wzr
   1b5e0: 52800021     	mov	w1, #0x1                // =1
   1b5e4: f0000942     	adrp	x2, 0x146000
   1b5e8: 91115042     	add	x2, x2, #0x454
   1b5ec: aa1103fb     	mov	x27, x17
   1b5f0: 94047884     	bl	0x139800 <Java_com_adjust_sdk_sig_NativeLibHelper_nSign+0x6d1fc>
   1b5f4: d2801b88     	mov	x8, #0xdc               // =220
   1b5f8: d298f3a9     	mov	x9, #0xc79d             // =51101
   1b5fc: f2b5c828     	movk	x8, #0xae41, lsl #16
   1b600: f2a27dc9     	movk	x9, #0x13ee, lsl #16
   1b604: f2d949c8     	movk	x8, #0xca4e, lsl #32
   1b608: f2cab549     	movk	x9, #0x55aa, lsl #32
   1b60c: 293b57b8     	stp	w24, w21, [x29, #-0x28]
   1b610: 7100001f     	cmp	w0, #0x0
   1b614: f81d03b4     	stur	x20, [x29, #-0x30]
   1b618: f2e24148     	movk	x8, #0x120a, lsl #48
   1b61c: f2ede5a9     	movk	x9, #0x6f2d, lsl #48
   1b620: 1400030b     	b	0x1c24c <.text+0x141dc>
   1b624: 2a1f03e0     	mov	w0, wzr
   1b628: 52800021     	mov	w1, #0x1                // =1
   1b62c: f0000942     	adrp	x2, 0x146000
   1b630: 91114042     	add	x2, x2, #0x450
   1b634: 94047873     	bl	0x139800 <Java_com_adjust_sdk_sig_NativeLibHelper_nSign+0x6d1fc>
   1b638: d281c188     	mov	x8, #0xe0c              // =3596
   1b63c: d2941e49     	mov	x9, #0xa0f2             // =41202
   1b640: f2ba2508     	movk	x8, #0xd128, lsl #16
   1b644: f2a3b4c9     	movk	x9, #0x1da6, lsl #16
   1b648: f2cb4b48     	movk	x8, #0x5a5a, lsl #32
   1b64c: f2ce07a9     	movk	x9, #0x703d, lsl #32
   1b650: f2f2df68     	movk	x8, #0x96fb, lsl #48
   1b654: f2e21ca9     	movk	x9, #0x10e5, lsl #48
   1b658: 7100001f     	cmp	w0, #0x0
   1b65c: 293b57b8     	stp	w24, w21, [x29, #-0x28]
   1b660: f81d03b4     	stur	x20, [x29, #-0x30]
   1b664: 1400072c     	b	0x1d314 <.text+0x152a4>
   1b668: f0000948     	adrp	x8, 0x146000
   1b66c: d2946a49     	mov	x9, #0xa352             // =41810
   1b670: f2b63ec9     	movk	x9, #0xb1f6, lsl #16
   1b674: 293b57b8     	stp	w24, w21, [x29, #-0x28]
   1b678: f2d1b929     	movk	x9, #0x8dc9, lsl #32
   1b67c: f81d03b4     	stur	x20, [x29, #-0x30]
   1b680: 395b1908     	ldrb	w8, [x8, #0x6c6]
   1b684: f2e4a769     	movk	x9, #0x253b, lsl #48
   1b688: aa1603ea     	mov	x10, x22
   1b68c: aa1703e2     	mov	x2, x23
   1b690: aa1a03eb     	mov	x11, x26
   1b694: aa1303e3     	mov	x3, x19
   1b698: 7100011f     	cmp	w8, #0x0
   1b69c: d2813948     	mov	x8, #0x9ca              // =2506
   1b6a0: f2ad0a28     	movk	x8, #0x6851, lsl #16
   1b6a4: f2d128c8     	movk	x8, #0x8946, lsl #32
   1b6a8: f2f705e8     	movk	x8, #0xb82f, lsl #48
   1b6ac: 9a89110e     	csel	x14, x8, x9, ne
   1b6b0: 1400086d     	b	0x1d864 <.text+0x157f4>
   1b6b4: d100a3a8     	sub	x8, x29, #0x28
   1b6b8: d10833a9     	sub	x9, x29, #0x20c
   1b6bc: 293b57b8     	stp	w24, w21, [x29, #-0x28]
   1b6c0: aa1603ea     	mov	x10, x22
   1b6c4: f81d03b4     	stur	x20, [x29, #-0x30]
   1b6c8: aa1703e2     	mov	x2, x23
   1b6cc: f8500108     	ldur	x8, [x8, #-0x100]
   1b6d0: aa1a03eb     	mov	x11, x26
   1b6d4: aa1303e3     	mov	x3, x19
   1b6d8: 39400d08     	ldrb	w8, [x8, #0x3]
   1b6dc: b8100128     	stur	w8, [x9, #-0x100]
   1b6e0: 7100011f     	cmp	w8, #0x0
   1b6e4: d293dc68     	mov	x8, #0x9ee3             // =40675
   1b6e8: d29d1f89     	mov	x9, #0xe8fc             // =59644
   1b6ec: f2bf0368     	movk	x8, #0xf81b, lsl #16
   1b6f0: f2b21949     	movk	x9, #0x90ca, lsl #16
   1b6f4: f2d7dfa8     	movk	x8, #0xbefd, lsl #32
   1b6f8: f2dbbe89     	movk	x9, #0xddf4, lsl #32
   1b6fc: f2e37a48     	movk	x8, #0x1bd2, lsl #48
   1b700: f2e674a9     	movk	x9, #0x33a5, lsl #48
   1b704: 14000857     	b	0x1d860 <.text+0x157f0>
   1b708: d10423a8     	sub	x8, x29, #0x108
   1b70c: d10253a9     	sub	x9, x29, #0x94
   1b710: a97997a6     	ldp	x6, x5, [x29, #-0x68]
   1b714: 6f00e400     	movi	v0.2d, #0000000000000000
   1b718: d2845ece     	mov	x14, #0x22f6            // =8950
   1b71c: f810011f     	stur	xzr, [x8, #-0x100]
   1b720: d10113a8     	sub	x8, x29, #0x44
   1b724: a97b43af     	ldp	x15, x16, [x29, #-0x50]
   1b728: f2b1aeee     	movk	x14, #0x8d77, lsl #16
   1b72c: 293b57b8     	stp	w24, w21, [x29, #-0x28]
   1b730: b8500108     	ldur	w8, [x8, #-0x100]
   1b734: f2cbe7ae     	movk	x14, #0x5f3d, lsl #32
   1b738: f85903ad     	ldur	x13, [x29, #-0x70]
   1b73c: f81d03b4     	stur	x20, [x29, #-0x30]
   1b740: f85c83a7     	ldur	x7, [x29, #-0x38]
   1b744: aa1603ea     	mov	x10, x22
   1b748: b8100128     	stur	w8, [x9, #-0x100]
   1b74c: d10143a9     	sub	x9, x29, #0x50
   1b750: f85a83be     	ldur	x30, [x29, #-0x58]
   1b754: aa1703e2     	mov	x2, x23
   1b758: f85c03a8     	ldur	x8, [x29, #-0x40]
   1b75c: aa1a03eb     	mov	x11, x26
   1b760: f8500129     	ldur	x9, [x9, #-0x100]
   1b764: aa1303e3     	mov	x3, x19
   1b768: f85883a1     	ldur	x1, [x29, #-0x78]
   1b76c: aa1c03e4     	mov	x4, x28
   1b770: aa1903ec     	mov	x12, x25
   1b774: f2f9548e     	movk	x14, #0xcaa4, lsl #48
   1b778: ad000120     	stp	q0, q0, [x9]
   1b77c: 17fff3aa     	b	0x18624 <.text+0x105b4>
   1b780: 52800028     	mov	w8, #0x1                // =1
   1b784: d10213a9     	sub	x9, x29, #0x84
   1b788: aa1603ea     	mov	x10, x22
   1b78c: 293b57b8     	stp	w24, w21, [x29, #-0x28]
   1b790: f81d03b4     	stur	x20, [x29, #-0x30]
   1b794: b8100128     	stur	w8, [x9, #-0x100]
   1b798: f85603a8     	ldur	x8, [x29, #-0xa0]
   1b79c: d103e3a9     	sub	x9, x29, #0xf8
   1b7a0: f8100128     	stur	x8, [x9, #-0x100]
   1b7a4: a97997a6     	ldp	x6, x5, [x29, #-0x68]
   1b7a8: d28b410e     	mov	x14, #0x5a08            // =23048
   1b7ac: aa1703e2     	mov	x2, x23
   1b7b0: a978b7a1     	ldp	x1, x13, [x29, #-0x78]
   1b7b4: f2b8008e     	movk	x14, #0xc004, lsl #16
   1b7b8: aa1a03eb     	mov	x11, x26
   1b7bc: a97c1fa8     	ldp	x8, x7, [x29, #-0x40]
   1b7c0: f2dc87ae     	movk	x14, #0xe43d, lsl #32
   1b7c4: aa1303e3     	mov	x3, x19
   1b7c8: a97b43af     	ldp	x15, x16, [x29, #-0x50]
   1b7cc: aa1c03e4     	mov	x4, x28
   1b7d0: aa1903ec     	mov	x12, x25
   1b7d4: f85a83be     	ldur	x30, [x29, #-0x58]
   1b7d8: f2ea124e     	movk	x14, #0x5092, lsl #48
   1b7dc: 17fff392     	b	0x18624 <.text+0x105b4>
   1b7e0: aa0903e1     	mov	x1, x9
   1b7e4: d10203a9     	sub	x9, x29, #0x80
   1b7e8: a97997a6     	ldp	x6, x5, [x29, #-0x68]
   1b7ec: d286cb8e     	mov	x14, #0x365c            // =13916
   1b7f0: 293b57b8     	stp	w24, w21, [x29, #-0x28]
   1b7f4: f8500120     	ldur	x0, [x9, #-0x100]
   1b7f8: d10463a9     	sub	x9, x29, #0x118
   1b7fc: a97c1fa8     	ldp	x8, x7, [x29, #-0x40]
   1b800: f2b65c4e     	movk	x14, #0xb2e2, lsl #16
   1b804: f81d03b4     	stur	x20, [x29, #-0x30]
   1b808: f8500129     	ldur	x9, [x9, #-0x100]
   1b80c: f2dc81ee     	movk	x14, #0xe40f, lsl #32
   1b810: a97b43af     	ldp	x15, x16, [x29, #-0x50]
   1b814: aa1603ea     	mov	x10, x22
   1b818: aa1703e2     	mov	x2, x23
   1b81c: f9000409     	str	x9, [x0, #0x8]
   1b820: d10103a9     	sub	x9, x29, #0x40
   1b824: f85903ad     	ldur	x13, [x29, #-0x70]
   1b828: aa1a03eb     	mov	x11, x26
   1b82c: f85a83be     	ldur	x30, [x29, #-0x58]
   1b830: aa1303e3     	mov	x3, x19
   1b834: f8500129     	ldur	x9, [x9, #-0x100]
   1b838: aa1c03e4     	mov	x4, x28
   1b83c: aa1903ec     	mov	x12, x25
   1b840: f2f9f08e     	movk	x14, #0xcf84, lsl #48
   1b844: f9000009     	str	x9, [x0]
   1b848: 17fff377     	b	0x18624 <.text+0x105b4>
   1b84c: d10543a9     	sub	x9, x29, #0x150
   1b850: f85403a8     	ldur	x8, [x29, #-0xc0]
   1b854: 293b57b8     	stp	w24, w21, [x29, #-0x28]
   1b858: f8500129     	ldur	x9, [x9, #-0x100]
   1b85c: eb09011f     	cmp	x8, x9
   1b860: d28a9dc8     	mov	x8, #0x54ee             // =21742
   1b864: d295dd89     	mov	x9, #0xaeec             // =44780
   1b868: f2b235e8     	movk	x8, #0x91af, lsl #16
   1b86c: f2bb7609     	movk	x9, #0xdbb0, lsl #16
   1b870: f2c037a8     	movk	x8, #0x1bd, lsl #32
   1b874: f2c44c49     	movk	x9, #0x2262, lsl #32
   1b878: f2fd0828     	movk	x8, #0xe841, lsl #48
   1b87c: f2e135e9     	movk	x9, #0x9af, lsl #48
   1b880: 14000795     	b	0x1d6d4 <.text+0x15664>
   1b884: d102e3a8     	sub	x8, x29, #0xb8
   1b888: d10083aa     	sub	x10, x29, #0x20
   1b88c: b81dc3b5     	stur	w21, [x29, #-0x24]
   1b890: aa1703e2     	mov	x2, x23
   1b894: b81d83b8     	stur	w24, [x29, #-0x28]
   1b898: aa1a03eb     	mov	x11, x26
   1b89c: f810011f     	stur	xzr, [x8, #-0x100]
   1b8a0: d10363a8     	sub	x8, x29, #0xd8
   1b8a4: f850014a     	ldur	x10, [x10, #-0x100]
   1b8a8: f81d03b4     	stur	x20, [x29, #-0x30]
   1b8ac: aa1303e3     	mov	x3, x19
   1b8b0: aa1c03e4     	mov	x4, x28
   1b8b4: f8500109     	ldur	x9, [x8, #-0x100]
   1b8b8: aa1903ec     	mov	x12, x25
   1b8bc: aa2903e8     	mvn	x8, x9
   1b8c0: 8b080148     	add	x8, x10, x8
   1b8c4: aa1603ea     	mov	x10, x22
   1b8c8: eb08013f     	cmp	x9, x8
   1b8cc: 9a888128     	csel	x8, x9, x8, hi
   1b8d0: d10623a9     	sub	x9, x29, #0x188
   1b8d4: 91000508     	add	x8, x8, #0x1
   1b8d8: f8100128     	stur	x8, [x9, #-0x100]
   1b8dc: 1400072f     	b	0x1d598 <.text+0x15528>
   1b8e0: d10893a8     	sub	x8, x29, #0x224
   1b8e4: d2959a69     	mov	x9, #0xacd3             // =44243
   1b8e8: f2ba3b89     	movk	x9, #0xd1dc, lsl #16
   1b8ec: 293b57b8     	stp	w24, w21, [x29, #-0x28]
   1b8f0: f2d80f09     	movk	x9, #0xc078, lsl #32
   1b8f4: b8500108     	ldur	w8, [x8, #-0x100]
   1b8f8: f2fca269     	movk	x9, #0xe513, lsl #48
   1b8fc: 7200011f     	tst	w8, #0x1
   1b900: d2842208     	mov	x8, #0x2110             // =8464
   1b904: f2a826e8     	movk	x8, #0x4137, lsl #16
   1b908: f2ca7ca8     	movk	x8, #0x53e5, lsl #32
   1b90c: f2eb4868     	movk	x8, #0x5a43, lsl #48
   1b910: 1400025d     	b	0x1c284 <.text+0x14214>
   1b914: d10773a8     	sub	x8, x29, #0x1dc
   1b918: d107a3a9     	sub	x9, x29, #0x1e8
   1b91c: 293b57b8     	stp	w24, w21, [x29, #-0x28]
   1b920: b8500108     	ldur	w8, [x8, #-0x100]
   1b924: b8500129     	ldur	w9, [x9, #-0x100]
   1b928: 6b08013f     	cmp	w9, w8
   1b92c: d297fa28     	mov	x8, #0xbfd1             // =49105
   1b930: d2908049     	mov	x9, #0x8402             // =33794
   1b934: f2aa6fe8     	movk	x8, #0x537f, lsl #16
   1b938: f2bd88c9     	movk	x9, #0xec46, lsl #16
   1b93c: f2cbeee8     	movk	x8, #0x5f77, lsl #32
   1b940: f2c00249     	movk	x9, #0x12, lsl #32
   1b944: f2ed3848     	movk	x8, #0x69c2, lsl #48
   1b948: f2ef3a69     	movk	x9, #0x79d3, lsl #48
   1b94c: 9a88312e     	csel	x14, x9, x8, lo
   1b950: 14000762     	b	0x1d6d8 <.text+0x15668>
   1b954: d10523a8     	sub	x8, x29, #0x148
   1b958: d10303aa     	sub	x10, x29, #0xc0
   1b95c: a97997a6     	ldp	x6, x5, [x29, #-0x68]
   1b960: 293b57b8     	stp	w24, w21, [x29, #-0x28]
   1b964: aa1703e2     	mov	x2, x23
   1b968: f8500109     	ldur	x9, [x8, #-0x100]
   1b96c: f81d03b4     	stur	x20, [x29, #-0x30]
   1b970: a97b43af     	ldp	x15, x16, [x29, #-0x50]
   1b974: aa1a03eb     	mov	x11, x26
   1b978: aa1303e3     	mov	x3, x19
   1b97c: 91000528     	add	x8, x9, #0x1
   1b980: f85903ad     	ldur	x13, [x29, #-0x70]
   1b984: f85c83a7     	ldur	x7, [x29, #-0x38]
   1b988: aa1c03e4     	mov	x4, x28
   1b98c: f85a83be     	ldur	x30, [x29, #-0x58]
   1b990: aa1903ec     	mov	x12, x25
   1b994: f8100148     	stur	x8, [x10, #-0x100]
   1b998: d10563a8     	sub	x8, x29, #0x158
   1b99c: aa1603ea     	mov	x10, x22
   1b9a0: f8100109     	stur	x9, [x8, #-0x100]
   1b9a4: d285da8e     	mov	x14, #0x2ed4            // =11988
   1b9a8: f85c03a8     	ldur	x8, [x29, #-0x40]
   1b9ac: f85883a1     	ldur	x1, [x29, #-0x78]
   1b9b0: f2ab364e     	movk	x14, #0x59b2, lsl #16
   1b9b4: f2cbfd0e     	movk	x14, #0x5fe8, lsl #32
   1b9b8: f2fcb82e     	movk	x14, #0xe5c1, lsl #48
   1b9bc: 17fff31a     	b	0x18624 <.text+0x105b4>
   1b9c0: f85b83b0     	ldur	x16, [x29, #-0x48]
   1b9c4: d104a3a8     	sub	x8, x29, #0x128
   1b9c8: f85b03af     	ldur	x15, [x29, #-0x50]
   1b9cc: d10663a9     	sub	x9, x29, #0x198
   1b9d0: a97997a6     	ldp	x6, x5, [x29, #-0x68]
   1b9d4: f8100110     	stur	x16, [x8, #-0x100]
   1b9d8: d104c3a8     	sub	x8, x29, #0x130
   1b9dc: f85903ad     	ldur	x13, [x29, #-0x70]
   1b9e0: 293b57b8     	stp	w24, w21, [x29, #-0x28]
   1b9e4: f85c83a7     	ldur	x7, [x29, #-0x38]
   1b9e8: f81d03b4     	stur	x20, [x29, #-0x30]
   1b9ec: f810010f     	stur	x15, [x8, #-0x100]
   1b9f0: 52800028     	mov	w8, #0x1                // =1
   1b9f4: f85a83be     	ldur	x30, [x29, #-0x58]
   1b9f8: aa1603ea     	mov	x10, x22
   1b9fc: aa1703e2     	mov	x2, x23
   1ba00: aa1a03eb     	mov	x11, x26
   1ba04: aa1303e3     	mov	x3, x19
   1ba08: aa1c03e4     	mov	x4, x28
   1ba0c: aa1903ec     	mov	x12, x25
   1ba10: f8100128     	stur	x8, [x9, #-0x100]
   1ba14: aa1b03f1     	mov	x17, x27
   1ba18: 14000713     	b	0x1d664 <.text+0x155f4>
   1ba1c: d10253a8     	sub	x8, x29, #0x94
   1ba20: d2969aa9     	mov	x9, #0xb4d5             // =46293
   1ba24: d28e580a     	mov	x10, #0x72c0            // =29376
   1ba28: f2ab32a9     	movk	x9, #0x5995, lsl #16
   1ba2c: f2b1746a     	movk	x10, #0x8ba3, lsl #16
   1ba30: f2d41949     	movk	x9, #0xa0ca, lsl #32
   1ba34: b8500108     	ldur	w8, [x8, #-0x100]
   1ba38: f2c5834a     	movk	x10, #0x2c1a, lsl #32
   1ba3c: f2f58549     	movk	x9, #0xac2a, lsl #48
   1ba40: f2f8044a     	movk	x10, #0xc022, lsl #48
   1ba44: 293b57b8     	stp	w24, w21, [x29, #-0x28]
   1ba48: aa1703e2     	mov	x2, x23
   1ba4c: 7100011f     	cmp	w8, #0x0
   1ba50: f81d03b4     	stur	x20, [x29, #-0x30]
   1ba54: 9a8a012e     	csel	x14, x9, x10, eq
   1ba58: d107b3a9     	sub	x9, x29, #0x1ec
   1ba5c: aa1603ea     	mov	x10, x22
   1ba60: aa1a03eb     	mov	x11, x26
   1ba64: b8100128     	stur	w8, [x9, #-0x100]
   1ba68: d10423a8     	sub	x8, x29, #0x108
   1ba6c: d10083a9     	sub	x9, x29, #0x20
   1ba70: f8500108     	ldur	x8, [x8, #-0x100]
   1ba74: f8100128     	stur	x8, [x9, #-0x100]
   1ba78: 1400071c     	b	0x1d6e8 <.text+0x15678>
   1ba7c: d10523a8     	sub	x8, x29, #0x148
   1ba80: d105e3aa     	sub	x10, x29, #0x178
   1ba84: aa0903e0     	mov	x0, x9
   1ba88: d10083a9     	sub	x9, x29, #0x20
   1ba8c: a97997a6     	ldp	x6, x5, [x29, #-0x68]
   1ba90: 293b57b8     	stp	w24, w21, [x29, #-0x28]
   1ba94: aa1703e2     	mov	x2, x23
   1ba98: f8500108     	ldur	x8, [x8, #-0x100]
   1ba9c: f81d03b4     	stur	x20, [x29, #-0x30]
   1baa0: f850014d     	ldur	x13, [x10, #-0x100]
   1baa4: aa1603ea     	mov	x10, x22
   1baa8: f8500129     	ldur	x9, [x9, #-0x100]
   1baac: aa1a03eb     	mov	x11, x26
   1bab0: a97b43af     	ldp	x15, x16, [x29, #-0x50]
   1bab4: 8b0801a8     	add	x8, x13, x8
   1bab8: f81403ad     	stur	x13, [x29, #-0xc0]
   1babc: eb09011f     	cmp	x8, x9
   1bac0: d2890549     	mov	x9, #0x482a             // =18474
   1bac4: f2a5c5a9     	movk	x9, #0x2e2d, lsl #16
   1bac8: f85903ad     	ldur	x13, [x29, #-0x70]
   1bacc: f81483a8     	stur	x8, [x29, #-0xb8]
   1bad0: d2974848     	mov	x8, #0xba42             // =47682
   1bad4: f2af6148     	movk	x8, #0x7b0a, lsl #16
   1bad8: f2c017c9     	movk	x9, #0xbe, lsl #32
   1badc: f2c86188     	movk	x8, #0x430c, lsl #32
   1bae0: f85c83a7     	ldur	x7, [x29, #-0x38]
   1bae4: f85a83be     	ldur	x30, [x29, #-0x58]
   1bae8: f2faae88     	movk	x8, #0xd574, lsl #48
   1baec: f2e69e09     	movk	x9, #0x34f0, lsl #48
   1baf0: aa1303e3     	mov	x3, x19
   1baf4: 9a88312e     	csel	x14, x9, x8, lo
   1baf8: aa1c03e4     	mov	x4, x28
   1bafc: aa1903ec     	mov	x12, x25
   1bb00: aa1b03f1     	mov	x17, x27
   1bb04: aa0003e8     	mov	x8, x0
   1bb08: 17fff2c7     	b	0x18624 <.text+0x105b4>
   1bb0c: d10883a8     	sub	x8, x29, #0x220
   1bb10: d2906969     	mov	x9, #0x834b             // =33611
   1bb14: f2b3c109     	movk	x9, #0x9e08, lsl #16
   1bb18: 293b57b8     	stp	w24, w21, [x29, #-0x28]
   1bb1c: f2c12ca9     	movk	x9, #0x965, lsl #32
   1bb20: b8500108     	ldur	w8, [x8, #-0x100]
   1bb24: f2ffb9e9     	movk	x9, #0xfdcf, lsl #48
   1bb28: 7200011f     	tst	w8, #0x1
   1bb2c: d282ec08     	mov	x8, #0x1760             // =5984
   1bb30: f2aa51a8     	movk	x8, #0x528d, lsl #16
   1bb34: f2c6ee08     	movk	x8, #0x3770, lsl #32
   1bb38: f2ed6328     	movk	x8, #0x6b19, lsl #48
   1bb3c: 1400057e     	b	0x1d134 <.text+0x150c4>
   1bb40: d107b3a8     	sub	x8, x29, #0x1ec
   1bb44: d10083a9     	sub	x9, x29, #0x20
   1bb48: 293b57b8     	stp	w24, w21, [x29, #-0x28]
   1bb4c: aa1303e3     	mov	x3, x19
   1bb50: f81d03b4     	stur	x20, [x29, #-0x30]
   1bb54: f85903ad     	ldur	x13, [x29, #-0x70]
   1bb58: b850011b     	ldur	w27, [x8, #-0x100]
   1bb5c: aa1603ea     	mov	x10, x22
   1bb60: f8500129     	ldur	x9, [x9, #-0x100]
   1bb64: aa1703e2     	mov	x2, x23
   1bb68: a97997a6     	ldp	x6, x5, [x29, #-0x68]
   1bb6c: 2a1b03e8     	mov	w8, w27
   1bb70: aa1a03eb     	mov	x11, x26
   1bb74: 91000520     	add	x0, x9, #0x1
   1bb78: d343fd09     	lsr	x9, x8, #3
   1bb7c: 927d6535     	and	x21, x9, #0x1ffffff8
   1bb80: d10143a9     	sub	x9, x29, #0x50
   1bb84: f85a83be     	ldur	x30, [x29, #-0x58]
   1bb88: aa1c03e4     	mov	x4, x28
   1bb8c: f85883a1     	ldur	x1, [x29, #-0x78]
   1bb90: aa1903ec     	mov	x12, x25
   1bb94: f8500134     	ldur	x20, [x9, #-0x100]
   1bb98: 52800029     	mov	w9, #0x1                // =1
   1bb9c: 9ac82128     	lsl	x8, x9, x8
   1bba0: d100a3a9     	sub	x9, x29, #0x28
   1bba4: f8756a8e     	ldr	x14, [x20, x21]
   1bba8: f850012f     	ldur	x15, [x9, #-0x100]
   1bbac: d10253a9     	sub	x9, x29, #0x94
   1bbb0: 386069ef     	ldrb	w15, [x15, x0]
   1bbb4: aa0801d3     	orr	x19, x14, x8
   1bbb8: a97c1fa8     	ldp	x8, x7, [x29, #-0x40]
   1bbbc: d2845ece     	mov	x14, #0x22f6            // =8950
   1bbc0: f8356a93     	str	x19, [x20, x21]
   1bbc4: d10423b3     	sub	x19, x29, #0x108
   1bbc8: f2b1aeee     	movk	x14, #0x8d77, lsl #16
   1bbcc: b810012f     	stur	w15, [x9, #-0x100]
   1bbd0: d102a3a9     	sub	x9, x29, #0xa8
   1bbd4: a97b43af     	ldp	x15, x16, [x29, #-0x50]
   1bbd8: f2cbe7ae     	movk	x14, #0x5f3d, lsl #32
   1bbdc: f8100260     	stur	x0, [x19, #-0x100]
   1bbe0: f8500129     	ldur	x9, [x9, #-0x100]
   1bbe4: f2f9548e     	movk	x14, #0xcaa4, lsl #48
   1bbe8: f83b5920     	str	x0, [x9, w27, uxtw #3]
   1bbec: 17fff28e     	b	0x18624 <.text+0x105b4>
   1bbf0: d102c3a8     	sub	x8, x29, #0xb0
   1bbf4: 52821001     	mov	w1, #0x1080             // =4224
   1bbf8: aa1103fb     	mov	x27, x17
   1bbfc: f8500100     	ldur	x0, [x8, #-0x100]
   1bc00: d10283a8     	sub	x8, x29, #0xa0
   1bc04: f8500102     	ldur	x2, [x8, #-0x100]
   1bc08: 9404789a     	bl	0x139e70 <fgets@plt>
   1bc0c: d29df7e8     	mov	x8, #0xefbf             // =61375
   1bc10: d299dca9     	mov	x9, #0xcee5             // =52965
   1bc14: f2ba1e28     	movk	x8, #0xd0f1, lsl #16
   1bc18: f2a922c9     	movk	x9, #0x4916, lsl #16
   1bc1c: f2c3f1c8     	movk	x8, #0x1f8e, lsl #32
   1bc20: f2d481a9     	movk	x9, #0xa40d, lsl #32
   1bc24: 293b57b8     	stp	w24, w21, [x29, #-0x28]
   1bc28: f100001f     	cmp	x0, #0x0
   1bc2c: f81d03b4     	stur	x20, [x29, #-0x30]
   1bc30: f2e18a08     	movk	x8, #0xc50, lsl #48
   1bc34: f2e8cd69     	movk	x9, #0x466b, lsl #48
   1bc38: 14000185     	b	0x1c24c <.text+0x141dc>
   1bc3c: d10183a9     	sub	x9, x29, #0x60
   1bc40: f85403a8     	ldur	x8, [x29, #-0xc0]
   1bc44: f85a03a5     	ldur	x5, [x29, #-0x60]
   1bc48: 293b57b8     	stp	w24, w21, [x29, #-0x28]
   1bc4c: f85903ad     	ldur	x13, [x29, #-0x70]
   1bc50: f81d03b4     	stur	x20, [x29, #-0x30]
   1bc54: f8500129     	ldur	x9, [x9, #-0x100]
   1bc58: aa1603ea     	mov	x10, x22
   1bc5c: f85983a6     	ldur	x6, [x29, #-0x68]
   1bc60: aa1703e2     	mov	x2, x23
   1bc64: aa1303e3     	mov	x3, x19
   1bc68: aa1c03e4     	mov	x4, x28
   1bc6c: 8b080128     	add	x8, x9, x8
   1bc70: d100a3a9     	sub	x9, x29, #0x28
   1bc74: aa1903ec     	mov	x12, x25
   1bc78: f850012b     	ldur	x11, [x9, #-0x100]
   1bc7c: f85483a9     	ldur	x9, [x29, #-0xb8]
   1bc80: 38686968     	ldrb	w8, [x11, x8]
   1bc84: 3869696e     	ldrb	w14, [x11, x9]
   1bc88: d10773a9     	sub	x9, x29, #0x1dc
   1bc8c: aa1a03eb     	mov	x11, x26
   1bc90: b810012e     	stur	w14, [x9, #-0x100]
   1bc94: d107a3a9     	sub	x9, x29, #0x1e8
   1bc98: 6b0e011f     	cmp	w8, w14
   1bc9c: b8100128     	stur	w8, [x9, #-0x100]
   1bca0: d2808388     	mov	x8, #0x41c              // =1052
   1bca4: d29a9ea9     	mov	x9, #0xd4f5             // =54517
   1bca8: f2ba1c88     	movk	x8, #0xd0e4, lsl #16
   1bcac: f2ba4e89     	movk	x9, #0xd274, lsl #16
   1bcb0: f2c48048     	movk	x8, #0x2402, lsl #32
   1bcb4: f2c753c9     	movk	x9, #0x3a9e, lsl #32
   1bcb8: f2fd5948     	movk	x8, #0xeaca, lsl #48
   1bcbc: f2ed74e9     	movk	x9, #0x6ba7, lsl #48
   1bcc0: 9a89010e     	csel	x14, x8, x9, eq
   1bcc4: 140006ec     	b	0x1d874 <.text+0x15804>
   1bcc8: d10563a8     	sub	x8, x29, #0x158
   1bccc: d10183a9     	sub	x9, x29, #0x60
   1bcd0: a97a7ba5     	ldp	x5, x30, [x29, #-0x60]
   1bcd4: d28d140e     	mov	x14, #0x68a0            // =26784
   1bcd8: 293b57b8     	stp	w24, w21, [x29, #-0x28]
   1bcdc: f8500108     	ldur	x8, [x8, #-0x100]
   1bce0: f2b5164e     	movk	x14, #0xa8b2, lsl #16
   1bce4: a97b43af     	ldp	x15, x16, [x29, #-0x50]
   1bce8: f2d2eb8e     	movk	x14, #0x975c, lsl #32
   1bcec: f81d03b4     	stur	x20, [x29, #-0x30]
   1bcf0: f8100128     	stur	x8, [x9, #-0x100]
   1bcf4: d10303a8     	sub	x8, x29, #0xc0
   1bcf8: f85883a1     	ldur	x1, [x29, #-0x78]
   1bcfc: aa1603ea     	mov	x10, x22
   1bd00: aa1703e2     	mov	x2, x23
   1bd04: aa1a03eb     	mov	x11, x26
   1bd08: f8500106     	ldur	x6, [x8, #-0x100]
   1bd0c: aa1303e3     	mov	x3, x19
   1bd10: a97c1fa8     	ldp	x8, x7, [x29, #-0x40]
   1bd14: aa1c03e4     	mov	x4, x28
   1bd18: aa1903ec     	mov	x12, x25
   1bd1c: 5280002d     	mov	w13, #0x1               // =1
   1bd20: aa1b03f1     	mov	x17, x27
   1bd24: f2e6dfae     	movk	x14, #0x36fd, lsl #48
   1bd28: 17fff23f     	b	0x18624 <.text+0x105b4>
   1bd2c: d101a3a9     	sub	x9, x29, #0x68
   1bd30: f85003a8     	ldur	x8, [x29, #-0x100]
   1bd34: 293b57b8     	stp	w24, w21, [x29, #-0x28]
   1bd38: f8500129     	ldur	x9, [x9, #-0x100]
   1bd3c: eb09011f     	cmp	x8, x9
   1bd40: 9a898108     	csel	x8, x8, x9, hi
   1bd44: d10343a9     	sub	x9, x29, #0xd0
   1bd48: 140004a8     	b	0x1cfe8 <.text+0x14f78>
   1bd4c: d106e3a9     	sub	x9, x29, #0x1b8
   1bd50: f85603a8     	ldur	x8, [x29, #-0xa0]
   1bd54: 293b57b8     	stp	w24, w21, [x29, #-0x28]
   1bd58: f8500129     	ldur	x9, [x9, #-0x100]
   1bd5c: 8b090108     	add	x8, x8, x9
   1bd60: 140005ca     	b	0x1d488 <.text+0x15418>
   1bd64: d106e3a8     	sub	x8, x29, #0x1b8
   1bd68: f85903ad     	ldur	x13, [x29, #-0x70]
   1bd6c: a97997a6     	ldp	x6, x5, [x29, #-0x68]
   1bd70: 293b57b8     	stp	w24, w21, [x29, #-0x28]
   1bd74: aa1603ea     	mov	x10, x22
   1bd78: f8500108     	ldur	x8, [x8, #-0x100]
   1bd7c: f81d03b4     	stur	x20, [x29, #-0x30]
   1bd80: aa1703e2     	mov	x2, x23
   1bd84: aa1a03eb     	mov	x11, x26
   1bd88: aa1303e3     	mov	x3, x19
   1bd8c: aa1c03e4     	mov	x4, x28
   1bd90: d1000509     	sub	x9, x8, #0x1
   1bd94: f85603a8     	ldur	x8, [x29, #-0xa0]
   1bd98: aa1903ec     	mov	x12, x25
   1bd9c: 38696908     	ldrb	w8, [x8, x9]
   1bda0: f81183a9     	stur	x9, [x29, #-0xe8]
   1bda4: d29a7a89     	mov	x9, #0xd3d4             // =54228
   1bda8: f2be47a9     	movk	x9, #0xf23d, lsl #16
   1bdac: f2cae089     	movk	x9, #0x5704, lsl #32
   1bdb0: 7100bd1f     	cmp	w8, #0x2f
   1bdb4: d28b93c8     	mov	x8, #0x5c9e             // =23710
   1bdb8: f2bdd5e8     	movk	x8, #0xeeaf, lsl #16
   1bdbc: f2ef9669     	movk	x9, #0x7cb3, lsl #48
   1bdc0: f2db0f68     	movk	x8, #0xd87b, lsl #32
   1bdc4: f2e042c8     	movk	x8, #0x216, lsl #48
   1bdc8: 9a88012e     	csel	x14, x9, x8, eq
   1bdcc: 140006aa     	b	0x1d874 <.text+0x15804>
   1bdd0: d10343a9     	sub	x9, x29, #0xd0
   1bdd4: d100a3a8     	sub	x8, x29, #0x28
   1bdd8: aa1103e0     	mov	x0, x17
   1bddc: f85903ad     	ldur	x13, [x29, #-0x70]
   1bde0: a97997a6     	ldp	x6, x5, [x29, #-0x68]
   1bde4: 293b57b8     	stp	w24, w21, [x29, #-0x28]
   1bde8: aa1603ea     	mov	x10, x22
   1bdec: f8500131     	ldur	x17, [x9, #-0x100]
   1bdf0: d10753a9     	sub	x9, x29, #0x1d4
   1bdf4: f8500108     	ldur	x8, [x8, #-0x100]
   1bdf8: f81d03b4     	stur	x20, [x29, #-0x30]
   1bdfc: a97b43af     	ldp	x15, x16, [x29, #-0x50]
   1be00: aa1703e2     	mov	x2, x23
   1be04: aa1a03eb     	mov	x11, x26
   1be08: 38716908     	ldrb	w8, [x8, x17]
   1be0c: aa1303e3     	mov	x3, x19
   1be10: f85c83a7     	ldur	x7, [x29, #-0x38]
   1be14: aa1c03e4     	mov	x4, x28
   1be18: f85a83be     	ldur	x30, [x29, #-0x58]
   1be1c: aa1903ec     	mov	x12, x25
   1be20: b8100128     	stur	w8, [x9, #-0x100]
   1be24: 7100011f     	cmp	w8, #0x0
   1be28: d29b2cc8     	mov	x8, #0xd966             // =55654
   1be2c: d297e229     	mov	x9, #0xbf11             // =48913
   1be30: f2b0e288     	movk	x8, #0x8714, lsl #16
   1be34: f2b85349     	movk	x9, #0xc29a, lsl #16
   1be38: f2d16f48     	movk	x8, #0x8b7a, lsl #32
   1be3c: f2df6d49     	movk	x9, #0xfb6a, lsl #32
   1be40: f2e56de8     	movk	x8, #0x2b6f, lsl #48
   1be44: f2e5b849     	movk	x9, #0x2dc2, lsl #48
   1be48: 9a88012e     	csel	x14, x9, x8, eq
   1be4c: d101c3a8     	sub	x8, x29, #0x70
   1be50: f8100111     	stur	x17, [x8, #-0x100]
   1be54: aa0003f1     	mov	x17, x0
   1be58: 1400068a     	b	0x1d880 <.text+0x15810>
   1be5c: d10233a8     	sub	x8, x29, #0x8c
   1be60: d10433a9     	sub	x9, x29, #0x10c
   1be64: 293b57b8     	stp	w24, w21, [x29, #-0x28]
   1be68: f81d03b4     	stur	x20, [x29, #-0x30]
   1be6c: b8500108     	ldur	w8, [x8, #-0x100]
   1be70: b8500129     	ldur	w9, [x9, #-0x100]
   1be74: 7100011f     	cmp	w8, #0x0
   1be78: 2a080129     	orr	w9, w9, w8
   1be7c: d107c3a8     	sub	x8, x29, #0x1f0
   1be80: 1a9f07ea     	cset	w10, ne
   1be84: b8100109     	stur	w9, [x8, #-0x100]
   1be88: d107d3a8     	sub	x8, x29, #0x1f4
   1be8c: b8500108     	ldur	w8, [x8, #-0x100]
   1be90: 6b29211f     	cmp	w8, w9, uxth
   1be94: d10723a8     	sub	x8, x29, #0x1c8
   1be98: d108e3a9     	sub	x9, x29, #0x238
   1be9c: f8500108     	ldur	x8, [x8, #-0x100]
   1bea0: f8100128     	stur	x8, [x9, #-0x100]
   1bea4: d108c3a9     	sub	x9, x29, #0x230
   1bea8: 1a9f07e8     	cset	w8, ne
   1beac: 6a08015f     	tst	w10, w8
   1beb0: d28cec68     	mov	x8, #0x6763             // =26467
   1beb4: b810012a     	stur	w10, [x9, #-0x100]
   1beb8: d2999009     	mov	x9, #0xcc80             // =52352
   1bebc: f2a70ee8     	movk	x8, #0x3877, lsl #16
   1bec0: f2b64329     	movk	x9, #0xb219, lsl #16
   1bec4: f2d410e8     	movk	x8, #0xa087, lsl #32
   1bec8: f2c8c3a9     	movk	x9, #0x461d, lsl #32
   1becc: f2f265a8     	movk	x8, #0x932d, lsl #48
   1bed0: f2eb7c09     	movk	x9, #0x5be0, lsl #48
   1bed4: aa1603ea     	mov	x10, x22
   1bed8: 9a89110e     	csel	x14, x8, x9, ne
   1bedc: 14000499     	b	0x1d140 <.text+0x150d0>
   1bee0: d10763a8     	sub	x8, x29, #0x1d8
   1bee4: d10793a9     	sub	x9, x29, #0x1e4
   1bee8: 293b57b8     	stp	w24, w21, [x29, #-0x28]
   1beec: b8500108     	ldur	w8, [x8, #-0x100]
   1bef0: b8500129     	ldur	w9, [x9, #-0x100]
   1bef4: 6b08013f     	cmp	w9, w8
   1bef8: d2928108     	mov	x8, #0x9408             // =37896
   1befc: d2860149     	mov	x9, #0x300a             // =12298
   1bf00: f2be7ca8     	movk	x8, #0xf3e5, lsl #16
   1bf04: f2be7269     	movk	x9, #0xf393, lsl #16
   1bf08: f2d58228     	movk	x8, #0xac11, lsl #32
   1bf0c: f2c9d9c9     	movk	x9, #0x4ece, lsl #32
   1bf10: f2fb27c8     	movk	x8, #0xd93e, lsl #48
   1bf14: f2e62e29     	movk	x9, #0x3171, lsl #48
   1bf18: 9a89810e     	csel	x14, x8, x9, hi
   1bf1c: 140005ef     	b	0x1d6d8 <.text+0x15668>
   1bf20: f0000948     	adrp	x8, 0x146000
   1bf24: 91115108     	add	x8, x8, #0x454
   1bf28: 90000941     	adrp	x1, 0x143000
   1bf2c: 91048021     	add	x1, x1, #0x120
   1bf30: aa1103fb     	mov	x27, x17
   1bf34: 089ffd1f     	stlrb	wzr, [x8]
   1bf38: d102c3a8     	sub	x8, x29, #0xb0
   1bf3c: f85603a2     	ldur	x2, [x29, #-0xa0]
   1bf40: f8500100     	ldur	x0, [x8, #-0x100]
   1bf44: 940477cf     	bl	0x139e80 <sscanf@plt>
   1bf48: d295e5a8     	mov	x8, #0xaf2d             // =44845
   1bf4c: d294d589     	mov	x9, #0xa6ac             // =42668
   1bf50: f2a57f08     	movk	x8, #0x2bf8, lsl #16
   1bf54: f2a2ab49     	movk	x9, #0x155a, lsl #16
   1bf58: f2cc84e8     	movk	x8, #0x6427, lsl #32
   1bf5c: f2c5f6c9     	movk	x9, #0x2fb6, lsl #32
   1bf60: 293b57b8     	stp	w24, w21, [x29, #-0x28]
   1bf64: 7100041f     	cmp	w0, #0x1
   1bf68: f81d03b4     	stur	x20, [x29, #-0x30]
   1bf6c: f2f79a28     	movk	x8, #0xbcd1, lsl #48
   1bf70: f2ebcaa9     	movk	x9, #0x5e55, lsl #48
   1bf74: 140000b6     	b	0x1c24c <.text+0x141dc>
   1bf78: d10123a8     	sub	x8, x29, #0x48
   1bf7c: b85543a9     	ldur	w9, [x29, #-0xac]
   1bf80: 293b57b8     	stp	w24, w21, [x29, #-0x28]
   1bf84: b8500108     	ldur	w8, [x8, #-0x100]
   1bf88: 6b09011f     	cmp	w8, w9
   1bf8c: d2847f48     	mov	x8, #0x23fa             // =9210
   1bf90: d286cfa9     	mov	x9, #0x367d             // =13949
   1bf94: f2b7b848     	movk	x8, #0xbdc2, lsl #16
   1bf98: f2a88dc9     	movk	x9, #0x446e, lsl #16
   1bf9c: f2cf8888     	movk	x8, #0x7c44, lsl #32
   1bfa0: f2c42109     	movk	x9, #0x2108, lsl #32
   1bfa4: f2f2e5a8     	movk	x8, #0x972d, lsl #48
   1bfa8: f2f65a49     	movk	x9, #0xb2d2, lsl #48
   1bfac: 9a89010e     	csel	x14, x8, x9, eq
   1bfb0: 14000462     	b	0x1d138 <.text+0x150c8>
   1bfb4: f0000948     	adrp	x8, 0x146000
   1bfb8: aa0903e0     	mov	x0, x9
   1bfbc: d2982669     	mov	x9, #0xc133             // =49459
   1bfc0: aa1603ea     	mov	x10, x22
   1bfc4: f2bf5389     	movk	x9, #0xfa9c, lsl #16
   1bfc8: aa1703e2     	mov	x2, x23
   1bfcc: 39591108     	ldrb	w8, [x8, #0x644]
   1bfd0: f2c56ba9     	movk	x9, #0x2b5d, lsl #32
   1bfd4: f2ecbe69     	movk	x9, #0x65f3, lsl #48
   1bfd8: aa1a03eb     	mov	x11, x26
   1bfdc: aa1303e3     	mov	x3, x19
   1bfe0: aa1c03e4     	mov	x4, x28
   1bfe4: 7100011f     	cmp	w8, #0x0
   1bfe8: d281c9e8     	mov	x8, #0xe4f              // =3663
   1bfec: f2b6bf28     	movk	x8, #0xb5f9, lsl #16
   1bff0: aa1903ec     	mov	x12, x25
   1bff4: f2da59c8     	movk	x8, #0xd2ce, lsl #32
   1bff8: 293b57b8     	stp	w24, w21, [x29, #-0x28]
   1bffc: f2eb2568     	movk	x8, #0x592b, lsl #48
   1c000: f81d03b4     	stur	x20, [x29, #-0x30]
   1c004: 9a89110e     	csel	x14, x8, x9, ne
   1c008: f85a03a5     	ldur	x5, [x29, #-0x60]
   1c00c: f85903ad     	ldur	x13, [x29, #-0x70]
   1c010: a97b43af     	ldp	x15, x16, [x29, #-0x50]
   1c014: aa0003e8     	mov	x8, x0
   1c018: f85983a6     	ldur	x6, [x29, #-0x68]
   1c01c: f85c83a7     	ldur	x7, [x29, #-0x38]
   1c020: f85a83be     	ldur	x30, [x29, #-0x58]
   1c024: 17fff180     	b	0x18624 <.text+0x105b4>
   1c028: d101e3a8     	sub	x8, x29, #0x78
   1c02c: d10433aa     	sub	x10, x29, #0x10c
   1c030: a97997a6     	ldp	x6, x5, [x29, #-0x68]
   1c034: b81dc3b5     	stur	w21, [x29, #-0x24]
   1c038: aa1703e2     	mov	x2, x23
   1c03c: b8500109     	ldur	w9, [x8, #-0x100]
   1c040: b81d83b8     	stur	w24, [x29, #-0x28]
   1c044: a97b43af     	ldp	x15, x16, [x29, #-0x50]
   1c048: f81d03b4     	stur	x20, [x29, #-0x30]
   1c04c: aa1a03eb     	mov	x11, x26
   1c050: 53185d28     	lsl	w8, w9, #8
   1c054: b855c3ae     	ldur	w14, [x29, #-0xa4]
   1c058: f85903ad     	ldur	x13, [x29, #-0x70]
   1c05c: aa1303e3     	mov	x3, x19
   1c060: f85c83a7     	ldur	x7, [x29, #-0x38]
   1c064: aa1c03e4     	mov	x4, x28
   1c068: b8100148     	stur	w8, [x10, #-0x100]
   1c06c: d101d3a8     	sub	x8, x29, #0x74
   1c070: f85a83be     	ldur	x30, [x29, #-0x58]
   1c074: aa1603ea     	mov	x10, x22
   1c078: aa1903ec     	mov	x12, x25
   1c07c: aa1b03f1     	mov	x17, x27
   1c080: b8500108     	ldur	w8, [x8, #-0x100]
   1c084: 33185d28     	bfi	w8, w9, #8, #24
   1c088: d107d3a9     	sub	x9, x29, #0x1f4
   1c08c: b8100128     	stur	w8, [x9, #-0x100]
   1c090: d100c3a8     	sub	x8, x29, #0x30
   1c094: d10723a9     	sub	x9, x29, #0x1c8
   1c098: f8500108     	ldur	x8, [x8, #-0x100]
   1c09c: f8100128     	stur	x8, [x9, #-0x100]
   1c0a0: d10233a9     	sub	x9, x29, #0x8c
   1c0a4: f85c03a8     	ldur	x8, [x29, #-0x40]
   1c0a8: b810012e     	stur	w14, [x9, #-0x100]
   1c0ac: 14000444     	b	0x1d1bc <.text+0x1514c>
   1c0b0: d10183a9     	sub	x9, x29, #0x60
   1c0b4: f85483a8     	ldur	x8, [x29, #-0xb8]
   1c0b8: a9791bad     	ldp	x13, x6, [x29, #-0x70]
   1c0bc: d28c3eee     	mov	x14, #0x61f7            // =25079
   1c0c0: 293b57b8     	stp	w24, w21, [x29, #-0x28]
   1c0c4: f8500129     	ldur	x9, [x9, #-0x100]
   1c0c8: f2be382e     	movk	x14, #0xf1c1, lsl #16
   1c0cc: a97b43af     	ldp	x15, x16, [x29, #-0x50]
   1c0d0: f2c50b8e     	movk	x14, #0x285c, lsl #32
   1c0d4: f81d03b4     	stur	x20, [x29, #-0x30]
   1c0d8: cb090105     	sub	x5, x8, x9
   1c0dc: f85a83be     	ldur	x30, [x29, #-0x58]
   1c0e0: a97c1fa8     	ldp	x8, x7, [x29, #-0x40]
   1c0e4: aa1603ea     	mov	x10, x22
   1c0e8: aa1703e2     	mov	x2, x23
   1c0ec: f85883a1     	ldur	x1, [x29, #-0x78]
   1c0f0: aa1a03eb     	mov	x11, x26
   1c0f4: aa1303e3     	mov	x3, x19
   1c0f8: aa1c03e4     	mov	x4, x28
   1c0fc: aa1903ec     	mov	x12, x25
   1c100: f2fb25ae     	movk	x14, #0xd92d, lsl #48
   1c104: 17fff148     	b	0x18624 <.text+0x105b4>
   1c108: d10123a8     	sub	x8, x29, #0x48
   1c10c: 51016eaa     	sub	w10, w21, #0x5b
   1c110: 293b57b8     	stp	w24, w21, [x29, #-0x28]
   1c114: b850010b     	ldur	w11, [x8, #-0x100]
   1c118: 51016d68     	sub	w8, w11, #0x5b
   1c11c: 321b0169     	orr	w9, w11, #0x20
   1c120: 3100691f     	cmn	w8, #0x1a
   1c124: 321b02a8     	orr	w8, w21, #0x20
   1c128: 1a893169     	csel	w9, w11, w9, lo
   1c12c: 3100695f     	cmn	w10, #0x1a
   1c130: 1a8832a8     	csel	w8, w21, w8, lo
   1c134: 6b08013f     	cmp	w9, w8
   1c138: d293cbc8     	mov	x8, #0x9e5e             // =40542
   1c13c: d2823389     	mov	x9, #0x119c             // =4508
   1c140: f2a3ef48     	movk	x8, #0x1f7a, lsl #16
   1c144: f2a29ca9     	movk	x9, #0x14e5, lsl #16
   1c148: f2c3ffc8     	movk	x8, #0x1ffe, lsl #32
   1c14c: f2c96e29     	movk	x9, #0x4b71, lsl #32
   1c150: f2f9b908     	movk	x8, #0xcdc8, lsl #48
   1c154: f2e405a9     	movk	x9, #0x202d, lsl #48
   1c158: 14000236     	b	0x1ca30 <.text+0x149c0>
   1c15c: d0000948     	adrp	x8, 0x146000
   1c160: 91112108     	add	x8, x8, #0x448
   1c164: f0000920     	adrp	x0, 0x143000
   1c168: 91040000     	add	x0, x0, #0x100
   1c16c: f0000921     	adrp	x1, 0x143000
   1c170: 91044021     	add	x1, x1, #0x110
   1c174: 089ffd1f     	stlrb	wzr, [x8]
   1c178: aa1103fb     	mov	x27, x17
   1c17c: 94047745     	bl	0x139e90 <fopen@plt>
   1c180: d10283a8     	sub	x8, x29, #0xa0
   1c184: d287e029     	mov	x9, #0x3f01             // =16129
   1c188: f2ba6d89     	movk	x9, #0xd36c, lsl #16
   1c18c: 293b57b8     	stp	w24, w21, [x29, #-0x28]
   1c190: f2ca3909     	movk	x9, #0x51c8, lsl #32
   1c194: f100001f     	cmp	x0, #0x0
   1c198: f8100100     	stur	x0, [x8, #-0x100]
   1c19c: d2962c48     	mov	x8, #0xb162             // =45410
   1c1a0: f2a2e428     	movk	x8, #0x1721, lsl #16
   1c1a4: f81d03b4     	stur	x20, [x29, #-0x30]
   1c1a8: f2c951c8     	movk	x8, #0x4a8e, lsl #32
   1c1ac: f2fb1ca9     	movk	x9, #0xd8e5, lsl #48
   1c1b0: f2f86148     	movk	x8, #0xc30a, lsl #48
   1c1b4: 14000458     	b	0x1d314 <.text+0x152a4>
   1c1b8: d0000948     	adrp	x8, 0x146000
   1c1bc: 91112108     	add	x8, x8, #0x448
   1c1c0: d10143a9     	sub	x9, x29, #0x50
   1c1c4: 089ffd1f     	stlrb	wzr, [x8]
   1c1c8: d10083e8     	sub	x8, sp, #0x20
   1c1cc: f8100128     	stur	x8, [x9, #-0x100]
   1c1d0: 9100011f     	mov	sp, x8
   1c1d4: d12003e8     	sub	x8, sp, #0x800
   1c1d8: d102a3a9     	sub	x9, x29, #0xa8
   1c1dc: f8100128     	stur	x8, [x9, #-0x100]
   1c1e0: 9100011f     	mov	sp, x8
   1c1e4: 910003e8     	mov	x8, sp
   1c1e8: 92820fe9     	mov	x9, #-0x1080            // =-4224
   1c1ec: 8b090108     	add	x8, x8, x9
   1c1f0: d102c3aa     	sub	x10, x29, #0xb0
   1c1f4: f8100148     	stur	x8, [x10, #-0x100]
   1c1f8: 9100011f     	mov	sp, x8
   1c1fc: 910003e8     	mov	x8, sp
   1c200: 8b090108     	add	x8, x8, x9
   1c204: f81603a8     	stur	x8, [x29, #-0xa0]
   1c208: 9100011f     	mov	sp, x8
   1c20c: f0000920     	adrp	x0, 0x143000
   1c210: 91040000     	add	x0, x0, #0x100
   1c214: 52800081     	mov	w1, #0x4                // =4
   1c218: aa1103fb     	mov	x27, x17
   1c21c: 94047705     	bl	0x139e30 <access@plt>
   1c220: d289c568     	mov	x8, #0x4e2b             // =20011
   1c224: d2961aa9     	mov	x9, #0xb0d5             // =45269
   1c228: f2a86de8     	movk	x8, #0x436f, lsl #16
   1c22c: f2a44669     	movk	x9, #0x2233, lsl #16
   1c230: f2db1ec8     	movk	x8, #0xd8f6, lsl #32
   1c234: f2c00e29     	movk	x9, #0x71, lsl #32
   1c238: 293b57b8     	stp	w24, w21, [x29, #-0x28]
   1c23c: 7100001f     	cmp	w0, #0x0
   1c240: f81d03b4     	stur	x20, [x29, #-0x30]
   1c244: f2ebe608     	movk	x8, #0x5f30, lsl #48
   1c248: f2ebf9e9     	movk	x9, #0x5fcf, lsl #48
   1c24c: 9a89010e     	csel	x14, x8, x9, eq
   1c250: 14000523     	b	0x1d6dc <.text+0x1566c>
   1c254: d108c3a8     	sub	x8, x29, #0x230
   1c258: d28e8969     	mov	x9, #0x744b             // =29771
   1c25c: f2afc109     	movk	x9, #0x7e08, lsl #16
   1c260: 293b57b8     	stp	w24, w21, [x29, #-0x28]
   1c264: f2cf5449     	movk	x9, #0x7aa2, lsl #32
   1c268: b8500108     	ldur	w8, [x8, #-0x100]
   1c26c: f2e9e0c9     	movk	x9, #0x4f06, lsl #48
   1c270: 7200011f     	tst	w8, #0x1
   1c274: d2862f28     	mov	x8, #0x3179             // =12665
   1c278: f2b58ee8     	movk	x8, #0xac77, lsl #16
   1c27c: f2c3ff28     	movk	x8, #0x1ff9, lsl #32
   1c280: f2fba568     	movk	x8, #0xdd2b, lsl #48
   1c284: 9a88112e     	csel	x14, x9, x8, ne
   1c288: 14000514     	b	0x1d6d8 <.text+0x15668>
   1c28c: d10183a8     	sub	x8, x29, #0x60
   1c290: d10163a9     	sub	x9, x29, #0x58
   1c294: d10583ad     	sub	x13, x29, #0x160
   1c298: f85c83a7     	ldur	x7, [x29, #-0x38]
   1c29c: a97997a6     	ldp	x6, x5, [x29, #-0x68]
   1c2a0: b81dc3b5     	stur	w21, [x29, #-0x24]
   1c2a4: aa1703e2     	mov	x2, x23
   1c2a8: f850010b     	ldur	x11, [x8, #-0x100]
   1c2ac: b81d83b8     	stur	w24, [x29, #-0x28]
   1c2b0: f850012a     	ldur	x10, [x9, #-0x100]
   1c2b4: f81d03b4     	stur	x20, [x29, #-0x30]
   1c2b8: a97b43af     	ldp	x15, x16, [x29, #-0x50]
   1c2bc: 91000568     	add	x8, x11, #0x1
   1c2c0: aa1303e3     	mov	x3, x19
   1c2c4: 91000549     	add	x9, x10, #0x1
   1c2c8: f85a83be     	ldur	x30, [x29, #-0x58]
   1c2cc: eb09011f     	cmp	x8, x9
   1c2d0: d104c3a8     	sub	x8, x29, #0x130
   1c2d4: d10543a9     	sub	x9, x29, #0x150
   1c2d8: 9a8a816a     	csel	x10, x11, x10, hi
   1c2dc: d10923ab     	sub	x11, x29, #0x248
   1c2e0: aa1c03e4     	mov	x4, x28
   1c2e4: f8500108     	ldur	x8, [x8, #-0x100]
   1c2e8: aa1903ec     	mov	x12, x25
   1c2ec: f8500129     	ldur	x9, [x9, #-0x100]
   1c2f0: 9a888129     	csel	x9, x9, x8, hi
   1c2f4: d100a3a8     	sub	x8, x29, #0x28
   1c2f8: f8500108     	ldur	x8, [x8, #-0x100]
   1c2fc: f8100169     	stur	x9, [x11, #-0x100]
   1c300: d103a3ab     	sub	x11, x29, #0xe8
   1c304: 8b090109     	add	x9, x8, x9
   1c308: f81001a8     	stur	x8, [x13, #-0x100]
   1c30c: d10383a8     	sub	x8, x29, #0xe0
   1c310: f85903ad     	ldur	x13, [x29, #-0x70]
   1c314: f8100169     	stur	x9, [x11, #-0x100]
   1c318: d10363a9     	sub	x9, x29, #0xd8
   1c31c: aa1a03eb     	mov	x11, x26
   1c320: f810012a     	stur	x10, [x9, #-0x100]
   1c324: 91000549     	add	x9, x10, #0x1
   1c328: aa1603ea     	mov	x10, x22
   1c32c: f8100109     	stur	x9, [x8, #-0x100]
   1c330: f81003a9     	stur	x9, [x29, #-0x100]
   1c334: 14000305     	b	0x1cf48 <.text+0x14ed8>
   1c338: d0000948     	adrp	x8, 0x146000
   1c33c: d2855049     	mov	x9, #0x2a82             // =10882
   1c340: f2a83f49     	movk	x9, #0x41fa, lsl #16
   1c344: 293b57b8     	stp	w24, w21, [x29, #-0x28]
   1c348: f2c9d329     	movk	x9, #0x4e99, lsl #32
   1c34c: f81d03b4     	stur	x20, [x29, #-0x30]
   1c350: 395b1d08     	ldrb	w8, [x8, #0x6c7]
   1c354: aa1603ea     	mov	x10, x22
   1c358: aa1703e2     	mov	x2, x23
   1c35c: aa1a03eb     	mov	x11, x26
   1c360: aa1303e3     	mov	x3, x19
   1c364: f2ef96c9     	movk	x9, #0x7cb6, lsl #48
   1c368: 7100011f     	cmp	w8, #0x0
   1c36c: d2861aa8     	mov	x8, #0x30d5             // =12501
   1c370: f2a955a8     	movk	x8, #0x4aad, lsl #16
   1c374: f2dd5028     	movk	x8, #0xea81, lsl #32
   1c378: f2ffbb08     	movk	x8, #0xfdd8, lsl #48
   1c37c: 1400040b     	b	0x1d3a8 <.text+0x15338>
   1c380: d10903a8     	sub	x8, x29, #0x240
   1c384: d100e3a9     	sub	x9, x29, #0x38
   1c388: f85a03a5     	ldur	x5, [x29, #-0x60]
   1c38c: 293b57b8     	stp	w24, w21, [x29, #-0x28]
   1c390: f85903ad     	ldur	x13, [x29, #-0x70]
   1c394: f81d03b4     	stur	x20, [x29, #-0x30]
   1c398: f8500108     	ldur	x8, [x8, #-0x100]
   1c39c: aa1603ea     	mov	x10, x22
   1c3a0: f8500129     	ldur	x9, [x9, #-0x100]
   1c3a4: aa1703e2     	mov	x2, x23
   1c3a8: f85983a6     	ldur	x6, [x29, #-0x68]
   1c3ac: aa1a03eb     	mov	x11, x26
   1c3b0: 3868692e     	ldrb	w14, [x9, x8]
   1c3b4: d10143a9     	sub	x9, x29, #0x50
   1c3b8: f85c83a7     	ldur	x7, [x29, #-0x38]
   1c3bc: aa1303e3     	mov	x3, x19
   1c3c0: f85b03af     	ldur	x15, [x29, #-0x50]
   1c3c4: aa1c03e4     	mov	x4, x28
   1c3c8: f8500129     	ldur	x9, [x9, #-0x100]
   1c3cc: aa1903ec     	mov	x12, x25
   1c3d0: d343fdc8     	lsr	x8, x14, #3
   1c3d4: 927d0508     	and	x8, x8, #0x18
   1c3d8: f8686928     	ldr	x8, [x9, x8]
   1c3dc: d10943a9     	sub	x9, x29, #0x250
   1c3e0: f810012e     	stur	x14, [x9, #-0x100]
   1c3e4: d29d4c89     	mov	x9, #0xea64             // =60004
   1c3e8: 9ace2508     	lsr	x8, x8, x14
   1c3ec: f2a7a549     	movk	x9, #0x3d2a, lsl #16
   1c3f0: f240011f     	tst	x8, #0x1
   1c3f4: d28c4e48     	mov	x8, #0x6272             // =25202
   1c3f8: f2a1fa28     	movk	x8, #0xfd1, lsl #16
   1c3fc: f2c63749     	movk	x9, #0x31ba, lsl #32
   1c400: f2dcabc8     	movk	x8, #0xe55e, lsl #32
   1c404: f2e215a9     	movk	x9, #0x10ad, lsl #48
   1c408: f2f78388     	movk	x8, #0xbc1c, lsl #48
   1c40c: 9a89010e     	csel	x14, x8, x9, eq
   1c410: d10a83a8     	sub	x8, x29, #0x2a0
   1c414: f8100113     	stur	x19, [x8, #-0x100]
   1c418: 140004bc     	b	0x1d708 <.text+0x15698>
   1c41c: d10063a8     	sub	x8, x29, #0x18
   1c420: aa0903e1     	mov	x1, x9
   1c424: d10163a9     	sub	x9, x29, #0x58
   1c428: f85a03a5     	ldur	x5, [x29, #-0x60]
   1c42c: a97b43af     	ldp	x15, x16, [x29, #-0x50]
   1c430: 293b57b8     	stp	w24, w21, [x29, #-0x28]
   1c434: aa1603ea     	mov	x10, x22
   1c438: f8500108     	ldur	x8, [x8, #-0x100]
   1c43c: f81d03b4     	stur	x20, [x29, #-0x30]
   1c440: f8500129     	ldur	x9, [x9, #-0x100]
   1c444: aa1703e2     	mov	x2, x23
   1c448: f85903ad     	ldur	x13, [x29, #-0x70]
   1c44c: aa1303e3     	mov	x3, x19
   1c450: f85983a6     	ldur	x6, [x29, #-0x68]
   1c454: aa1c03e4     	mov	x4, x28
   1c458: 8b080128     	add	x8, x9, x8
   1c45c: d100a3a9     	sub	x9, x29, #0x28
   1c460: f85a83be     	ldur	x30, [x29, #-0x58]
   1c464: aa1903ec     	mov	x12, x25
   1c468: f850012b     	ldur	x11, [x9, #-0x100]
   1c46c: f85203a9     	ldur	x9, [x29, #-0xe0]
   1c470: 38686968     	ldrb	w8, [x11, x8]
   1c474: 3869696e     	ldrb	w14, [x11, x9]
   1c478: d10763a9     	sub	x9, x29, #0x1d8
   1c47c: aa1a03eb     	mov	x11, x26
   1c480: b810012e     	stur	w14, [x9, #-0x100]
   1c484: d10793a9     	sub	x9, x29, #0x1e4
   1c488: 6b0e011f     	cmp	w8, w14
   1c48c: b8100128     	stur	w8, [x9, #-0x100]
   1c490: d28144e8     	mov	x8, #0xa27              // =2599
   1c494: d29f9f09     	mov	x9, #0xfcf8             // =64760
   1c498: f2bbae08     	movk	x8, #0xdd70, lsl #16
   1c49c: f2b68689     	movk	x9, #0xb434, lsl #16
   1c4a0: f2ca6008     	movk	x8, #0x5300, lsl #32
   1c4a4: f2d3dfa9     	movk	x9, #0x9efd, lsl #32
   1c4a8: f2f5e308     	movk	x8, #0xaf18, lsl #48
   1c4ac: f2e60929     	movk	x9, #0x3049, lsl #48
   1c4b0: 9a89010e     	csel	x14, x8, x9, eq
   1c4b4: a97c1fa8     	ldp	x8, x7, [x29, #-0x40]
   1c4b8: 17fff05b     	b	0x18624 <.text+0x105b4>
   1c4bc: d29fd6a8     	mov	x8, #0xfeb5             // =65205
   1c4c0: d283f4e9     	mov	x9, #0x1fa7             // =8103
   1c4c4: f2a39128     	movk	x8, #0x1c89, lsl #16
   1c4c8: f2b95049     	movk	x9, #0xca82, lsl #16
   1c4cc: f2ccdce8     	movk	x8, #0x66e7, lsl #32
   1c4d0: f2df2809     	movk	x9, #0xf940, lsl #32
   1c4d4: f100033f     	cmp	x25, #0x0
   1c4d8: f2e9ec68     	movk	x8, #0x4f63, lsl #48
   1c4dc: f2ea91e9     	movk	x9, #0x548f, lsl #48
   1c4e0: f85903ad     	ldur	x13, [x29, #-0x70]
   1c4e4: a97997a6     	ldp	x6, x5, [x29, #-0x68]
   1c4e8: 9a88012e     	csel	x14, x9, x8, eq
   1c4ec: d10a43a8     	sub	x8, x29, #0x290
   1c4f0: 293b57b8     	stp	w24, w21, [x29, #-0x28]
   1c4f4: aa1603ea     	mov	x10, x22
   1c4f8: f81d03b4     	stur	x20, [x29, #-0x30]
   1c4fc: aa1703e2     	mov	x2, x23
   1c500: aa1a03eb     	mov	x11, x26
   1c504: aa1303e3     	mov	x3, x19
   1c508: aa1c03e4     	mov	x4, x28
   1c50c: aa1903ec     	mov	x12, x25
   1c510: f8100119     	stur	x25, [x8, #-0x100]
   1c514: f81103bc     	stur	x28, [x29, #-0xf0]
   1c518: 140004d7     	b	0x1d874 <.text+0x15804>
   1c51c: 90000949     	adrp	x9, 0x144000
   1c520: 9120e129     	add	x9, x9, #0x838
   1c524: 528011cd     	mov	w13, #0x8e              // =142
   1c528: d280b56e     	mov	x14, #0x5ab             // =1451
   1c52c: a97997a6     	ldp	x6, x5, [x29, #-0x68]
   1c530: f2b8560e     	movk	x14, #0xc2b0, lsl #16
   1c534: 293b57b8     	stp	w24, w21, [x29, #-0x28]
   1c538: 39400128     	ldrb	w8, [x9]
   1c53c: f2c4d74e     	movk	x14, #0x26ba, lsl #32
   1c540: 3940052c     	ldrb	w12, [x9, #0x1]
   1c544: f81d03b4     	stur	x20, [x29, #-0x30]
   1c548: a97b43af     	ldp	x15, x16, [x29, #-0x50]
   1c54c: 4a0d0108     	eor	w8, w8, w13
   1c550: aa1603ea     	mov	x10, x22
   1c554: 4a0d0180     	eor	w0, w12, w13
   1c558: f85a83be     	ldur	x30, [x29, #-0x58]
   1c55c: a978b7a1     	ldp	x1, x13, [x29, #-0x78]
   1c560: 39000128     	strb	w8, [x9]
   1c564: aa1703e2     	mov	x2, x23
   1c568: a97c1fa8     	ldp	x8, x7, [x29, #-0x40]
   1c56c: 39000520     	strb	w0, [x9, #0x1]
   1c570: 52800029     	mov	w9, #0x1                // =1
   1c574: d0000940     	adrp	x0, 0x146000
   1c578: aa1a03eb     	mov	x11, x26
   1c57c: aa1303e3     	mov	x3, x19
   1c580: aa1c03e4     	mov	x4, x28
   1c584: aa1903ec     	mov	x12, x25
   1c588: f2f1e62e     	movk	x14, #0x8f31, lsl #48
   1c58c: 39191009     	strb	w9, [x0, #0x644]
   1c590: 17fff025     	b	0x18624 <.text+0x105b4>
   1c594: a977a7a8     	ldp	x8, x9, [x29, #-0x88]
   1c598: d292a86e     	mov	x14, #0x9543            // =38211
   1c59c: 293b57b8     	stp	w24, w21, [x29, #-0x28]
   1c5a0: a97997a6     	ldp	x6, x5, [x29, #-0x68]
   1c5a4: f2b9efce     	movk	x14, #0xcf7e, lsl #16
   1c5a8: f81d03b4     	stur	x20, [x29, #-0x30]
   1c5ac: a978b7a1     	ldp	x1, x13, [x29, #-0x78]
   1c5b0: 8b080123     	add	x3, x9, x8
   1c5b4: f2cbfaee     	movk	x14, #0x5fd7, lsl #32
   1c5b8: a97c1fa8     	ldp	x8, x7, [x29, #-0x40]
   1c5bc: aa1603ea     	mov	x10, x22
   1c5c0: aa1703e2     	mov	x2, x23
   1c5c4: a97b43af     	ldp	x15, x16, [x29, #-0x50]
   1c5c8: aa1a03eb     	mov	x11, x26
   1c5cc: aa1c03e4     	mov	x4, x28
   1c5d0: f85a83be     	ldur	x30, [x29, #-0x58]
   1c5d4: aa1903ec     	mov	x12, x25
   1c5d8: f2ee732e     	movk	x14, #0x7399, lsl #48
   1c5dc: 17fff012     	b	0x18624 <.text+0x105b4>
   1c5e0: d0000948     	adrp	x8, 0x146000
   1c5e4: 9108f108     	add	x8, x8, #0x23c
   1c5e8: 089ffd1f     	stlrb	wzr, [x8]
   1c5ec: f85a83a0     	ldur	x0, [x29, #-0x58]
   1c5f0: 9402e9b2     	bl	0xd6cb8 <Java_com_adjust_sdk_sig_NativeLibHelper_nSign+0xa6b4>
   1c5f4: d10023a8     	sub	x8, x29, #0x8
   1c5f8: d10043a9     	sub	x9, x29, #0x10
   1c5fc: a97997a6     	ldp	x6, x5, [x29, #-0x68]
   1c600: 293b57b8     	stp	w24, w21, [x29, #-0x28]
   1c604: aa1603ea     	mov	x10, x22
   1c608: f8100100     	stur	x0, [x8, #-0x100]
   1c60c: f0000928     	adrp	x8, 0x143000
   1c610: 91050108     	add	x8, x8, #0x140
   1c614: f85903ad     	ldur	x13, [x29, #-0x70]
   1c618: a97b43af     	ldp	x15, x16, [x29, #-0x50]
   1c61c: f81d03b4     	stur	x20, [x29, #-0x30]
   1c620: aa1703e2     	mov	x2, x23
   1c624: f8100128     	stur	x8, [x9, #-0x100]
   1c628: f85a83be     	ldur	x30, [x29, #-0x58]
   1c62c: a97c1fa8     	ldp	x8, x7, [x29, #-0x40]
   1c630: aa1a03eb     	mov	x11, x26
   1c634: aa1303e3     	mov	x3, x19
   1c638: aa1c03e4     	mov	x4, x28
   1c63c: aa1903ec     	mov	x12, x25
   1c640: aa1b03f1     	mov	x17, x27
   1c644: 1400036f     	b	0x1d400 <.text+0x15390>
   1c648: f85103a8     	ldur	x8, [x29, #-0xf0]
   1c64c: d28dd5ee     	mov	x14, #0x6eaf            // =28335
   1c650: a97997a6     	ldp	x6, x5, [x29, #-0x68]
   1c654: f2aba00e     	movk	x14, #0x5d00, lsl #16
   1c658: 293b57b8     	stp	w24, w21, [x29, #-0x28]
   1c65c: 91000504     	add	x4, x8, #0x1
   1c660: d10a43a8     	sub	x8, x29, #0x290
   1c664: a97b43af     	ldp	x15, x16, [x29, #-0x50]
   1c668: f2c5b64e     	movk	x14, #0x2db2, lsl #32
   1c66c: f81d03b4     	stur	x20, [x29, #-0x30]
   1c670: f8500108     	ldur	x8, [x8, #-0x100]
   1c674: aa1603ea     	mov	x10, x22
   1c678: f85903ad     	ldur	x13, [x29, #-0x70]
   1c67c: aa1703e2     	mov	x2, x23
   1c680: f85a83be     	ldur	x30, [x29, #-0x58]
   1c684: aa1a03eb     	mov	x11, x26
   1c688: d100050c     	sub	x12, x8, #0x1
   1c68c: aa1303e3     	mov	x3, x19
   1c690: a97c1fa8     	ldp	x8, x7, [x29, #-0x40]
   1c694: aa0903e1     	mov	x1, x9
   1c698: f2ed1aae     	movk	x14, #0x68d5, lsl #48
   1c69c: 17ffefe2     	b	0x18624 <.text+0x105b4>
   1c6a0: d10213a8     	sub	x8, x29, #0x84
   1c6a4: d2972ca9     	mov	x9, #0xb965             // =47461
   1c6a8: f2a7d289     	movk	x9, #0x3e94, lsl #16
   1c6ac: f85903ad     	ldur	x13, [x29, #-0x70]
   1c6b0: f2d88189     	movk	x9, #0xc40c, lsl #32
   1c6b4: f85c83a7     	ldur	x7, [x29, #-0x38]
   1c6b8: b8500108     	ldur	w8, [x8, #-0x100]
   1c6bc: f2edc789     	movk	x9, #0x6e3c, lsl #48
   1c6c0: a97997a6     	ldp	x6, x5, [x29, #-0x68]
   1c6c4: 293b57b8     	stp	w24, w21, [x29, #-0x28]
   1c6c8: aa1603ea     	mov	x10, x22
   1c6cc: 7100011f     	cmp	w8, #0x0
   1c6d0: d29fabe8     	mov	x8, #0xfd5f             // =64863
   1c6d4: f2aaae68     	movk	x8, #0x5573, lsl #16
   1c6d8: f81d03b4     	stur	x20, [x29, #-0x30]
   1c6dc: f2c447c8     	movk	x8, #0x223e, lsl #32
   1c6e0: aa1703e2     	mov	x2, x23
   1c6e4: f2e676c8     	movk	x8, #0x33b6, lsl #48
   1c6e8: aa1a03eb     	mov	x11, x26
   1c6ec: 9a88012e     	csel	x14, x9, x8, eq
   1c6f0: d103e3a8     	sub	x8, x29, #0xf8
   1c6f4: a97b43af     	ldp	x15, x16, [x29, #-0x50]
   1c6f8: d106a3a9     	sub	x9, x29, #0x1a8
   1c6fc: aa1303e3     	mov	x3, x19
   1c700: f8500108     	ldur	x8, [x8, #-0x100]
   1c704: aa1c03e4     	mov	x4, x28
   1c708: aa1903ec     	mov	x12, x25
   1c70c: f8100128     	stur	x8, [x9, #-0x100]
   1c710: 140003ff     	b	0x1d70c <.text+0x1569c>
   1c714: d10603a8     	sub	x8, x29, #0x180
   1c718: d10163a9     	sub	x9, x29, #0x58
   1c71c: a97997a6     	ldp	x6, x5, [x29, #-0x68]
   1c720: d29ddf2e     	mov	x14, #0xeef9            // =61177
   1c724: 293b57b8     	stp	w24, w21, [x29, #-0x28]
   1c728: f8500108     	ldur	x8, [x8, #-0x100]
   1c72c: f2ae484e     	movk	x14, #0x7242, lsl #16
   1c730: a978b7a1     	ldp	x1, x13, [x29, #-0x78]
   1c734: f2d1166e     	movk	x14, #0x88b3, lsl #32
   1c738: f81d03b4     	stur	x20, [x29, #-0x30]
   1c73c: f8100128     	stur	x8, [x9, #-0x100]
   1c740: d10323a8     	sub	x8, x29, #0xc8
   1c744: f85a83be     	ldur	x30, [x29, #-0x58]
   1c748: aa1603ea     	mov	x10, x22
   1c74c: aa1703e2     	mov	x2, x23
   1c750: aa1a03eb     	mov	x11, x26
   1c754: f8500110     	ldur	x16, [x8, #-0x100]
   1c758: aa1303e3     	mov	x3, x19
   1c75c: a97c1fa8     	ldp	x8, x7, [x29, #-0x40]
   1c760: aa1c03e4     	mov	x4, x28
   1c764: aa1903ec     	mov	x12, x25
   1c768: 5280002f     	mov	w15, #0x1               // =1
   1c76c: aa1b03f1     	mov	x17, x27
   1c770: f2efd88e     	movk	x14, #0x7ec4, lsl #48
   1c774: 17ffefac     	b	0x18624 <.text+0x105b4>
   1c778: f0000929     	adrp	x9, 0x143000
   1c77c: d2888e4e     	mov	x14, #0x4472            // =17522
   1c780: 4f03e7a1     	movi	v1.16b, #0x7d
   1c784: f2bd8f8e     	movk	x14, #0xec7c, lsl #16
   1c788: a97997a6     	ldp	x6, x5, [x29, #-0x68]
   1c78c: f2c5b88e     	movk	x14, #0x2dc4, lsl #32
   1c790: aa1603ea     	mov	x10, x22
   1c794: a978b7a1     	ldp	x1, x13, [x29, #-0x78]
   1c798: aa1703e2     	mov	x2, x23
   1c79c: aa1a03eb     	mov	x11, x26
   1c7a0: a97c1fa8     	ldp	x8, x7, [x29, #-0x40]
   1c7a4: aa1303e3     	mov	x3, x19
   1c7a8: aa1c03e4     	mov	x4, x28
   1c7ac: a97b43af     	ldp	x15, x16, [x29, #-0x50]
   1c7b0: aa1903ec     	mov	x12, x25
   1c7b4: f2ede04e     	movk	x14, #0x6f02, lsl #48
   1c7b8: 3dc04120     	ldr	q0, [x9, #0x100]
   1c7bc: 293b57b8     	stp	w24, w21, [x29, #-0x28]
   1c7c0: f85a83be     	ldur	x30, [x29, #-0x58]
   1c7c4: f81d03b4     	stur	x20, [x29, #-0x30]
   1c7c8: 6e211c00     	eor	v0.16b, v0.16b, v1.16b
   1c7cc: 3d804120     	str	q0, [x9, #0x100]
   1c7d0: d0000949     	adrp	x9, 0x146000
   1c7d4: 52800020     	mov	w0, #0x1                // =1
   1c7d8: 391b0d20     	strb	w0, [x9, #0x6c3]
   1c7dc: 17ffef92     	b	0x18624 <.text+0x105b4>
   1c7e0: d10873a8     	sub	x8, x29, #0x21c
   1c7e4: d10473a9     	sub	x9, x29, #0x11c
   1c7e8: d106c3ab     	sub	x11, x29, #0x1b0
   1c7ec: aa1603ea     	mov	x10, x22
   1c7f0: a97997a6     	ldp	x6, x5, [x29, #-0x68]
   1c7f4: aa1703e2     	mov	x2, x23
   1c7f8: aa1303e3     	mov	x3, x19
   1c7fc: b8500108     	ldur	w8, [x8, #-0x100]
   1c800: aa1c03e4     	mov	x4, x28
   1c804: a97b43af     	ldp	x15, x16, [x29, #-0x50]
   1c808: aa1903ec     	mov	x12, x25
   1c80c: 293b57b8     	stp	w24, w21, [x29, #-0x28]
   1c810: 53185d08     	lsl	w8, w8, #8
   1c814: f85903ad     	ldur	x13, [x29, #-0x70]
   1c818: f85c83a7     	ldur	x7, [x29, #-0x38]
   1c81c: f81d03b4     	stur	x20, [x29, #-0x30]
   1c820: b8100128     	stur	w8, [x9, #-0x100]
   1c824: d109e3a8     	sub	x8, x29, #0x278
   1c828: f8500109     	ldur	x9, [x8, #-0x100]
   1c82c: 38401d28     	ldrb	w8, [x9, #0x1]!
   1c830: f8100169     	stur	x9, [x11, #-0x100]
   1c834: d10243a9     	sub	x9, x29, #0x90
   1c838: aa1a03eb     	mov	x11, x26
   1c83c: 140004b3     	b	0x1db08 <.text+0x15a98>
   1c840: d10803a8     	sub	x8, x29, #0x200
   1c844: d106a3a9     	sub	x9, x29, #0x1a8
   1c848: a97997a6     	ldp	x6, x5, [x29, #-0x68]
   1c84c: d295dc8e     	mov	x14, #0xaee4            // =44772
   1c850: 293b57b8     	stp	w24, w21, [x29, #-0x28]
   1c854: f8500108     	ldur	x8, [x8, #-0x100]
   1c858: f2b9c98e     	movk	x14, #0xce4c, lsl #16
   1c85c: f8500129     	ldur	x9, [x9, #-0x100]
   1c860: f2c10aae     	movk	x14, #0x855, lsl #32
   1c864: a978b7a1     	ldp	x1, x13, [x29, #-0x78]
   1c868: f81d03b4     	stur	x20, [x29, #-0x30]
   1c86c: aa1603ea     	mov	x10, x22
   1c870: cb080128     	sub	x8, x9, x8
   1c874: d103c3a9     	sub	x9, x29, #0xf0
   1c878: a97b43af     	ldp	x15, x16, [x29, #-0x50]
   1c87c: aa1703e2     	mov	x2, x23
   1c880: aa1a03eb     	mov	x11, x26
   1c884: f8100128     	stur	x8, [x9, #-0x100]
   1c888: f85a83be     	ldur	x30, [x29, #-0x58]
   1c88c: a97c1fa8     	ldp	x8, x7, [x29, #-0x40]
   1c890: aa1303e3     	mov	x3, x19
   1c894: aa1c03e4     	mov	x4, x28
   1c898: aa1903ec     	mov	x12, x25
   1c89c: f2fa45ae     	movk	x14, #0xd22d, lsl #48
   1c8a0: 17ffef61     	b	0x18624 <.text+0x105b4>
   1c8a4: f0000920     	adrp	x0, 0x143000
   1c8a8: 91048000     	add	x0, x0, #0x120
   1c8ac: 5280086c     	mov	w12, #0x43              // =67
   1c8b0: aa0903e1     	mov	x1, x9
   1c8b4: 4f02e461     	movi	v1.16b, #0x43
   1c8b8: d298896e     	mov	x14, #0xc44b            // =50251
   1c8bc: 39406008     	ldrb	w8, [x0, #0x18]
   1c8c0: f2b3214e     	movk	x14, #0x990a, lsl #16
   1c8c4: 3940680a     	ldrb	w10, [x0, #0x1a]
   1c8c8: f2ce026e     	movk	x14, #0x7013, lsl #32
   1c8cc: 39406409     	ldrb	w9, [x0, #0x19]
   1c8d0: 293b57b8     	stp	w24, w21, [x29, #-0x28]
   1c8d4: 4a0c0108     	eor	w8, w8, w12
   1c8d8: 39406c0b     	ldrb	w11, [x0, #0x1b]
   1c8dc: 3dc00000     	ldr	q0, [x0]
   1c8e0: f81d03b4     	stur	x20, [x29, #-0x30]
   1c8e4: 4a0c0129     	eor	w9, w9, w12
   1c8e8: f85903ad     	ldur	x13, [x29, #-0x70]
   1c8ec: 39006008     	strb	w8, [x0, #0x18]
   1c8f0: 4a0c0148     	eor	w8, w10, w12
   1c8f4: 4a0c016a     	eor	w10, w11, w12
   1c8f8: f85a83be     	ldur	x30, [x29, #-0x58]
   1c8fc: 39006409     	strb	w9, [x0, #0x19]
   1c900: 39407009     	ldrb	w9, [x0, #0x1c]
   1c904: 39006808     	strb	w8, [x0, #0x1a]
   1c908: 39407408     	ldrb	w8, [x0, #0x1d]
   1c90c: 39006c0a     	strb	w10, [x0, #0x1b]
   1c910: 3940780a     	ldrb	w10, [x0, #0x1e]
   1c914: 6e211c00     	eor	v0.16b, v0.16b, v1.16b
   1c918: 4a0c0129     	eor	w9, w9, w12
   1c91c: 3d800000     	str	q0, [x0]
   1c920: 4a0c0108     	eor	w8, w8, w12
   1c924: fd400800     	ldr	d0, [x0, #0x10]
   1c928: 4a0c014a     	eor	w10, w10, w12
   1c92c: a97997a6     	ldp	x6, x5, [x29, #-0x68]
   1c930: 39007408     	strb	w8, [x0, #0x1d]
   1c934: aa1703e2     	mov	x2, x23
   1c938: 2e281c00     	eor	v0.8b, v0.8b, v8.8b
   1c93c: 39007009     	strb	w9, [x0, #0x1c]
   1c940: a97c1fa8     	ldp	x8, x7, [x29, #-0x40]
   1c944: 3900780a     	strb	w10, [x0, #0x1e]
   1c948: 52800029     	mov	w9, #0x1                // =1
   1c94c: a97b43af     	ldp	x15, x16, [x29, #-0x50]
   1c950: fd000800     	str	d0, [x0, #0x10]
   1c954: d0000940     	adrp	x0, 0x146000
   1c958: aa1603ea     	mov	x10, x22
   1c95c: aa1a03eb     	mov	x11, x26
   1c960: aa1303e3     	mov	x3, x19
   1c964: aa1c03e4     	mov	x4, x28
   1c968: aa1903ec     	mov	x12, x25
   1c96c: f2e27c2e     	movk	x14, #0x13e1, lsl #48
   1c970: 391b1809     	strb	w9, [x0, #0x6c6]
   1c974: 17ffef2c     	b	0x18624 <.text+0x105b4>
   1c978: d10203a8     	sub	x8, x29, #0x80
   1c97c: d10103a9     	sub	x9, x29, #0x40
   1c980: a97997a6     	ldp	x6, x5, [x29, #-0x68]
   1c984: 293b57b8     	stp	w24, w21, [x29, #-0x28]
   1c988: aa1603ea     	mov	x10, x22
   1c98c: f8500108     	ldur	x8, [x8, #-0x100]
   1c990: f81d03b4     	stur	x20, [x29, #-0x30]
   1c994: f8500120     	ldur	x0, [x9, #-0x100]
   1c998: d2846129     	mov	x9, #0x2309             // =8969
   1c99c: f2b82709     	movk	x9, #0xc138, lsl #16
   1c9a0: f85a83be     	ldur	x30, [x29, #-0x58]
   1c9a4: f9400108     	ldr	x8, [x8]
   1c9a8: f2df3709     	movk	x9, #0xf9b8, lsl #32
   1c9ac: f2e42009     	movk	x9, #0x2100, lsl #48
   1c9b0: aa1703e2     	mov	x2, x23
   1c9b4: a978b7a1     	ldp	x1, x13, [x29, #-0x78]
   1c9b8: f100011f     	cmp	x8, #0x0
   1c9bc: d29bd528     	mov	x8, #0xdea9             // =57001
   1c9c0: f2a67048     	movk	x8, #0x3382, lsl #16
   1c9c4: aa1a03eb     	mov	x11, x26
   1c9c8: f2d24928     	movk	x8, #0x9249, lsl #32
   1c9cc: aa1303e3     	mov	x3, x19
   1c9d0: f2f28988     	movk	x8, #0x944c, lsl #48
   1c9d4: aa1c03e4     	mov	x4, x28
   1c9d8: 9a88012e     	csel	x14, x9, x8, eq
   1c9dc: d10463a9     	sub	x9, x29, #0x118
   1c9e0: a97c1fa8     	ldp	x8, x7, [x29, #-0x40]
   1c9e4: aa1903ec     	mov	x12, x25
   1c9e8: aa1b03f1     	mov	x17, x27
   1c9ec: a97b43af     	ldp	x15, x16, [x29, #-0x50]
   1c9f0: f8008c1f     	str	xzr, [x0, #0x8]!
   1c9f4: f8100120     	stur	x0, [x9, #-0x100]
   1c9f8: 17ffef0b     	b	0x18624 <.text+0x105b4>
   1c9fc: d103c3a8     	sub	x8, x29, #0xf0
   1ca00: d28d8789     	mov	x9, #0x6c3c             // =27708
   1ca04: f2b48889     	movk	x9, #0xa444, lsl #16
   1ca08: 293b57b8     	stp	w24, w21, [x29, #-0x28]
   1ca0c: f2c7dba9     	movk	x9, #0x3edd, lsl #32
   1ca10: f8500108     	ldur	x8, [x8, #-0x100]
   1ca14: f2f2e1a9     	movk	x9, #0x970d, lsl #48
   1ca18: f1000508     	subs	x8, x8, #0x1
   1ca1c: f81083a8     	stur	x8, [x29, #-0xf8]
   1ca20: d280c148     	mov	x8, #0x60a              // =1546
   1ca24: f2a9c728     	movk	x8, #0x4e39, lsl #16
   1ca28: f2cf7f68     	movk	x8, #0x7bfb, lsl #32
   1ca2c: f2f0da88     	movk	x8, #0x86d4, lsl #48
   1ca30: 9a88012e     	csel	x14, x9, x8, eq
   1ca34: 140001c1     	b	0x1d138 <.text+0x150c8>
   1ca38: d100e3a8     	sub	x8, x29, #0x38
   1ca3c: d10503aa     	sub	x10, x29, #0x140
   1ca40: d10643ad     	sub	x13, x29, #0x190
   1ca44: d29c0f4e     	mov	x14, #0xe07a            // =57466
   1ca48: a97997a6     	ldp	x6, x5, [x29, #-0x68]
   1ca4c: f2b569ae     	movk	x14, #0xab4d, lsl #16
   1ca50: 293b57b8     	stp	w24, w21, [x29, #-0x28]
   1ca54: f8500108     	ldur	x8, [x8, #-0x100]
   1ca58: f2cb038e     	movk	x14, #0x581c, lsl #32
   1ca5c: a97b43af     	ldp	x15, x16, [x29, #-0x50]
   1ca60: f81d03b4     	stur	x20, [x29, #-0x30]
   1ca64: aa1703e2     	mov	x2, x23
   1ca68: 8b1a0108     	add	x8, x8, x26
   1ca6c: f85a83be     	ldur	x30, [x29, #-0x58]
   1ca70: aa1a03eb     	mov	x11, x26
   1ca74: aa1303e3     	mov	x3, x19
   1ca78: aa1c03e4     	mov	x4, x28
   1ca7c: aa1903ec     	mov	x12, x25
   1ca80: f8100148     	stur	x8, [x10, #-0x100]
   1ca84: d104e3a8     	sub	x8, x29, #0x138
   1ca88: aa1603ea     	mov	x10, x22
   1ca8c: aa0903e1     	mov	x1, x9
   1ca90: f2f355ce     	movk	x14, #0x9aae, lsl #48
   1ca94: f8100117     	stur	x23, [x8, #-0x100]
   1ca98: d10a83a8     	sub	x8, x29, #0x2a0
   1ca9c: f8500108     	ldur	x8, [x8, #-0x100]
   1caa0: f81001a8     	stur	x8, [x13, #-0x100]
   1caa4: f85903ad     	ldur	x13, [x29, #-0x70]
   1caa8: a97c1fa8     	ldp	x8, x7, [x29, #-0x40]
   1caac: 17ffeede     	b	0x18624 <.text+0x105b4>
   1cab0: 2a1f03e0     	mov	w0, wzr
   1cab4: 52800021     	mov	w1, #0x1                // =1
   1cab8: d0000942     	adrp	x2, 0x146000
   1cabc: 9108f042     	add	x2, x2, #0x23c
   1cac0: 94047350     	bl	0x139800 <Java_com_adjust_sdk_sig_NativeLibHelper_nSign+0x6d1fc>
   1cac4: d284a808     	mov	x8, #0x2540             // =9536
   1cac8: d2872169     	mov	x9, #0x390b             // =14603
   1cacc: f2b69048     	movk	x8, #0xb482, lsl #16
   1cad0: f2bcdea9     	movk	x9, #0xe6f5, lsl #16
   1cad4: f2c1a228     	movk	x8, #0xd11, lsl #32
   1cad8: f2d66769     	movk	x9, #0xb33b, lsl #32
   1cadc: 293b57b8     	stp	w24, w21, [x29, #-0x28]
   1cae0: 7100001f     	cmp	w0, #0x0
   1cae4: f81d03b4     	stur	x20, [x29, #-0x30]
   1cae8: f2f43468     	movk	x8, #0xa1a3, lsl #48
   1caec: f2ee2f29     	movk	x9, #0x7179, lsl #48
   1caf0: 14000209     	b	0x1d314 <.text+0x152a4>
   1caf4: d10983a8     	sub	x8, x29, #0x260
   1caf8: d10703ab     	sub	x11, x29, #0x1c0
   1cafc: a97b43af     	ldp	x15, x16, [x29, #-0x50]
   1cb00: aa1603ea     	mov	x10, x22
   1cb04: aa1703e2     	mov	x2, x23
   1cb08: f8500109     	ldur	x9, [x8, #-0x100]
   1cb0c: aa1303e3     	mov	x3, x19
   1cb10: aa1c03e4     	mov	x4, x28
   1cb14: aa1903ec     	mov	x12, x25
   1cb18: f85a03a5     	ldur	x5, [x29, #-0x60]
   1cb1c: aa1b03f1     	mov	x17, x27
   1cb20: 38401d28     	ldrb	w8, [x9, #0x1]!
   1cb24: f8100169     	stur	x9, [x11, #-0x100]
   1cb28: d10223a9     	sub	x9, x29, #0x88
   1cb2c: aa1a03eb     	mov	x11, x26
   1cb30: f85903ad     	ldur	x13, [x29, #-0x70]
   1cb34: f85983a6     	ldur	x6, [x29, #-0x68]
   1cb38: 293b57b8     	stp	w24, w21, [x29, #-0x28]
   1cb3c: b8100128     	stur	w8, [x9, #-0x100]
   1cb40: d10993a9     	sub	x9, x29, #0x264
   1cb44: f85c83a7     	ldur	x7, [x29, #-0x38]
   1cb48: f81d03b4     	stur	x20, [x29, #-0x30]
   1cb4c: f85a83be     	ldur	x30, [x29, #-0x58]
   1cb50: b8500129     	ldur	w9, [x9, #-0x100]
   1cb54: 2a080128     	orr	w8, w9, w8
   1cb58: d10673a9     	sub	x9, x29, #0x19c
   1cb5c: 53185d08     	lsl	w8, w8, #8
   1cb60: b8100128     	stur	w8, [x9, #-0x100]
   1cb64: 140000bd     	b	0x1ce58 <.text+0x14de8>
   1cb68: d100c3a8     	sub	x8, x29, #0x30
   1cb6c: d10863ab     	sub	x11, x29, #0x218
   1cb70: f85a03a5     	ldur	x5, [x29, #-0x60]
   1cb74: 293b57b8     	stp	w24, w21, [x29, #-0x28]
   1cb78: f85903ad     	ldur	x13, [x29, #-0x70]
   1cb7c: f81d03b4     	stur	x20, [x29, #-0x30]
   1cb80: f8500109     	ldur	x9, [x8, #-0x100]
   1cb84: aa1603ea     	mov	x10, x22
   1cb88: aa1703e2     	mov	x2, x23
   1cb8c: aa1303e3     	mov	x3, x19
   1cb90: aa1c03e4     	mov	x4, x28
   1cb94: aa1903ec     	mov	x12, x25
   1cb98: 38403d28     	ldrb	w8, [x9, #0x3]!
   1cb9c: f8100169     	stur	x9, [x11, #-0x100]
   1cba0: d10783a9     	sub	x9, x29, #0x1e0
   1cba4: aa1a03eb     	mov	x11, x26
   1cba8: 7100011f     	cmp	w8, #0x0
   1cbac: b8100128     	stur	w8, [x9, #-0x100]
   1cbb0: d285e5a8     	mov	x8, #0x2f2d             // =12077
   1cbb4: d289ac29     	mov	x9, #0x4d61             // =19809
   1cbb8: f2a6b3e8     	movk	x8, #0x359f, lsl #16
   1cbbc: f2a40729     	movk	x9, #0x2039, lsl #16
   1cbc0: f2c1d9c8     	movk	x8, #0xece, lsl #32
   1cbc4: f2dc2529     	movk	x9, #0xe129, lsl #32
   1cbc8: f2f311e8     	movk	x8, #0x988f, lsl #48
   1cbcc: f2ffd249     	movk	x9, #0xfe92, lsl #48
   1cbd0: 9a89010e     	csel	x14, x8, x9, eq
   1cbd4: 140002ca     	b	0x1d6fc <.text+0x1568c>
   1cbd8: f85103a8     	ldur	x8, [x29, #-0xf0]
   1cbdc: d284a3a9     	mov	x9, #0x251d             // =9501
   1cbe0: f2b11d29     	movk	x9, #0x88e9, lsl #16
   1cbe4: 293b57b8     	stp	w24, w21, [x29, #-0x28]
   1cbe8: f2dd8109     	movk	x9, #0xec08, lsl #32
   1cbec: f81d03b4     	stur	x20, [x29, #-0x30]
   1cbf0: 39400108     	ldrb	w8, [x8]
   1cbf4: f2e43749     	movk	x9, #0x21ba, lsl #48
   1cbf8: aa1603ea     	mov	x10, x22
   1cbfc: aa1703e2     	mov	x2, x23
   1cc00: aa1a03eb     	mov	x11, x26
   1cc04: aa1303e3     	mov	x3, x19
   1cc08: 7100011f     	cmp	w8, #0x0
   1cc0c: d280db48     	mov	x8, #0x6da              // =1754
   1cc10: f2ad8c48     	movk	x8, #0x6c62, lsl #16
   1cc14: f2c53208     	movk	x8, #0x2990, lsl #32
   1cc18: f2f03008     	movk	x8, #0x8180, lsl #48
   1cc1c: 9a89010e     	csel	x14, x8, x9, eq
   1cc20: 140002b3     	b	0x1d6ec <.text+0x1567c>
   1cc24: d100c3a8     	sub	x8, x29, #0x30
   1cc28: d10823ab     	sub	x11, x29, #0x208
   1cc2c: f85a03a5     	ldur	x5, [x29, #-0x60]
   1cc30: 293b57b8     	stp	w24, w21, [x29, #-0x28]
   1cc34: f85903ad     	ldur	x13, [x29, #-0x70]
   1cc38: f81d03b4     	stur	x20, [x29, #-0x30]
   1cc3c: f8500108     	ldur	x8, [x8, #-0x100]
   1cc40: aa1603ea     	mov	x10, x22
   1cc44: aa1703e2     	mov	x2, x23
   1cc48: aa1303e3     	mov	x3, x19
   1cc4c: aa1c03e4     	mov	x4, x28
   1cc50: aa1903ec     	mov	x12, x25
   1cc54: 38402d09     	ldrb	w9, [x8, #0x2]!
   1cc58: f8100168     	stur	x8, [x11, #-0x100]
   1cc5c: d103f3a8     	sub	x8, x29, #0xfc
   1cc60: aa1a03eb     	mov	x11, x26
   1cc64: 7100013f     	cmp	w9, #0x0
   1cc68: b8100109     	stur	w9, [x8, #-0x100]
   1cc6c: d298b748     	mov	x8, #0xc5ba             // =50618
   1cc70: d29ddea9     	mov	x9, #0xeef5             // =61173
   1cc74: f2aa2508     	movk	x8, #0x5128, lsl #16
   1cc78: f2bc6209     	movk	x9, #0xe310, lsl #16
   1cc7c: f2c0d028     	movk	x8, #0x681, lsl #32
   1cc80: f2d4ab69     	movk	x9, #0xa55b, lsl #32
   1cc84: f2eaa008     	movk	x8, #0x5500, lsl #48
   1cc88: f2e99029     	movk	x9, #0x4c81, lsl #48
   1cc8c: 9a88012e     	csel	x14, x9, x8, eq
   1cc90: 1400029b     	b	0x1d6fc <.text+0x1568c>
   1cc94: f85983a6     	ldur	x6, [x29, #-0x68]
   1cc98: d10523a8     	sub	x8, x29, #0x148
   1cc9c: f85903ad     	ldur	x13, [x29, #-0x70]
   1cca0: d105e3a9     	sub	x9, x29, #0x178
   1cca4: f85a03a5     	ldur	x5, [x29, #-0x60]
   1cca8: 293b57b8     	stp	w24, w21, [x29, #-0x28]
   1ccac: f8100106     	stur	x6, [x8, #-0x100]
   1ccb0: d10543a8     	sub	x8, x29, #0x150
   1ccb4: f81d03b4     	stur	x20, [x29, #-0x30]
   1ccb8: aa1603ea     	mov	x10, x22
   1ccbc: aa1703e2     	mov	x2, x23
   1ccc0: aa1a03eb     	mov	x11, x26
   1ccc4: f810010d     	stur	x13, [x8, #-0x100]
   1ccc8: 52800028     	mov	w8, #0x1                // =1
   1cccc: aa1303e3     	mov	x3, x19
   1ccd0: aa1c03e4     	mov	x4, x28
   1ccd4: aa1903ec     	mov	x12, x25
   1ccd8: f8100128     	stur	x8, [x9, #-0x100]
   1ccdc: 1400014c     	b	0x1d20c <.text+0x1519c>
   1cce0: d105a3a8     	sub	x8, x29, #0x168
   1cce4: d105c3a9     	sub	x9, x29, #0x170
   1cce8: 293b57b8     	stp	w24, w21, [x29, #-0x28]
   1ccec: aa1603ea     	mov	x10, x22
   1ccf0: f81d03b4     	stur	x20, [x29, #-0x30]
   1ccf4: aa1703e2     	mov	x2, x23
   1ccf8: f8500108     	ldur	x8, [x8, #-0x100]
   1ccfc: f8500129     	ldur	x9, [x9, #-0x100]
   1cd00: 39400108     	ldrb	w8, [x8]
   1cd04: 3940012b     	ldrb	w11, [x9]
   1cd08: d2988629     	mov	x9, #0xc431             // =50225
   1cd0c: f2b177e9     	movk	x9, #0x8bbf, lsl #16
   1cd10: f2d8f449     	movk	x9, #0xc7a2, lsl #32
   1cd14: 6b0b011f     	cmp	w8, w11
   1cd18: d29b57c8     	mov	x8, #0xdabe             // =55998
   1cd1c: f2b2d008     	movk	x8, #0x9680, lsl #16
   1cd20: f2ef8189     	movk	x9, #0x7c0c, lsl #48
   1cd24: f2cdde68     	movk	x8, #0x6ef3, lsl #32
   1cd28: aa1a03eb     	mov	x11, x26
   1cd2c: f2e52508     	movk	x8, #0x2928, lsl #48
   1cd30: 9a89010e     	csel	x14, x8, x9, eq
   1cd34: 1400026d     	b	0x1d6e8 <.text+0x15678>
   1cd38: d10223a8     	sub	x8, x29, #0x88
   1cd3c: d10673aa     	sub	x10, x29, #0x19c
   1cd40: d10893ab     	sub	x11, x29, #0x224
   1cd44: b81dc3b5     	stur	w21, [x29, #-0x24]
   1cd48: b81d83b8     	stur	w24, [x29, #-0x28]
   1cd4c: b8500108     	ldur	w8, [x8, #-0x100]
   1cd50: f81d03b4     	stur	x20, [x29, #-0x30]
   1cd54: b850014a     	ldur	w10, [x10, #-0x100]
   1cd58: 7100011f     	cmp	w8, #0x0
   1cd5c: d108a3a8     	sub	x8, x29, #0x228
   1cd60: 1a9f07e9     	cset	w9, ne
   1cd64: b8500108     	ldur	w8, [x8, #-0x100]
   1cd68: b8100169     	stur	w9, [x11, #-0x100]
   1cd6c: 6b08015f     	cmp	w10, w8
   1cd70: 1a9f07e8     	cset	w8, ne
   1cd74: 6a08013f     	tst	w9, w8
   1cd78: d10703a8     	sub	x8, x29, #0x1c0
   1cd7c: d10983a9     	sub	x9, x29, #0x260
   1cd80: f8500108     	ldur	x8, [x8, #-0x100]
   1cd84: f8100128     	stur	x8, [x9, #-0x100]
   1cd88: d28f36a8     	mov	x8, #0x79b5             // =31157
   1cd8c: d295e909     	mov	x9, #0xaf48             // =44872
   1cd90: f2b88d28     	movk	x8, #0xc469, lsl #16
   1cd94: f2bdb0c9     	movk	x9, #0xed86, lsl #16
   1cd98: f2d89be8     	movk	x8, #0xc4df, lsl #32
   1cd9c: f2cf7d49     	movk	x9, #0x7bea, lsl #32
   1cda0: f2fbc2a8     	movk	x8, #0xde15, lsl #48
   1cda4: f2e03be9     	movk	x9, #0x1df, lsl #48
   1cda8: 9a88112e     	csel	x14, x9, x8, ne
   1cdac: d10993a8     	sub	x8, x29, #0x264
   1cdb0: b810010a     	stur	w10, [x8, #-0x100]
   1cdb4: 140000e2     	b	0x1d13c <.text+0x150cc>
   1cdb8: d103f3a9     	sub	x9, x29, #0xfc
   1cdbc: b85583aa     	ldur	w10, [x29, #-0xa8]
   1cdc0: d10223ab     	sub	x11, x29, #0x88
   1cdc4: d101d3a8     	sub	x8, x29, #0x74
   1cdc8: a97997a6     	ldp	x6, x5, [x29, #-0x68]
   1cdcc: b81dc3b5     	stur	w21, [x29, #-0x24]
   1cdd0: aa1703e2     	mov	x2, x23
   1cdd4: b8500129     	ldur	w9, [x9, #-0x100]
   1cdd8: b81d83b8     	stur	w24, [x29, #-0x28]
   1cddc: b8500108     	ldur	w8, [x8, #-0x100]
   1cde0: f81d03b4     	stur	x20, [x29, #-0x30]
   1cde4: a97b43af     	ldp	x15, x16, [x29, #-0x50]
   1cde8: 33181d2a     	bfi	w10, w9, #8, #8
   1cdec: 52800029     	mov	w9, #0x1                // =1
   1cdf0: 12001d08     	and	w8, w8, #0xff
   1cdf4: f85903ad     	ldur	x13, [x29, #-0x70]
   1cdf8: 53103d08     	lsl	w8, w8, #16
   1cdfc: f85c83a7     	ldur	x7, [x29, #-0x38]
   1ce00: b8100169     	stur	w9, [x11, #-0x100]
   1ce04: d10263a9     	sub	x9, x29, #0x98
   1ce08: d10673ab     	sub	x11, x29, #0x19c
   1ce0c: f85a83be     	ldur	x30, [x29, #-0x58]
   1ce10: aa1303e3     	mov	x3, x19
   1ce14: aa1c03e4     	mov	x4, x28
   1ce18: b8500129     	ldur	w9, [x9, #-0x100]
   1ce1c: aa1903ec     	mov	x12, x25
   1ce20: 33181d28     	bfi	w8, w9, #8, #8
   1ce24: d101e3a9     	sub	x9, x29, #0x78
   1ce28: b8500129     	ldur	w9, [x9, #-0x100]
   1ce2c: 2a09614a     	orr	w10, w10, w9, lsl #24
   1ce30: 2a096108     	orr	w8, w8, w9, lsl #24
   1ce34: d108a3a9     	sub	x9, x29, #0x228
   1ce38: b810016a     	stur	w10, [x11, #-0x100]
   1ce3c: aa1603ea     	mov	x10, x22
   1ce40: b8100128     	stur	w8, [x9, #-0x100]
   1ce44: d10823a8     	sub	x8, x29, #0x208
   1ce48: d10703a9     	sub	x9, x29, #0x1c0
   1ce4c: aa1a03eb     	mov	x11, x26
   1ce50: f8500108     	ldur	x8, [x8, #-0x100]
   1ce54: f8100128     	stur	x8, [x9, #-0x100]
   1ce58: d28e0e4e     	mov	x14, #0x7072            // =28786
   1ce5c: f85c03a8     	ldur	x8, [x29, #-0x40]
   1ce60: f85883a1     	ldur	x1, [x29, #-0x78]
   1ce64: f2b0932e     	movk	x14, #0x8499, lsl #16
   1ce68: f2c2646e     	movk	x14, #0x1323, lsl #32
   1ce6c: f2e38a6e     	movk	x14, #0x1c53, lsl #48
   1ce70: 17ffeded     	b	0x18624 <.text+0x105b4>
   1ce74: f85083a8     	ldur	x8, [x29, #-0xf8]
   1ce78: d103c3a9     	sub	x9, x29, #0xf0
   1ce7c: a97997a6     	ldp	x6, x5, [x29, #-0x68]
   1ce80: d295dc8e     	mov	x14, #0xaee4            // =44772
   1ce84: 293b57b8     	stp	w24, w21, [x29, #-0x28]
   1ce88: f8100128     	stur	x8, [x9, #-0x100]
   1ce8c: d109c3a9     	sub	x9, x29, #0x270
   1ce90: a978b7a1     	ldp	x1, x13, [x29, #-0x78]
   1ce94: f2b9c98e     	movk	x14, #0xce4c, lsl #16
   1ce98: f81d03b4     	stur	x20, [x29, #-0x30]
   1ce9c: a97c1fa8     	ldp	x8, x7, [x29, #-0x40]
   1cea0: f2c10aae     	movk	x14, #0x855, lsl #32
   1cea4: aa1603ea     	mov	x10, x22
   1cea8: a97b43af     	ldp	x15, x16, [x29, #-0x50]
   1ceac: aa1703e2     	mov	x2, x23
   1ceb0: aa1a03eb     	mov	x11, x26
   1ceb4: f8500129     	ldur	x9, [x9, #-0x100]
   1ceb8: aa1303e3     	mov	x3, x19
   1cebc: f85a83be     	ldur	x30, [x29, #-0x58]
   1cec0: aa1c03e4     	mov	x4, x28
   1cec4: aa1903ec     	mov	x12, x25
   1cec8: f2fa45ae     	movk	x14, #0xd22d, lsl #48
   1cecc: 3900013f     	strb	wzr, [x9]
   1ced0: 17ffedd5     	b	0x18624 <.text+0x105b4>
   1ced4: d10a23a8     	sub	x8, x29, #0x288
   1ced8: d10383a9     	sub	x9, x29, #0xe0
   1cedc: a97997a6     	ldp	x6, x5, [x29, #-0x68]
   1cee0: aa1603ea     	mov	x10, x22
   1cee4: aa1703e2     	mov	x2, x23
   1cee8: f8500108     	ldur	x8, [x8, #-0x100]
   1ceec: aa1a03eb     	mov	x11, x26
   1cef0: a97b43af     	ldp	x15, x16, [x29, #-0x50]
   1cef4: aa1303e3     	mov	x3, x19
   1cef8: aa1c03e4     	mov	x4, x28
   1cefc: d1000508     	sub	x8, x8, #0x1
   1cf00: aa1903ec     	mov	x12, x25
   1cf04: f85903ad     	ldur	x13, [x29, #-0x70]
   1cf08: aa1b03f1     	mov	x17, x27
   1cf0c: f85c83a7     	ldur	x7, [x29, #-0x38]
   1cf10: 293b57b8     	stp	w24, w21, [x29, #-0x28]
   1cf14: f8100128     	stur	x8, [x9, #-0x100]
   1cf18: d105a3a8     	sub	x8, x29, #0x168
   1cf1c: d10583a9     	sub	x9, x29, #0x160
   1cf20: f85a83be     	ldur	x30, [x29, #-0x58]
   1cf24: f81d03b4     	stur	x20, [x29, #-0x30]
   1cf28: f8500108     	ldur	x8, [x8, #-0x100]
   1cf2c: 91000508     	add	x8, x8, #0x1
   1cf30: f8100128     	stur	x8, [x9, #-0x100]
   1cf34: d105c3a8     	sub	x8, x29, #0x170
   1cf38: d103a3a9     	sub	x9, x29, #0xe8
   1cf3c: f8500108     	ldur	x8, [x8, #-0x100]
   1cf40: 91000508     	add	x8, x8, #0x1
   1cf44: f8100128     	stur	x8, [x9, #-0x100]
   1cf48: d29b856e     	mov	x14, #0xdc2b            // =56363
   1cf4c: f85c03a8     	ldur	x8, [x29, #-0x40]
   1cf50: f85883a1     	ldur	x1, [x29, #-0x78]
   1cf54: f2ba3f8e     	movk	x14, #0xd1fc, lsl #16
   1cf58: f2d8ce6e     	movk	x14, #0xc673, lsl #32
   1cf5c: f2f5b68e     	movk	x14, #0xadb4, lsl #48
   1cf60: 17ffedb1     	b	0x18624 <.text+0x105b4>
   1cf64: f85c03a0     	ldur	x0, [x29, #-0x40]
   1cf68: f0000928     	adrp	x8, 0x143000
   1cf6c: 91050d08     	add	x8, x8, #0x143
   1cf70: d28c8749     	mov	x9, #0x643a             // =25658
   1cf74: f2b8ed49     	movk	x9, #0xc76a, lsl #16
   1cf78: aa1603ea     	mov	x10, x22
   1cf7c: eb08001f     	cmp	x0, x8
   1cf80: d294a948     	mov	x8, #0xa54a             // =42314
   1cf84: f2b534c8     	movk	x8, #0xa9a6, lsl #16
   1cf88: f2df01e9     	movk	x9, #0xf80f, lsl #32
   1cf8c: f2c8eea8     	movk	x8, #0x4775, lsl #32
   1cf90: f2ec7d29     	movk	x9, #0x63e9, lsl #48
   1cf94: a97997a6     	ldp	x6, x5, [x29, #-0x68]
   1cf98: f2f27f28     	movk	x8, #0x93f9, lsl #48
   1cf9c: aa1703e2     	mov	x2, x23
   1cfa0: a97b43af     	ldp	x15, x16, [x29, #-0x50]
   1cfa4: 9a89010e     	csel	x14, x8, x9, eq
   1cfa8: aa1a03eb     	mov	x11, x26
   1cfac: aa1303e3     	mov	x3, x19
   1cfb0: aa1c03e4     	mov	x4, x28
   1cfb4: aa1903ec     	mov	x12, x25
   1cfb8: f85903ad     	ldur	x13, [x29, #-0x70]
   1cfbc: f85c83a7     	ldur	x7, [x29, #-0x38]
   1cfc0: aa1b03f1     	mov	x17, x27
   1cfc4: f85a83be     	ldur	x30, [x29, #-0x58]
   1cfc8: 293b57b8     	stp	w24, w21, [x29, #-0x28]
   1cfcc: f81d03b4     	stur	x20, [x29, #-0x30]
   1cfd0: 140001f2     	b	0x1d798 <.text+0x15728>
   1cfd4: d101c3a8     	sub	x8, x29, #0x70
   1cfd8: d10343a9     	sub	x9, x29, #0xd0
   1cfdc: 293b57b8     	stp	w24, w21, [x29, #-0x28]
   1cfe0: f8500108     	ldur	x8, [x8, #-0x100]
   1cfe4: 91000508     	add	x8, x8, #0x1
   1cfe8: f8100128     	stur	x8, [x9, #-0x100]
   1cfec: a97997a6     	ldp	x6, x5, [x29, #-0x68]
   1cff0: d2994e6e     	mov	x14, #0xca73            // =51827
   1cff4: f81d03b4     	stur	x20, [x29, #-0x30]
   1cff8: a978b7a1     	ldp	x1, x13, [x29, #-0x78]
   1cffc: f2a4012e     	movk	x14, #0x2009, lsl #16
   1d000: aa1603ea     	mov	x10, x22
   1d004: a97c1fa8     	ldp	x8, x7, [x29, #-0x40]
   1d008: f2da3fce     	movk	x14, #0xd1fe, lsl #32
   1d00c: aa1703e2     	mov	x2, x23
   1d010: a97b43af     	ldp	x15, x16, [x29, #-0x50]
   1d014: aa1a03eb     	mov	x11, x26
   1d018: aa1303e3     	mov	x3, x19
   1d01c: f85a83be     	ldur	x30, [x29, #-0x58]
   1d020: aa1c03e4     	mov	x4, x28
   1d024: aa1903ec     	mov	x12, x25
   1d028: aa1b03f1     	mov	x17, x27
   1d02c: f2ef7bce     	movk	x14, #0x7bde, lsl #48
   1d030: 17ffed7d     	b	0x18624 <.text+0x105b4>
   1d034: f85603a8     	ldur	x8, [x29, #-0xa0]
   1d038: 293b57b8     	stp	w24, w21, [x29, #-0x28]
   1d03c: f85083a9     	ldur	x9, [x29, #-0xf8]
   1d040: f81d03b4     	stur	x20, [x29, #-0x30]
   1d044: a97997a6     	ldp	x6, x5, [x29, #-0x68]
   1d048: aa1603ea     	mov	x10, x22
   1d04c: aa1703e2     	mov	x2, x23
   1d050: 8b090108     	add	x8, x8, x9
   1d054: d109c3a9     	sub	x9, x29, #0x270
   1d058: f85903ad     	ldur	x13, [x29, #-0x70]
   1d05c: aa1a03eb     	mov	x11, x26
   1d060: aa1303e3     	mov	x3, x19
   1d064: aa1c03e4     	mov	x4, x28
   1d068: f8100128     	stur	x8, [x9, #-0x100]
   1d06c: 39400108     	ldrb	w8, [x8]
   1d070: d28363a9     	mov	x9, #0x1b1d             // =6941
   1d074: aa1903ec     	mov	x12, x25
   1d078: f2a19189     	movk	x9, #0xc8c, lsl #16
   1d07c: 7100bd1f     	cmp	w8, #0x2f
   1d080: d289c688     	mov	x8, #0x4e34             // =20020
   1d084: f2b7e9e8     	movk	x8, #0xbf4f, lsl #16
   1d088: f2c296c9     	movk	x9, #0x14b6, lsl #32
   1d08c: f2d90ae8     	movk	x8, #0xc857, lsl #32
   1d090: f2fb1a49     	movk	x9, #0xd8d2, lsl #48
   1d094: f2e8eea8     	movk	x8, #0x4775, lsl #48
   1d098: 9a88012e     	csel	x14, x9, x8, eq
   1d09c: 14000199     	b	0x1d700 <.text+0x15690>
   1d0a0: d100a3a8     	sub	x8, x29, #0x28
   1d0a4: d29d68c9     	mov	x9, #0xeb46             // =60230
   1d0a8: f2b7ea69     	movk	x9, #0xbf53, lsl #16
   1d0ac: aa1603ea     	mov	x10, x22
   1d0b0: f2d18ca9     	movk	x9, #0x8c65, lsl #32
   1d0b4: aa1703e2     	mov	x2, x23
   1d0b8: f8500108     	ldur	x8, [x8, #-0x100]
   1d0bc: aa1a03eb     	mov	x11, x26
   1d0c0: aa1303e3     	mov	x3, x19
   1d0c4: f2eefee9     	movk	x9, #0x77f7, lsl #48
   1d0c8: 293b57b8     	stp	w24, w21, [x29, #-0x28]
   1d0cc: 39401108     	ldrb	w8, [x8, #0x4]
   1d0d0: f81d03b4     	stur	x20, [x29, #-0x30]
   1d0d4: 7100011f     	cmp	w8, #0x0
   1d0d8: d281c168     	mov	x8, #0xe0b              // =3595
   1d0dc: f2a3eb68     	movk	x8, #0x1f5b, lsl #16
   1d0e0: f2d6f6e8     	movk	x8, #0xb7b7, lsl #32
   1d0e4: f2f82b08     	movk	x8, #0xc158, lsl #48
   1d0e8: 9a89010e     	csel	x14, x8, x9, eq
   1d0ec: 140001de     	b	0x1d864 <.text+0x157f4>
   1d0f0: d109f3a8     	sub	x8, x29, #0x27c
   1d0f4: d101e3a9     	sub	x9, x29, #0x78
   1d0f8: b81dc3b5     	stur	w21, [x29, #-0x24]
   1d0fc: b81d83b8     	stur	w24, [x29, #-0x28]
   1d100: b8500108     	ldur	w8, [x8, #-0x100]
   1d104: 7200011f     	tst	w8, #0x1
   1d108: d10113a8     	sub	x8, x29, #0x44
   1d10c: b8500108     	ldur	w8, [x8, #-0x100]
   1d110: b8100128     	stur	w8, [x9, #-0x100]
   1d114: d29461e8     	mov	x8, #0xa30f             // =41743
   1d118: d2832b69     	mov	x9, #0x195b             // =6491
   1d11c: f2a6a8e8     	movk	x8, #0x3547, lsl #16
   1d120: f2b969a9     	movk	x9, #0xcb4d, lsl #16
   1d124: f2d3be68     	movk	x8, #0x9df3, lsl #32
   1d128: f2d63bc9     	movk	x9, #0xb1de, lsl #32
   1d12c: f2f65388     	movk	x8, #0xb29c, lsl #48
   1d130: f2e1bf29     	movk	x9, #0xdf9, lsl #48
   1d134: 9a88112e     	csel	x14, x9, x8, ne
   1d138: f81d03b4     	stur	x20, [x29, #-0x30]
   1d13c: aa1603ea     	mov	x10, x22
   1d140: aa1703e2     	mov	x2, x23
   1d144: aa1a03eb     	mov	x11, x26
   1d148: aa1303e3     	mov	x3, x19
   1d14c: 140001c6     	b	0x1d864 <.text+0x157f4>
   1d150: d108e3a8     	sub	x8, x29, #0x238
   1d154: d10723aa     	sub	x10, x29, #0x1c8
   1d158: a97997a6     	ldp	x6, x5, [x29, #-0x68]
   1d15c: aa1703e2     	mov	x2, x23
   1d160: aa1a03eb     	mov	x11, x26
   1d164: f8500109     	ldur	x9, [x8, #-0x100]
   1d168: aa1303e3     	mov	x3, x19
   1d16c: a97b43af     	ldp	x15, x16, [x29, #-0x50]
   1d170: aa1c03e4     	mov	x4, x28
   1d174: aa1903ec     	mov	x12, x25
   1d178: 91000528     	add	x8, x9, #0x1
   1d17c: f85903ad     	ldur	x13, [x29, #-0x70]
   1d180: f85a83be     	ldur	x30, [x29, #-0x58]
   1d184: aa1b03f1     	mov	x17, x27
   1d188: 293b57b8     	stp	w24, w21, [x29, #-0x28]
   1d18c: f8100148     	stur	x8, [x10, #-0x100]
   1d190: d107c3a8     	sub	x8, x29, #0x1f0
   1d194: d10433aa     	sub	x10, x29, #0x10c
   1d198: f81d03b4     	stur	x20, [x29, #-0x30]
   1d19c: b8500108     	ldur	w8, [x8, #-0x100]
   1d1a0: 53181d08     	ubfiz	w8, w8, #8, #8
   1d1a4: b8100148     	stur	w8, [x10, #-0x100]
   1d1a8: 39400928     	ldrb	w8, [x9, #0x2]
   1d1ac: d10233a9     	sub	x9, x29, #0x8c
   1d1b0: aa1603ea     	mov	x10, x22
   1d1b4: b8100128     	stur	w8, [x9, #-0x100]
   1d1b8: a97c1fa8     	ldp	x8, x7, [x29, #-0x40]
   1d1bc: d284b80e     	mov	x14, #0x25c0            // =9664
   1d1c0: f85883a1     	ldur	x1, [x29, #-0x78]
   1d1c4: f2a1e06e     	movk	x14, #0xf03, lsl #16
   1d1c8: f2cddfee     	movk	x14, #0x6eff, lsl #32
   1d1cc: f2eed5ee     	movk	x14, #0x76af, lsl #48
   1d1d0: 17ffed15     	b	0x18624 <.text+0x105b4>
   1d1d4: f85403a8     	ldur	x8, [x29, #-0xc0]
   1d1d8: d105e3a9     	sub	x9, x29, #0x178
   1d1dc: a97997a6     	ldp	x6, x5, [x29, #-0x68]
   1d1e0: aa1603ea     	mov	x10, x22
   1d1e4: aa1703e2     	mov	x2, x23
   1d1e8: 91000508     	add	x8, x8, #0x1
   1d1ec: aa1a03eb     	mov	x11, x26
   1d1f0: aa1303e3     	mov	x3, x19
   1d1f4: aa1c03e4     	mov	x4, x28
   1d1f8: aa1903ec     	mov	x12, x25
   1d1fc: f85903ad     	ldur	x13, [x29, #-0x70]
   1d200: f8100128     	stur	x8, [x9, #-0x100]
   1d204: 293b57b8     	stp	w24, w21, [x29, #-0x28]
   1d208: f81d03b4     	stur	x20, [x29, #-0x30]
   1d20c: a97c1fa8     	ldp	x8, x7, [x29, #-0x40]
   1d210: d289df4e     	mov	x14, #0x4efa            // =20218
   1d214: a97b43af     	ldp	x15, x16, [x29, #-0x50]
   1d218: f2afa00e     	movk	x14, #0x7d00, lsl #16
   1d21c: f85a83be     	ldur	x30, [x29, #-0x58]
   1d220: f2d11d0e     	movk	x14, #0x88e8, lsl #32
   1d224: f85883a1     	ldur	x1, [x29, #-0x78]
   1d228: f2effdae     	movk	x14, #0x7fed, lsl #48
   1d22c: 17ffecfe     	b	0x18624 <.text+0x105b4>
   1d230: d104e3a8     	sub	x8, x29, #0x138
   1d234: d29c0f4e     	mov	x14, #0xe07a            // =57466
   1d238: a97997a6     	ldp	x6, x5, [x29, #-0x68]
   1d23c: f2b569ae     	movk	x14, #0xab4d, lsl #16
   1d240: 293b57b8     	stp	w24, w21, [x29, #-0x28]
   1d244: f810011f     	stur	xzr, [x8, #-0x100]
   1d248: d10083a8     	sub	x8, x29, #0x20
   1d24c: a978b7a1     	ldp	x1, x13, [x29, #-0x78]
   1d250: f2cb038e     	movk	x14, #0x581c, lsl #32
   1d254: f81d03b4     	stur	x20, [x29, #-0x30]
   1d258: f8500109     	ldur	x9, [x8, #-0x100]
   1d25c: aa1603ea     	mov	x10, x22
   1d260: a97b43af     	ldp	x15, x16, [x29, #-0x50]
   1d264: aa1703e2     	mov	x2, x23
   1d268: aa1a03eb     	mov	x11, x26
   1d26c: b2401528     	orr	x8, x9, #0x3f
   1d270: f85a83be     	ldur	x30, [x29, #-0x58]
   1d274: aa1303e3     	mov	x3, x19
   1d278: aa1c03e4     	mov	x4, x28
   1d27c: aa1903ec     	mov	x12, x25
   1d280: aa1b03f1     	mov	x17, x27
   1d284: f81783a8     	stur	x8, [x29, #-0x88]
   1d288: d1000528     	sub	x8, x9, #0x1
   1d28c: d10903a9     	sub	x9, x29, #0x240
   1d290: f2f355ce     	movk	x14, #0x9aae, lsl #48
   1d294: f8100128     	stur	x8, [x9, #-0x100]
   1d298: d100c3a8     	sub	x8, x29, #0x30
   1d29c: d10503a9     	sub	x9, x29, #0x140
   1d2a0: f8500108     	ldur	x8, [x8, #-0x100]
   1d2a4: f8100128     	stur	x8, [x9, #-0x100]
   1d2a8: d10643a9     	sub	x9, x29, #0x190
   1d2ac: f8100128     	stur	x8, [x9, #-0x100]
   1d2b0: d10623a8     	sub	x8, x29, #0x188
   1d2b4: f8500108     	ldur	x8, [x8, #-0x100]
   1d2b8: f81383a8     	stur	x8, [x29, #-0xc8]
   1d2bc: d102e3a8     	sub	x8, x29, #0xb8
   1d2c0: f8500108     	ldur	x8, [x8, #-0x100]
   1d2c4: f81303a8     	stur	x8, [x29, #-0xd0]
   1d2c8: a97c1fa8     	ldp	x8, x7, [x29, #-0x40]
   1d2cc: 17ffecd6     	b	0x18624 <.text+0x105b4>
   1d2d0: 2a1f03e0     	mov	w0, wzr
   1d2d4: 52800021     	mov	w1, #0x1                // =1
   1d2d8: b0000942     	adrp	x2, 0x146000
   1d2dc: 91116042     	add	x2, x2, #0x458
   1d2e0: aa1103fb     	mov	x27, x17
   1d2e4: 94047147     	bl	0x139800 <Java_com_adjust_sdk_sig_NativeLibHelper_nSign+0x6d1fc>
   1d2e8: d297ee28     	mov	x8, #0xbf71             // =49009
   1d2ec: d297e829     	mov	x9, #0xbf41             // =48961
   1d2f0: f2b505e8     	movk	x8, #0xa82f, lsl #16
   1d2f4: f2adeee9     	movk	x9, #0x6f77, lsl #16
   1d2f8: f2cee448     	movk	x8, #0x7722, lsl #32
   1d2fc: f2c837a9     	movk	x9, #0x41bd, lsl #32
   1d300: 293b57b8     	stp	w24, w21, [x29, #-0x28]
   1d304: 7100001f     	cmp	w0, #0x0
   1d308: f81d03b4     	stur	x20, [x29, #-0x30]
   1d30c: f2ff5548     	movk	x8, #0xfaaa, lsl #48
   1d310: f2ed4389     	movk	x9, #0x6a1c, lsl #48
   1d314: 9a88012e     	csel	x14, x9, x8, eq
   1d318: 140000f1     	b	0x1d6dc <.text+0x1566c>
   1d31c: f85603a8     	ldur	x8, [x29, #-0xa0]
   1d320: d29f0c69     	mov	x9, #0xf863             // =63587
   1d324: f2aa3e69     	movk	x9, #0x51f3, lsl #16
   1d328: aa1603ea     	mov	x10, x22
   1d32c: f2d00a69     	movk	x9, #0x8053, lsl #32
   1d330: aa1703e2     	mov	x2, x23
   1d334: 39400108     	ldrb	w8, [x8]
   1d338: aa1a03eb     	mov	x11, x26
   1d33c: aa1303e3     	mov	x3, x19
   1d340: f2fbe729     	movk	x9, #0xdf39, lsl #48
   1d344: 293b57b8     	stp	w24, w21, [x29, #-0x28]
   1d348: 7100011f     	cmp	w8, #0x0
   1d34c: d29993c8     	mov	x8, #0xcc9e             // =52382
   1d350: f2a32ca8     	movk	x8, #0x1965, lsl #16
   1d354: f81d03b4     	stur	x20, [x29, #-0x30]
   1d358: f2c1da48     	movk	x8, #0xed2, lsl #32
   1d35c: f2ee2108     	movk	x8, #0x7108, lsl #48
   1d360: 14000140     	b	0x1d860 <.text+0x157f0>
   1d364: b0000948     	adrp	x8, 0x146000
   1d368: d289f329     	mov	x9, #0x4f99             // =20377
   1d36c: f2b319a9     	movk	x9, #0x98cd, lsl #16
   1d370: aa1603ea     	mov	x10, x22
   1d374: f2d24029     	movk	x9, #0x9201, lsl #32
   1d378: aa1703e2     	mov	x2, x23
   1d37c: 395b1508     	ldrb	w8, [x8, #0x6c5]
   1d380: aa1a03eb     	mov	x11, x26
   1d384: aa1303e3     	mov	x3, x19
   1d388: f2ee3d89     	movk	x9, #0x71ec, lsl #48
   1d38c: 293b57b8     	stp	w24, w21, [x29, #-0x28]
   1d390: 7100011f     	cmp	w8, #0x0
   1d394: d2807aa8     	mov	x8, #0x3d5              // =981
   1d398: f2af8b48     	movk	x8, #0x7c5a, lsl #16
   1d39c: f81d03b4     	stur	x20, [x29, #-0x30]
   1d3a0: f2c9f048     	movk	x8, #0x4f82, lsl #32
   1d3a4: f2f97d68     	movk	x8, #0xcbeb, lsl #48
   1d3a8: 9a88112e     	csel	x14, x9, x8, ne
   1d3ac: 1400012e     	b	0x1d864 <.text+0x157f4>
   1d3b0: 91000628     	add	x8, x17, #0x1
   1d3b4: d10023aa     	sub	x10, x29, #0x8
   1d3b8: a97997a6     	ldp	x6, x5, [x29, #-0x68]
   1d3bc: aa1703e2     	mov	x2, x23
   1d3c0: aa1a03eb     	mov	x11, x26
   1d3c4: f8100148     	stur	x8, [x10, #-0x100]
   1d3c8: 91000528     	add	x8, x9, #0x1
   1d3cc: d10043aa     	sub	x10, x29, #0x10
   1d3d0: aa1303e3     	mov	x3, x19
   1d3d4: a97b43af     	ldp	x15, x16, [x29, #-0x50]
   1d3d8: aa1c03e4     	mov	x4, x28
   1d3dc: aa1903ec     	mov	x12, x25
   1d3e0: f8100148     	stur	x8, [x10, #-0x100]
   1d3e4: aa1603ea     	mov	x10, x22
   1d3e8: f85903ad     	ldur	x13, [x29, #-0x70]
   1d3ec: aa0903e8     	mov	x8, x9
   1d3f0: f85c83a7     	ldur	x7, [x29, #-0x38]
   1d3f4: 293b57b8     	stp	w24, w21, [x29, #-0x28]
   1d3f8: f85a83be     	ldur	x30, [x29, #-0x58]
   1d3fc: f81d03b4     	stur	x20, [x29, #-0x30]
   1d400: d28ad94e     	mov	x14, #0x56ca            // =22218
   1d404: f85883a1     	ldur	x1, [x29, #-0x78]
   1d408: f2a1cece     	movk	x14, #0xe76, lsl #16
   1d40c: f2d6c8ae     	movk	x14, #0xb645, lsl #32
   1d410: f2e7cb6e     	movk	x14, #0x3e5b, lsl #48
   1d414: 17ffec84     	b	0x18624 <.text+0x105b4>
   1d418: d2845be8     	mov	x8, #0x22df             // =8927
   1d41c: d28ca6a9     	mov	x9, #0x6535             // =25909
   1d420: f2ac72e8     	movk	x8, #0x6397, lsl #16
   1d424: f2a47fa9     	movk	x9, #0x23fd, lsl #16
   1d428: f2d27988     	movk	x8, #0x93cc, lsl #32
   1d42c: f2d56149     	movk	x9, #0xab0a, lsl #32
   1d430: f100029f     	cmp	x20, #0x0
   1d434: f2ed4908     	movk	x8, #0x6a48, lsl #48
   1d438: f2e58aa9     	movk	x9, #0x2c55, lsl #48
   1d43c: f85903ad     	ldur	x13, [x29, #-0x70]
   1d440: a97997a6     	ldp	x6, x5, [x29, #-0x68]
   1d444: 9a88012e     	csel	x14, x9, x8, eq
   1d448: d106e3a8     	sub	x8, x29, #0x1b8
   1d44c: a97b43af     	ldp	x15, x16, [x29, #-0x50]
   1d450: 293b57b8     	stp	w24, w21, [x29, #-0x28]
   1d454: aa1603ea     	mov	x10, x22
   1d458: f85c83a7     	ldur	x7, [x29, #-0x38]
   1d45c: f81d03b4     	stur	x20, [x29, #-0x30]
   1d460: aa1703e2     	mov	x2, x23
   1d464: aa1a03eb     	mov	x11, x26
   1d468: aa1303e3     	mov	x3, x19
   1d46c: aa1c03e4     	mov	x4, x28
   1d470: aa1903ec     	mov	x12, x25
   1d474: f8100114     	stur	x20, [x8, #-0x100]
   1d478: 14000101     	b	0x1d87c <.text+0x1580c>
   1d47c: f0000928     	adrp	x8, 0x144000
   1d480: 9120e108     	add	x8, x8, #0x838
   1d484: 293b57b8     	stp	w24, w21, [x29, #-0x28]
   1d488: f81283a8     	stur	x8, [x29, #-0xd8]
   1d48c: a97997a6     	ldp	x6, x5, [x29, #-0x68]
   1d490: d29d344e     	mov	x14, #0xe9a2            // =59810
   1d494: f81d03b4     	stur	x20, [x29, #-0x30]
   1d498: a978b7a1     	ldp	x1, x13, [x29, #-0x78]
   1d49c: f2ba766e     	movk	x14, #0xd3b3, lsl #16
   1d4a0: aa1603ea     	mov	x10, x22
   1d4a4: a97c1fa8     	ldp	x8, x7, [x29, #-0x40]
   1d4a8: f2d7ccae     	movk	x14, #0xbe65, lsl #32
   1d4ac: aa1703e2     	mov	x2, x23
   1d4b0: a97b43af     	ldp	x15, x16, [x29, #-0x50]
   1d4b4: aa1a03eb     	mov	x11, x26
   1d4b8: aa1303e3     	mov	x3, x19
   1d4bc: f85a83be     	ldur	x30, [x29, #-0x58]
   1d4c0: aa1c03e4     	mov	x4, x28
   1d4c4: aa1903ec     	mov	x12, x25
   1d4c8: f2fee84e     	movk	x14, #0xf742, lsl #48
   1d4cc: 17ffec56     	b	0x18624 <.text+0x105b4>
   1d4d0: d10243a8     	sub	x8, x29, #0x90
   1d4d4: d10473a9     	sub	x9, x29, #0x11c
   1d4d8: 293b57b8     	stp	w24, w21, [x29, #-0x28]
   1d4dc: f81d03b4     	stur	x20, [x29, #-0x30]
   1d4e0: b8500108     	ldur	w8, [x8, #-0x100]
   1d4e4: b8500129     	ldur	w9, [x9, #-0x100]
   1d4e8: 7100011f     	cmp	w8, #0x0
   1d4ec: 2a080129     	orr	w9, w9, w8
   1d4f0: d10873a8     	sub	x8, x29, #0x21c
   1d4f4: 1a9f07ea     	cset	w10, ne
   1d4f8: b8100109     	stur	w9, [x8, #-0x100]
   1d4fc: d108b3a8     	sub	x8, x29, #0x22c
   1d500: b8500108     	ldur	w8, [x8, #-0x100]
   1d504: 6b08013f     	cmp	w9, w8
   1d508: d10883a9     	sub	x9, x29, #0x220
   1d50c: 1a9f07e8     	cset	w8, ne
   1d510: 6a08015f     	tst	w10, w8
   1d514: d29e5a68     	mov	x8, #0xf2d3             // =62163
   1d518: b810012a     	stur	w10, [x9, #-0x100]
   1d51c: d29c8e69     	mov	x9, #0xe473             // =58483
   1d520: f2bc1ee8     	movk	x8, #0xe0f7, lsl #16
   1d524: f2aae2a9     	movk	x9, #0x5715, lsl #16
   1d528: f2d08fa8     	movk	x8, #0x847d, lsl #32
   1d52c: f2d4c429     	movk	x9, #0xa621, lsl #32
   1d530: f2fcc3c8     	movk	x8, #0xe61e, lsl #48
   1d534: f2ea41c9     	movk	x9, #0x520e, lsl #48
   1d538: 9a88112e     	csel	x14, x9, x8, ne
   1d53c: d106c3a8     	sub	x8, x29, #0x1b0
   1d540: d109e3a9     	sub	x9, x29, #0x278
   1d544: aa1603ea     	mov	x10, x22
   1d548: f8500108     	ldur	x8, [x8, #-0x100]
   1d54c: f8100128     	stur	x8, [x9, #-0x100]
   1d550: 14000064     	b	0x1d6e0 <.text+0x15670>
   1d554: d10923a8     	sub	x8, x29, #0x248
   1d558: d102e3aa     	sub	x10, x29, #0xb8
   1d55c: aa1703e2     	mov	x2, x23
   1d560: aa1a03eb     	mov	x11, x26
   1d564: aa1303e3     	mov	x3, x19
   1d568: aa1c03e4     	mov	x4, x28
   1d56c: f8500109     	ldur	x9, [x8, #-0x100]
   1d570: d10083a8     	sub	x8, x29, #0x20
   1d574: aa1903ec     	mov	x12, x25
   1d578: 293b57b8     	stp	w24, w21, [x29, #-0x28]
   1d57c: f81d03b4     	stur	x20, [x29, #-0x30]
   1d580: f8500108     	ldur	x8, [x8, #-0x100]
   1d584: cb090108     	sub	x8, x8, x9
   1d588: f8100148     	stur	x8, [x10, #-0x100]
   1d58c: aa1603ea     	mov	x10, x22
   1d590: d10623a8     	sub	x8, x29, #0x188
   1d594: f8100109     	stur	x9, [x8, #-0x100]
   1d598: a97997a6     	ldp	x6, x5, [x29, #-0x68]
   1d59c: d280040e     	mov	x14, #0x20              // =32
   1d5a0: a978b7a1     	ldp	x1, x13, [x29, #-0x78]
   1d5a4: f2b4910e     	movk	x14, #0xa488, lsl #16
   1d5a8: a97c1fa8     	ldp	x8, x7, [x29, #-0x40]
   1d5ac: f2c1d9ce     	movk	x14, #0xece, lsl #32
   1d5b0: a97b43af     	ldp	x15, x16, [x29, #-0x50]
   1d5b4: f2e3076e     	movk	x14, #0x183b, lsl #48
   1d5b8: f85a83be     	ldur	x30, [x29, #-0x58]
   1d5bc: 17ffec1a     	b	0x18624 <.text+0x105b4>
   1d5c0: d10163a9     	sub	x9, x29, #0x58
   1d5c4: f85203a8     	ldur	x8, [x29, #-0xe0]
   1d5c8: a97997a6     	ldp	x6, x5, [x29, #-0x68]
   1d5cc: d297db6e     	mov	x14, #0xbedb            // =48859
   1d5d0: 293b57b8     	stp	w24, w21, [x29, #-0x28]
   1d5d4: f8500129     	ldur	x9, [x9, #-0x100]
   1d5d8: f2ac4eee     	movk	x14, #0x6277, lsl #16
   1d5dc: a978b7a1     	ldp	x1, x13, [x29, #-0x78]
   1d5e0: f2cd99ce     	movk	x14, #0x6cce, lsl #32
   1d5e4: f81d03b4     	stur	x20, [x29, #-0x30]
   1d5e8: a97b43af     	ldp	x15, x16, [x29, #-0x50]
   1d5ec: cb090107     	sub	x7, x8, x9
   1d5f0: aa1603ea     	mov	x10, x22
   1d5f4: f85a83be     	ldur	x30, [x29, #-0x58]
   1d5f8: aa1703e2     	mov	x2, x23
   1d5fc: f85c03a8     	ldur	x8, [x29, #-0x40]
   1d600: aa1a03eb     	mov	x11, x26
   1d604: aa1303e3     	mov	x3, x19
   1d608: aa1c03e4     	mov	x4, x28
   1d60c: aa1903ec     	mov	x12, x25
   1d610: aa1b03f1     	mov	x17, x27
   1d614: f2ff616e     	movk	x14, #0xfb0b, lsl #48
   1d618: 17ffec03     	b	0x18624 <.text+0x105b4>
   1d61c: d10063a8     	sub	x8, x29, #0x18
   1d620: d10663a9     	sub	x9, x29, #0x198
   1d624: a97997a6     	ldp	x6, x5, [x29, #-0x68]
   1d628: aa1603ea     	mov	x10, x22
   1d62c: aa1703e2     	mov	x2, x23
   1d630: f8500108     	ldur	x8, [x8, #-0x100]
   1d634: aa1a03eb     	mov	x11, x26
   1d638: a97b43af     	ldp	x15, x16, [x29, #-0x50]
   1d63c: aa1303e3     	mov	x3, x19
   1d640: aa1c03e4     	mov	x4, x28
   1d644: 91000508     	add	x8, x8, #0x1
   1d648: aa1903ec     	mov	x12, x25
   1d64c: f85903ad     	ldur	x13, [x29, #-0x70]
   1d650: 293b57b8     	stp	w24, w21, [x29, #-0x28]
   1d654: f85c83a7     	ldur	x7, [x29, #-0x38]
   1d658: f81d03b4     	stur	x20, [x29, #-0x30]
   1d65c: f85a83be     	ldur	x30, [x29, #-0x58]
   1d660: f8100128     	stur	x8, [x9, #-0x100]
   1d664: d29d976e     	mov	x14, #0xecbb            // =60603
   1d668: f85c03a8     	ldur	x8, [x29, #-0x40]
   1d66c: f85883a1     	ldur	x1, [x29, #-0x78]
   1d670: f2a9cdee     	movk	x14, #0x4e6f, lsl #16
   1d674: f2cc618e     	movk	x14, #0x630c, lsl #32
   1d678: f2eac2ee     	movk	x14, #0x5617, lsl #48
   1d67c: 17ffebea     	b	0x18624 <.text+0x105b4>
   1d680: d10123a8     	sub	x8, x29, #0x48
   1d684: b85543ac     	ldur	w12, [x29, #-0xac]
   1d688: 293b57b8     	stp	w24, w21, [x29, #-0x28]
   1d68c: b850010b     	ldur	w11, [x8, #-0x100]
   1d690: 51016d8a     	sub	w10, w12, #0x5b
   1d694: 51016d68     	sub	w8, w11, #0x5b
   1d698: 321b0169     	orr	w9, w11, #0x20
   1d69c: 3100691f     	cmn	w8, #0x1a
   1d6a0: 321b0188     	orr	w8, w12, #0x20
   1d6a4: 1a893169     	csel	w9, w11, w9, lo
   1d6a8: 3100695f     	cmn	w10, #0x1a
   1d6ac: 1a883188     	csel	w8, w12, w8, lo
   1d6b0: 6b08013f     	cmp	w9, w8
   1d6b4: d29ed008     	mov	x8, #0xf680             // =63104
   1d6b8: d28582e9     	mov	x9, #0x2c17             // =11287
   1d6bc: f2b12748     	movk	x8, #0x893a, lsl #16
   1d6c0: f2b74829     	movk	x9, #0xba41, lsl #16
   1d6c4: f2cc8588     	movk	x8, #0x642c, lsl #32
   1d6c8: f2c06749     	movk	x9, #0x33a, lsl #32
   1d6cc: f2f28b88     	movk	x8, #0x945c, lsl #48
   1d6d0: f2ee4de9     	movk	x9, #0x726f, lsl #48
   1d6d4: 9a89010e     	csel	x14, x8, x9, eq
   1d6d8: f81d03b4     	stur	x20, [x29, #-0x30]
   1d6dc: aa1603ea     	mov	x10, x22
   1d6e0: aa1703e2     	mov	x2, x23
   1d6e4: aa1a03eb     	mov	x11, x26
   1d6e8: aa1303e3     	mov	x3, x19
   1d6ec: aa1c03e4     	mov	x4, x28
   1d6f0: aa1903ec     	mov	x12, x25
   1d6f4: f85a03a5     	ldur	x5, [x29, #-0x60]
   1d6f8: f85903ad     	ldur	x13, [x29, #-0x70]
   1d6fc: f85983a6     	ldur	x6, [x29, #-0x68]
   1d700: f85c83a7     	ldur	x7, [x29, #-0x38]
   1d704: f85b03af     	ldur	x15, [x29, #-0x50]
   1d708: f85b83b0     	ldur	x16, [x29, #-0x48]
   1d70c: f85a83be     	ldur	x30, [x29, #-0x58]
   1d710: aa1b03f1     	mov	x17, x27
   1d714: 1400005b     	b	0x1d880 <.text+0x15810>
   1d718: b0000948     	adrp	x8, 0x146000
   1d71c: 91116108     	add	x8, x8, #0x458
   1d720: d10123a9     	sub	x9, x29, #0x48
   1d724: aa1603ea     	mov	x10, x22
   1d728: aa1703e2     	mov	x2, x23
   1d72c: aa1303e3     	mov	x3, x19
   1d730: 089ffd1f     	stlrb	wzr, [x8]
   1d734: aa1c03e4     	mov	x4, x28
   1d738: 39400228     	ldrb	w8, [x17]
   1d73c: 293b57b8     	stp	w24, w21, [x29, #-0x28]
   1d740: f85c03a0     	ldur	x0, [x29, #-0x40]
   1d744: f81d03b4     	stur	x20, [x29, #-0x30]
   1d748: a97997a6     	ldp	x6, x5, [x29, #-0x68]
   1d74c: b8100128     	stur	w8, [x9, #-0x100]
   1d750: 7100011f     	cmp	w8, #0x0
   1d754: d282e448     	mov	x8, #0x1722             // =5922
   1d758: d2857e09     	mov	x9, #0x2bf0             // =11248
   1d75c: a97b43af     	ldp	x15, x16, [x29, #-0x50]
   1d760: f2b01828     	movk	x8, #0x80c1, lsl #16
   1d764: f2a03949     	movk	x9, #0x1ca, lsl #16
   1d768: 3940000b     	ldrb	w11, [x0]
   1d76c: f2df7028     	movk	x8, #0xfb81, lsl #32
   1d770: f2d51f09     	movk	x9, #0xa8f8, lsl #32
   1d774: f85903ad     	ldur	x13, [x29, #-0x70]
   1d778: f85c83a7     	ldur	x7, [x29, #-0x38]
   1d77c: f2ff86a8     	movk	x8, #0xfc35, lsl #48
   1d780: f85a83be     	ldur	x30, [x29, #-0x58]
   1d784: f2fbf449     	movk	x9, #0xdfa2, lsl #48
   1d788: b81543ab     	stur	w11, [x29, #-0xac]
   1d78c: aa1a03eb     	mov	x11, x26
   1d790: 9a88012e     	csel	x14, x9, x8, eq
   1d794: aa1903ec     	mov	x12, x25
   1d798: f85883a1     	ldur	x1, [x29, #-0x78]
   1d79c: aa0003e8     	mov	x8, x0
   1d7a0: 17ffeba1     	b	0x18624 <.text+0x105b4>
   1d7a4: d101a3a8     	sub	x8, x29, #0x68
   1d7a8: d2899649     	mov	x9, #0x4cb2             // =19634
   1d7ac: f2a7f469     	movk	x9, #0x3fa3, lsl #16
   1d7b0: f85903ad     	ldur	x13, [x29, #-0x70]
   1d7b4: f2ddc429     	movk	x9, #0xee21, lsl #32
   1d7b8: f85c83a7     	ldur	x7, [x29, #-0x38]
   1d7bc: f8500108     	ldur	x8, [x8, #-0x100]
   1d7c0: f2fccb09     	movk	x9, #0xe658, lsl #48
   1d7c4: a97997a6     	ldp	x6, x5, [x29, #-0x68]
   1d7c8: 293b57b8     	stp	w24, w21, [x29, #-0x28]
   1d7cc: aa1603ea     	mov	x10, x22
   1d7d0: eb0802df     	cmp	x22, x8
   1d7d4: d28677a8     	mov	x8, #0x33bd             // =13245
   1d7d8: f2a86308     	movk	x8, #0x4318, lsl #16
   1d7dc: f81d03b4     	stur	x20, [x29, #-0x30]
   1d7e0: f2d6e788     	movk	x8, #0xb73c, lsl #32
   1d7e4: aa1703e2     	mov	x2, x23
   1d7e8: f2f12008     	movk	x8, #0x8900, lsl #48
   1d7ec: aa1a03eb     	mov	x11, x26
   1d7f0: a97b43af     	ldp	x15, x16, [x29, #-0x50]
   1d7f4: 9a88812e     	csel	x14, x9, x8, hi
   1d7f8: d10aa3a8     	sub	x8, x29, #0x2a8
   1d7fc: aa1303e3     	mov	x3, x19
   1d800: aa1c03e4     	mov	x4, x28
   1d804: aa1903ec     	mov	x12, x25
   1d808: f8100116     	stur	x22, [x8, #-0x100]
   1d80c: 1400001c     	b	0x1d87c <.text+0x1580c>
   1d810: d100a3a8     	sub	x8, x29, #0x28
   1d814: d10263a9     	sub	x9, x29, #0x98
   1d818: 293b57b8     	stp	w24, w21, [x29, #-0x28]
   1d81c: aa1603ea     	mov	x10, x22
   1d820: f81d03b4     	stur	x20, [x29, #-0x30]
   1d824: aa1703e2     	mov	x2, x23
   1d828: f8500108     	ldur	x8, [x8, #-0x100]
   1d82c: aa1a03eb     	mov	x11, x26
   1d830: aa1303e3     	mov	x3, x19
   1d834: 39400908     	ldrb	w8, [x8, #0x2]
   1d838: b8100128     	stur	w8, [x9, #-0x100]
   1d83c: 7100011f     	cmp	w8, #0x0
   1d840: d291b048     	mov	x8, #0x8d82             // =36226
   1d844: d281f3a9     	mov	x9, #0xf9d              // =3997
   1d848: f2b4e188     	movk	x8, #0xa70c, lsl #16
   1d84c: f2a528a9     	movk	x9, #0x2945, lsl #16
   1d850: f2c7bd48     	movk	x8, #0x3dea, lsl #32
   1d854: f2ccb0a9     	movk	x9, #0x6585, lsl #32
   1d858: f2e87808     	movk	x8, #0x43c0, lsl #48
   1d85c: f2eecd89     	movk	x9, #0x766c, lsl #48
   1d860: 9a88012e     	csel	x14, x9, x8, eq
   1d864: aa1c03e4     	mov	x4, x28
   1d868: aa1903ec     	mov	x12, x25
   1d86c: a97997a6     	ldp	x6, x5, [x29, #-0x68]
   1d870: f85903ad     	ldur	x13, [x29, #-0x70]
   1d874: a97b43af     	ldp	x15, x16, [x29, #-0x50]
   1d878: f85c83a7     	ldur	x7, [x29, #-0x38]
   1d87c: f85a83be     	ldur	x30, [x29, #-0x58]
   1d880: f85c03a8     	ldur	x8, [x29, #-0x40]
   1d884: f85883a1     	ldur	x1, [x29, #-0x78]
   1d888: 17ffeb67     	b	0x18624 <.text+0x105b4>
   1d88c: d10323a8     	sub	x8, x29, #0xc8
   1d890: d10603a9     	sub	x9, x29, #0x180
   1d894: a97997a6     	ldp	x6, x5, [x29, #-0x68]
   1d898: aa1603ea     	mov	x10, x22
   1d89c: aa1703e2     	mov	x2, x23
   1d8a0: a97b43af     	ldp	x15, x16, [x29, #-0x50]
   1d8a4: f810011f     	stur	xzr, [x8, #-0x100]
   1d8a8: 92800008     	mov	x8, #-0x1               // =-1
   1d8ac: aa1a03eb     	mov	x11, x26
   1d8b0: aa1303e3     	mov	x3, x19
   1d8b4: aa1c03e4     	mov	x4, x28
   1d8b8: aa1903ec     	mov	x12, x25
   1d8bc: f85903ad     	ldur	x13, [x29, #-0x70]
   1d8c0: aa1b03f1     	mov	x17, x27
   1d8c4: f85c83a7     	ldur	x7, [x29, #-0x38]
   1d8c8: f8100128     	stur	x8, [x9, #-0x100]
   1d8cc: f85a83be     	ldur	x30, [x29, #-0x58]
   1d8d0: 293b57b8     	stp	w24, w21, [x29, #-0x28]
   1d8d4: f81d03b4     	stur	x20, [x29, #-0x30]
   1d8d8: d296e30e     	mov	x14, #0xb718            // =46872
   1d8dc: f85c03a8     	ldur	x8, [x29, #-0x40]
   1d8e0: f85883a1     	ldur	x1, [x29, #-0x78]
   1d8e4: f2af454e     	movk	x14, #0x7a2a, lsl #16
   1d8e8: f2cad34e     	movk	x14, #0x569a, lsl #32
   1d8ec: f2ec3fce     	movk	x14, #0x61fe, lsl #48
   1d8f0: 17ffeb4d     	b	0x18624 <.text+0x105b4>
   1d8f4: d10083a8     	sub	x8, x29, #0x20
   1d8f8: f85903ad     	ldur	x13, [x29, #-0x70]
   1d8fc: a97997a6     	ldp	x6, x5, [x29, #-0x68]
   1d900: aa1f03e2     	mov	x2, xzr
   1d904: 293b57b8     	stp	w24, w21, [x29, #-0x28]
   1d908: a97b43af     	ldp	x15, x16, [x29, #-0x50]
   1d90c: f81d03b4     	stur	x20, [x29, #-0x30]
   1d910: aa1603ea     	mov	x10, x22
   1d914: f850010b     	ldur	x11, [x8, #-0x100]
   1d918: aa1303e3     	mov	x3, x19
   1d91c: f85c83a7     	ldur	x7, [x29, #-0x38]
   1d920: aa1c03e4     	mov	x4, x28
   1d924: f85a83be     	ldur	x30, [x29, #-0x58]
   1d928: aa1903ec     	mov	x12, x25
   1d92c: aa1b03f1     	mov	x17, x27
   1d930: d289674e     	mov	x14, #0x4b3a            // =19258
   1d934: f85c03a8     	ldur	x8, [x29, #-0x40]
   1d938: f85883a1     	ldur	x1, [x29, #-0x78]
   1d93c: f2a45d6e     	movk	x14, #0x22eb, lsl #16
   1d940: f2cad3ce     	movk	x14, #0x569e, lsl #32
   1d944: f2e3e14e     	movk	x14, #0x1f0a, lsl #48
   1d948: 17ffeb37     	b	0x18624 <.text+0x105b4>
   1d94c: b0000948     	adrp	x8, 0x146000
   1d950: d297d049     	mov	x9, #0xbe82             // =48770
   1d954: f2a2f749     	movk	x9, #0x17ba, lsl #16
   1d958: aa1603ea     	mov	x10, x22
   1d95c: f2cac909     	movk	x9, #0x5648, lsl #32
   1d960: aa1703e2     	mov	x2, x23
   1d964: 395b0d08     	ldrb	w8, [x8, #0x6c3]
   1d968: aa1a03eb     	mov	x11, x26
   1d96c: aa1303e3     	mov	x3, x19
   1d970: f2fe88c9     	movk	x9, #0xf446, lsl #48
   1d974: 293b57b8     	stp	w24, w21, [x29, #-0x28]
   1d978: 7100011f     	cmp	w8, #0x0
   1d97c: d2806208     	mov	x8, #0x310              // =784
   1d980: f2ad94a8     	movk	x8, #0x6ca5, lsl #16
   1d984: f81d03b4     	stur	x20, [x29, #-0x30]
   1d988: f2d1f088     	movk	x8, #0x8f84, lsl #32
   1d98c: f2ee1588     	movk	x8, #0x70ac, lsl #48
   1d990: 9a88112e     	csel	x14, x9, x8, ne
   1d994: 17ffff56     	b	0x1d6ec <.text+0x1567c>
   1d998: d10083a9     	sub	x9, x29, #0x20
   1d99c: d100c3a8     	sub	x8, x29, #0x30
   1d9a0: 293b57b8     	stp	w24, w21, [x29, #-0x28]
   1d9a4: aa1603ea     	mov	x10, x22
   1d9a8: f81d03b4     	stur	x20, [x29, #-0x30]
   1d9ac: aa1703e2     	mov	x2, x23
   1d9b0: f8500129     	ldur	x9, [x9, #-0x100]
   1d9b4: aa1a03eb     	mov	x11, x26
   1d9b8: f8500108     	ldur	x8, [x8, #-0x100]
   1d9bc: aa1303e3     	mov	x3, x19
   1d9c0: aa1c03e4     	mov	x4, x28
   1d9c4: aa1903ec     	mov	x12, x25
   1d9c8: 38696908     	ldrb	w8, [x8, x9]
   1d9cc: d28f7669     	mov	x9, #0x7bb3             // =31667
   1d9d0: f2b8ec89     	movk	x9, #0xc764, lsl #16
   1d9d4: f2cc5329     	movk	x9, #0x6299, lsl #32
   1d9d8: f2e3c989     	movk	x9, #0x1e4c, lsl #48
   1d9dc: 7100011f     	cmp	w8, #0x0
   1d9e0: d285c108     	mov	x8, #0x2e08             // =11784
   1d9e4: f2a3c7a8     	movk	x8, #0x1e3d, lsl #16
   1d9e8: f2c545a8     	movk	x8, #0x2a2d, lsl #32
   1d9ec: f2ec5b68     	movk	x8, #0x62db, lsl #48
   1d9f0: 9a88012e     	csel	x14, x9, x8, eq
   1d9f4: 17ffff9e     	b	0x1d86c <.text+0x157fc>
   1d9f8: d10a63a8     	sub	x8, x29, #0x298
   1d9fc: aa0903e0     	mov	x0, x9
   1da00: f85103a9     	ldur	x9, [x29, #-0xf0]
   1da04: 293b57b8     	stp	w24, w21, [x29, #-0x28]
   1da08: f81d03b4     	stur	x20, [x29, #-0x30]
   1da0c: aa1603ea     	mov	x10, x22
   1da10: f8500108     	ldur	x8, [x8, #-0x100]
   1da14: aa1703e2     	mov	x2, x23
   1da18: aa1a03eb     	mov	x11, x26
   1da1c: aa1303e3     	mov	x3, x19
   1da20: aa1c03e4     	mov	x4, x28
   1da24: aa1903ec     	mov	x12, x25
   1da28: cb080128     	sub	x8, x9, x8
   1da2c: d10083a9     	sub	x9, x29, #0x20
   1da30: f8500129     	ldur	x9, [x9, #-0x100]
   1da34: eb09011f     	cmp	x8, x9
   1da38: d28a16a8     	mov	x8, #0x50b5             // =20661
   1da3c: d2953ea9     	mov	x9, #0xa9f5             // =43509
   1da40: f2b48468     	movk	x8, #0xa423, lsl #16
   1da44: f2a8e049     	movk	x9, #0x4702, lsl #16
   1da48: f2c97708     	movk	x8, #0x4bb8, lsl #32
   1da4c: f2dfca49     	movk	x9, #0xfe52, lsl #32
   1da50: f2e31228     	movk	x8, #0x1891, lsl #48
   1da54: f2fff3c9     	movk	x9, #0xff9e, lsl #48
   1da58: 9a88b12e     	csel	x14, x9, x8, lt
   1da5c: aa0003e8     	mov	x8, x0
   1da60: 17ffeaf1     	b	0x18624 <.text+0x105b4>
   1da64: d101d3a8     	sub	x8, x29, #0x74
   1da68: d103f3a9     	sub	x9, x29, #0xfc
   1da6c: a97997a6     	ldp	x6, x5, [x29, #-0x68]
   1da70: b81dc3b5     	stur	w21, [x29, #-0x24]
   1da74: aa1703e2     	mov	x2, x23
   1da78: b8500108     	ldur	w8, [x8, #-0x100]
   1da7c: b81d83b8     	stur	w24, [x29, #-0x28]
   1da80: b8500129     	ldur	w9, [x9, #-0x100]
   1da84: f81d03b4     	stur	x20, [x29, #-0x30]
   1da88: a97b43af     	ldp	x15, x16, [x29, #-0x50]
   1da8c: 12001d08     	and	w8, w8, #0xff
   1da90: aa1303e3     	mov	x3, x19
   1da94: 53103d0a     	lsl	w10, w8, #16
   1da98: d101e3a8     	sub	x8, x29, #0x78
   1da9c: 33181d2b     	bfi	w11, w9, #8, #8
   1daa0: f85903ad     	ldur	x13, [x29, #-0x70]
   1daa4: f85c83a7     	ldur	x7, [x29, #-0x38]
   1daa8: aa1c03e4     	mov	x4, x28
   1daac: b8500109     	ldur	w9, [x8, #-0x100]
   1dab0: aa1903ec     	mov	x12, x25
   1dab4: 2a096168     	orr	w8, w11, w9, lsl #24
   1dab8: d10473ab     	sub	x11, x29, #0x11c
   1dabc: b8100168     	stur	w8, [x11, #-0x100]
   1dac0: d10263a8     	sub	x8, x29, #0x98
   1dac4: aa1a03eb     	mov	x11, x26
   1dac8: b8500108     	ldur	w8, [x8, #-0x100]
   1dacc: 33181d0a     	bfi	w10, w8, #8, #8
   1dad0: d10833a8     	sub	x8, x29, #0x20c
   1dad4: b8500108     	ldur	w8, [x8, #-0x100]
   1dad8: 33001d0a     	bfxil	w10, w8, #0, #8
   1dadc: d108b3a8     	sub	x8, x29, #0x22c
   1dae0: 33081d2a     	bfi	w10, w9, #24, #8
   1dae4: d106c3a9     	sub	x9, x29, #0x1b0
   1dae8: b810010a     	stur	w10, [x8, #-0x100]
   1daec: d10863a8     	sub	x8, x29, #0x218
   1daf0: aa1603ea     	mov	x10, x22
   1daf4: f8500108     	ldur	x8, [x8, #-0x100]
   1daf8: f8100128     	stur	x8, [x9, #-0x100]
   1dafc: d10783a8     	sub	x8, x29, #0x1e0
   1db00: d10243a9     	sub	x9, x29, #0x90
   1db04: b8500108     	ldur	w8, [x8, #-0x100]
   1db08: b8100128     	stur	w8, [x9, #-0x100]
   1db0c: d28832ce     	mov	x14, #0x4196            // =16790
   1db10: f85a83be     	ldur	x30, [x29, #-0x58]
   1db14: f85c03a8     	ldur	x8, [x29, #-0x40]
   1db18: f2b6c84e     	movk	x14, #0xb642, lsl #16
   1db1c: f85883a1     	ldur	x1, [x29, #-0x78]
   1db20: f2c6566e     	movk	x14, #0x32b3, lsl #32
   1db24: f2f3c02e     	movk	x14, #0x9e01, lsl #48
   1db28: 17ffeabf     	b	0x18624 <.text+0x105b4>
   1db2c: d10203a9     	sub	x9, x29, #0x80
   1db30: d286cb8e     	mov	x14, #0x365c            // =13916
   1db34: a97997a6     	ldp	x6, x5, [x29, #-0x68]
   1db38: f2b65c4e     	movk	x14, #0xb2e2, lsl #16
   1db3c: 293b57b8     	stp	w24, w21, [x29, #-0x28]
   1db40: f8500120     	ldur	x0, [x9, #-0x100]
   1db44: d10103a9     	sub	x9, x29, #0x40
   1db48: a97b43af     	ldp	x15, x16, [x29, #-0x50]
   1db4c: f2dc81ee     	movk	x14, #0xe40f, lsl #32
   1db50: f81d03b4     	stur	x20, [x29, #-0x30]
   1db54: f940041b     	ldr	x27, [x0, #0x8]
   1db58: aa1603ea     	mov	x10, x22
   1db5c: f8500129     	ldur	x9, [x9, #-0x100]
   1db60: aa1703e2     	mov	x2, x23
   1db64: f85903ad     	ldur	x13, [x29, #-0x70]
   1db68: aa1a03eb     	mov	x11, x26
   1db6c: f85c83a7     	ldur	x7, [x29, #-0x38]
   1db70: aa1303e3     	mov	x3, x19
   1db74: f9000369     	str	x9, [x27]
   1db78: d10463a9     	sub	x9, x29, #0x118
   1db7c: f85a83be     	ldur	x30, [x29, #-0x58]
   1db80: aa1c03e4     	mov	x4, x28
   1db84: aa1903ec     	mov	x12, x25
   1db88: f2f9f08e     	movk	x14, #0xcf84, lsl #48
   1db8c: f8500129     	ldur	x9, [x9, #-0x100]
   1db90: f9000409     	str	x9, [x0, #0x8]
   1db94: 17ffeaa4     	b	0x18624 <.text+0x105b4>
   1db98: d10ac3a8     	sub	x8, x29, #0x2b0
   1db9c: f8500108     	ldur	x8, [x8, #-0x100]
   1dba0: f9401508     	ldr	x8, [x8, #0x28]
   1dba4: f85e03a9     	ldur	x9, [x29, #-0x20]
   1dba8: eb09011f     	cmp	x8, x9
   1dbac: 54000141     	b.ne	0x1dbd4 <.text+0x15b64>
   1dbb0: d10043bf     	sub	sp, x29, #0x10
   1dbb4: a9464ff4     	ldp	x20, x19, [sp, #0x60]
   1dbb8: a94557f6     	ldp	x22, x21, [sp, #0x50]
   1dbbc: a9445ff8     	ldp	x24, x23, [sp, #0x40]
   1dbc0: a94367fa     	ldp	x26, x25, [sp, #0x30]
   1dbc4: a9426ffc     	ldp	x28, x27, [sp, #0x20]
   1dbc8: a9417bfd     	ldp	x29, x30, [sp, #0x10]
   1dbcc: fc4707e8     	ldr	d8, [sp], #0x70
   1dbd0: d65f03c0     	ret
   1dbd4: 94047087     	bl	0x139df0 <__stack_chk_fail@plt>
   1dbd8: a9ba7bfd     	stp	x29, x30, [sp, #-0x60]!
