
adjust-android-signature-3.67.0/jni/x86_64/libsigner.so:     file format elf64-x86-64


Disassembly of section .text:

0000000000019bdf <Java_com_adjust_sdk_sig_NativeLibHelper_nOnResume@@Base-0xa10c4>:
   19bdf:	55                   	push   rbp
   19be0:	48 89 e5             	mov    rbp,rsp
   19be3:	41 57                	push   r15
   19be5:	41 56                	push   r14
   19be7:	41 55                	push   r13
   19be9:	41 54                	push   r12
   19beb:	53                   	push   rbx
   19bec:	48 81 ec e8 03 00 00 	sub    rsp,0x3e8
   19bf3:	48 89 95 40 fe ff ff 	mov    QWORD PTR [rbp-0x1c0],rdx
   19bfa:	48 89 b5 b8 fe ff ff 	mov    QWORD PTR [rbp-0x148],rsi
   19c01:	48 89 bd c8 fd ff ff 	mov    QWORD PTR [rbp-0x238],rdi
   19c08:	64 48 8b 04 25 28 00 	mov    rax,QWORD PTR fs:0x28
   19c0f:	00 00 
   19c11:	48 89 45 d0          	mov    QWORD PTR [rbp-0x30],rax
   19c15:	48 ba 2c 74 6e 7a 89 	movabs rdx,0x73a9e0897a6e742c
   19c1c:	e0 a9 73 
   19c1f:	44 89 95 ac fe ff ff 	mov    DWORD PTR [rbp-0x154],r10d
   19c26:	4c 89 95 78 fe ff ff 	mov    QWORD PTR [rbp-0x188],r10
   19c2d:	4c 89 95 38 ff ff ff 	mov    QWORD PTR [rbp-0xc8],r10
   19c34:	48 89 9d 00 ff ff ff 	mov    QWORD PTR [rbp-0x100],rbx
   19c3b:	4c 89 ad f0 fe ff ff 	mov    QWORD PTR [rbp-0x110],r13
   19c42:	4c 89 bd f8 fe ff ff 	mov    QWORD PTR [rbp-0x108],r15
   19c49:	4c 89 9d 18 ff ff ff 	mov    QWORD PTR [rbp-0xe8],r11
   19c50:	48 8b 4d c0          	mov    rcx,QWORD PTR [rbp-0x40]
   19c54:	48 89 8d 20 ff ff ff 	mov    QWORD PTR [rbp-0xe0],rcx
   19c5b:	48 8b 4d b8          	mov    rcx,QWORD PTR [rbp-0x48]
   19c5f:	48 89 8d 10 ff ff ff 	mov    QWORD PTR [rbp-0xf0],rcx
   19c66:	48 89 c1             	mov    rcx,rax
   19c69:	4c 8b 65 b0          	mov    r12,QWORD PTR [rbp-0x50]
   19c6d:	48 8b 5d a8          	mov    rbx,QWORD PTR [rbp-0x58]
   19c71:	4c 8b 5d a0          	mov    r11,QWORD PTR [rbp-0x60]
   19c75:	4c 8b 75 98          	mov    r14,QWORD PTR [rbp-0x68]
   19c79:	4c 8b 45 90          	mov    r8,QWORD PTR [rbp-0x70]
   19c7d:	4c 8b 4d 88          	mov    r9,QWORD PTR [rbp-0x78]
   19c81:	48 8b 7d 80          	mov    rdi,QWORD PTR [rbp-0x80]
   19c85:	4c 8b ad 78 ff ff ff 	mov    r13,QWORD PTR [rbp-0x88]
   19c8c:	4c 8b bd 70 ff ff ff 	mov    r15,QWORD PTR [rbp-0x90]
   19c93:	44 8a 55 cf          	mov    r10b,BYTE PTR [rbp-0x31]
   19c97:	48 b8 da 06 62 6c 90 	movabs rax,0x818029906c6206da
   19c9e:	29 80 81 
   19ca1:	48 89 95 68 ff ff ff 	mov    QWORD PTR [rbp-0x98],rdx
   19ca8:	48 39 c2             	cmp    rdx,rax
   19cab:	0f 84 44 8c 00 00    	je     228f5 <Java_com_adjust_sdk_sig_NativeLibHelper_nOnResume@@Base-0x983ae>
   19cb1:	44 88 55 ce          	mov    BYTE PTR [rbp-0x32],r10b
   19cb5:	44 88 55 cf          	mov    BYTE PTR [rbp-0x31],r10b
   19cb9:	40 88 75 cd          	mov    BYTE PTR [rbp-0x33],sil
   19cbd:	4c 89 bd 50 ff ff ff 	mov    QWORD PTR [rbp-0xb0],r15
   19cc4:	4c 89 bd 70 ff ff ff 	mov    QWORD PTR [rbp-0x90],r15
   19ccb:	4c 89 ad 60 ff ff ff 	mov    QWORD PTR [rbp-0xa0],r13
   19cd2:	4c 89 ad 78 ff ff ff 	mov    QWORD PTR [rbp-0x88],r13
   19cd9:	48 89 f8             	mov    rax,rdi
   19cdc:	48 89 7d 80          	mov    QWORD PTR [rbp-0x80],rdi
   19ce0:	4c 89 4d 88          	mov    QWORD PTR [rbp-0x78],r9
   19ce4:	4c 89 45 90          	mov    QWORD PTR [rbp-0x70],r8
   19ce8:	4c 89 b5 58 ff ff ff 	mov    QWORD PTR [rbp-0xa8],r14
   19cef:	4c 89 75 98          	mov    QWORD PTR [rbp-0x68],r14
   19cf3:	4c 89 9d 30 ff ff ff 	mov    QWORD PTR [rbp-0xd0],r11
   19cfa:	4c 89 5d a0          	mov    QWORD PTR [rbp-0x60],r11
   19cfe:	48 89 9d 28 ff ff ff 	mov    QWORD PTR [rbp-0xd8],rbx
   19d05:	48 89 5d a8          	mov    QWORD PTR [rbp-0x58],rbx
   19d09:	4c 89 a5 40 ff ff ff 	mov    QWORD PTR [rbp-0xc0],r12
   19d10:	4c 89 65 b0          	mov    QWORD PTR [rbp-0x50],r12
   19d14:	48 89 8d 08 ff ff ff 	mov    QWORD PTR [rbp-0xf8],rcx
   19d1b:	48 89 c8             	mov    rax,rcx
   19d1e:	48 8b 8d 10 ff ff ff 	mov    rcx,QWORD PTR [rbp-0xf0]
   19d25:	48 89 4d b8          	mov    QWORD PTR [rbp-0x48],rcx
   19d29:	48 8b 8d 20 ff ff ff 	mov    rcx,QWORD PTR [rbp-0xe0]
   19d30:	48 89 4d c0          	mov    QWORD PTR [rbp-0x40],rcx
   19d34:	4c 8b 9d 18 ff ff ff 	mov    r11,QWORD PTR [rbp-0xe8]
   19d3b:	4c 8b bd f8 fe ff ff 	mov    r15,QWORD PTR [rbp-0x108]
   19d42:	4c 8b ad f0 fe ff ff 	mov    r13,QWORD PTR [rbp-0x110]
   19d49:	48 8b 9d 00 ff ff ff 	mov    rbx,QWORD PTR [rbp-0x100]
   19d50:	4c 8b 95 38 ff ff ff 	mov    r10,QWORD PTR [rbp-0xc8]
   19d57:	48 ba bc 5b fe 7c ef 	movabs rdx,0xbee440ef7cfe5bbc
   19d5e:	40 e4 be 
   19d61:	49 bc 6d bd a5 e5 0c 	movabs r12,0x8689970ce5a5bd6d
   19d68:	97 89 86 
   19d6b:	4c 39 a5 68 ff ff ff 	cmp    QWORD PTR [rbp-0x98],r12
   19d72:	4c 89 85 48 ff ff ff 	mov    QWORD PTR [rbp-0xb8],r8
   19d79:	0f 84 ae fe ff ff    	je     19c2d <Java_com_adjust_sdk_sig_NativeLibHelper_nOnResume@@Base-0xa1076>
   19d7f:	49 89 fe             	mov    r14,rdi
   19d82:	48 b8 0a 06 39 4e fb 	movabs rax,0x86d47bfb4e39060a
   19d89:	7b d4 86 
   19d8c:	48 39 85 68 ff ff ff 	cmp    QWORD PTR [rbp-0x98],rax
   19d93:	4c 89 8d e8 fe ff ff 	mov    QWORD PTR [rbp-0x118],r9
   19d9a:	48 89 bd e0 fe ff ff 	mov    QWORD PTR [rbp-0x120],rdi
   19da1:	0f 84 4f 7b 00 00    	je     218f6 <Java_com_adjust_sdk_sig_NativeLibHelper_nOnResume@@Base-0x993ad>
   19da7:	8a 45 ce             	mov    al,BYTE PTR [rbp-0x32]
   19daa:	88 45 cf             	mov    BYTE PTR [rbp-0x31],al
   19dad:	8a 45 cd             	mov    al,BYTE PTR [rbp-0x33]
   19db0:	89 c6                	mov    esi,eax
   19db2:	48 8b 85 50 ff ff ff 	mov    rax,QWORD PTR [rbp-0xb0]
   19db9:	48 89 85 70 ff ff ff 	mov    QWORD PTR [rbp-0x90],rax
   19dc0:	48 8b 85 60 ff ff ff 	mov    rax,QWORD PTR [rbp-0xa0]
   19dc7:	48 89 85 78 ff ff ff 	mov    QWORD PTR [rbp-0x88],rax
   19dce:	4c 89 f0             	mov    rax,r14
   19dd1:	4c 89 75 80          	mov    QWORD PTR [rbp-0x80],r14
   19dd5:	4c 89 4d 88          	mov    QWORD PTR [rbp-0x78],r9
   19dd9:	48 8b 85 48 ff ff ff 	mov    rax,QWORD PTR [rbp-0xb8]
   19de0:	48 89 45 90          	mov    QWORD PTR [rbp-0x70],rax
   19de4:	48 8b 85 58 ff ff ff 	mov    rax,QWORD PTR [rbp-0xa8]
   19deb:	48 89 45 98          	mov    QWORD PTR [rbp-0x68],rax
   19def:	48 8b 85 30 ff ff ff 	mov    rax,QWORD PTR [rbp-0xd0]
   19df6:	48 89 45 a0          	mov    QWORD PTR [rbp-0x60],rax
   19dfa:	48 8b 85 28 ff ff ff 	mov    rax,QWORD PTR [rbp-0xd8]
   19e01:	48 89 45 a8          	mov    QWORD PTR [rbp-0x58],rax
   19e05:	48 8b 85 40 ff ff ff 	mov    rax,QWORD PTR [rbp-0xc0]
   19e0c:	48 89 45 b0          	mov    QWORD PTR [rbp-0x50],rax
   19e10:	48 8b 85 08 ff ff ff 	mov    rax,QWORD PTR [rbp-0xf8]
   19e17:	48 8b 8d 10 ff ff ff 	mov    rcx,QWORD PTR [rbp-0xf0]
   19e1e:	48 89 4d b8          	mov    QWORD PTR [rbp-0x48],rcx
   19e22:	48 8b 8d 20 ff ff ff 	mov    rcx,QWORD PTR [rbp-0xe0]
   19e29:	48 89 4d c0          	mov    QWORD PTR [rbp-0x40],rcx
   19e2d:	4c 8b 9d 18 ff ff ff 	mov    r11,QWORD PTR [rbp-0xe8]
   19e34:	4c 8b bd f8 fe ff ff 	mov    r15,QWORD PTR [rbp-0x108]
   19e3b:	4c 8b ad f0 fe ff ff 	mov    r13,QWORD PTR [rbp-0x110]
   19e42:	48 8b 9d 00 ff ff ff 	mov    rbx,QWORD PTR [rbp-0x100]
   19e49:	4c 8b 95 38 ff ff ff 	mov    r10,QWORD PTR [rbp-0xc8]
   19e50:	49 bc bd 33 18 43 3c 	movabs r12,0x8900b73c431833bd
   19e57:	b7 00 89 
   19e5a:	4c 39 a5 68 ff ff ff 	cmp    QWORD PTR [rbp-0x98],r12
   19e61:	0f 84 c6 fd ff ff    	je     19c2d <Java_com_adjust_sdk_sig_NativeLibHelper_nOnResume@@Base-0xa1076>
   19e67:	48 b8 ab 05 b0 c2 ba 	movabs rax,0x8f3126bac2b005ab
   19e6e:	26 31 8f 
   19e71:	48 39 85 68 ff ff ff 	cmp    QWORD PTR [rbp-0x98],rax
   19e78:	0f 84 a3 68 00 00    	je     20721 <Java_com_adjust_sdk_sig_NativeLibHelper_nOnResume@@Base-0x9a582>
   19e7e:	8a 45 ce             	mov    al,BYTE PTR [rbp-0x32]
   19e81:	88 45 cf             	mov    BYTE PTR [rbp-0x31],al
   19e84:	8a 45 cd             	mov    al,BYTE PTR [rbp-0x33]
   19e87:	89 c6                	mov    esi,eax
   19e89:	48 8b 85 50 ff ff ff 	mov    rax,QWORD PTR [rbp-0xb0]
   19e90:	48 89 85 70 ff ff ff 	mov    QWORD PTR [rbp-0x90],rax
   19e97:	48 8b 85 60 ff ff ff 	mov    rax,QWORD PTR [rbp-0xa0]
   19e9e:	48 89 85 78 ff ff ff 	mov    QWORD PTR [rbp-0x88],rax
   19ea5:	4c 89 f0             	mov    rax,r14
   19ea8:	4c 89 75 80          	mov    QWORD PTR [rbp-0x80],r14
   19eac:	4c 89 4d 88          	mov    QWORD PTR [rbp-0x78],r9
   19eb0:	48 8b 85 48 ff ff ff 	mov    rax,QWORD PTR [rbp-0xb8]
   19eb7:	48 89 45 90          	mov    QWORD PTR [rbp-0x70],rax
   19ebb:	48 8b 85 58 ff ff ff 	mov    rax,QWORD PTR [rbp-0xa8]
   19ec2:	48 89 45 98          	mov    QWORD PTR [rbp-0x68],rax
   19ec6:	48 8b 85 30 ff ff ff 	mov    rax,QWORD PTR [rbp-0xd0]
   19ecd:	48 89 45 a0          	mov    QWORD PTR [rbp-0x60],rax
   19ed1:	48 8b 85 28 ff ff ff 	mov    rax,QWORD PTR [rbp-0xd8]
   19ed8:	48 89 45 a8          	mov    QWORD PTR [rbp-0x58],rax
   19edc:	48 8b 85 40 ff ff ff 	mov    rax,QWORD PTR [rbp-0xc0]
   19ee3:	48 89 45 b0          	mov    QWORD PTR [rbp-0x50],rax
   19ee7:	48 8b 85 08 ff ff ff 	mov    rax,QWORD PTR [rbp-0xf8]
   19eee:	48 8b 8d 10 ff ff ff 	mov    rcx,QWORD PTR [rbp-0xf0]
   19ef5:	48 89 4d b8          	mov    QWORD PTR [rbp-0x48],rcx
   19ef9:	48 8b 8d 20 ff ff ff 	mov    rcx,QWORD PTR [rbp-0xe0]
   19f00:	48 89 4d c0          	mov    QWORD PTR [rbp-0x40],rcx
   19f04:	4c 8b 9d 18 ff ff ff 	mov    r11,QWORD PTR [rbp-0xe8]
   19f0b:	4c 8b bd f8 fe ff ff 	mov    r15,QWORD PTR [rbp-0x108]
   19f12:	4c 8b ad f0 fe ff ff 	mov    r13,QWORD PTR [rbp-0x110]
   19f19:	48 8b 9d 00 ff ff ff 	mov    rbx,QWORD PTR [rbp-0x100]
   19f20:	4c 8b 95 38 ff ff ff 	mov    r10,QWORD PTR [rbp-0xc8]
   19f27:	48 ba 77 9e 41 4a d8 	movabs rdx,0x1f8061d84a419e77
   19f2e:	61 80 1f 
   19f31:	49 bc c4 a9 c2 35 35 	movabs r12,0x9074123535c2a9c4
   19f38:	12 74 90 
   19f3b:	4c 39 a5 68 ff ff ff 	cmp    QWORD PTR [rbp-0x98],r12
   19f42:	0f 84 e5 fc ff ff    	je     19c2d <Java_com_adjust_sdk_sig_NativeLibHelper_nOnResume@@Base-0xa1076>
   19f48:	48 b8 63 67 77 38 87 	movabs rax,0x932da08738776763
   19f4f:	a0 2d 93 
   19f52:	48 39 85 68 ff ff ff 	cmp    QWORD PTR [rbp-0x98],rax
   19f59:	0f 84 90 7b 00 00    	je     21aef <Java_com_adjust_sdk_sig_NativeLibHelper_nOnResume@@Base-0x991b4>
   19f5f:	48 b8 4a a5 a6 a9 75 	movabs rax,0x93f94775a9a6a54a
   19f66:	47 f9 93 
   19f69:	48 39 85 68 ff ff ff 	cmp    QWORD PTR [rbp-0x98],rax
   19f70:	40 8a 75 cd          	mov    sil,BYTE PTR [rbp-0x33]
   19f74:	4c 8b 95 38 ff ff ff 	mov    r10,QWORD PTR [rbp-0xc8]
   19f7b:	48 8b 9d 00 ff ff ff 	mov    rbx,QWORD PTR [rbp-0x100]
   19f82:	4c 8b ad f0 fe ff ff 	mov    r13,QWORD PTR [rbp-0x110]
   19f89:	4c 8b bd f8 fe ff ff 	mov    r15,QWORD PTR [rbp-0x108]
   19f90:	48 8b 8d 18 ff ff ff 	mov    rcx,QWORD PTR [rbp-0xe8]
   19f97:	4c 8b 85 20 ff ff ff 	mov    r8,QWORD PTR [rbp-0xe0]
   19f9e:	48 8b bd 10 ff ff ff 	mov    rdi,QWORD PTR [rbp-0xf0]
   19fa5:	4c 8b a5 08 ff ff ff 	mov    r12,QWORD PTR [rbp-0xf8]
   19fac:	4c 8b 9d 28 ff ff ff 	mov    r11,QWORD PTR [rbp-0xd8]
   19fb3:	48 8b 95 30 ff ff ff 	mov    rdx,QWORD PTR [rbp-0xd0]
   19fba:	0f 84 ce 41 00 00    	je     1e18e <Java_com_adjust_sdk_sig_NativeLibHelper_nOnResume@@Base-0x9cb15>
   19fc0:	48 b8 a9 de 82 33 49 	movabs rax,0x944c92493382dea9
   19fc7:	92 4c 94 
   19fca:	48 39 85 68 ff ff ff 	cmp    QWORD PTR [rbp-0x98],rax
   19fd1:	0f 84 b6 8a 00 00    	je     22a8d <Java_com_adjust_sdk_sig_NativeLibHelper_nOnResume@@Base-0x98216>
   19fd7:	8a 45 ce             	mov    al,BYTE PTR [rbp-0x32]
   19fda:	88 45 cf             	mov    BYTE PTR [rbp-0x31],al
   19fdd:	48 8b 85 50 ff ff ff 	mov    rax,QWORD PTR [rbp-0xb0]
   19fe4:	48 89 85 70 ff ff ff 	mov    QWORD PTR [rbp-0x90],rax
   19feb:	48 8b 85 60 ff ff ff 	mov    rax,QWORD PTR [rbp-0xa0]
   19ff2:	48 89 85 78 ff ff ff 	mov    QWORD PTR [rbp-0x88],rax
   19ff9:	4c 8b b5 e0 fe ff ff 	mov    r14,QWORD PTR [rbp-0x120]
   1a000:	4c 89 f0             	mov    rax,r14
   1a003:	4c 89 75 80          	mov    QWORD PTR [rbp-0x80],r14
   1a007:	4c 8b 8d e8 fe ff ff 	mov    r9,QWORD PTR [rbp-0x118]
   1a00e:	4c 89 4d 88          	mov    QWORD PTR [rbp-0x78],r9
   1a012:	48 8b 85 48 ff ff ff 	mov    rax,QWORD PTR [rbp-0xb8]
   1a019:	48 89 45 90          	mov    QWORD PTR [rbp-0x70],rax
   1a01d:	48 8b 85 58 ff ff ff 	mov    rax,QWORD PTR [rbp-0xa8]
   1a024:	48 89 45 98          	mov    QWORD PTR [rbp-0x68],rax
   1a028:	48 89 55 a0          	mov    QWORD PTR [rbp-0x60],rdx
   1a02c:	4c 89 5d a8          	mov    QWORD PTR [rbp-0x58],r11
   1a030:	48 8b 85 40 ff ff ff 	mov    rax,QWORD PTR [rbp-0xc0]
   1a037:	48 89 45 b0          	mov    QWORD PTR [rbp-0x50],rax
   1a03b:	4c 89 e0             	mov    rax,r12
   1a03e:	48 89 7d b8          	mov    QWORD PTR [rbp-0x48],rdi
   1a042:	4c 89 45 c0          	mov    QWORD PTR [rbp-0x40],r8
   1a046:	49 89 cb             	mov    r11,rcx
   1a049:	48 ba 05 65 a2 6c 26 	movabs rdx,0xc4de52266ca26505
   1a050:	52 de c4 
   1a053:	49 bc 80 f6 3a 89 2c 	movabs r12,0x945c642c893af680
   1a05a:	64 5c 94 
   1a05d:	4c 39 a5 68 ff ff ff 	cmp    QWORD PTR [rbp-0x98],r12
   1a064:	0f 84 c3 fb ff ff    	je     19c2d <Java_com_adjust_sdk_sig_NativeLibHelper_nOnResume@@Base-0xa1076>
   1a06a:	4c 89 f7             	mov    rdi,r14
   1a06d:	48 b8 2a 04 4d af c1 	movabs rax,0x96eeb6c1af4d042a
   1a074:	b6 ee 96 
   1a077:	48 39 85 68 ff ff ff 	cmp    QWORD PTR [rbp-0x98],rax
   1a07e:	0f 84 45 40 00 00    	je     1e0c9 <Java_com_adjust_sdk_sig_NativeLibHelper_nOnResume@@Base-0x9cbda>
   1a084:	8a 45 ce             	mov    al,BYTE PTR [rbp-0x32]
   1a087:	88 45 cf             	mov    BYTE PTR [rbp-0x31],al
   1a08a:	8a 45 cd             	mov    al,BYTE PTR [rbp-0x33]
   1a08d:	89 c6                	mov    esi,eax
   1a08f:	48 8b 85 50 ff ff ff 	mov    rax,QWORD PTR [rbp-0xb0]
   1a096:	48 89 85 70 ff ff ff 	mov    QWORD PTR [rbp-0x90],rax
   1a09d:	48 8b 85 60 ff ff ff 	mov    rax,QWORD PTR [rbp-0xa0]
   1a0a4:	48 89 85 78 ff ff ff 	mov    QWORD PTR [rbp-0x88],rax
   1a0ab:	48 89 f8             	mov    rax,rdi
   1a0ae:	48 89 7d 80          	mov    QWORD PTR [rbp-0x80],rdi
   1a0b2:	4c 89 4d 88          	mov    QWORD PTR [rbp-0x78],r9
   1a0b6:	48 8b 85 48 ff ff ff 	mov    rax,QWORD PTR [rbp-0xb8]
   1a0bd:	48 89 45 90          	mov    QWORD PTR [rbp-0x70],rax
   1a0c1:	48 8b 85 58 ff ff ff 	mov    rax,QWORD PTR [rbp-0xa8]
   1a0c8:	48 89 45 98          	mov    QWORD PTR [rbp-0x68],rax
   1a0cc:	48 8b 85 30 ff ff ff 	mov    rax,QWORD PTR [rbp-0xd0]
   1a0d3:	48 89 45 a0          	mov    QWORD PTR [rbp-0x60],rax
   1a0d7:	48 8b 85 28 ff ff ff 	mov    rax,QWORD PTR [rbp-0xd8]
   1a0de:	48 89 45 a8          	mov    QWORD PTR [rbp-0x58],rax
   1a0e2:	48 8b 85 40 ff ff ff 	mov    rax,QWORD PTR [rbp-0xc0]
   1a0e9:	48 89 45 b0          	mov    QWORD PTR [rbp-0x50],rax
   1a0ed:	48 8b 85 08 ff ff ff 	mov    rax,QWORD PTR [rbp-0xf8]
   1a0f4:	48 8b 8d 10 ff ff ff 	mov    rcx,QWORD PTR [rbp-0xf0]
   1a0fb:	48 89 4d b8          	mov    QWORD PTR [rbp-0x48],rcx
   1a0ff:	48 8b 8d 20 ff ff ff 	mov    rcx,QWORD PTR [rbp-0xe0]
   1a106:	48 89 4d c0          	mov    QWORD PTR [rbp-0x40],rcx
   1a10a:	4c 8b 9d 18 ff ff ff 	mov    r11,QWORD PTR [rbp-0xe8]
   1a111:	4c 8b bd f8 fe ff ff 	mov    r15,QWORD PTR [rbp-0x108]
   1a118:	4c 8b ad f0 fe ff ff 	mov    r13,QWORD PTR [rbp-0x110]
   1a11f:	48 8b 9d 00 ff ff ff 	mov    rbx,QWORD PTR [rbp-0x100]
   1a126:	4c 8b 95 38 ff ff ff 	mov    r10,QWORD PTR [rbp-0xc8]
   1a12d:	48 ba 50 bc 28 be a9 	movabs rdx,0x3ba140a9be28bc50
   1a134:	40 a1 3b 
   1a137:	49 bc 0c 0e 28 d1 5a 	movabs r12,0x96fb5a5ad1280e0c
   1a13e:	5a fb 96 
   1a141:	4c 39 a5 68 ff ff ff 	cmp    QWORD PTR [rbp-0x98],r12
   1a148:	0f 84 df fa ff ff    	je     19c2d <Java_com_adjust_sdk_sig_NativeLibHelper_nOnResume@@Base-0xa1076>
   1a14e:	8a 45 ce             	mov    al,BYTE PTR [rbp-0x32]
   1a151:	88 45 cf             	mov    BYTE PTR [rbp-0x31],al
   1a154:	8a 45 cd             	mov    al,BYTE PTR [rbp-0x33]
   1a157:	89 c6                	mov    esi,eax
   1a159:	48 8b 85 50 ff ff ff 	mov    rax,QWORD PTR [rbp-0xb0]
   1a160:	48 89 85 70 ff ff ff 	mov    QWORD PTR [rbp-0x90],rax
   1a167:	48 8b 85 60 ff ff ff 	mov    rax,QWORD PTR [rbp-0xa0]
   1a16e:	48 89 85 78 ff ff ff 	mov    QWORD PTR [rbp-0x88],rax
   1a175:	48 89 f8             	mov    rax,rdi
   1a178:	48 89 7d 80          	mov    QWORD PTR [rbp-0x80],rdi
   1a17c:	4c 89 4d 88          	mov    QWORD PTR [rbp-0x78],r9
   1a180:	48 8b 85 48 ff ff ff 	mov    rax,QWORD PTR [rbp-0xb8]
   1a187:	48 89 45 90          	mov    QWORD PTR [rbp-0x70],rax
   1a18b:	48 8b 85 58 ff ff ff 	mov    rax,QWORD PTR [rbp-0xa8]
   1a192:	48 89 45 98          	mov    QWORD PTR [rbp-0x68],rax
   1a196:	48 8b 85 30 ff ff ff 	mov    rax,QWORD PTR [rbp-0xd0]
   1a19d:	48 89 45 a0          	mov    QWORD PTR [rbp-0x60],rax
   1a1a1:	48 8b 85 28 ff ff ff 	mov    rax,QWORD PTR [rbp-0xd8]
   1a1a8:	48 89 45 a8          	mov    QWORD PTR [rbp-0x58],rax
   1a1ac:	48 8b 85 40 ff ff ff 	mov    rax,QWORD PTR [rbp-0xc0]
   1a1b3:	48 89 45 b0          	mov    QWORD PTR [rbp-0x50],rax
   1a1b7:	48 8b 85 08 ff ff ff 	mov    rax,QWORD PTR [rbp-0xf8]
   1a1be:	48 8b 8d 10 ff ff ff 	mov    rcx,QWORD PTR [rbp-0xf0]
   1a1c5:	48 89 4d b8          	mov    QWORD PTR [rbp-0x48],rcx
   1a1c9:	48 8b 8d 20 ff ff ff 	mov    rcx,QWORD PTR [rbp-0xe0]
   1a1d0:	48 89 4d c0          	mov    QWORD PTR [rbp-0x40],rcx
   1a1d4:	4c 8b 9d 18 ff ff ff 	mov    r11,QWORD PTR [rbp-0xe8]
   1a1db:	4c 8b bd f8 fe ff ff 	mov    r15,QWORD PTR [rbp-0x108]
   1a1e2:	4c 8b ad f0 fe ff ff 	mov    r13,QWORD PTR [rbp-0x110]
   1a1e9:	48 8b 9d 00 ff ff ff 	mov    rbx,QWORD PTR [rbp-0x100]
   1a1f0:	4c 8b 95 38 ff ff ff 	mov    r10,QWORD PTR [rbp-0xc8]
   1a1f7:	48 ba a4 46 b5 a0 ef 	movabs rdx,0x2d4a63efa0b546a4
   1a1fe:	63 4a 2d 
   1a201:	49 bc 3c 6c 44 a4 dd 	movabs r12,0x970d3edda4446c3c
   1a208:	3e 0d 97 
   1a20b:	4c 39 a5 68 ff ff ff 	cmp    QWORD PTR [rbp-0x98],r12
   1a212:	0f 84 15 fa ff ff    	je     19c2d <Java_com_adjust_sdk_sig_NativeLibHelper_nOnResume@@Base-0xa1076>
   1a218:	8a 45 ce             	mov    al,BYTE PTR [rbp-0x32]
   1a21b:	88 45 cf             	mov    BYTE PTR [rbp-0x31],al
   1a21e:	8a 45 cd             	mov    al,BYTE PTR [rbp-0x33]
   1a221:	89 c6                	mov    esi,eax
   1a223:	48 8b 85 50 ff ff ff 	mov    rax,QWORD PTR [rbp-0xb0]
   1a22a:	48 89 85 70 ff ff ff 	mov    QWORD PTR [rbp-0x90],rax
   1a231:	48 8b 85 60 ff ff ff 	mov    rax,QWORD PTR [rbp-0xa0]
   1a238:	48 89 85 78 ff ff ff 	mov    QWORD PTR [rbp-0x88],rax
   1a23f:	48 89 f8             	mov    rax,rdi
   1a242:	48 89 7d 80          	mov    QWORD PTR [rbp-0x80],rdi
   1a246:	4c 89 4d 88          	mov    QWORD PTR [rbp-0x78],r9
   1a24a:	48 8b 85 48 ff ff ff 	mov    rax,QWORD PTR [rbp-0xb8]
   1a251:	48 89 45 90          	mov    QWORD PTR [rbp-0x70],rax
   1a255:	48 8b 85 58 ff ff ff 	mov    rax,QWORD PTR [rbp-0xa8]
   1a25c:	48 89 45 98          	mov    QWORD PTR [rbp-0x68],rax
   1a260:	48 8b 85 30 ff ff ff 	mov    rax,QWORD PTR [rbp-0xd0]
   1a267:	48 89 45 a0          	mov    QWORD PTR [rbp-0x60],rax
   1a26b:	48 8b 85 28 ff ff ff 	mov    rax,QWORD PTR [rbp-0xd8]
   1a272:	48 89 45 a8          	mov    QWORD PTR [rbp-0x58],rax
   1a276:	48 8b 85 40 ff ff ff 	mov    rax,QWORD PTR [rbp-0xc0]
   1a27d:	48 89 45 b0          	mov    QWORD PTR [rbp-0x50],rax
   1a281:	48 8b 85 08 ff ff ff 	mov    rax,QWORD PTR [rbp-0xf8]
   1a288:	48 8b 8d 10 ff ff ff 	mov    rcx,QWORD PTR [rbp-0xf0]
   1a28f:	48 89 4d b8          	mov    QWORD PTR [rbp-0x48],rcx
   1a293:	48 8b 8d 20 ff ff ff 	mov    rcx,QWORD PTR [rbp-0xe0]
   1a29a:	48 89 4d c0          	mov    QWORD PTR [rbp-0x40],rcx
   1a29e:	4c 8b 9d 18 ff ff ff 	mov    r11,QWORD PTR [rbp-0xe8]
   1a2a5:	4c 8b bd f8 fe ff ff 	mov    r15,QWORD PTR [rbp-0x108]
   1a2ac:	4c 8b ad f0 fe ff ff 	mov    r13,QWORD PTR [rbp-0x110]
   1a2b3:	48 8b 9d 00 ff ff ff 	mov    rbx,QWORD PTR [rbp-0x100]
   1a2ba:	4c 8b 95 38 ff ff ff 	mov    r10,QWORD PTR [rbp-0xc8]
   1a2c1:	48 ba 05 65 a2 6c 26 	movabs rdx,0xc4de52266ca26505
   1a2c8:	52 de c4 
   1a2cb:	49 bc fa 23 c2 bd 44 	movabs r12,0x972d7c44bdc223fa
   1a2d2:	7c 2d 97 
   1a2d5:	4c 39 a5 68 ff ff ff 	cmp    QWORD PTR [rbp-0x98],r12
   1a2dc:	0f 84 4b f9 ff ff    	je     19c2d <Java_com_adjust_sdk_sig_NativeLibHelper_nOnResume@@Base-0xa1076>
   1a2e2:	8a 45 ce             	mov    al,BYTE PTR [rbp-0x32]
   1a2e5:	88 45 cf             	mov    BYTE PTR [rbp-0x31],al
   1a2e8:	8a 45 cd             	mov    al,BYTE PTR [rbp-0x33]
   1a2eb:	89 c6                	mov    esi,eax
   1a2ed:	48 8b 85 50 ff ff ff 	mov    rax,QWORD PTR [rbp-0xb0]
   1a2f4:	48 89 85 70 ff ff ff 	mov    QWORD PTR [rbp-0x90],rax
   1a2fb:	48 8b 85 60 ff ff ff 	mov    rax,QWORD PTR [rbp-0xa0]
   1a302:	48 89 85 78 ff ff ff 	mov    QWORD PTR [rbp-0x88],rax
   1a309:	48 89 f8             	mov    rax,rdi
   1a30c:	48 89 7d 80          	mov    QWORD PTR [rbp-0x80],rdi
   1a310:	4c 89 4d 88          	mov    QWORD PTR [rbp-0x78],r9
   1a314:	48 8b 85 48 ff ff ff 	mov    rax,QWORD PTR [rbp-0xb8]
   1a31b:	48 89 45 90          	mov    QWORD PTR [rbp-0x70],rax
   1a31f:	48 8b 85 f8 fd ff ff 	mov    rax,QWORD PTR [rbp-0x208]
   1a326:	48 89 45 98          	mov    QWORD PTR [rbp-0x68],rax
   1a32a:	48 8b 85 90 fc ff ff 	mov    rax,QWORD PTR [rbp-0x370]
   1a331:	48 89 45 a0          	mov    QWORD PTR [rbp-0x60],rax
   1a335:	48 8b 85 28 ff ff ff 	mov    rax,QWORD PTR [rbp-0xd8]
   1a33c:	48 89 45 a8          	mov    QWORD PTR [rbp-0x58],rax
   1a340:	48 8b 85 40 ff ff ff 	mov    rax,QWORD PTR [rbp-0xc0]
   1a347:	48 89 45 b0          	mov    QWORD PTR [rbp-0x50],rax
   1a34b:	48 8b 85 08 ff ff ff 	mov    rax,QWORD PTR [rbp-0xf8]
   1a352:	48 8b 8d 10 ff ff ff 	mov    rcx,QWORD PTR [rbp-0xf0]
   1a359:	48 89 4d b8          	mov    QWORD PTR [rbp-0x48],rcx
   1a35d:	48 8b 8d 20 ff ff ff 	mov    rcx,QWORD PTR [rbp-0xe0]
   1a364:	48 89 4d c0          	mov    QWORD PTR [rbp-0x40],rcx
   1a368:	4c 8b 9d 18 ff ff ff 	mov    r11,QWORD PTR [rbp-0xe8]
   1a36f:	4c 8b bd f8 fe ff ff 	mov    r15,QWORD PTR [rbp-0x108]
   1a376:	4c 8b ad f0 fe ff ff 	mov    r13,QWORD PTR [rbp-0x110]
   1a37d:	48 8b 9d 00 ff ff ff 	mov    rbx,QWORD PTR [rbp-0x100]
   1a384:	4c 8b 95 38 ff ff ff 	mov    r10,QWORD PTR [rbp-0xc8]
   1a38b:	48 ba af 6e 00 5d b2 	movabs rdx,0x68d52db25d006eaf
   1a392:	2d d5 68 
   1a395:	49 bc 4f 08 c4 71 79 	movabs r12,0x97450f7971c4084f
   1a39c:	0f 45 97 
   1a39f:	4c 39 a5 68 ff ff ff 	cmp    QWORD PTR [rbp-0x98],r12
   1a3a6:	0f 84 81 f8 ff ff    	je     19c2d <Java_com_adjust_sdk_sig_NativeLibHelper_nOnResume@@Base-0xa1076>
   1a3ac:	48 b8 69 d5 1f 12 bf 	movabs rax,0x988ed9bf121fd569
   1a3b3:	d9 8e 98 
   1a3b6:	48 39 85 68 ff ff ff 	cmp    QWORD PTR [rbp-0x98],rax
   1a3bd:	0f 84 96 83 00 00    	je     22759 <Java_com_adjust_sdk_sig_NativeLibHelper_nOnResume@@Base-0x9854a>
   1a3c3:	8a 45 ce             	mov    al,BYTE PTR [rbp-0x32]
   1a3c6:	88 45 cf             	mov    BYTE PTR [rbp-0x31],al
   1a3c9:	8a 45 cd             	mov    al,BYTE PTR [rbp-0x33]
   1a3cc:	89 c6                	mov    esi,eax
   1a3ce:	48 8b 85 50 ff ff ff 	mov    rax,QWORD PTR [rbp-0xb0]
   1a3d5:	48 89 85 70 ff ff ff 	mov    QWORD PTR [rbp-0x90],rax
   1a3dc:	48 8b 85 60 ff ff ff 	mov    rax,QWORD PTR [rbp-0xa0]
   1a3e3:	48 89 85 78 ff ff ff 	mov    QWORD PTR [rbp-0x88],rax
   1a3ea:	48 89 f8             	mov    rax,rdi
   1a3ed:	48 89 7d 80          	mov    QWORD PTR [rbp-0x80],rdi
   1a3f1:	4c 89 4d 88          	mov    QWORD PTR [rbp-0x78],r9
   1a3f5:	48 8b 85 48 ff ff ff 	mov    rax,QWORD PTR [rbp-0xb8]
   1a3fc:	48 89 45 90          	mov    QWORD PTR [rbp-0x70],rax
   1a400:	48 8b 85 58 ff ff ff 	mov    rax,QWORD PTR [rbp-0xa8]
   1a407:	48 89 45 98          	mov    QWORD PTR [rbp-0x68],rax
   1a40b:	48 8b 85 30 ff ff ff 	mov    rax,QWORD PTR [rbp-0xd0]
   1a412:	48 89 45 a0          	mov    QWORD PTR [rbp-0x60],rax
   1a416:	48 8b 85 28 ff ff ff 	mov    rax,QWORD PTR [rbp-0xd8]
   1a41d:	48 89 45 a8          	mov    QWORD PTR [rbp-0x58],rax
   1a421:	48 8b 85 40 ff ff ff 	mov    rax,QWORD PTR [rbp-0xc0]
   1a428:	48 89 45 b0          	mov    QWORD PTR [rbp-0x50],rax
   1a42c:	48 8b 85 08 ff ff ff 	mov    rax,QWORD PTR [rbp-0xf8]
   1a433:	48 8b 8d 10 ff ff ff 	mov    rcx,QWORD PTR [rbp-0xf0]
   1a43a:	48 89 4d b8          	mov    QWORD PTR [rbp-0x48],rcx
   1a43e:	48 8b 8d 20 ff ff ff 	mov    rcx,QWORD PTR [rbp-0xe0]
   1a445:	48 89 4d c0          	mov    QWORD PTR [rbp-0x40],rcx
   1a449:	4c 8b 9d 18 ff ff ff 	mov    r11,QWORD PTR [rbp-0xe8]
   1a450:	4c 8b bd f8 fe ff ff 	mov    r15,QWORD PTR [rbp-0x108]
   1a457:	4c 8b ad f0 fe ff ff 	mov    r13,QWORD PTR [rbp-0x110]
   1a45e:	48 8b 9d 00 ff ff ff 	mov    rbx,QWORD PTR [rbp-0x100]
   1a465:	4c 8b 95 38 ff ff ff 	mov    r10,QWORD PTR [rbp-0xc8]
   1a46c:	48 ba 01 e1 5e 0e ec 	movabs rdx,0x3864c6ec0e5ee101
   1a473:	c6 64 38 
   1a476:	49 bc 2d 2f 9f 35 ce 	movabs r12,0x988f0ece359f2f2d
   1a47d:	0e 8f 98 
   1a480:	4c 39 a5 68 ff ff ff 	cmp    QWORD PTR [rbp-0x98],r12
   1a487:	0f 84 a0 f7 ff ff    	je     19c2d <Java_com_adjust_sdk_sig_NativeLibHelper_nOnResume@@Base-0xa1076>
   1a48d:	48 b8 7a e0 4d ab 1c 	movabs rax,0x9aae581cab4de07a
   1a494:	58 ae 9a 
   1a497:	48 39 85 68 ff ff ff 	cmp    QWORD PTR [rbp-0x98],rax
   1a49e:	0f 84 01 47 00 00    	je     1eba5 <Java_com_adjust_sdk_sig_NativeLibHelper_nOnResume@@Base-0x9c0fe>
   1a4a4:	8a 45 ce             	mov    al,BYTE PTR [rbp-0x32]
   1a4a7:	88 45 cf             	mov    BYTE PTR [rbp-0x31],al
   1a4aa:	8a 45 cd             	mov    al,BYTE PTR [rbp-0x33]
   1a4ad:	89 c6                	mov    esi,eax
   1a4af:	48 8b 85 50 ff ff ff 	mov    rax,QWORD PTR [rbp-0xb0]
   1a4b6:	48 89 85 70 ff ff ff 	mov    QWORD PTR [rbp-0x90],rax
   1a4bd:	48 8b 85 f0 fb ff ff 	mov    rax,QWORD PTR [rbp-0x410]
   1a4c4:	48 89 85 78 ff ff ff 	mov    QWORD PTR [rbp-0x88],rax
   1a4cb:	48 89 f8             	mov    rax,rdi
   1a4ce:	48 89 7d 80          	mov    QWORD PTR [rbp-0x80],rdi
   1a4d2:	4c 89 4d 88          	mov    QWORD PTR [rbp-0x78],r9
   1a4d6:	48 8b 85 48 ff ff ff 	mov    rax,QWORD PTR [rbp-0xb8]
   1a4dd:	48 89 45 90          	mov    QWORD PTR [rbp-0x70],rax
   1a4e1:	48 8b 85 58 ff ff ff 	mov    rax,QWORD PTR [rbp-0xa8]
   1a4e8:	48 89 45 98          	mov    QWORD PTR [rbp-0x68],rax
   1a4ec:	48 8b 85 30 ff ff ff 	mov    rax,QWORD PTR [rbp-0xd0]
   1a4f3:	48 89 45 a0          	mov    QWORD PTR [rbp-0x60],rax
   1a4f7:	48 8b 85 28 ff ff ff 	mov    rax,QWORD PTR [rbp-0xd8]
   1a4fe:	48 89 45 a8          	mov    QWORD PTR [rbp-0x58],rax
   1a502:	48 8b 85 40 ff ff ff 	mov    rax,QWORD PTR [rbp-0xc0]
   1a509:	48 89 45 b0          	mov    QWORD PTR [rbp-0x50],rax
   1a50d:	48 8b 85 08 ff ff ff 	mov    rax,QWORD PTR [rbp-0xf8]
   1a514:	48 8b 8d 10 ff ff ff 	mov    rcx,QWORD PTR [rbp-0xf0]
   1a51b:	48 89 4d b8          	mov    QWORD PTR [rbp-0x48],rcx
   1a51f:	48 8b 8d 20 ff ff ff 	mov    rcx,QWORD PTR [rbp-0xe0]
   1a526:	48 89 4d c0          	mov    QWORD PTR [rbp-0x40],rcx
   1a52a:	4c 8b 9d 18 ff ff ff 	mov    r11,QWORD PTR [rbp-0xe8]
   1a531:	4c 8b bd f8 fe ff ff 	mov    r15,QWORD PTR [rbp-0x108]
   1a538:	4c 8b ad f0 fe ff ff 	mov    r13,QWORD PTR [rbp-0x110]
   1a53f:	48 8b 9d 00 ff ff ff 	mov    rbx,QWORD PTR [rbp-0x100]
   1a546:	4c 8b 95 38 ff ff ff 	mov    r10,QWORD PTR [rbp-0xc8]
   1a54d:	48 ba 6e a0 2e a8 8f 	movabs rdx,0xd079868fa82ea06e
   1a554:	86 79 d0 
   1a557:	49 bc 6b 6b 81 6b 0e 	movabs r12,0x9c3f250e6b816b6b
   1a55e:	25 3f 9c 
   1a561:	4c 39 a5 68 ff ff ff 	cmp    QWORD PTR [rbp-0x98],r12
   1a568:	0f 84 bf f6 ff ff    	je     19c2d <Java_com_adjust_sdk_sig_NativeLibHelper_nOnResume@@Base-0xa1076>
   1a56e:	48 b8 96 41 42 b6 b3 	movabs rax,0x9e0132b3b6424196
   1a575:	32 01 9e 
   1a578:	48 39 85 68 ff ff ff 	cmp    QWORD PTR [rbp-0x98],rax
   1a57f:	0f 84 83 7a 00 00    	je     22008 <Java_com_adjust_sdk_sig_NativeLibHelper_nOnResume@@Base-0x98c9b>
   1a585:	8a 45 ce             	mov    al,BYTE PTR [rbp-0x32]
   1a588:	88 45 cf             	mov    BYTE PTR [rbp-0x31],al
   1a58b:	8a 45 cd             	mov    al,BYTE PTR [rbp-0x33]
   1a58e:	89 c6                	mov    esi,eax
   1a590:	48 8b 85 50 ff ff ff 	mov    rax,QWORD PTR [rbp-0xb0]
   1a597:	48 89 85 70 ff ff ff 	mov    QWORD PTR [rbp-0x90],rax
   1a59e:	48 8b 85 60 ff ff ff 	mov    rax,QWORD PTR [rbp-0xa0]
   1a5a5:	48 89 85 78 ff ff ff 	mov    QWORD PTR [rbp-0x88],rax
   1a5ac:	48 89 f8             	mov    rax,rdi
   1a5af:	48 89 7d 80          	mov    QWORD PTR [rbp-0x80],rdi
   1a5b3:	4c 89 4d 88          	mov    QWORD PTR [rbp-0x78],r9
   1a5b7:	48 8b 85 48 ff ff ff 	mov    rax,QWORD PTR [rbp-0xb8]
   1a5be:	48 89 45 90          	mov    QWORD PTR [rbp-0x70],rax
   1a5c2:	48 8b 85 58 ff ff ff 	mov    rax,QWORD PTR [rbp-0xa8]
   1a5c9:	48 89 45 98          	mov    QWORD PTR [rbp-0x68],rax
   1a5cd:	48 8b 85 30 ff ff ff 	mov    rax,QWORD PTR [rbp-0xd0]
   1a5d4:	48 89 45 a0          	mov    QWORD PTR [rbp-0x60],rax
   1a5d8:	48 8b 85 28 ff ff ff 	mov    rax,QWORD PTR [rbp-0xd8]
   1a5df:	48 89 45 a8          	mov    QWORD PTR [rbp-0x58],rax
   1a5e3:	48 8b 85 40 ff ff ff 	mov    rax,QWORD PTR [rbp-0xc0]
   1a5ea:	48 89 45 b0          	mov    QWORD PTR [rbp-0x50],rax
   1a5ee:	48 8b 85 08 ff ff ff 	mov    rax,QWORD PTR [rbp-0xf8]
   1a5f5:	48 8b 8d 10 ff ff ff 	mov    rcx,QWORD PTR [rbp-0xf0]
   1a5fc:	48 89 4d b8          	mov    QWORD PTR [rbp-0x48],rcx
   1a600:	48 8b 8d 20 ff ff ff 	mov    rcx,QWORD PTR [rbp-0xe0]
   1a607:	48 89 4d c0          	mov    QWORD PTR [rbp-0x40],rcx
   1a60b:	4c 8b 9d 18 ff ff ff 	mov    r11,QWORD PTR [rbp-0xe8]
   1a612:	4c 8b bd f8 fe ff ff 	mov    r15,QWORD PTR [rbp-0x108]
   1a619:	4c 8b ad f0 fe ff ff 	mov    r13,QWORD PTR [rbp-0x110]
   1a620:	48 8b 9d 00 ff ff ff 	mov    rbx,QWORD PTR [rbp-0x100]
   1a627:	4c 8b 95 38 ff ff ff 	mov    r10,QWORD PTR [rbp-0xc8]
   1a62e:	48 ba ac 98 db cb 66 	movabs rdx,0x48b31966cbdb98ac
   1a635:	19 b3 48 
   1a638:	49 bc 40 25 82 b4 11 	movabs r12,0xa1a30d11b4822540
   1a63f:	0d a3 a1 
   1a642:	4c 39 a5 68 ff ff ff 	cmp    QWORD PTR [rbp-0x98],r12
   1a649:	0f 84 de f5 ff ff    	je     19c2d <Java_com_adjust_sdk_sig_NativeLibHelper_nOnResume@@Base-0xa1076>
   1a64f:	48 b8 73 0f c8 e7 d3 	movabs rax,0xa4f8c0d3e7c80f73
   1a656:	c0 f8 a4 
   1a659:	48 39 85 68 ff ff ff 	cmp    QWORD PTR [rbp-0x98],rax
   1a660:	0f 84 dc 40 00 00    	je     1e742 <Java_com_adjust_sdk_sig_NativeLibHelper_nOnResume@@Base-0x9c561>
   1a666:	8a 45 ce             	mov    al,BYTE PTR [rbp-0x32]
   1a669:	88 45 cf             	mov    BYTE PTR [rbp-0x31],al
   1a66c:	8a 45 cd             	mov    al,BYTE PTR [rbp-0x33]
   1a66f:	89 c6                	mov    esi,eax
   1a671:	48 8b 85 50 ff ff ff 	mov    rax,QWORD PTR [rbp-0xb0]
   1a678:	48 89 85 70 ff ff ff 	mov    QWORD PTR [rbp-0x90],rax
   1a67f:	48 8b 85 60 ff ff ff 	mov    rax,QWORD PTR [rbp-0xa0]
   1a686:	48 89 85 78 ff ff ff 	mov    QWORD PTR [rbp-0x88],rax
   1a68d:	48 89 f8             	mov    rax,rdi
   1a690:	48 89 7d 80          	mov    QWORD PTR [rbp-0x80],rdi
   1a694:	4c 89 4d 88          	mov    QWORD PTR [rbp-0x78],r9
   1a698:	48 8b 85 48 ff ff ff 	mov    rax,QWORD PTR [rbp-0xb8]
   1a69f:	48 89 45 90          	mov    QWORD PTR [rbp-0x70],rax
   1a6a3:	48 8b 85 58 ff ff ff 	mov    rax,QWORD PTR [rbp-0xa8]
   1a6aa:	48 89 45 98          	mov    QWORD PTR [rbp-0x68],rax
   1a6ae:	48 8b 85 30 ff ff ff 	mov    rax,QWORD PTR [rbp-0xd0]
   1a6b5:	48 89 45 a0          	mov    QWORD PTR [rbp-0x60],rax
   1a6b9:	48 8b 85 28 ff ff ff 	mov    rax,QWORD PTR [rbp-0xd8]
   1a6c0:	48 89 45 a8          	mov    QWORD PTR [rbp-0x58],rax
   1a6c4:	48 8b 85 40 ff ff ff 	mov    rax,QWORD PTR [rbp-0xc0]
   1a6cb:	48 89 45 b0          	mov    QWORD PTR [rbp-0x50],rax
   1a6cf:	48 8b 85 08 ff ff ff 	mov    rax,QWORD PTR [rbp-0xf8]
   1a6d6:	48 8b 8d 10 ff ff ff 	mov    rcx,QWORD PTR [rbp-0xf0]
   1a6dd:	48 89 4d b8          	mov    QWORD PTR [rbp-0x48],rcx
   1a6e1:	48 8b 8d 20 ff ff ff 	mov    rcx,QWORD PTR [rbp-0xe0]
   1a6e8:	48 89 4d c0          	mov    QWORD PTR [rbp-0x40],rcx
   1a6ec:	4c 8b 9d 18 ff ff ff 	mov    r11,QWORD PTR [rbp-0xe8]
   1a6f3:	4c 8b bd f8 fe ff ff 	mov    r15,QWORD PTR [rbp-0x108]
   1a6fa:	4c 8b ad f0 fe ff ff 	mov    r13,QWORD PTR [rbp-0x110]
   1a701:	48 8b 9d 00 ff ff ff 	mov    rbx,QWORD PTR [rbp-0x100]
   1a708:	4c 8b 95 98 fc ff ff 	mov    r10,QWORD PTR [rbp-0x368]
   1a70f:	48 ba 76 17 cc a4 a4 	movabs rdx,0xdca35fa4a4cc1776
   1a716:	5f a3 dc 
   1a719:	49 bc ad 7a c8 9a 0f 	movabs r12,0xa75a6f0f9ac87aad
   1a720:	6f 5a a7 
   1a723:	4c 39 a5 68 ff ff ff 	cmp    QWORD PTR [rbp-0x98],r12
   1a72a:	0f 84 fd f4 ff ff    	je     19c2d <Java_com_adjust_sdk_sig_NativeLibHelper_nOnResume@@Base-0xa1076>
   1a730:	48 b8 a9 42 e3 52 be 	movabs rax,0xa910b9be52e342a9
   1a737:	b9 10 a9 
   1a73a:	48 39 85 68 ff ff ff 	cmp    QWORD PTR [rbp-0x98],rax
   1a741:	0f 84 e3 65 00 00    	je     20d2a <Java_com_adjust_sdk_sig_NativeLibHelper_nOnResume@@Base-0x99f79>
   1a747:	8a 45 ce             	mov    al,BYTE PTR [rbp-0x32]
   1a74a:	88 45 cf             	mov    BYTE PTR [rbp-0x31],al
   1a74d:	8a 45 cd             	mov    al,BYTE PTR [rbp-0x33]
   1a750:	89 c6                	mov    esi,eax
   1a752:	48 8b 85 50 ff ff ff 	mov    rax,QWORD PTR [rbp-0xb0]
   1a759:	48 89 85 70 ff ff ff 	mov    QWORD PTR [rbp-0x90],rax
   1a760:	48 8b 85 60 ff ff ff 	mov    rax,QWORD PTR [rbp-0xa0]
   1a767:	48 89 85 78 ff ff ff 	mov    QWORD PTR [rbp-0x88],rax
   1a76e:	48 89 f8             	mov    rax,rdi
   1a771:	48 89 7d 80          	mov    QWORD PTR [rbp-0x80],rdi
   1a775:	4c 89 4d 88          	mov    QWORD PTR [rbp-0x78],r9
   1a779:	48 8b 85 f8 fd ff ff 	mov    rax,QWORD PTR [rbp-0x208]
   1a780:	48 89 45 90          	mov    QWORD PTR [rbp-0x70],rax
   1a784:	48 8b 85 58 ff ff ff 	mov    rax,QWORD PTR [rbp-0xa8]
   1a78b:	48 89 45 98          	mov    QWORD PTR [rbp-0x68],rax
   1a78f:	48 8b 85 30 ff ff ff 	mov    rax,QWORD PTR [rbp-0xd0]
   1a796:	48 89 45 a0          	mov    QWORD PTR [rbp-0x60],rax
   1a79a:	48 8b 85 28 ff ff ff 	mov    rax,QWORD PTR [rbp-0xd8]
   1a7a1:	48 89 45 a8          	mov    QWORD PTR [rbp-0x58],rax
   1a7a5:	48 8b 85 40 ff ff ff 	mov    rax,QWORD PTR [rbp-0xc0]
   1a7ac:	48 89 45 b0          	mov    QWORD PTR [rbp-0x50],rax
   1a7b0:	48 8b 85 08 ff ff ff 	mov    rax,QWORD PTR [rbp-0xf8]
   1a7b7:	48 8b 8d 10 ff ff ff 	mov    rcx,QWORD PTR [rbp-0xf0]
   1a7be:	48 89 4d b8          	mov    QWORD PTR [rbp-0x48],rcx
   1a7c2:	48 8b 8d 20 ff ff ff 	mov    rcx,QWORD PTR [rbp-0xe0]
   1a7c9:	48 89 4d c0          	mov    QWORD PTR [rbp-0x40],rcx
   1a7cd:	4c 8b 9d 18 ff ff ff 	mov    r11,QWORD PTR [rbp-0xe8]
   1a7d4:	4c 8b bd f8 fe ff ff 	mov    r15,QWORD PTR [rbp-0x108]
   1a7db:	4c 8b ad f0 fe ff ff 	mov    r13,QWORD PTR [rbp-0x110]
   1a7e2:	48 8b 9d 00 ff ff ff 	mov    rbx,QWORD PTR [rbp-0x100]
   1a7e9:	4c 8b 95 38 ff ff ff 	mov    r10,QWORD PTR [rbp-0xc8]
   1a7f0:	48 ba 43 95 7e cf d7 	movabs rdx,0x73995fd7cf7e9543
   1a7f7:	5f 99 73 
   1a7fa:	49 bc b6 c9 4c 73 9f 	movabs r12,0xaaa8c49f734cc9b6
   1a801:	c4 a8 aa 
   1a804:	4c 39 a5 68 ff ff ff 	cmp    QWORD PTR [rbp-0x98],r12
   1a80b:	0f 84 1c f4 ff ff    	je     19c2d <Java_com_adjust_sdk_sig_NativeLibHelper_nOnResume@@Base-0xa1076>
   1a811:	48 b8 d5 b4 95 59 ca 	movabs rax,0xac2aa0ca5995b4d5
   1a818:	a0 2a ac 
   1a81b:	48 39 85 68 ff ff ff 	cmp    QWORD PTR [rbp-0x98],rax
   1a822:	0f 84 a8 7d 00 00    	je     225d0 <Java_com_adjust_sdk_sig_NativeLibHelper_nOnResume@@Base-0x986d3>
   1a828:	48 b8 2b dc fc d1 73 	movabs rax,0xadb4c673d1fcdc2b
   1a82f:	c6 b4 ad 
   1a832:	48 39 85 68 ff ff ff 	cmp    QWORD PTR [rbp-0x98],rax
   1a839:	40 8a 75 cd          	mov    sil,BYTE PTR [rbp-0x33]
   1a83d:	4c 8b 95 38 ff ff ff 	mov    r10,QWORD PTR [rbp-0xc8]
   1a844:	48 8b 9d 00 ff ff ff 	mov    rbx,QWORD PTR [rbp-0x100]
   1a84b:	4c 8b ad f0 fe ff ff 	mov    r13,QWORD PTR [rbp-0x110]
   1a852:	4c 8b bd f8 fe ff ff 	mov    r15,QWORD PTR [rbp-0x108]
   1a859:	4c 8b 8d 18 ff ff ff 	mov    r9,QWORD PTR [rbp-0xe8]
   1a860:	4c 8b 85 20 ff ff ff 	mov    r8,QWORD PTR [rbp-0xe0]
   1a867:	48 8b bd 10 ff ff ff 	mov    rdi,QWORD PTR [rbp-0xf0]
   1a86e:	48 8b 8d 08 ff ff ff 	mov    rcx,QWORD PTR [rbp-0xf8]
   1a875:	48 8b 85 40 ff ff ff 	mov    rax,QWORD PTR [rbp-0xc0]
   1a87c:	4c 8b 9d 28 ff ff ff 	mov    r11,QWORD PTR [rbp-0xd8]
   1a883:	0f 84 d8 34 00 00    	je     1dd61 <Java_com_adjust_sdk_sig_NativeLibHelper_nOnResume@@Base-0x9cf42>
   1a889:	8a 55 ce             	mov    dl,BYTE PTR [rbp-0x32]
   1a88c:	88 55 cf             	mov    BYTE PTR [rbp-0x31],dl
   1a88f:	48 8b 95 50 ff ff ff 	mov    rdx,QWORD PTR [rbp-0xb0]
   1a896:	48 89 95 70 ff ff ff 	mov    QWORD PTR [rbp-0x90],rdx
   1a89d:	48 8b 95 60 ff ff ff 	mov    rdx,QWORD PTR [rbp-0xa0]
   1a8a4:	48 89 95 78 ff ff ff 	mov    QWORD PTR [rbp-0x88],rdx
   1a8ab:	4c 8b b5 e0 fe ff ff 	mov    r14,QWORD PTR [rbp-0x120]
   1a8b2:	4c 89 f2             	mov    rdx,r14
   1a8b5:	4c 89 75 80          	mov    QWORD PTR [rbp-0x80],r14
   1a8b9:	4c 8b a5 e8 fe ff ff 	mov    r12,QWORD PTR [rbp-0x118]
   1a8c0:	4c 89 65 88          	mov    QWORD PTR [rbp-0x78],r12
   1a8c4:	48 8b 95 48 ff ff ff 	mov    rdx,QWORD PTR [rbp-0xb8]
   1a8cb:	48 89 55 90          	mov    QWORD PTR [rbp-0x70],rdx
   1a8cf:	48 8b 95 58 ff ff ff 	mov    rdx,QWORD PTR [rbp-0xa8]
   1a8d6:	48 89 55 98          	mov    QWORD PTR [rbp-0x68],rdx
   1a8da:	48 8b 95 30 ff ff ff 	mov    rdx,QWORD PTR [rbp-0xd0]
   1a8e1:	48 89 55 a0          	mov    QWORD PTR [rbp-0x60],rdx
   1a8e5:	4c 89 5d a8          	mov    QWORD PTR [rbp-0x58],r11
   1a8e9:	48 89 45 b0          	mov    QWORD PTR [rbp-0x50],rax
   1a8ed:	48 89 c8             	mov    rax,rcx
   1a8f0:	48 89 7d b8          	mov    QWORD PTR [rbp-0x48],rdi
   1a8f4:	4c 89 45 c0          	mov    QWORD PTR [rbp-0x40],r8
   1a8f8:	4d 89 cb             	mov    r11,r9
   1a8fb:	4c 89 e1             	mov    rcx,r12
   1a8fe:	48 ba d5 d8 9d e5 4f 	movabs rdx,0xd02c834fe59dd8d5
   1a905:	83 2c d0 
   1a908:	49 bc 65 31 3f dd 90 	movabs r12,0xaf052090dd3f3165
   1a90f:	20 05 af 
   1a912:	4c 39 a5 68 ff ff ff 	cmp    QWORD PTR [rbp-0x98],r12
   1a919:	0f 84 0e f3 ff ff    	je     19c2d <Java_com_adjust_sdk_sig_NativeLibHelper_nOnResume@@Base-0xa1076>
   1a91f:	48 b8 27 0a 70 dd 00 	movabs rax,0xaf185300dd700a27
   1a926:	53 18 af 
   1a929:	48 39 85 68 ff ff ff 	cmp    QWORD PTR [rbp-0x98],rax
   1a930:	0f 84 b4 3d 00 00    	je     1e6ea <Java_com_adjust_sdk_sig_NativeLibHelper_nOnResume@@Base-0x9c5b9>
   1a936:	48 b8 d3 f7 5b 43 e3 	movabs rax,0xb0bb71e3435bf7d3
   1a93d:	71 bb b0 
   1a940:	48 39 85 68 ff ff ff 	cmp    QWORD PTR [rbp-0x98],rax
   1a947:	40 8a 75 cd          	mov    sil,BYTE PTR [rbp-0x33]
   1a94b:	4c 8b 95 38 ff ff ff 	mov    r10,QWORD PTR [rbp-0xc8]
   1a952:	48 8b 9d 00 ff ff ff 	mov    rbx,QWORD PTR [rbp-0x100]
   1a959:	4c 8b ad f0 fe ff ff 	mov    r13,QWORD PTR [rbp-0x110]
   1a960:	4c 8b bd f8 fe ff ff 	mov    r15,QWORD PTR [rbp-0x108]
   1a967:	4c 8b 9d 18 ff ff ff 	mov    r11,QWORD PTR [rbp-0xe8]
   1a96e:	4c 8b 85 20 ff ff ff 	mov    r8,QWORD PTR [rbp-0xe0]
   1a975:	48 8b bd 10 ff ff ff 	mov    rdi,QWORD PTR [rbp-0xf0]
   1a97c:	48 8b 8d 08 ff ff ff 	mov    rcx,QWORD PTR [rbp-0xf8]
   1a983:	4c 8b a5 40 ff ff ff 	mov    r12,QWORD PTR [rbp-0xc0]
   1a98a:	0f 84 a0 7b 00 00    	je     22530 <Java_com_adjust_sdk_sig_NativeLibHelper_nOnResume@@Base-0x98773>
   1a990:	8a 45 ce             	mov    al,BYTE PTR [rbp-0x32]
   1a993:	88 45 cf             	mov    BYTE PTR [rbp-0x31],al
   1a996:	48 8b 85 50 ff ff ff 	mov    rax,QWORD PTR [rbp-0xb0]
   1a99d:	48 89 85 70 ff ff ff 	mov    QWORD PTR [rbp-0x90],rax
   1a9a4:	48 8b 85 60 ff ff ff 	mov    rax,QWORD PTR [rbp-0xa0]
   1a9ab:	48 89 85 78 ff ff ff 	mov    QWORD PTR [rbp-0x88],rax
   1a9b2:	48 8b 85 e0 fe ff ff 	mov    rax,QWORD PTR [rbp-0x120]
   1a9b9:	48 89 45 80          	mov    QWORD PTR [rbp-0x80],rax
   1a9bd:	48 8b 85 e8 fe ff ff 	mov    rax,QWORD PTR [rbp-0x118]
   1a9c4:	48 89 45 88          	mov    QWORD PTR [rbp-0x78],rax
   1a9c8:	48 8b 85 48 ff ff ff 	mov    rax,QWORD PTR [rbp-0xb8]
   1a9cf:	48 89 45 90          	mov    QWORD PTR [rbp-0x70],rax
   1a9d3:	48 8b 85 58 ff ff ff 	mov    rax,QWORD PTR [rbp-0xa8]
   1a9da:	48 89 45 98          	mov    QWORD PTR [rbp-0x68],rax
   1a9de:	48 8b 85 30 ff ff ff 	mov    rax,QWORD PTR [rbp-0xd0]
   1a9e5:	48 89 45 a0          	mov    QWORD PTR [rbp-0x60],rax
   1a9e9:	48 8b 85 28 ff ff ff 	mov    rax,QWORD PTR [rbp-0xd8]
   1a9f0:	48 89 45 a8          	mov    QWORD PTR [rbp-0x58],rax
   1a9f4:	4c 89 65 b0          	mov    QWORD PTR [rbp-0x50],r12
   1a9f8:	48 89 c8             	mov    rax,rcx
   1a9fb:	48 89 7d b8          	mov    QWORD PTR [rbp-0x48],rdi
   1a9ff:	4c 89 45 c0          	mov    QWORD PTR [rbp-0x40],r8
   1aa03:	48 ba 01 e1 5e 0e ec 	movabs rdx,0x3864c6ec0e5ee101
   1aa0a:	c6 64 38 
   1aa0d:	49 bc 0f a3 47 35 f3 	movabs r12,0xb29c9df33547a30f
   1aa14:	9d 9c b2 
   1aa17:	4c 39 a5 68 ff ff ff 	cmp    QWORD PTR [rbp-0x98],r12
   1aa1e:	0f 84 09 f2 ff ff    	je     19c2d <Java_com_adjust_sdk_sig_NativeLibHelper_nOnResume@@Base-0xa1076>
   1aa24:	48 b8 7d 36 6e 44 08 	movabs rax,0xb2d22108446e367d
   1aa2b:	21 d2 b2 
   1aa2e:	48 39 85 68 ff ff ff 	cmp    QWORD PTR [rbp-0x98],rax
   1aa35:	0f 84 04 79 00 00    	je     2233f <Java_com_adjust_sdk_sig_NativeLibHelper_nOnResume@@Base-0x98964>
   1aa3b:	48 b8 5b 1b a8 e1 5c 	movabs rax,0xb54bb05ce1a81b5b
   1aa42:	b0 4b b5 
   1aa45:	48 39 85 68 ff ff ff 	cmp    QWORD PTR [rbp-0x98],rax
   1aa4c:	8a 55 cd             	mov    dl,BYTE PTR [rbp-0x33]
   1aa4f:	4c 8b 95 38 ff ff ff 	mov    r10,QWORD PTR [rbp-0xc8]
   1aa56:	48 8b 9d 00 ff ff ff 	mov    rbx,QWORD PTR [rbp-0x100]
   1aa5d:	4c 8b ad f0 fe ff ff 	mov    r13,QWORD PTR [rbp-0x110]
   1aa64:	4c 8b bd f8 fe ff ff 	mov    r15,QWORD PTR [rbp-0x108]
   1aa6b:	4c 8b 8d 18 ff ff ff 	mov    r9,QWORD PTR [rbp-0xe8]
   1aa72:	4c 8b 85 20 ff ff ff 	mov    r8,QWORD PTR [rbp-0xe0]
   1aa79:	48 8b bd 10 ff ff ff 	mov    rdi,QWORD PTR [rbp-0xf0]
   1aa80:	48 8b 8d 08 ff ff ff 	mov    rcx,QWORD PTR [rbp-0xf8]
   1aa87:	48 8b 85 40 ff ff ff 	mov    rax,QWORD PTR [rbp-0xc0]
   1aa8e:	0f 84 e4 4f 00 00    	je     1fa78 <Java_com_adjust_sdk_sig_NativeLibHelper_nOnResume@@Base-0x9b22b>
   1aa94:	40 8a 75 ce          	mov    sil,BYTE PTR [rbp-0x32]
   1aa98:	40 88 75 cf          	mov    BYTE PTR [rbp-0x31],sil
   1aa9c:	89 d6                	mov    esi,edx
   1aa9e:	48 8b 95 50 ff ff ff 	mov    rdx,QWORD PTR [rbp-0xb0]
   1aaa5:	48 89 95 70 ff ff ff 	mov    QWORD PTR [rbp-0x90],rdx
   1aaac:	48 8b 95 60 ff ff ff 	mov    rdx,QWORD PTR [rbp-0xa0]
   1aab3:	48 89 95 78 ff ff ff 	mov    QWORD PTR [rbp-0x88],rdx
   1aaba:	4c 8b 9d e0 fe ff ff 	mov    r11,QWORD PTR [rbp-0x120]
   1aac1:	4c 89 da             	mov    rdx,r11
   1aac4:	4c 89 5d 80          	mov    QWORD PTR [rbp-0x80],r11
   1aac8:	4c 8b a5 e8 fe ff ff 	mov    r12,QWORD PTR [rbp-0x118]
   1aacf:	4c 89 65 88          	mov    QWORD PTR [rbp-0x78],r12
   1aad3:	48 8b 95 48 ff ff ff 	mov    rdx,QWORD PTR [rbp-0xb8]
   1aada:	48 89 55 90          	mov    QWORD PTR [rbp-0x70],rdx
   1aade:	48 8b 95 58 ff ff ff 	mov    rdx,QWORD PTR [rbp-0xa8]
   1aae5:	48 89 55 98          	mov    QWORD PTR [rbp-0x68],rdx
   1aae9:	48 8b 95 30 ff ff ff 	mov    rdx,QWORD PTR [rbp-0xd0]
   1aaf0:	48 89 55 a0          	mov    QWORD PTR [rbp-0x60],rdx
   1aaf4:	48 8b 95 28 ff ff ff 	mov    rdx,QWORD PTR [rbp-0xd8]
   1aafb:	48 89 55 a8          	mov    QWORD PTR [rbp-0x58],rdx
   1aaff:	48 89 45 b0          	mov    QWORD PTR [rbp-0x50],rax
   1ab03:	48 89 c8             	mov    rax,rcx
   1ab06:	48 89 7d b8          	mov    QWORD PTR [rbp-0x48],rdi
   1ab0a:	4c 89 45 c0          	mov    QWORD PTR [rbp-0x40],r8
   1ab0e:	4c 89 df             	mov    rdi,r11
   1ab11:	4d 89 cb             	mov    r11,r9
   1ab14:	4d 89 e1             	mov    r9,r12
   1ab17:	48 ba 62 b7 3f a4 74 	movabs rdx,0xc1feef74a43fb762
   1ab1e:	ef fe c1 
   1ab21:	49 bc ca 09 51 68 46 	movabs r12,0xb82f8946685109ca
   1ab28:	89 2f b8 
   1ab2b:	4c 39 a5 68 ff ff ff 	cmp    QWORD PTR [rbp-0x98],r12
   1ab32:	0f 84 f5 f0 ff ff    	je     19c2d <Java_com_adjust_sdk_sig_NativeLibHelper_nOnResume@@Base-0xa1076>
   1ab38:	48 b8 72 62 d1 0f 5e 	movabs rax,0xbc1ce55e0fd16272
   1ab3f:	e5 1c bc 
   1ab42:	48 39 85 68 ff ff ff 	cmp    QWORD PTR [rbp-0x98],rax
   1ab49:	0f 84 4c 7b 00 00    	je     2269b <Java_com_adjust_sdk_sig_NativeLibHelper_nOnResume@@Base-0x98608>
   1ab4f:	48 b8 2d af f8 2b 27 	movabs rax,0xbcd164272bf8af2d
   1ab56:	64 d1 bc 
   1ab59:	48 39 85 68 ff ff ff 	cmp    QWORD PTR [rbp-0x98],rax
   1ab60:	44 8a 65 cd          	mov    r12b,BYTE PTR [rbp-0x33]
   1ab64:	48 8b 9d 00 ff ff ff 	mov    rbx,QWORD PTR [rbp-0x100]
   1ab6b:	4c 8b ad f0 fe ff ff 	mov    r13,QWORD PTR [rbp-0x110]
   1ab72:	4c 8b bd f8 fe ff ff 	mov    r15,QWORD PTR [rbp-0x108]
   1ab79:	0f 84 1a 35 00 00    	je     1e099 <Java_com_adjust_sdk_sig_NativeLibHelper_nOnResume@@Base-0x9cc0a>
   1ab7f:	48 b8 c4 4d 71 da bc 	movabs rax,0xbe1ec9bcda714dc4
   1ab86:	c9 1e be 
   1ab89:	48 39 85 68 ff ff ff 	cmp    QWORD PTR [rbp-0x98],rax
   1ab90:	0f 84 f7 71 00 00    	je     21d8d <Java_com_adjust_sdk_sig_NativeLibHelper_nOnResume@@Base-0x98f16>
   1ab96:	48 b8 bc 5b fe 7c ef 	movabs rax,0xbee440ef7cfe5bbc
   1ab9d:	40 e4 be 
   1aba0:	48 39 85 68 ff ff ff 	cmp    QWORD PTR [rbp-0x98],rax
   1aba7:	0f 84 0b 72 00 00    	je     21db8 <Java_com_adjust_sdk_sig_NativeLibHelper_nOnResume@@Base-0x98eeb>
   1abad:	48 b8 c0 72 a3 8b 1a 	movabs rax,0xc0222c1a8ba372c0
   1abb4:	2c 22 c0 
   1abb7:	48 39 85 68 ff ff ff 	cmp    QWORD PTR [rbp-0x98],rax
   1abbe:	0f 84 72 7c 00 00    	je     22836 <Java_com_adjust_sdk_sig_NativeLibHelper_nOnResume@@Base-0x9846d>
   1abc4:	0f b6 95 de fe ff ff 	movzx  edx,BYTE PTR [rbp-0x122]
   1abcb:	0f b6 b5 ca fe ff ff 	movzx  esi,BYTE PTR [rbp-0x136]
   1abd2:	44 0f b6 95 cb fe ff 	movzx  r10d,BYTE PTR [rbp-0x135]
   1abd9:	ff 
   1abda:	44 0f b6 b5 d9 fe ff 	movzx  r14d,BYTE PTR [rbp-0x127]
   1abe1:	ff 
   1abe2:	44 0f b6 85 cc fe ff 	movzx  r8d,BYTE PTR [rbp-0x134]
   1abe9:	ff 
   1abea:	48 b8 0b 0e 5b 1f b7 	movabs rax,0xc158b7b71f5b0e0b
   1abf1:	b7 58 c1 
   1abf4:	48 39 85 68 ff ff ff 	cmp    QWORD PTR [rbp-0x98],rax
   1abfb:	0f 84 90 7d 00 00    	je     22991 <Java_com_adjust_sdk_sig_NativeLibHelper_nOnResume@@Base-0x98312>
   1ac01:	48 b8 62 b7 3f a4 74 	movabs rax,0xc1feef74a43fb762
   1ac08:	ef fe c1 
   1ac0b:	48 39 85 68 ff ff ff 	cmp    QWORD PTR [rbp-0x98],rax
   1ac12:	4c 8b 9d 28 ff ff ff 	mov    r11,QWORD PTR [rbp-0xd8]
   1ac19:	48 8b 8d 30 ff ff ff 	mov    rcx,QWORD PTR [rbp-0xd0]
   1ac20:	0f 84 a7 77 00 00    	je     223cd <Java_com_adjust_sdk_sig_NativeLibHelper_nOnResume@@Base-0x988d6>
   1ac26:	48 b8 62 b1 21 17 8e 	movabs rax,0xc30a4a8e1721b162
   1ac2d:	4a 0a c3 
   1ac30:	48 39 85 68 ff ff ff 	cmp    QWORD PTR [rbp-0x98],rax
   1ac37:	0f 84 d1 35 00 00    	je     1e20e <Java_com_adjust_sdk_sig_NativeLibHelper_nOnResume@@Base-0x9ca95>
   1ac3d:	48 b8 05 65 a2 6c 26 	movabs rax,0xc4de52266ca26505
   1ac44:	52 de c4 
   1ac47:	48 39 85 68 ff ff ff 	cmp    QWORD PTR [rbp-0x98],rax
   1ac4e:	0f 84 d8 71 00 00    	je     21e2c <Java_com_adjust_sdk_sig_NativeLibHelper_nOnResume@@Base-0x98e77>
   1ac54:	44 89 b5 dc fd ff ff 	mov    DWORD PTR [rbp-0x224],r14d
   1ac5b:	44 89 95 d8 fd ff ff 	mov    DWORD PTR [rbp-0x228],r10d
   1ac62:	44 89 85 d4 fd ff ff 	mov    DWORD PTR [rbp-0x22c],r8d
   1ac69:	89 b5 88 fe ff ff    	mov    DWORD PTR [rbp-0x178],esi
   1ac6f:	89 95 84 fe ff ff    	mov    DWORD PTR [rbp-0x17c],edx
   1ac75:	8a 45 ce             	mov    al,BYTE PTR [rbp-0x32]
   1ac78:	88 45 cf             	mov    BYTE PTR [rbp-0x31],al
   1ac7b:	44 89 e6             	mov    esi,r12d
   1ac7e:	48 8b 85 50 ff ff ff 	mov    rax,QWORD PTR [rbp-0xb0]
   1ac85:	48 89 85 70 ff ff ff 	mov    QWORD PTR [rbp-0x90],rax
   1ac8c:	48 8b 85 60 ff ff ff 	mov    rax,QWORD PTR [rbp-0xa0]
   1ac93:	48 89 85 78 ff ff ff 	mov    QWORD PTR [rbp-0x88],rax
   1ac9a:	48 89 f8             	mov    rax,rdi
   1ac9d:	48 89 7d 80          	mov    QWORD PTR [rbp-0x80],rdi
   1aca1:	4c 89 4d 88          	mov    QWORD PTR [rbp-0x78],r9
   1aca5:	48 8b 85 48 ff ff ff 	mov    rax,QWORD PTR [rbp-0xb8]
   1acac:	48 89 45 90          	mov    QWORD PTR [rbp-0x70],rax
   1acb0:	48 8b 85 58 ff ff ff 	mov    rax,QWORD PTR [rbp-0xa8]
   1acb7:	48 89 45 98          	mov    QWORD PTR [rbp-0x68],rax
   1acbb:	48 89 4d a0          	mov    QWORD PTR [rbp-0x60],rcx
   1acbf:	4c 89 5d a8          	mov    QWORD PTR [rbp-0x58],r11
   1acc3:	48 8b 85 40 ff ff ff 	mov    rax,QWORD PTR [rbp-0xc0]
   1acca:	48 89 45 b0          	mov    QWORD PTR [rbp-0x50],rax
   1acce:	48 8b 85 08 ff ff ff 	mov    rax,QWORD PTR [rbp-0xf8]
   1acd5:	48 8b 8d 10 ff ff ff 	mov    rcx,QWORD PTR [rbp-0xf0]
   1acdc:	48 89 4d b8          	mov    QWORD PTR [rbp-0x48],rcx
   1ace0:	48 8b 8d 20 ff ff ff 	mov    rcx,QWORD PTR [rbp-0xe0]
   1ace7:	48 89 4d c0          	mov    QWORD PTR [rbp-0x40],rcx
   1aceb:	4c 8b 9d 18 ff ff ff 	mov    r11,QWORD PTR [rbp-0xe8]
   1acf2:	4c 8b 95 b0 fe ff ff 	mov    r10,QWORD PTR [rbp-0x150]
   1acf9:	48 ba 76 17 cc a4 a4 	movabs rdx,0xdca35fa4a4cc1776
   1ad00:	5f a3 dc 
   1ad03:	49 bc fd ec 04 1c 83 	movabs r12,0xc8e7a3831c04ecfd
   1ad0a:	a3 e7 c8 
   1ad0d:	4c 39 a5 68 ff ff ff 	cmp    QWORD PTR [rbp-0x98],r12
   1ad14:	0f 84 13 ef ff ff    	je     19c2d <Java_com_adjust_sdk_sig_NativeLibHelper_nOnResume@@Base-0xa1076>
   1ad1a:	48 b8 f6 22 77 8d 3d 	movabs rax,0xcaa45f3d8d7722f6
   1ad21:	5f a4 ca 
   1ad24:	48 39 85 68 ff ff ff 	cmp    QWORD PTR [rbp-0x98],rax
   1ad2b:	0f 84 e6 47 00 00    	je     1f517 <Java_com_adjust_sdk_sig_NativeLibHelper_nOnResume@@Base-0x9b78c>
   1ad31:	48 b8 d5 03 5a 7c 82 	movabs rax,0xcbeb4f827c5a03d5
   1ad38:	4f eb cb 
   1ad3b:	48 39 85 68 ff ff ff 	cmp    QWORD PTR [rbp-0x98],rax
   1ad42:	8a 55 cd             	mov    dl,BYTE PTR [rbp-0x33]
   1ad45:	4c 8b 95 38 ff ff ff 	mov    r10,QWORD PTR [rbp-0xc8]
   1ad4c:	48 8b 9d 00 ff ff ff 	mov    rbx,QWORD PTR [rbp-0x100]
   1ad53:	4c 8b ad f0 fe ff ff 	mov    r13,QWORD PTR [rbp-0x110]
   1ad5a:	4c 8b bd f8 fe ff ff 	mov    r15,QWORD PTR [rbp-0x108]
   1ad61:	4c 8b 9d 18 ff ff ff 	mov    r11,QWORD PTR [rbp-0xe8]
   1ad68:	4c 8b 85 20 ff ff ff 	mov    r8,QWORD PTR [rbp-0xe0]
   1ad6f:	48 8b bd 10 ff ff ff 	mov    rdi,QWORD PTR [rbp-0xf0]
   1ad76:	48 8b 8d 08 ff ff ff 	mov    rcx,QWORD PTR [rbp-0xf8]
   1ad7d:	48 8b 85 40 ff ff ff 	mov    rax,QWORD PTR [rbp-0xc0]
   1ad84:	0f 84 1c 3f 00 00    	je     1eca6 <Java_com_adjust_sdk_sig_NativeLibHelper_nOnResume@@Base-0x9bffd>
   1ad8a:	40 8a 75 ce          	mov    sil,BYTE PTR [rbp-0x32]
   1ad8e:	40 88 75 cf          	mov    BYTE PTR [rbp-0x31],sil
   1ad92:	89 d6                	mov    esi,edx
   1ad94:	48 8b 95 50 ff ff ff 	mov    rdx,QWORD PTR [rbp-0xb0]
   1ad9b:	48 89 95 70 ff ff ff 	mov    QWORD PTR [rbp-0x90],rdx
   1ada2:	48 8b 95 60 ff ff ff 	mov    rdx,QWORD PTR [rbp-0xa0]
   1ada9:	48 89 95 78 ff ff ff 	mov    QWORD PTR [rbp-0x88],rdx
   1adb0:	48 8b 95 e0 fe ff ff 	mov    rdx,QWORD PTR [rbp-0x120]
   1adb7:	48 89 55 80          	mov    QWORD PTR [rbp-0x80],rdx
   1adbb:	48 8b 95 e8 fe ff ff 	mov    rdx,QWORD PTR [rbp-0x118]
   1adc2:	48 89 55 88          	mov    QWORD PTR [rbp-0x78],rdx
   1adc6:	48 8b 95 48 ff ff ff 	mov    rdx,QWORD PTR [rbp-0xb8]
   1adcd:	48 89 55 90          	mov    QWORD PTR [rbp-0x70],rdx
   1add1:	48 8b 95 58 ff ff ff 	mov    rdx,QWORD PTR [rbp-0xa8]
   1add8:	48 89 55 98          	mov    QWORD PTR [rbp-0x68],rdx
   1addc:	48 8b 95 30 ff ff ff 	mov    rdx,QWORD PTR [rbp-0xd0]
   1ade3:	48 89 55 a0          	mov    QWORD PTR [rbp-0x60],rdx
   1ade7:	48 8b 95 28 ff ff ff 	mov    rdx,QWORD PTR [rbp-0xd8]
   1adee:	48 89 55 a8          	mov    QWORD PTR [rbp-0x58],rdx
   1adf2:	48 89 45 b0          	mov    QWORD PTR [rbp-0x50],rax
   1adf6:	48 89 c8             	mov    rax,rcx
   1adf9:	48 89 7d b8          	mov    QWORD PTR [rbp-0x48],rdi
   1adfd:	4c 89 45 c0          	mov    QWORD PTR [rbp-0x40],r8
   1ae01:	48 ba 01 e1 5e 0e ec 	movabs rdx,0x3864c6ec0e5ee101
   1ae08:	c6 64 38 
   1ae0b:	49 bc 5e 9e 7a 1f fe 	movabs r12,0xcdc81ffe1f7a9e5e
   1ae12:	1f c8 cd 
   1ae15:	4c 39 a5 68 ff ff ff 	cmp    QWORD PTR [rbp-0x98],r12
   1ae1c:	0f 84 0b ee ff ff    	je     19c2d <Java_com_adjust_sdk_sig_NativeLibHelper_nOnResume@@Base-0xa1076>
   1ae22:	48 b8 5c 36 e2 b2 0f 	movabs rax,0xcf84e40fb2e2365c
   1ae29:	e4 84 cf 
   1ae2c:	48 39 85 68 ff ff ff 	cmp    QWORD PTR [rbp-0x98],rax
   1ae33:	0f 84 e8 2f 00 00    	je     1de21 <Java_com_adjust_sdk_sig_NativeLibHelper_nOnResume@@Base-0x9ce82>
   1ae39:	48 b8 d5 d8 9d e5 4f 	movabs rax,0xd02c834fe59dd8d5
   1ae40:	83 2c d0 
   1ae43:	48 39 85 68 ff ff ff 	cmp    QWORD PTR [rbp-0x98],rax
   1ae4a:	40 8a 75 cd          	mov    sil,BYTE PTR [rbp-0x33]
   1ae4e:	4c 8b 95 38 ff ff ff 	mov    r10,QWORD PTR [rbp-0xc8]
   1ae55:	48 8b 9d 00 ff ff ff 	mov    rbx,QWORD PTR [rbp-0x100]
   1ae5c:	4c 8b ad f0 fe ff ff 	mov    r13,QWORD PTR [rbp-0x110]
   1ae63:	4c 8b bd f8 fe ff ff 	mov    r15,QWORD PTR [rbp-0x108]
   1ae6a:	4c 8b 8d 18 ff ff ff 	mov    r9,QWORD PTR [rbp-0xe8]
   1ae71:	4c 8b 85 20 ff ff ff 	mov    r8,QWORD PTR [rbp-0xe0]
   1ae78:	48 8b bd 10 ff ff ff 	mov    rdi,QWORD PTR [rbp-0xf0]
   1ae7f:	48 8b 8d 08 ff ff ff 	mov    rcx,QWORD PTR [rbp-0xf8]
   1ae86:	4c 8b a5 40 ff ff ff 	mov    r12,QWORD PTR [rbp-0xc0]
   1ae8d:	0f 84 e8 3b 00 00    	je     1ea7b <Java_com_adjust_sdk_sig_NativeLibHelper_nOnResume@@Base-0x9c228>
   1ae93:	48 b8 6e a0 2e a8 8f 	movabs rax,0xd079868fa82ea06e
   1ae9a:	86 79 d0 
   1ae9d:	48 39 85 68 ff ff ff 	cmp    QWORD PTR [rbp-0x98],rax
   1aea4:	0f 84 e5 75 00 00    	je     2248f <Java_com_adjust_sdk_sig_NativeLibHelper_nOnResume@@Base-0x98814>
   1aeaa:	48 b8 e4 ae 4c ce 55 	movabs rax,0xd22d0855ce4caee4
   1aeb1:	08 2d d2 
   1aeb4:	48 39 85 68 ff ff ff 	cmp    QWORD PTR [rbp-0x98],rax
   1aebb:	0f 84 61 5f 00 00    	je     20e22 <Java_com_adjust_sdk_sig_NativeLibHelper_nOnResume@@Base-0x99e81>
   1aec1:	48 b8 42 ba 0a 7b 0c 	movabs rax,0xd574430c7b0aba42
   1aec8:	43 74 d5 
   1aecb:	48 39 85 68 ff ff ff 	cmp    QWORD PTR [rbp-0x98],rax
   1aed2:	0f 84 e0 53 00 00    	je     202b8 <Java_com_adjust_sdk_sig_NativeLibHelper_nOnResume@@Base-0x9a9eb>
   1aed8:	48 b8 1d 1b 8c 0c b6 	movabs rax,0xd8d214b60c8c1b1d
   1aedf:	14 d2 d8 
   1aee2:	48 39 85 68 ff ff ff 	cmp    QWORD PTR [rbp-0x98],rax
   1aee9:	0f 84 f5 66 00 00    	je     215e4 <Java_com_adjust_sdk_sig_NativeLibHelper_nOnResume@@Base-0x996bf>
   1aeef:	8a 45 ce             	mov    al,BYTE PTR [rbp-0x32]
   1aef2:	88 45 cf             	mov    BYTE PTR [rbp-0x31],al
   1aef5:	48 8b 85 50 ff ff ff 	mov    rax,QWORD PTR [rbp-0xb0]
   1aefc:	48 89 85 70 ff ff ff 	mov    QWORD PTR [rbp-0x90],rax
   1af03:	48 8b 85 60 ff ff ff 	mov    rax,QWORD PTR [rbp-0xa0]
   1af0a:	48 89 85 78 ff ff ff 	mov    QWORD PTR [rbp-0x88],rax
   1af11:	4c 8b 9d e0 fe ff ff 	mov    r11,QWORD PTR [rbp-0x120]
   1af18:	4c 89 d8             	mov    rax,r11
   1af1b:	4c 89 5d 80          	mov    QWORD PTR [rbp-0x80],r11
   1af1f:	48 8b 95 e8 fe ff ff 	mov    rdx,QWORD PTR [rbp-0x118]
   1af26:	48 89 55 88          	mov    QWORD PTR [rbp-0x78],rdx
   1af2a:	48 8b 85 48 ff ff ff 	mov    rax,QWORD PTR [rbp-0xb8]
   1af31:	48 89 45 90          	mov    QWORD PTR [rbp-0x70],rax
   1af35:	48 8b 85 58 ff ff ff 	mov    rax,QWORD PTR [rbp-0xa8]
   1af3c:	48 89 45 98          	mov    QWORD PTR [rbp-0x68],rax
   1af40:	48 8b 85 30 ff ff ff 	mov    rax,QWORD PTR [rbp-0xd0]
   1af47:	48 89 45 a0          	mov    QWORD PTR [rbp-0x60],rax
   1af4b:	48 8b 85 28 ff ff ff 	mov    rax,QWORD PTR [rbp-0xd8]
   1af52:	48 89 45 a8          	mov    QWORD PTR [rbp-0x58],rax
   1af56:	4c 89 65 b0          	mov    QWORD PTR [rbp-0x50],r12
   1af5a:	48 89 c8             	mov    rax,rcx
   1af5d:	48 89 7d b8          	mov    QWORD PTR [rbp-0x48],rdi
   1af61:	4c 89 45 c0          	mov    QWORD PTR [rbp-0x40],r8
   1af65:	4d 89 d8             	mov    r8,r11
   1af68:	4d 89 cb             	mov    r11,r9
   1af6b:	49 89 d1             	mov    r9,rdx
   1af6e:	48 ba 2a 04 4d af c1 	movabs rdx,0x96eeb6c1af4d042a
   1af75:	b6 ee 96 
   1af78:	49 bc 01 3f 6c d3 c8 	movabs r12,0xd8e551c8d36c3f01
   1af7f:	51 e5 d8 
   1af82:	4c 39 a5 68 ff ff ff 	cmp    QWORD PTR [rbp-0x98],r12
   1af89:	0f 84 9e ec ff ff    	je     19c2d <Java_com_adjust_sdk_sig_NativeLibHelper_nOnResume@@Base-0xa1076>
   1af8f:	8a 45 ce             	mov    al,BYTE PTR [rbp-0x32]
   1af92:	88 45 cf             	mov    BYTE PTR [rbp-0x31],al
   1af95:	8a 45 cd             	mov    al,BYTE PTR [rbp-0x33]
   1af98:	89 c6                	mov    esi,eax
   1af9a:	48 8b 85 50 ff ff ff 	mov    rax,QWORD PTR [rbp-0xb0]
   1afa1:	48 89 85 70 ff ff ff 	mov    QWORD PTR [rbp-0x90],rax
   1afa8:	48 8b 85 60 ff ff ff 	mov    rax,QWORD PTR [rbp-0xa0]
   1afaf:	48 89 85 78 ff ff ff 	mov    QWORD PTR [rbp-0x88],rax
   1afb6:	4c 89 c0             	mov    rax,r8
   1afb9:	4c 89 45 80          	mov    QWORD PTR [rbp-0x80],r8
   1afbd:	4c 89 4d 88          	mov    QWORD PTR [rbp-0x78],r9
   1afc1:	48 8b 85 48 ff ff ff 	mov    rax,QWORD PTR [rbp-0xb8]
   1afc8:	48 89 45 90          	mov    QWORD PTR [rbp-0x70],rax
   1afcc:	48 8b 85 58 ff ff ff 	mov    rax,QWORD PTR [rbp-0xa8]
   1afd3:	48 89 45 98          	mov    QWORD PTR [rbp-0x68],rax
   1afd7:	48 8b 85 30 ff ff ff 	mov    rax,QWORD PTR [rbp-0xd0]
   1afde:	48 89 45 a0          	mov    QWORD PTR [rbp-0x60],rax
   1afe2:	48 8b 85 28 ff ff ff 	mov    rax,QWORD PTR [rbp-0xd8]
   1afe9:	48 89 45 a8          	mov    QWORD PTR [rbp-0x58],rax
   1afed:	48 89 45 b0          	mov    QWORD PTR [rbp-0x50],rax
   1aff1:	48 8b 85 00 fe ff ff 	mov    rax,QWORD PTR [rbp-0x200]
   1aff8:	48 8b 8d 10 ff ff ff 	mov    rcx,QWORD PTR [rbp-0xf0]
   1afff:	48 89 4d b8          	mov    QWORD PTR [rbp-0x48],rcx
   1b003:	48 8b 8d 20 ff ff ff 	mov    rcx,QWORD PTR [rbp-0xe0]
   1b00a:	48 89 4d c0          	mov    QWORD PTR [rbp-0x40],rcx
   1b00e:	4c 8b 9d 18 ff ff ff 	mov    r11,QWORD PTR [rbp-0xe8]
   1b015:	4c 8b bd f8 fe ff ff 	mov    r15,QWORD PTR [rbp-0x108]
   1b01c:	4c 8b ad f0 fe ff ff 	mov    r13,QWORD PTR [rbp-0x110]
   1b023:	48 8b 9d 00 ff ff ff 	mov    rbx,QWORD PTR [rbp-0x100]
   1b02a:	4c 8b 95 38 ff ff ff 	mov    r10,QWORD PTR [rbp-0xc8]
   1b031:	48 ba a0 68 b2 a8 5c 	movabs rdx,0x36fd975ca8b268a0
   1b038:	97 fd 36 
   1b03b:	49 bc f7 61 c1 f1 5c 	movabs r12,0xd92d285cf1c161f7
   1b042:	28 2d d9 
   1b045:	4c 39 a5 68 ff ff ff 	cmp    QWORD PTR [rbp-0x98],r12
   1b04c:	0f 84 db eb ff ff    	je     19c2d <Java_com_adjust_sdk_sig_NativeLibHelper_nOnResume@@Base-0xa1076>
   1b052:	48 b8 08 94 e5 f3 11 	movabs rax,0xd93eac11f3e59408
   1b059:	ac 3e d9 
   1b05c:	48 39 85 68 ff ff ff 	cmp    QWORD PTR [rbp-0x98],rax
   1b063:	0f 84 73 71 00 00    	je     221dc <Java_com_adjust_sdk_sig_NativeLibHelper_nOnResume@@Base-0x98ac7>
   1b069:	48 b8 cd 43 77 1e d1 	movabs rax,0xd9aff2d11e7743cd
   1b070:	f2 af d9 
   1b073:	48 39 85 68 ff ff ff 	cmp    QWORD PTR [rbp-0x98],rax
   1b07a:	44 8a 65 cd          	mov    r12b,BYTE PTR [rbp-0x33]
   1b07e:	48 8b 9d 00 ff ff ff 	mov    rbx,QWORD PTR [rbp-0x100]
   1b085:	4c 8b ad f0 fe ff ff 	mov    r13,QWORD PTR [rbp-0x110]
   1b08c:	4c 8b bd f8 fe ff ff 	mov    r15,QWORD PTR [rbp-0x108]
   1b093:	4c 8b 9d 28 ff ff ff 	mov    r11,QWORD PTR [rbp-0xd8]
   1b09a:	48 8b 8d 30 ff ff ff 	mov    rcx,QWORD PTR [rbp-0xd0]
   1b0a1:	0f 84 f4 71 00 00    	je     2229b <Java_com_adjust_sdk_sig_NativeLibHelper_nOnResume@@Base-0x98a08>
   1b0a7:	48 b8 76 17 cc a4 a4 	movabs rax,0xdca35fa4a4cc1776
   1b0ae:	5f a3 dc 
   1b0b1:	48 39 85 68 ff ff ff 	cmp    QWORD PTR [rbp-0x98],rax
   1b0b8:	0f 84 ae 33 00 00    	je     1e46c <Java_com_adjust_sdk_sig_NativeLibHelper_nOnResume@@Base-0x9c837>
   1b0be:	8a 45 ce             	mov    al,BYTE PTR [rbp-0x32]
   1b0c1:	88 45 cf             	mov    BYTE PTR [rbp-0x31],al
   1b0c4:	44 89 e6             	mov    esi,r12d
   1b0c7:	48 8b 85 50 ff ff ff 	mov    rax,QWORD PTR [rbp-0xb0]
   1b0ce:	48 89 85 70 ff ff ff 	mov    QWORD PTR [rbp-0x90],rax
   1b0d5:	48 8b 85 60 ff ff ff 	mov    rax,QWORD PTR [rbp-0xa0]
   1b0dc:	48 89 85 78 ff ff ff 	mov    QWORD PTR [rbp-0x88],rax
   1b0e3:	4c 89 c0             	mov    rax,r8
   1b0e6:	4c 89 45 80          	mov    QWORD PTR [rbp-0x80],r8
   1b0ea:	4c 89 4d 88          	mov    QWORD PTR [rbp-0x78],r9
   1b0ee:	48 8b 85 48 ff ff ff 	mov    rax,QWORD PTR [rbp-0xb8]
   1b0f5:	48 89 45 90          	mov    QWORD PTR [rbp-0x70],rax
   1b0f9:	48 8b 85 58 ff ff ff 	mov    rax,QWORD PTR [rbp-0xa8]
   1b100:	48 89 45 98          	mov    QWORD PTR [rbp-0x68],rax
   1b104:	48 89 4d a0          	mov    QWORD PTR [rbp-0x60],rcx
   1b108:	4c 89 5d a8          	mov    QWORD PTR [rbp-0x58],r11
   1b10c:	48 8b 85 40 ff ff ff 	mov    rax,QWORD PTR [rbp-0xc0]
   1b113:	48 89 45 b0          	mov    QWORD PTR [rbp-0x50],rax
   1b117:	48 8b 85 08 ff ff ff 	mov    rax,QWORD PTR [rbp-0xf8]
   1b11e:	48 8b 8d 10 ff ff ff 	mov    rcx,QWORD PTR [rbp-0xf0]
   1b125:	48 89 4d b8          	mov    QWORD PTR [rbp-0x48],rcx
   1b129:	48 8b 8d 20 ff ff ff 	mov    rcx,QWORD PTR [rbp-0xe0]
   1b130:	48 89 4d c0          	mov    QWORD PTR [rbp-0x40],rcx
   1b134:	4c 8b 9d 18 ff ff ff 	mov    r11,QWORD PTR [rbp-0xe8]
   1b13b:	4c 8b 95 38 ff ff ff 	mov    r10,QWORD PTR [rbp-0xc8]
   1b142:	48 ba 01 e1 5e 0e ec 	movabs rdx,0x3864c6ec0e5ee101
   1b149:	c6 64 38 
   1b14c:	49 bc 79 31 77 ac f9 	movabs r12,0xdd2b1ff9ac773179
   1b153:	1f 2b dd 
   1b156:	4c 39 a5 68 ff ff ff 	cmp    QWORD PTR [rbp-0x98],r12
   1b15d:	0f 84 ca ea ff ff    	je     19c2d <Java_com_adjust_sdk_sig_NativeLibHelper_nOnResume@@Base-0xa1076>
   1b163:	48 b8 b5 79 69 c4 df 	movabs rax,0xde15c4dfc46979b5
   1b16a:	c4 15 de 
   1b16d:	48 39 85 68 ff ff ff 	cmp    QWORD PTR [rbp-0x98],rax
   1b174:	0f 84 cb 41 00 00    	je     1f345 <Java_com_adjust_sdk_sig_NativeLibHelper_nOnResume@@Base-0x9b95e>
   1b17a:	48 b8 63 f8 f3 51 53 	movabs rax,0xdf39805351f3f863
   1b181:	80 39 df 
   1b184:	48 39 85 68 ff ff ff 	cmp    QWORD PTR [rbp-0x98],rax
   1b18b:	8a 55 cd             	mov    dl,BYTE PTR [rbp-0x33]
   1b18e:	4c 8b 95 38 ff ff ff 	mov    r10,QWORD PTR [rbp-0xc8]
   1b195:	48 8b 9d 00 ff ff ff 	mov    rbx,QWORD PTR [rbp-0x100]
   1b19c:	4c 8b ad f0 fe ff ff 	mov    r13,QWORD PTR [rbp-0x110]
   1b1a3:	4c 8b bd f8 fe ff ff 	mov    r15,QWORD PTR [rbp-0x108]
   1b1aa:	4c 8b 9d 18 ff ff ff 	mov    r11,QWORD PTR [rbp-0xe8]
   1b1b1:	4c 8b 85 20 ff ff ff 	mov    r8,QWORD PTR [rbp-0xe0]
   1b1b8:	48 8b bd 10 ff ff ff 	mov    rdi,QWORD PTR [rbp-0xf0]
   1b1bf:	48 8b 8d 08 ff ff ff 	mov    rcx,QWORD PTR [rbp-0xf8]
   1b1c6:	4c 8b a5 40 ff ff ff 	mov    r12,QWORD PTR [rbp-0xc0]
   1b1cd:	0f 84 a3 6d 00 00    	je     21f76 <Java_com_adjust_sdk_sig_NativeLibHelper_nOnResume@@Base-0x98d2d>
   1b1d3:	8a 85 df fe ff ff    	mov    al,BYTE PTR [rbp-0x121]
   1b1d9:	88 45 cf             	mov    BYTE PTR [rbp-0x31],al
   1b1dc:	89 d6                	mov    esi,edx
   1b1de:	48 8b 85 50 ff ff ff 	mov    rax,QWORD PTR [rbp-0xb0]
   1b1e5:	48 89 85 70 ff ff ff 	mov    QWORD PTR [rbp-0x90],rax
   1b1ec:	48 8b 85 60 ff ff ff 	mov    rax,QWORD PTR [rbp-0xa0]
   1b1f3:	48 89 85 78 ff ff ff 	mov    QWORD PTR [rbp-0x88],rax
   1b1fa:	4c 8b b5 e0 fe ff ff 	mov    r14,QWORD PTR [rbp-0x120]
   1b201:	4c 89 f0             	mov    rax,r14
   1b204:	4c 89 75 80          	mov    QWORD PTR [rbp-0x80],r14
   1b208:	48 8b 95 e8 fe ff ff 	mov    rdx,QWORD PTR [rbp-0x118]
   1b20f:	48 89 55 88          	mov    QWORD PTR [rbp-0x78],rdx
   1b213:	48 8b 85 48 ff ff ff 	mov    rax,QWORD PTR [rbp-0xb8]
   1b21a:	48 89 45 90          	mov    QWORD PTR [rbp-0x70],rax
   1b21e:	48 8b 85 58 ff ff ff 	mov    rax,QWORD PTR [rbp-0xa8]
   1b225:	48 89 45 98          	mov    QWORD PTR [rbp-0x68],rax
   1b229:	48 8b 85 30 ff ff ff 	mov    rax,QWORD PTR [rbp-0xd0]
   1b230:	48 89 45 a0          	mov    QWORD PTR [rbp-0x60],rax
   1b234:	48 8b 85 28 ff ff ff 	mov    rax,QWORD PTR [rbp-0xd8]
   1b23b:	48 89 45 a8          	mov    QWORD PTR [rbp-0x58],rax
   1b23f:	4c 89 65 b0          	mov    QWORD PTR [rbp-0x50],r12
   1b243:	48 89 c8             	mov    rax,rcx
   1b246:	48 89 7d b8          	mov    QWORD PTR [rbp-0x48],rdi
   1b24a:	4c 89 45 c0          	mov    QWORD PTR [rbp-0x40],r8
   1b24e:	49 89 d1             	mov    r9,rdx
   1b251:	48 ba d8 ef 61 2a b6 	movabs rdx,0x523f72b62a61efd8
   1b258:	72 3f 52 
   1b25b:	49 bc f0 2b ca 01 f8 	movabs r12,0xdfa2a8f801ca2bf0
   1b262:	a8 a2 df 
   1b265:	4c 39 a5 68 ff ff ff 	cmp    QWORD PTR [rbp-0x98],r12
   1b26c:	0f 84 bb e9 ff ff    	je     19c2d <Java_com_adjust_sdk_sig_NativeLibHelper_nOnResume@@Base-0xa1076>
   1b272:	48 b8 c3 0a 29 23 44 	movabs rax,0xe27a944423290ac3
   1b279:	94 7a e2 
   1b27c:	48 39 85 68 ff ff ff 	cmp    QWORD PTR [rbp-0x98],rax
   1b283:	0f 84 a7 65 00 00    	je     21830 <Java_com_adjust_sdk_sig_NativeLibHelper_nOnResume@@Base-0x99473>
   1b289:	48 b8 fa b1 98 15 30 	movabs rax,0xe2c041301598b1fa
   1b290:	41 c0 e2 
   1b293:	48 39 85 68 ff ff ff 	cmp    QWORD PTR [rbp-0x98],rax
   1b29a:	44 8a 65 cd          	mov    r12b,BYTE PTR [rbp-0x33]
   1b29e:	48 8b 9d 00 ff ff ff 	mov    rbx,QWORD PTR [rbp-0x100]
   1b2a5:	4c 8b ad f0 fe ff ff 	mov    r13,QWORD PTR [rbp-0x110]
   1b2ac:	4c 8b bd f8 fe ff ff 	mov    r15,QWORD PTR [rbp-0x108]
   1b2b3:	4c 8b 9d 28 ff ff ff 	mov    r11,QWORD PTR [rbp-0xd8]
   1b2ba:	48 8b 8d 30 ff ff ff 	mov    rcx,QWORD PTR [rbp-0xd0]
   1b2c1:	0f 84 bc 30 00 00    	je     1e383 <Java_com_adjust_sdk_sig_NativeLibHelper_nOnResume@@Base-0x9c920>
   1b2c7:	48 b8 16 c5 ef 5c c2 	movabs rax,0xe4b0ccc25cefc516
   1b2ce:	cc b0 e4 
   1b2d1:	48 39 85 68 ff ff ff 	cmp    QWORD PTR [rbp-0x98],rax
   1b2d8:	0f 84 e0 35 00 00    	je     1e8be <Java_com_adjust_sdk_sig_NativeLibHelper_nOnResume@@Base-0x9c3e5>
   1b2de:	8a 45 ce             	mov    al,BYTE PTR [rbp-0x32]
   1b2e1:	88 45 cf             	mov    BYTE PTR [rbp-0x31],al
   1b2e4:	44 89 e6             	mov    esi,r12d
   1b2e7:	48 8b 85 50 ff ff ff 	mov    rax,QWORD PTR [rbp-0xb0]
   1b2ee:	48 89 85 70 ff ff ff 	mov    QWORD PTR [rbp-0x90],rax
   1b2f5:	48 8b 85 60 ff ff ff 	mov    rax,QWORD PTR [rbp-0xa0]
   1b2fc:	48 89 85 78 ff ff ff 	mov    QWORD PTR [rbp-0x88],rax
   1b303:	4c 89 f0             	mov    rax,r14
   1b306:	4c 89 75 80          	mov    QWORD PTR [rbp-0x80],r14
   1b30a:	4c 89 4d 88          	mov    QWORD PTR [rbp-0x78],r9
   1b30e:	48 8b 85 48 ff ff ff 	mov    rax,QWORD PTR [rbp-0xb8]
   1b315:	48 89 45 90          	mov    QWORD PTR [rbp-0x70],rax
   1b319:	48 8b 85 58 ff ff ff 	mov    rax,QWORD PTR [rbp-0xa8]
   1b320:	48 89 45 98          	mov    QWORD PTR [rbp-0x68],rax
   1b324:	48 89 4d a0          	mov    QWORD PTR [rbp-0x60],rcx
   1b328:	4c 89 5d a8          	mov    QWORD PTR [rbp-0x58],r11
   1b32c:	48 8b 85 40 ff ff ff 	mov    rax,QWORD PTR [rbp-0xc0]
   1b333:	48 89 45 b0          	mov    QWORD PTR [rbp-0x50],rax
   1b337:	48 8b 85 08 ff ff ff 	mov    rax,QWORD PTR [rbp-0xf8]
   1b33e:	48 8b 8d 10 ff ff ff 	mov    rcx,QWORD PTR [rbp-0xf0]
   1b345:	48 89 4d b8          	mov    QWORD PTR [rbp-0x48],rcx
   1b349:	48 8b 8d 20 ff ff ff 	mov    rcx,QWORD PTR [rbp-0xe0]
   1b350:	48 89 4d c0          	mov    QWORD PTR [rbp-0x40],rcx
   1b354:	4c 8b 9d 18 ff ff ff 	mov    r11,QWORD PTR [rbp-0xe8]
   1b35b:	4c 8b 95 38 ff ff ff 	mov    r10,QWORD PTR [rbp-0xc8]
   1b362:	48 ba bc 5b fe 7c ef 	movabs rdx,0xbee440ef7cfe5bbc
   1b369:	40 e4 be 
   1b36c:	49 bc d3 ac dc d1 78 	movabs r12,0xe513c078d1dcacd3
   1b373:	c0 13 e5 
   1b376:	4c 39 a5 68 ff ff ff 	cmp    QWORD PTR [rbp-0x98],r12
   1b37d:	0f 84 aa e8 ff ff    	je     19c2d <Java_com_adjust_sdk_sig_NativeLibHelper_nOnResume@@Base-0xa1076>
   1b383:	48 b8 d4 2e b2 59 e8 	movabs rax,0xe5c15fe859b22ed4
   1b38a:	5f c1 e5 
   1b38d:	48 39 85 68 ff ff ff 	cmp    QWORD PTR [rbp-0x98],rax
   1b394:	0f 84 4b 45 00 00    	je     1f8e5 <Java_com_adjust_sdk_sig_NativeLibHelper_nOnResume@@Base-0x9b3be>
   1b39a:	48 b8 d3 f2 f7 e0 7d 	movabs rax,0xe61e847de0f7f2d3
   1b3a1:	84 1e e6 
   1b3a4:	48 39 85 68 ff ff ff 	cmp    QWORD PTR [rbp-0x98],rax
   1b3ab:	40 8a 75 cd          	mov    sil,BYTE PTR [rbp-0x33]
   1b3af:	4c 8b 95 38 ff ff ff 	mov    r10,QWORD PTR [rbp-0xc8]
   1b3b6:	48 8b 9d 00 ff ff ff 	mov    rbx,QWORD PTR [rbp-0x100]
   1b3bd:	4c 8b ad f0 fe ff ff 	mov    r13,QWORD PTR [rbp-0x110]
   1b3c4:	4c 8b bd f8 fe ff ff 	mov    r15,QWORD PTR [rbp-0x108]
   1b3cb:	4c 8b 8d 18 ff ff ff 	mov    r9,QWORD PTR [rbp-0xe8]
   1b3d2:	4c 8b 85 20 ff ff ff 	mov    r8,QWORD PTR [rbp-0xe0]
   1b3d9:	48 8b bd 10 ff ff ff 	mov    rdi,QWORD PTR [rbp-0xf0]
   1b3e0:	0f 84 e5 42 00 00    	je     1f6cb <Java_com_adjust_sdk_sig_NativeLibHelper_nOnResume@@Base-0x9b5d8>
   1b3e6:	48 b8 b2 4c a3 3f 21 	movabs rax,0xe658ee213fa34cb2
   1b3ed:	ee 58 e6 
   1b3f0:	48 39 85 68 ff ff ff 	cmp    QWORD PTR [rbp-0x98],rax
   1b3f7:	4c 8b a5 08 ff ff ff 	mov    r12,QWORD PTR [rbp-0xf8]
   1b3fe:	0f 84 98 2a 00 00    	je     1de9c <Java_com_adjust_sdk_sig_NativeLibHelper_nOnResume@@Base-0x9ce07>
   1b404:	8a 45 ce             	mov    al,BYTE PTR [rbp-0x32]
   1b407:	88 45 cf             	mov    BYTE PTR [rbp-0x31],al
   1b40a:	48 8b 85 50 ff ff ff 	mov    rax,QWORD PTR [rbp-0xb0]
   1b411:	48 89 85 70 ff ff ff 	mov    QWORD PTR [rbp-0x90],rax
   1b418:	48 8b 85 60 ff ff ff 	mov    rax,QWORD PTR [rbp-0xa0]
   1b41f:	48 89 85 78 ff ff ff 	mov    QWORD PTR [rbp-0x88],rax
   1b426:	48 8b 95 e0 fe ff ff 	mov    rdx,QWORD PTR [rbp-0x120]
   1b42d:	48 89 d0             	mov    rax,rdx
   1b430:	48 89 55 80          	mov    QWORD PTR [rbp-0x80],rdx
   1b434:	48 8b 8d e8 fe ff ff 	mov    rcx,QWORD PTR [rbp-0x118]
   1b43b:	48 89 4d 88          	mov    QWORD PTR [rbp-0x78],rcx
   1b43f:	48 8b 85 48 ff ff ff 	mov    rax,QWORD PTR [rbp-0xb8]
   1b446:	48 89 45 90          	mov    QWORD PTR [rbp-0x70],rax
   1b44a:	48 8b 85 58 ff ff ff 	mov    rax,QWORD PTR [rbp-0xa8]
   1b451:	48 89 45 98          	mov    QWORD PTR [rbp-0x68],rax
   1b455:	48 8b 85 30 ff ff ff 	mov    rax,QWORD PTR [rbp-0xd0]
   1b45c:	48 89 45 a0          	mov    QWORD PTR [rbp-0x60],rax
   1b460:	48 8b 85 28 ff ff ff 	mov    rax,QWORD PTR [rbp-0xd8]
   1b467:	48 89 45 a8          	mov    QWORD PTR [rbp-0x58],rax
   1b46b:	48 8b 85 40 ff ff ff 	mov    rax,QWORD PTR [rbp-0xc0]
   1b472:	48 89 45 b0          	mov    QWORD PTR [rbp-0x50],rax
   1b476:	4c 89 e0             	mov    rax,r12
   1b479:	48 89 7d b8          	mov    QWORD PTR [rbp-0x48],rdi
   1b47d:	4c 89 45 c0          	mov    QWORD PTR [rbp-0x40],r8
   1b481:	48 89 d7             	mov    rdi,rdx
   1b484:	4d 89 cb             	mov    r11,r9
   1b487:	48 ba 01 e1 5e 0e ec 	movabs rdx,0x3864c6ec0e5ee101
   1b48e:	c6 64 38 
   1b491:	49 bc b9 14 99 92 75 	movabs r12,0xe73a0575929914b9
   1b498:	05 3a e7 
   1b49b:	4c 39 a5 68 ff ff ff 	cmp    QWORD PTR [rbp-0x98],r12
   1b4a2:	0f 84 85 e7 ff ff    	je     19c2d <Java_com_adjust_sdk_sig_NativeLibHelper_nOnResume@@Base-0xa1076>
   1b4a8:	48 b8 f3 0d 4e 47 de 	movabs rax,0xe75866de474e0df3
   1b4af:	66 58 e7 
   1b4b2:	48 39 85 68 ff ff ff 	cmp    QWORD PTR [rbp-0x98],rax
   1b4b9:	0f 84 9e 2a 00 00    	je     1df5d <Java_com_adjust_sdk_sig_NativeLibHelper_nOnResume@@Base-0x9cd46>
   1b4bf:	49 89 c9             	mov    r9,rcx
   1b4c2:	8a 45 ce             	mov    al,BYTE PTR [rbp-0x32]
   1b4c5:	88 45 cf             	mov    BYTE PTR [rbp-0x31],al
   1b4c8:	8a 45 cd             	mov    al,BYTE PTR [rbp-0x33]
   1b4cb:	89 c6                	mov    esi,eax
   1b4cd:	48 8b 85 50 ff ff ff 	mov    rax,QWORD PTR [rbp-0xb0]
   1b4d4:	48 89 85 70 ff ff ff 	mov    QWORD PTR [rbp-0x90],rax
   1b4db:	48 8b 85 60 ff ff ff 	mov    rax,QWORD PTR [rbp-0xa0]
   1b4e2:	48 89 85 78 ff ff ff 	mov    QWORD PTR [rbp-0x88],rax
   1b4e9:	48 89 f8             	mov    rax,rdi
   1b4ec:	48 89 7d 80          	mov    QWORD PTR [rbp-0x80],rdi
   1b4f0:	48 89 4d 88          	mov    QWORD PTR [rbp-0x78],rcx
   1b4f4:	48 8b 85 48 ff ff ff 	mov    rax,QWORD PTR [rbp-0xb8]
   1b4fb:	48 89 45 90          	mov    QWORD PTR [rbp-0x70],rax
   1b4ff:	48 8b 85 58 ff ff ff 	mov    rax,QWORD PTR [rbp-0xa8]
   1b506:	48 89 45 98          	mov    QWORD PTR [rbp-0x68],rax
   1b50a:	48 8b 85 30 ff ff ff 	mov    rax,QWORD PTR [rbp-0xd0]
   1b511:	48 89 45 a0          	mov    QWORD PTR [rbp-0x60],rax
   1b515:	4c 8b 9d 48 fe ff ff 	mov    r11,QWORD PTR [rbp-0x1b8]
   1b51c:	4c 89 5d a8          	mov    QWORD PTR [rbp-0x58],r11
   1b520:	48 8b 85 40 ff ff ff 	mov    rax,QWORD PTR [rbp-0xc0]
   1b527:	48 89 45 b0          	mov    QWORD PTR [rbp-0x50],rax
   1b52b:	48 8b 85 08 ff ff ff 	mov    rax,QWORD PTR [rbp-0xf8]
   1b532:	48 8b 8d 10 ff ff ff 	mov    rcx,QWORD PTR [rbp-0xf0]
   1b539:	48 89 4d b8          	mov    QWORD PTR [rbp-0x48],rcx
   1b53d:	48 8b 8d 20 ff ff ff 	mov    rcx,QWORD PTR [rbp-0xe0]
   1b544:	48 89 4d c0          	mov    QWORD PTR [rbp-0x40],rcx
   1b548:	4c 8b 9d 18 ff ff ff 	mov    r11,QWORD PTR [rbp-0xe8]
   1b54f:	4c 8b bd f8 fe ff ff 	mov    r15,QWORD PTR [rbp-0x108]
   1b556:	4c 8b ad f0 fe ff ff 	mov    r13,QWORD PTR [rbp-0x110]
   1b55d:	48 8b 9d 00 ff ff ff 	mov    rbx,QWORD PTR [rbp-0x100]
   1b564:	4c 8b 95 38 ff ff ff 	mov    r10,QWORD PTR [rbp-0xc8]
   1b56b:	48 ba f7 61 c1 f1 5c 	movabs rdx,0xd92d285cf1c161f7
   1b572:	28 2d d9 
   1b575:	49 bc ee 54 af 91 bd 	movabs r12,0xe84101bd91af54ee
   1b57c:	01 41 e8 
   1b57f:	4c 39 a5 68 ff ff ff 	cmp    QWORD PTR [rbp-0x98],r12
   1b586:	0f 84 a1 e6 ff ff    	je     19c2d <Java_com_adjust_sdk_sig_NativeLibHelper_nOnResume@@Base-0xa1076>
   1b58c:	48 b8 1c 04 e4 d0 02 	movabs rax,0xeaca2402d0e4041c
   1b593:	24 ca ea 
   1b596:	48 39 85 68 ff ff ff 	cmp    QWORD PTR [rbp-0x98],rax
   1b59d:	0f 84 9f 3c 00 00    	je     1f242 <Java_com_adjust_sdk_sig_NativeLibHelper_nOnResume@@Base-0x9ba61>
   1b5a3:	8a 45 ce             	mov    al,BYTE PTR [rbp-0x32]
   1b5a6:	88 45 cf             	mov    BYTE PTR [rbp-0x31],al
   1b5a9:	8a 45 cd             	mov    al,BYTE PTR [rbp-0x33]
   1b5ac:	89 c6                	mov    esi,eax
   1b5ae:	48 8b 85 50 ff ff ff 	mov    rax,QWORD PTR [rbp-0xb0]
   1b5b5:	48 89 85 70 ff ff ff 	mov    QWORD PTR [rbp-0x90],rax
   1b5bc:	48 8b 85 60 ff ff ff 	mov    rax,QWORD PTR [rbp-0xa0]
   1b5c3:	48 89 85 78 ff ff ff 	mov    QWORD PTR [rbp-0x88],rax
   1b5ca:	48 8b 85 00 fc ff ff 	mov    rax,QWORD PTR [rbp-0x400]
   1b5d1:	48 89 45 80          	mov    QWORD PTR [rbp-0x80],rax
   1b5d5:	48 8b 85 f8 fb ff ff 	mov    rax,QWORD PTR [rbp-0x408]
   1b5dc:	48 89 45 88          	mov    QWORD PTR [rbp-0x78],rax
   1b5e0:	48 8b 85 48 ff ff ff 	mov    rax,QWORD PTR [rbp-0xb8]
   1b5e7:	48 89 45 90          	mov    QWORD PTR [rbp-0x70],rax
   1b5eb:	48 8b 85 58 ff ff ff 	mov    rax,QWORD PTR [rbp-0xa8]
   1b5f2:	48 89 45 98          	mov    QWORD PTR [rbp-0x68],rax
   1b5f6:	48 8b 85 30 ff ff ff 	mov    rax,QWORD PTR [rbp-0xd0]
   1b5fd:	48 89 45 a0          	mov    QWORD PTR [rbp-0x60],rax
   1b601:	48 8b 85 28 ff ff ff 	mov    rax,QWORD PTR [rbp-0xd8]
   1b608:	48 89 45 a8          	mov    QWORD PTR [rbp-0x58],rax
   1b60c:	48 8b 85 40 ff ff ff 	mov    rax,QWORD PTR [rbp-0xc0]
   1b613:	48 89 45 b0          	mov    QWORD PTR [rbp-0x50],rax
   1b617:	48 8b 85 08 ff ff ff 	mov    rax,QWORD PTR [rbp-0xf8]
   1b61e:	48 8b 8d 10 ff ff ff 	mov    rcx,QWORD PTR [rbp-0xf0]
   1b625:	48 89 4d b8          	mov    QWORD PTR [rbp-0x48],rcx
   1b629:	48 8b 8d 20 ff ff ff 	mov    rcx,QWORD PTR [rbp-0xe0]
   1b630:	48 89 4d c0          	mov    QWORD PTR [rbp-0x40],rcx
   1b634:	4c 8b 9d 18 ff ff ff 	mov    r11,QWORD PTR [rbp-0xe8]
   1b63b:	4c 8b bd f8 fe ff ff 	mov    r15,QWORD PTR [rbp-0x108]
   1b642:	4c 8b ad f0 fe ff ff 	mov    r13,QWORD PTR [rbp-0x110]
   1b649:	48 8b 9d 00 ff ff ff 	mov    rbx,QWORD PTR [rbp-0x100]
   1b650:	4c 8b 95 38 ff ff ff 	mov    r10,QWORD PTR [rbp-0xc8]
   1b657:	48 ba 3a 4b eb 22 9e 	movabs rdx,0x1f0a569e22eb4b3a
   1b65e:	56 0a 1f 
   1b661:	49 bc a3 4e 31 e2 8a 	movabs r12,0xf151628ae2314ea3
   1b668:	62 51 f1 
   1b66b:	4c 39 a5 68 ff ff ff 	cmp    QWORD PTR [rbp-0x98],r12
   1b672:	0f 84 b5 e5 ff ff    	je     19c2d <Java_com_adjust_sdk_sig_NativeLibHelper_nOnResume@@Base-0xa1076>
   1b678:	8a 45 ce             	mov    al,BYTE PTR [rbp-0x32]
   1b67b:	88 45 cf             	mov    BYTE PTR [rbp-0x31],al
   1b67e:	8a 45 cd             	mov    al,BYTE PTR [rbp-0x33]
   1b681:	89 c6                	mov    esi,eax
   1b683:	48 8b 85 50 ff ff ff 	mov    rax,QWORD PTR [rbp-0xb0]
   1b68a:	48 89 85 70 ff ff ff 	mov    QWORD PTR [rbp-0x90],rax
   1b691:	48 8b 85 60 ff ff ff 	mov    rax,QWORD PTR [rbp-0xa0]
   1b698:	48 89 85 78 ff ff ff 	mov    QWORD PTR [rbp-0x88],rax
   1b69f:	48 89 f8             	mov    rax,rdi
   1b6a2:	48 89 7d 80          	mov    QWORD PTR [rbp-0x80],rdi
   1b6a6:	4c 89 4d 88          	mov    QWORD PTR [rbp-0x78],r9
   1b6aa:	48 8b 85 48 ff ff ff 	mov    rax,QWORD PTR [rbp-0xb8]
   1b6b1:	48 89 45 90          	mov    QWORD PTR [rbp-0x70],rax
   1b6b5:	48 8b 85 58 ff ff ff 	mov    rax,QWORD PTR [rbp-0xa8]
   1b6bc:	48 89 45 98          	mov    QWORD PTR [rbp-0x68],rax
   1b6c0:	48 8b 85 30 ff ff ff 	mov    rax,QWORD PTR [rbp-0xd0]
   1b6c7:	48 89 45 a0          	mov    QWORD PTR [rbp-0x60],rax
   1b6cb:	48 8b 85 28 ff ff ff 	mov    rax,QWORD PTR [rbp-0xd8]
   1b6d2:	48 89 45 a8          	mov    QWORD PTR [rbp-0x58],rax
   1b6d6:	48 8b 85 40 ff ff ff 	mov    rax,QWORD PTR [rbp-0xc0]
   1b6dd:	48 89 45 b0          	mov    QWORD PTR [rbp-0x50],rax
   1b6e1:	48 8b 85 08 ff ff ff 	mov    rax,QWORD PTR [rbp-0xf8]
   1b6e8:	48 8b 8d 10 ff ff ff 	mov    rcx,QWORD PTR [rbp-0xf0]
   1b6ef:	48 89 4d b8          	mov    QWORD PTR [rbp-0x48],rcx
   1b6f3:	48 8b 8d 20 ff ff ff 	mov    rcx,QWORD PTR [rbp-0xe0]
   1b6fa:	48 89 4d c0          	mov    QWORD PTR [rbp-0x40],rcx
   1b6fe:	4c 8b 9d 18 ff ff ff 	mov    r11,QWORD PTR [rbp-0xe8]
   1b705:	4c 8b bd f8 fe ff ff 	mov    r15,QWORD PTR [rbp-0x108]
   1b70c:	4c 8b ad f0 fe ff ff 	mov    r13,QWORD PTR [rbp-0x110]
   1b713:	48 8b 9d 00 ff ff ff 	mov    rbx,QWORD PTR [rbp-0x100]
   1b71a:	4c 8b 95 38 ff ff ff 	mov    r10,QWORD PTR [rbp-0xc8]
   1b721:	48 ba de a6 c1 dc 00 	movabs rdx,0x36024800dcc1a6de
   1b728:	48 02 36 
   1b72b:	49 bc 82 be ba 17 48 	movabs r12,0xf446564817babe82
   1b732:	56 46 f4 
   1b735:	4c 39 a5 68 ff ff ff 	cmp    QWORD PTR [rbp-0x98],r12
   1b73c:	0f 84 eb e4 ff ff    	je     19c2d <Java_com_adjust_sdk_sig_NativeLibHelper_nOnResume@@Base-0xa1076>
   1b742:	8a 45 ce             	mov    al,BYTE PTR [rbp-0x32]
   1b745:	88 45 cf             	mov    BYTE PTR [rbp-0x31],al
   1b748:	8a 45 cd             	mov    al,BYTE PTR [rbp-0x33]
   1b74b:	89 c6                	mov    esi,eax
   1b74d:	48 8b 85 50 ff ff ff 	mov    rax,QWORD PTR [rbp-0xb0]
   1b754:	48 89 85 70 ff ff ff 	mov    QWORD PTR [rbp-0x90],rax
   1b75b:	48 8b 85 60 ff ff ff 	mov    rax,QWORD PTR [rbp-0xa0]
   1b762:	48 89 85 78 ff ff ff 	mov    QWORD PTR [rbp-0x88],rax
   1b769:	48 89 f8             	mov    rax,rdi
   1b76c:	48 89 7d 80          	mov    QWORD PTR [rbp-0x80],rdi
   1b770:	4c 89 4d 88          	mov    QWORD PTR [rbp-0x78],r9
   1b774:	48 8b 85 48 ff ff ff 	mov    rax,QWORD PTR [rbp-0xb8]
   1b77b:	48 89 45 90          	mov    QWORD PTR [rbp-0x70],rax
   1b77f:	48 8b 85 58 ff ff ff 	mov    rax,QWORD PTR [rbp-0xa8]
   1b786:	48 89 45 98          	mov    QWORD PTR [rbp-0x68],rax
   1b78a:	48 8b 85 30 ff ff ff 	mov    rax,QWORD PTR [rbp-0xd0]
   1b791:	48 89 45 a0          	mov    QWORD PTR [rbp-0x60],rax
   1b795:	48 8b 85 28 ff ff ff 	mov    rax,QWORD PTR [rbp-0xd8]
   1b79c:	48 89 45 a8          	mov    QWORD PTR [rbp-0x58],rax
   1b7a0:	48 8b 85 40 ff ff ff 	mov    rax,QWORD PTR [rbp-0xc0]
   1b7a7:	48 89 45 b0          	mov    QWORD PTR [rbp-0x50],rax
   1b7ab:	48 8b 85 08 ff ff ff 	mov    rax,QWORD PTR [rbp-0xf8]
   1b7b2:	48 8b 8d 10 ff ff ff 	mov    rcx,QWORD PTR [rbp-0xf0]
   1b7b9:	48 89 4d b8          	mov    QWORD PTR [rbp-0x48],rcx
   1b7bd:	48 8b 8d 20 ff ff ff 	mov    rcx,QWORD PTR [rbp-0xe0]
   1b7c4:	48 89 4d c0          	mov    QWORD PTR [rbp-0x40],rcx
   1b7c8:	4c 8b 9d 18 ff ff ff 	mov    r11,QWORD PTR [rbp-0xe8]
   1b7cf:	4c 8b bd a0 fc ff ff 	mov    r15,QWORD PTR [rbp-0x360]
   1b7d6:	4c 8b ad f0 fe ff ff 	mov    r13,QWORD PTR [rbp-0x110]
   1b7dd:	48 8b 9d 00 ff ff ff 	mov    rbx,QWORD PTR [rbp-0x100]
   1b7e4:	4c 8b 95 38 ff ff ff 	mov    r10,QWORD PTR [rbp-0xc8]
   1b7eb:	48 ba ac 98 db cb 66 	movabs rdx,0x48b31966cbdb98ac
   1b7f2:	19 b3 48 
   1b7f5:	49 bc a2 e9 b3 d3 65 	movabs r12,0xf742be65d3b3e9a2
   1b7fc:	be 42 f7 
   1b7ff:	4c 39 a5 68 ff ff ff 	cmp    QWORD PTR [rbp-0x98],r12
   1b806:	0f 84 21 e4 ff ff    	je     19c2d <Java_com_adjust_sdk_sig_NativeLibHelper_nOnResume@@Base-0xa1076>
   1b80c:	8a 45 ce             	mov    al,BYTE PTR [rbp-0x32]
   1b80f:	88 45 cf             	mov    BYTE PTR [rbp-0x31],al
   1b812:	8a 45 cd             	mov    al,BYTE PTR [rbp-0x33]
   1b815:	89 c6                	mov    esi,eax
   1b817:	48 8b 85 50 ff ff ff 	mov    rax,QWORD PTR [rbp-0xb0]
   1b81e:	48 89 85 70 ff ff ff 	mov    QWORD PTR [rbp-0x90],rax
   1b825:	48 8b 85 60 ff ff ff 	mov    rax,QWORD PTR [rbp-0xa0]
   1b82c:	48 89 85 78 ff ff ff 	mov    QWORD PTR [rbp-0x88],rax
   1b833:	48 89 f8             	mov    rax,rdi
   1b836:	48 89 7d 80          	mov    QWORD PTR [rbp-0x80],rdi
   1b83a:	4c 89 4d 88          	mov    QWORD PTR [rbp-0x78],r9
   1b83e:	48 8b 85 48 ff ff ff 	mov    rax,QWORD PTR [rbp-0xb8]
   1b845:	48 89 45 90          	mov    QWORD PTR [rbp-0x70],rax
   1b849:	48 8b 85 58 ff ff ff 	mov    rax,QWORD PTR [rbp-0xa8]
   1b850:	48 89 45 98          	mov    QWORD PTR [rbp-0x68],rax
   1b854:	48 8b 85 30 ff ff ff 	mov    rax,QWORD PTR [rbp-0xd0]
   1b85b:	48 89 45 a0          	mov    QWORD PTR [rbp-0x60],rax
   1b85f:	48 8b 85 28 ff ff ff 	mov    rax,QWORD PTR [rbp-0xd8]
   1b866:	48 89 45 a8          	mov    QWORD PTR [rbp-0x58],rax
   1b86a:	48 8b 85 40 ff ff ff 	mov    rax,QWORD PTR [rbp-0xc0]
   1b871:	48 89 45 b0          	mov    QWORD PTR [rbp-0x50],rax
   1b875:	48 8b 85 08 ff ff ff 	mov    rax,QWORD PTR [rbp-0xf8]
   1b87c:	48 8b 8d 10 ff ff ff 	mov    rcx,QWORD PTR [rbp-0xf0]
   1b883:	48 89 4d b8          	mov    QWORD PTR [rbp-0x48],rcx
   1b887:	48 8b 8d 20 ff ff ff 	mov    rcx,QWORD PTR [rbp-0xe0]
   1b88e:	48 89 4d c0          	mov    QWORD PTR [rbp-0x40],rcx
   1b892:	4c 8b 9d 18 ff ff ff 	mov    r11,QWORD PTR [rbp-0xe8]
   1b899:	4c 8b bd f8 fe ff ff 	mov    r15,QWORD PTR [rbp-0x108]
   1b8a0:	4c 8b ad f0 fe ff ff 	mov    r13,QWORD PTR [rbp-0x110]
   1b8a7:	48 8b 9d 00 ff ff ff 	mov    rbx,QWORD PTR [rbp-0x100]
   1b8ae:	4c 8b 95 38 ff ff ff 	mov    r10,QWORD PTR [rbp-0xc8]
   1b8b5:	48 ba 01 e1 5e 0e ec 	movabs rdx,0x3864c6ec0e5ee101
   1b8bc:	c6 64 38 
   1b8bf:	49 bc 9d 41 b3 b6 a8 	movabs r12,0xfa7167a8b6b3419d
   1b8c6:	67 71 fa 
   1b8c9:	4c 39 a5 68 ff ff ff 	cmp    QWORD PTR [rbp-0x98],r12
   1b8d0:	0f 84 57 e3 ff ff    	je     19c2d <Java_com_adjust_sdk_sig_NativeLibHelper_nOnResume@@Base-0xa1076>
   1b8d6:	8a 45 ce             	mov    al,BYTE PTR [rbp-0x32]
   1b8d9:	88 45 cf             	mov    BYTE PTR [rbp-0x31],al
   1b8dc:	8a 45 cd             	mov    al,BYTE PTR [rbp-0x33]
   1b8df:	89 c6                	mov    esi,eax
   1b8e1:	48 8b 85 50 ff ff ff 	mov    rax,QWORD PTR [rbp-0xb0]
   1b8e8:	48 89 85 70 ff ff ff 	mov    QWORD PTR [rbp-0x90],rax
   1b8ef:	48 8b 85 60 ff ff ff 	mov    rax,QWORD PTR [rbp-0xa0]
   1b8f6:	48 89 85 78 ff ff ff 	mov    QWORD PTR [rbp-0x88],rax
   1b8fd:	48 89 f8             	mov    rax,rdi
   1b900:	48 89 7d 80          	mov    QWORD PTR [rbp-0x80],rdi
   1b904:	4c 89 4d 88          	mov    QWORD PTR [rbp-0x78],r9
   1b908:	48 8b 85 48 ff ff ff 	mov    rax,QWORD PTR [rbp-0xb8]
   1b90f:	48 89 45 90          	mov    QWORD PTR [rbp-0x70],rax
   1b913:	48 8b 85 58 ff ff ff 	mov    rax,QWORD PTR [rbp-0xa8]
   1b91a:	48 89 45 98          	mov    QWORD PTR [rbp-0x68],rax
   1b91e:	48 8b 85 30 ff ff ff 	mov    rax,QWORD PTR [rbp-0xd0]
   1b925:	48 89 45 a0          	mov    QWORD PTR [rbp-0x60],rax
   1b929:	48 8b 85 28 ff ff ff 	mov    rax,QWORD PTR [rbp-0xd8]
   1b930:	48 89 45 a8          	mov    QWORD PTR [rbp-0x58],rax
   1b934:	48 8b 85 40 ff ff ff 	mov    rax,QWORD PTR [rbp-0xc0]
   1b93b:	48 89 45 b0          	mov    QWORD PTR [rbp-0x50],rax
   1b93f:	48 8b 85 08 ff ff ff 	mov    rax,QWORD PTR [rbp-0xf8]
   1b946:	48 8b 8d 10 ff ff ff 	mov    rcx,QWORD PTR [rbp-0xf0]
   1b94d:	48 89 4d b8          	mov    QWORD PTR [rbp-0x48],rcx
   1b951:	48 8b 8d 20 ff ff ff 	mov    rcx,QWORD PTR [rbp-0xe0]
   1b958:	48 89 4d c0          	mov    QWORD PTR [rbp-0x40],rcx
   1b95c:	4c 8b 9d 18 ff ff ff 	mov    r11,QWORD PTR [rbp-0xe8]
   1b963:	4c 8b bd f8 fe ff ff 	mov    r15,QWORD PTR [rbp-0x108]
   1b96a:	4c 8b ad f0 fe ff ff 	mov    r13,QWORD PTR [rbp-0x110]
   1b971:	48 8b 9d 00 ff ff ff 	mov    rbx,QWORD PTR [rbp-0x100]
   1b978:	4c 8b 95 38 ff ff ff 	mov    r10,QWORD PTR [rbp-0xc8]
   1b97f:	48 ba c4 4d 71 da bc 	movabs rdx,0xbe1ec9bcda714dc4
   1b986:	c9 1e be 
   1b989:	49 bc 71 bf 2f a8 22 	movabs r12,0xfaaa7722a82fbf71
   1b990:	77 aa fa 
   1b993:	4c 39 a5 68 ff ff ff 	cmp    QWORD PTR [rbp-0x98],r12
   1b99a:	0f 84 8d e2 ff ff    	je     19c2d <Java_com_adjust_sdk_sig_NativeLibHelper_nOnResume@@Base-0xa1076>
   1b9a0:	8a 45 ce             	mov    al,BYTE PTR [rbp-0x32]
   1b9a3:	88 45 cf             	mov    BYTE PTR [rbp-0x31],al
   1b9a6:	8a 45 cd             	mov    al,BYTE PTR [rbp-0x33]
   1b9a9:	89 c6                	mov    esi,eax
   1b9ab:	48 8b 85 50 ff ff ff 	mov    rax,QWORD PTR [rbp-0xb0]
   1b9b2:	48 89 85 70 ff ff ff 	mov    QWORD PTR [rbp-0x90],rax
   1b9b9:	48 8b 85 60 ff ff ff 	mov    rax,QWORD PTR [rbp-0xa0]
   1b9c0:	48 89 85 78 ff ff ff 	mov    QWORD PTR [rbp-0x88],rax
   1b9c7:	48 89 f8             	mov    rax,rdi
   1b9ca:	48 89 7d 80          	mov    QWORD PTR [rbp-0x80],rdi
   1b9ce:	4c 89 4d 88          	mov    QWORD PTR [rbp-0x78],r9
   1b9d2:	48 8b 85 48 ff ff ff 	mov    rax,QWORD PTR [rbp-0xb8]
   1b9d9:	48 89 45 90          	mov    QWORD PTR [rbp-0x70],rax
   1b9dd:	48 8b 85 58 ff ff ff 	mov    rax,QWORD PTR [rbp-0xa8]
   1b9e4:	48 89 45 98          	mov    QWORD PTR [rbp-0x68],rax
   1b9e8:	48 8b 85 30 ff ff ff 	mov    rax,QWORD PTR [rbp-0xd0]
   1b9ef:	48 89 45 a0          	mov    QWORD PTR [rbp-0x60],rax
   1b9f3:	48 8b 85 28 ff ff ff 	mov    rax,QWORD PTR [rbp-0xd8]
   1b9fa:	48 89 45 a8          	mov    QWORD PTR [rbp-0x58],rax
   1b9fe:	48 8b 85 40 ff ff ff 	mov    rax,QWORD PTR [rbp-0xc0]
   1ba05:	48 89 45 b0          	mov    QWORD PTR [rbp-0x50],rax
   1ba09:	48 8b 85 08 ff ff ff 	mov    rax,QWORD PTR [rbp-0xf8]
   1ba10:	4c 8b 85 10 ff ff ff 	mov    r8,QWORD PTR [rbp-0xf0]
   1ba17:	4c 89 45 b8          	mov    QWORD PTR [rbp-0x48],r8
   1ba1b:	4c 89 45 c0          	mov    QWORD PTR [rbp-0x40],r8
   1ba1f:	48 8b 8d e0 fe ff ff 	mov    rcx,QWORD PTR [rbp-0x120]
   1ba26:	4c 8b 9d 08 fe ff ff 	mov    r11,QWORD PTR [rbp-0x1f8]
   1ba2d:	4c 8b 8d e8 fe ff ff 	mov    r9,QWORD PTR [rbp-0x118]
   1ba34:	4c 8b bd f8 fe ff ff 	mov    r15,QWORD PTR [rbp-0x108]
   1ba3b:	4c 8b ad f0 fe ff ff 	mov    r13,QWORD PTR [rbp-0x110]
   1ba42:	48 8b 9d 00 ff ff ff 	mov    rbx,QWORD PTR [rbp-0x100]
   1ba49:	4c 8b 95 38 ff ff ff 	mov    r10,QWORD PTR [rbp-0xc8]
   1ba50:	48 ba f9 ee 42 72 b3 	movabs rdx,0x7ec488b37242eef9
   1ba57:	88 c4 7e 
   1ba5a:	49 bc db be 77 62 ce 	movabs r12,0xfb0b6cce6277bedb
   1ba61:	6c 0b fb 
   1ba64:	4c 39 a5 68 ff ff ff 	cmp    QWORD PTR [rbp-0x98],r12
   1ba6b:	0f 84 bc e1 ff ff    	je     19c2d <Java_com_adjust_sdk_sig_NativeLibHelper_nOnResume@@Base-0xa1076>
   1ba71:	48 b8 22 17 c1 80 81 	movabs rax,0xfc35fb8180c11722
   1ba78:	fb 35 fc 
   1ba7b:	48 39 85 68 ff ff ff 	cmp    QWORD PTR [rbp-0x98],rax
   1ba82:	0f 84 e4 5c 00 00    	je     2176c <Java_com_adjust_sdk_sig_NativeLibHelper_nOnResume@@Base-0x99537>
   1ba88:	8a 45 ce             	mov    al,BYTE PTR [rbp-0x32]
   1ba8b:	88 45 cf             	mov    BYTE PTR [rbp-0x31],al
   1ba8e:	8a 45 cd             	mov    al,BYTE PTR [rbp-0x33]
   1ba91:	89 c6                	mov    esi,eax
   1ba93:	48 8b 85 50 ff ff ff 	mov    rax,QWORD PTR [rbp-0xb0]
   1ba9a:	48 89 85 70 ff ff ff 	mov    QWORD PTR [rbp-0x90],rax
   1baa1:	48 8b 85 60 ff ff ff 	mov    rax,QWORD PTR [rbp-0xa0]
   1baa8:	48 89 85 78 ff ff ff 	mov    QWORD PTR [rbp-0x88],rax
   1baaf:	48 89 c8             	mov    rax,rcx
   1bab2:	48 89 4d 80          	mov    QWORD PTR [rbp-0x80],rcx
   1bab6:	4c 89 4d 88          	mov    QWORD PTR [rbp-0x78],r9
   1baba:	48 8b 85 48 ff ff ff 	mov    rax,QWORD PTR [rbp-0xb8]
   1bac1:	48 89 45 90          	mov    QWORD PTR [rbp-0x70],rax
   1bac5:	48 8b 85 58 ff ff ff 	mov    rax,QWORD PTR [rbp-0xa8]
   1bacc:	48 89 45 98          	mov    QWORD PTR [rbp-0x68],rax
   1bad0:	48 8b 85 30 ff ff ff 	mov    rax,QWORD PTR [rbp-0xd0]
   1bad7:	48 89 45 a0          	mov    QWORD PTR [rbp-0x60],rax
   1badb:	48 8b 85 28 ff ff ff 	mov    rax,QWORD PTR [rbp-0xd8]
   1bae2:	48 89 45 a8          	mov    QWORD PTR [rbp-0x58],rax
   1bae6:	48 8b 85 40 ff ff ff 	mov    rax,QWORD PTR [rbp-0xc0]
   1baed:	48 89 45 b0          	mov    QWORD PTR [rbp-0x50],rax
   1baf1:	48 8b 85 08 ff ff ff 	mov    rax,QWORD PTR [rbp-0xf8]
   1baf8:	48 8b 95 10 ff ff ff 	mov    rdx,QWORD PTR [rbp-0xf0]
   1baff:	48 89 55 b8          	mov    QWORD PTR [rbp-0x48],rdx
   1bb03:	48 8b 95 20 ff ff ff 	mov    rdx,QWORD PTR [rbp-0xe0]
   1bb0a:	48 89 55 c0          	mov    QWORD PTR [rbp-0x40],rdx
   1bb0e:	4c 8b 9d 18 ff ff ff 	mov    r11,QWORD PTR [rbp-0xe8]
   1bb15:	4c 8b bd f8 fe ff ff 	mov    r15,QWORD PTR [rbp-0x108]
   1bb1c:	4c 8b ad f0 fe ff ff 	mov    r13,QWORD PTR [rbp-0x110]
   1bb23:	48 8b 9d 00 ff ff ff 	mov    rbx,QWORD PTR [rbp-0x100]
   1bb2a:	4c 8b 95 38 ff ff ff 	mov    r10,QWORD PTR [rbp-0xc8]
   1bb31:	48 ba bc 5b fe 7c ef 	movabs rdx,0xbee440ef7cfe5bbc
   1bb38:	40 e4 be 
   1bb3b:	49 bc 4b 83 08 9e 65 	movabs r12,0xfdcf09659e08834b
   1bb42:	09 cf fd 
   1bb45:	4c 39 a5 68 ff ff ff 	cmp    QWORD PTR [rbp-0x98],r12
   1bb4c:	0f 84 db e0 ff ff    	je     19c2d <Java_com_adjust_sdk_sig_NativeLibHelper_nOnResume@@Base-0xa1076>
   1bb52:	48 b8 d5 30 ad 4a 81 	movabs rax,0xfdd8ea814aad30d5
   1bb59:	ea d8 fd 
   1bb5c:	48 39 85 68 ff ff ff 	cmp    QWORD PTR [rbp-0x98],rax
   1bb63:	0f 84 67 24 00 00    	je     1dfd0 <Java_com_adjust_sdk_sig_NativeLibHelper_nOnResume@@Base-0x9ccd3>
   1bb69:	48 b8 0c 78 9f fd 30 	movabs rax,0xfdfd1130fd9f780c
   1bb70:	11 fd fd 
   1bb73:	48 39 85 68 ff ff ff 	cmp    QWORD PTR [rbp-0x98],rax
   1bb7a:	40 8a 75 cd          	mov    sil,BYTE PTR [rbp-0x33]
   1bb7e:	4c 8b 95 38 ff ff ff 	mov    r10,QWORD PTR [rbp-0xc8]
   1bb85:	48 8b 9d 00 ff ff ff 	mov    rbx,QWORD PTR [rbp-0x100]
   1bb8c:	4c 8b ad f0 fe ff ff 	mov    r13,QWORD PTR [rbp-0x110]
   1bb93:	4c 8b bd f8 fe ff ff 	mov    r15,QWORD PTR [rbp-0x108]
   1bb9a:	4c 8b 8d 18 ff ff ff 	mov    r9,QWORD PTR [rbp-0xe8]
   1bba1:	4c 8b 85 20 ff ff ff 	mov    r8,QWORD PTR [rbp-0xe0]
   1bba8:	48 8b bd 10 ff ff ff 	mov    rdi,QWORD PTR [rbp-0xf0]
   1bbaf:	4c 8b a5 08 ff ff ff 	mov    r12,QWORD PTR [rbp-0xf8]
   1bbb6:	4c 8b 9d 28 ff ff ff 	mov    r11,QWORD PTR [rbp-0xd8]
   1bbbd:	48 8b 95 30 ff ff ff 	mov    rdx,QWORD PTR [rbp-0xd0]
   1bbc4:	0f 84 31 2e 00 00    	je     1e9fb <Java_com_adjust_sdk_sig_NativeLibHelper_nOnResume@@Base-0x9c2a8>
   1bbca:	48 b8 61 4d 39 20 29 	movabs rax,0xfe92e12920394d61
   1bbd1:	e1 92 fe 
   1bbd4:	48 39 85 68 ff ff ff 	cmp    QWORD PTR [rbp-0x98],rax
   1bbdb:	0f 84 15 5e 00 00    	je     219f6 <Java_com_adjust_sdk_sig_NativeLibHelper_nOnResume@@Base-0x992ad>
   1bbe1:	48 b8 b7 2e be da de 	movabs rax,0xff84c6dedabe2eb7
   1bbe8:	c6 84 ff 
   1bbeb:	48 39 85 68 ff ff ff 	cmp    QWORD PTR [rbp-0x98],rax
   1bbf2:	0f 84 e5 2d 00 00    	je     1e9dd <Java_com_adjust_sdk_sig_NativeLibHelper_nOnResume@@Base-0x9c2c6>
   1bbf8:	8a 45 ce             	mov    al,BYTE PTR [rbp-0x32]
   1bbfb:	88 45 cf             	mov    BYTE PTR [rbp-0x31],al
   1bbfe:	48 8b 85 50 ff ff ff 	mov    rax,QWORD PTR [rbp-0xb0]
   1bc05:	48 89 85 70 ff ff ff 	mov    QWORD PTR [rbp-0x90],rax
   1bc0c:	48 8b 85 60 ff ff ff 	mov    rax,QWORD PTR [rbp-0xa0]
   1bc13:	48 89 85 78 ff ff ff 	mov    QWORD PTR [rbp-0x88],rax
   1bc1a:	4c 8b b5 e0 fe ff ff 	mov    r14,QWORD PTR [rbp-0x120]
   1bc21:	4c 89 f0             	mov    rax,r14
   1bc24:	4c 89 75 80          	mov    QWORD PTR [rbp-0x80],r14
   1bc28:	48 8b 8d e8 fe ff ff 	mov    rcx,QWORD PTR [rbp-0x118]
   1bc2f:	48 89 4d 88          	mov    QWORD PTR [rbp-0x78],rcx
   1bc33:	48 8b 85 48 ff ff ff 	mov    rax,QWORD PTR [rbp-0xb8]
   1bc3a:	48 89 45 90          	mov    QWORD PTR [rbp-0x70],rax
   1bc3e:	48 8b 85 58 ff ff ff 	mov    rax,QWORD PTR [rbp-0xa8]
   1bc45:	48 89 45 98          	mov    QWORD PTR [rbp-0x68],rax
   1bc49:	48 89 55 a0          	mov    QWORD PTR [rbp-0x60],rdx
   1bc4d:	4c 89 5d a8          	mov    QWORD PTR [rbp-0x58],r11
   1bc51:	48 8b 85 40 ff ff ff 	mov    rax,QWORD PTR [rbp-0xc0]
   1bc58:	48 89 45 b0          	mov    QWORD PTR [rbp-0x50],rax
   1bc5c:	4c 89 e0             	mov    rax,r12
   1bc5f:	48 89 7d b8          	mov    QWORD PTR [rbp-0x48],rdi
   1bc63:	4c 89 45 c0          	mov    QWORD PTR [rbp-0x40],r8
   1bc67:	4d 89 cb             	mov    r11,r9
   1bc6a:	48 ba b9 14 99 92 75 	movabs rdx,0xe73a0575929914b9
   1bc71:	05 3a e7 
   1bc74:	49 bc f5 a9 02 47 52 	movabs r12,0xff9efe524702a9f5
   1bc7b:	fe 9e ff 
   1bc7e:	4c 39 a5 68 ff ff ff 	cmp    QWORD PTR [rbp-0x98],r12
   1bc85:	0f 84 a2 df ff ff    	je     19c2d <Java_com_adjust_sdk_sig_NativeLibHelper_nOnResume@@Base-0xa1076>
   1bc8b:	49 89 c9             	mov    r9,rcx
   1bc8e:	48 b8 48 af 86 ed ea 	movabs rax,0x1df7beaed86af48
   1bc95:	7b df 01 
   1bc98:	48 39 85 68 ff ff ff 	cmp    QWORD PTR [rbp-0x98],rax
   1bc9f:	0f 84 3a 53 00 00    	je     20fdf <Java_com_adjust_sdk_sig_NativeLibHelper_nOnResume@@Base-0x99cc4>
   1bca5:	8a 45 ce             	mov    al,BYTE PTR [rbp-0x32]
   1bca8:	88 45 cf             	mov    BYTE PTR [rbp-0x31],al
   1bcab:	8a 45 cd             	mov    al,BYTE PTR [rbp-0x33]
   1bcae:	89 c6                	mov    esi,eax
   1bcb0:	48 8b 85 08 fc ff ff 	mov    rax,QWORD PTR [rbp-0x3f8]
   1bcb7:	48 89 85 70 ff ff ff 	mov    QWORD PTR [rbp-0x90],rax
   1bcbe:	48 8b 85 60 ff ff ff 	mov    rax,QWORD PTR [rbp-0xa0]
   1bcc5:	48 89 85 78 ff ff ff 	mov    QWORD PTR [rbp-0x88],rax
   1bccc:	4c 89 f0             	mov    rax,r14
   1bccf:	4c 89 75 80          	mov    QWORD PTR [rbp-0x80],r14
   1bcd3:	4c 89 4d 88          	mov    QWORD PTR [rbp-0x78],r9
   1bcd7:	48 8b 85 48 ff ff ff 	mov    rax,QWORD PTR [rbp-0xb8]
   1bcde:	48 89 45 90          	mov    QWORD PTR [rbp-0x70],rax
   1bce2:	48 8b 85 58 ff ff ff 	mov    rax,QWORD PTR [rbp-0xa8]
   1bce9:	48 89 45 98          	mov    QWORD PTR [rbp-0x68],rax
   1bced:	48 8b 85 30 ff ff ff 	mov    rax,QWORD PTR [rbp-0xd0]
   1bcf4:	48 89 45 a0          	mov    QWORD PTR [rbp-0x60],rax
   1bcf8:	48 8b 85 28 ff ff ff 	mov    rax,QWORD PTR [rbp-0xd8]
   1bcff:	48 89 45 a8          	mov    QWORD PTR [rbp-0x58],rax
   1bd03:	48 8b 85 40 ff ff ff 	mov    rax,QWORD PTR [rbp-0xc0]
   1bd0a:	48 89 45 b0          	mov    QWORD PTR [rbp-0x50],rax
   1bd0e:	48 8b 85 08 ff ff ff 	mov    rax,QWORD PTR [rbp-0xf8]
   1bd15:	48 8b 8d 10 ff ff ff 	mov    rcx,QWORD PTR [rbp-0xf0]
   1bd1c:	48 89 4d b8          	mov    QWORD PTR [rbp-0x48],rcx
   1bd20:	48 8b 8d 20 ff ff ff 	mov    rcx,QWORD PTR [rbp-0xe0]
   1bd27:	48 89 4d c0          	mov    QWORD PTR [rbp-0x40],rcx
   1bd2b:	4c 8b 9d 18 ff ff ff 	mov    r11,QWORD PTR [rbp-0xe8]
   1bd32:	4c 8b bd f8 fe ff ff 	mov    r15,QWORD PTR [rbp-0x108]
   1bd39:	4c 8b ad f0 fe ff ff 	mov    r13,QWORD PTR [rbp-0x110]
   1bd40:	48 8b 9d 00 ff ff ff 	mov    rbx,QWORD PTR [rbp-0x100]
   1bd47:	4c 8b 95 38 ff ff ff 	mov    r10,QWORD PTR [rbp-0xc8]
   1bd4e:	48 ba 34 b6 9f 4a c7 	movabs rdx,0x81bb9c74a9fb634
   1bd55:	b9 1b 08 
   1bd58:	49 bc 9e 5c af ee 7b 	movabs r12,0x216d87beeaf5c9e
   1bd5f:	d8 16 02 
   1bd62:	4c 39 a5 68 ff ff ff 	cmp    QWORD PTR [rbp-0x98],r12
   1bd69:	0f 84 be de ff ff    	je     19c2d <Java_com_adjust_sdk_sig_NativeLibHelper_nOnResume@@Base-0xa1076>
   1bd6f:	48 b8 67 ac 6e 50 cf 	movabs rax,0x282e2cf506eac67
   1bd76:	e2 82 02 
   1bd79:	48 39 85 68 ff ff ff 	cmp    QWORD PTR [rbp-0x98],rax
   1bd80:	0f 84 29 25 00 00    	je     1e2af <Java_com_adjust_sdk_sig_NativeLibHelper_nOnResume@@Base-0x9c9f4>
   1bd86:	48 b8 34 b6 9f 4a c7 	movabs rax,0x81bb9c74a9fb634
   1bd8d:	b9 1b 08 
   1bd90:	48 39 85 68 ff ff ff 	cmp    QWORD PTR [rbp-0x98],rax
   1bd97:	44 8a 65 cd          	mov    r12b,BYTE PTR [rbp-0x33]
   1bd9b:	48 8b 9d 00 ff ff ff 	mov    rbx,QWORD PTR [rbp-0x100]
   1bda2:	4c 8b ad f0 fe ff ff 	mov    r13,QWORD PTR [rbp-0x110]
   1bda9:	4c 8b bd f8 fe ff ff 	mov    r15,QWORD PTR [rbp-0x108]
   1bdb0:	4c 8b 9d 28 ff ff ff 	mov    r11,QWORD PTR [rbp-0xd8]
   1bdb7:	48 8b 8d 30 ff ff ff 	mov    rcx,QWORD PTR [rbp-0xd0]
   1bdbe:	0f 84 11 61 00 00    	je     21ed5 <Java_com_adjust_sdk_sig_NativeLibHelper_nOnResume@@Base-0x98dce>
   1bdc4:	48 b8 ec ae b0 db 62 	movabs rax,0x9af2262dbb0aeec
   1bdcb:	22 af 09 
   1bdce:	48 39 85 68 ff ff ff 	cmp    QWORD PTR [rbp-0x98],rax
   1bdd5:	0f 84 f9 5d 00 00    	je     21bd4 <Java_com_adjust_sdk_sig_NativeLibHelper_nOnResume@@Base-0x990cf>
   1bddb:	8a 45 ce             	mov    al,BYTE PTR [rbp-0x32]
   1bdde:	88 45 cf             	mov    BYTE PTR [rbp-0x31],al
   1bde1:	44 89 e6             	mov    esi,r12d
   1bde4:	48 8b 85 50 ff ff ff 	mov    rax,QWORD PTR [rbp-0xb0]
   1bdeb:	48 89 85 70 ff ff ff 	mov    QWORD PTR [rbp-0x90],rax
   1bdf2:	48 8b 85 60 ff ff ff 	mov    rax,QWORD PTR [rbp-0xa0]
   1bdf9:	48 89 85 78 ff ff ff 	mov    QWORD PTR [rbp-0x88],rax
   1be00:	4c 89 f0             	mov    rax,r14
   1be03:	4c 89 75 80          	mov    QWORD PTR [rbp-0x80],r14
   1be07:	4c 89 4d 88          	mov    QWORD PTR [rbp-0x78],r9
   1be0b:	48 8b 85 48 ff ff ff 	mov    rax,QWORD PTR [rbp-0xb8]
   1be12:	48 89 45 90          	mov    QWORD PTR [rbp-0x70],rax
   1be16:	48 8b 85 58 ff ff ff 	mov    rax,QWORD PTR [rbp-0xa8]
   1be1d:	48 89 45 98          	mov    QWORD PTR [rbp-0x68],rax
   1be21:	48 89 4d a0          	mov    QWORD PTR [rbp-0x60],rcx
   1be25:	4c 89 5d a8          	mov    QWORD PTR [rbp-0x58],r11
   1be29:	48 8b 85 40 ff ff ff 	mov    rax,QWORD PTR [rbp-0xc0]
   1be30:	48 89 45 b0          	mov    QWORD PTR [rbp-0x50],rax
   1be34:	48 8b 85 08 ff ff ff 	mov    rax,QWORD PTR [rbp-0xf8]
   1be3b:	48 8b 8d 10 ff ff ff 	mov    rcx,QWORD PTR [rbp-0xf0]
   1be42:	48 89 4d b8          	mov    QWORD PTR [rbp-0x48],rcx
   1be46:	48 8b 8d 20 ff ff ff 	mov    rcx,QWORD PTR [rbp-0xe0]
   1be4d:	48 89 4d c0          	mov    QWORD PTR [rbp-0x40],rcx
   1be51:	4c 8b 9d 18 ff ff ff 	mov    r11,QWORD PTR [rbp-0xe8]
   1be58:	4c 8b 95 38 ff ff ff 	mov    r10,QWORD PTR [rbp-0xc8]
   1be5f:	48 ba 16 c5 ef 5c c2 	movabs rdx,0xe4b0ccc25cefc516
   1be66:	cc b0 e4 
   1be69:	49 bc bf ef f1 d0 8e 	movabs r12,0xc501f8ed0f1efbf
   1be70:	1f 50 0c 
   1be73:	4c 39 a5 68 ff ff ff 	cmp    QWORD PTR [rbp-0x98],r12
   1be7a:	0f 84 ad dd ff ff    	je     19c2d <Java_com_adjust_sdk_sig_NativeLibHelper_nOnResume@@Base-0xa1076>
   1be80:	48 b8 5b 19 4d cb de 	movabs rax,0xdf9b1decb4d195b
   1be87:	b1 f9 0d 
   1be8a:	48 39 85 68 ff ff ff 	cmp    QWORD PTR [rbp-0x98],rax
   1be91:	0f 84 75 27 00 00    	je     1e60c <Java_com_adjust_sdk_sig_NativeLibHelper_nOnResume@@Base-0x9c697>
   1be97:	8a 45 ce             	mov    al,BYTE PTR [rbp-0x32]
   1be9a:	88 45 cf             	mov    BYTE PTR [rbp-0x31],al
   1be9d:	8a 45 cd             	mov    al,BYTE PTR [rbp-0x33]
   1bea0:	89 c6                	mov    esi,eax
   1bea2:	48 8b 85 50 ff ff ff 	mov    rax,QWORD PTR [rbp-0xb0]
   1bea9:	48 89 85 70 ff ff ff 	mov    QWORD PTR [rbp-0x90],rax
   1beb0:	48 8b 85 60 ff ff ff 	mov    rax,QWORD PTR [rbp-0xa0]
   1beb7:	48 89 85 78 ff ff ff 	mov    QWORD PTR [rbp-0x88],rax
   1bebe:	4c 89 f0             	mov    rax,r14
   1bec1:	4c 89 75 80          	mov    QWORD PTR [rbp-0x80],r14
   1bec5:	4c 89 4d 88          	mov    QWORD PTR [rbp-0x78],r9
   1bec9:	48 8b 85 48 ff ff ff 	mov    rax,QWORD PTR [rbp-0xb8]
   1bed0:	48 89 45 90          	mov    QWORD PTR [rbp-0x70],rax
   1bed4:	48 8b 85 58 ff ff ff 	mov    rax,QWORD PTR [rbp-0xa8]
   1bedb:	48 89 45 98          	mov    QWORD PTR [rbp-0x68],rax
   1bedf:	48 8b 85 30 ff ff ff 	mov    rax,QWORD PTR [rbp-0xd0]
   1bee6:	48 89 45 a0          	mov    QWORD PTR [rbp-0x60],rax
   1beea:	48 8b 85 28 ff ff ff 	mov    rax,QWORD PTR [rbp-0xd8]
   1bef1:	48 89 45 a8          	mov    QWORD PTR [rbp-0x58],rax
   1bef5:	48 8b 85 40 ff ff ff 	mov    rax,QWORD PTR [rbp-0xc0]
   1befc:	48 89 45 b0          	mov    QWORD PTR [rbp-0x50],rax
   1bf00:	48 8b 85 08 ff ff ff 	mov    rax,QWORD PTR [rbp-0xf8]
   1bf07:	48 8b 8d 10 ff ff ff 	mov    rcx,QWORD PTR [rbp-0xf0]
   1bf0e:	48 89 4d b8          	mov    QWORD PTR [rbp-0x48],rcx
   1bf12:	48 8b 8d 20 ff ff ff 	mov    rcx,QWORD PTR [rbp-0xe0]
   1bf19:	48 89 4d c0          	mov    QWORD PTR [rbp-0x40],rcx
   1bf1d:	4c 8b 9d 18 ff ff ff 	mov    r11,QWORD PTR [rbp-0xe8]
   1bf24:	4c 8b bd f8 fe ff ff 	mov    r15,QWORD PTR [rbp-0x108]
   1bf2b:	4c 8b ad f0 fe ff ff 	mov    r13,QWORD PTR [rbp-0x110]
   1bf32:	48 8b 9d 00 ff ff ff 	mov    rbx,QWORD PTR [rbp-0x100]
   1bf39:	4c 8b 95 38 ff ff ff 	mov    r10,QWORD PTR [rbp-0xc8]
   1bf40:	48 ba 77 9e 41 4a d8 	movabs rdx,0x1f8061d84a419e77
   1bf47:	61 80 1f 
   1bf4a:	49 bc 62 05 9d 9e 2a 	movabs r12,0xed7322a9e9d0562
   1bf51:	32 d7 0e 
   1bf54:	4c 39 a5 68 ff ff ff 	cmp    QWORD PTR [rbp-0x98],r12
   1bf5b:	0f 84 cc dc ff ff    	je     19c2d <Java_com_adjust_sdk_sig_NativeLibHelper_nOnResume@@Base-0xa1076>
   1bf61:	48 b8 64 ea 2a 3d ba 	movabs rax,0x10ad31ba3d2aea64
   1bf68:	31 ad 10 
   1bf6b:	48 39 85 68 ff ff ff 	cmp    QWORD PTR [rbp-0x98],rax
   1bf72:	0f 84 97 2e 00 00    	je     1ee0f <Java_com_adjust_sdk_sig_NativeLibHelper_nOnResume@@Base-0x9be94>
   1bf78:	48 b8 04 3c 23 00 d6 	movabs rax,0x10d621d600233c04
   1bf7f:	21 d6 10 
   1bf82:	48 39 85 68 ff ff ff 	cmp    QWORD PTR [rbp-0x98],rax
   1bf89:	44 8a 65 cd          	mov    r12b,BYTE PTR [rbp-0x33]
   1bf8d:	48 8b 9d 00 ff ff ff 	mov    rbx,QWORD PTR [rbp-0x100]
   1bf94:	4c 8b ad f0 fe ff ff 	mov    r13,QWORD PTR [rbp-0x110]
   1bf9b:	4c 8b bd f8 fe ff ff 	mov    r15,QWORD PTR [rbp-0x108]
   1bfa2:	0f 84 74 61 00 00    	je     2211c <Java_com_adjust_sdk_sig_NativeLibHelper_nOnResume@@Base-0x98b87>
   1bfa8:	48 b8 f2 a0 a6 1d 3d 	movabs rax,0x10e5703d1da6a0f2
   1bfaf:	70 e5 10 
   1bfb2:	48 39 85 68 ff ff ff 	cmp    QWORD PTR [rbp-0x98],rax
   1bfb9:	0f 84 22 5e 00 00    	je     21de1 <Java_com_adjust_sdk_sig_NativeLibHelper_nOnResume@@Base-0x98ec2>
   1bfbf:	48 b8 dc 00 41 ae 4e 	movabs rax,0x120aca4eae4100dc
   1bfc6:	ca 0a 12 
   1bfc9:	48 39 85 68 ff ff ff 	cmp    QWORD PTR [rbp-0x98],rax
   1bfd0:	0f 84 39 30 00 00    	je     1f00f <Java_com_adjust_sdk_sig_NativeLibHelper_nOnResume@@Base-0x9bc94>
   1bfd6:	48 b8 4b c4 0a 99 13 	movabs rax,0x13e17013990ac44b
   1bfdd:	70 e1 13 
   1bfe0:	48 39 85 68 ff ff ff 	cmp    QWORD PTR [rbp-0x98],rax
   1bfe7:	0f 84 48 3e 00 00    	je     1fe35 <Java_com_adjust_sdk_sig_NativeLibHelper_nOnResume@@Base-0x9ae6e>
   1bfed:	44 88 65 cf          	mov    BYTE PTR [rbp-0x31],r12b
   1bff1:	44 89 e6             	mov    esi,r12d
   1bff4:	48 8b 85 50 ff ff ff 	mov    rax,QWORD PTR [rbp-0xb0]
   1bffb:	48 89 85 70 ff ff ff 	mov    QWORD PTR [rbp-0x90],rax
   1c002:	48 8b 85 60 ff ff ff 	mov    rax,QWORD PTR [rbp-0xa0]
   1c009:	48 89 85 78 ff ff ff 	mov    QWORD PTR [rbp-0x88],rax
   1c010:	4c 89 f0             	mov    rax,r14
   1c013:	4c 89 75 80          	mov    QWORD PTR [rbp-0x80],r14
   1c017:	4c 89 4d 88          	mov    QWORD PTR [rbp-0x78],r9
   1c01b:	48 8b 85 48 ff ff ff 	mov    rax,QWORD PTR [rbp-0xb8]
   1c022:	48 89 45 90          	mov    QWORD PTR [rbp-0x70],rax
   1c026:	48 8b 85 58 ff ff ff 	mov    rax,QWORD PTR [rbp-0xa8]
   1c02d:	48 89 45 98          	mov    QWORD PTR [rbp-0x68],rax
   1c031:	48 8b 85 30 ff ff ff 	mov    rax,QWORD PTR [rbp-0xd0]
   1c038:	48 89 45 a0          	mov    QWORD PTR [rbp-0x60],rax
   1c03c:	48 8b 85 28 ff ff ff 	mov    rax,QWORD PTR [rbp-0xd8]
   1c043:	48 89 45 a8          	mov    QWORD PTR [rbp-0x58],rax
   1c047:	48 8b 85 40 ff ff ff 	mov    rax,QWORD PTR [rbp-0xc0]
   1c04e:	48 89 45 b0          	mov    QWORD PTR [rbp-0x50],rax
   1c052:	48 8b 85 08 ff ff ff 	mov    rax,QWORD PTR [rbp-0xf8]
   1c059:	48 8b 8d 10 ff ff ff 	mov    rcx,QWORD PTR [rbp-0xf0]
   1c060:	48 89 4d b8          	mov    QWORD PTR [rbp-0x48],rcx
   1c064:	48 8b 8d 20 ff ff ff 	mov    rcx,QWORD PTR [rbp-0xe0]
   1c06b:	48 89 4d c0          	mov    QWORD PTR [rbp-0x40],rcx
   1c06f:	4c 8b 9d 18 ff ff ff 	mov    r11,QWORD PTR [rbp-0xe8]
   1c076:	4c 8b 95 38 ff ff ff 	mov    r10,QWORD PTR [rbp-0xc8]
   1c07d:	48 ba d8 ef 61 2a b6 	movabs rdx,0x523f72b62a61efd8
   1c084:	72 3f 52 
   1c087:	49 bc 08 bf 53 4c b3 	movabs r12,0x177defb34c53bf08
   1c08e:	ef 7d 17 
   1c091:	4c 39 a5 68 ff ff ff 	cmp    QWORD PTR [rbp-0x98],r12
   1c098:	0f 84 8f db ff ff    	je     19c2d <Java_com_adjust_sdk_sig_NativeLibHelper_nOnResume@@Base-0xa1076>
   1c09e:	48 b8 20 00 88 a4 ce 	movabs rax,0x183b0ecea4880020
   1c0a5:	0e 3b 18 
   1c0a8:	48 39 85 68 ff ff ff 	cmp    QWORD PTR [rbp-0x98],rax
   1c0af:	0f 84 c3 5b 00 00    	je     21c78 <Java_com_adjust_sdk_sig_NativeLibHelper_nOnResume@@Base-0x9902b>
   1c0b5:	8a 45 ce             	mov    al,BYTE PTR [rbp-0x32]
   1c0b8:	88 45 cf             	mov    BYTE PTR [rbp-0x31],al
   1c0bb:	8a 45 cd             	mov    al,BYTE PTR [rbp-0x33]
   1c0be:	89 c6                	mov    esi,eax
   1c0c0:	48 8b 85 50 ff ff ff 	mov    rax,QWORD PTR [rbp-0xb0]
   1c0c7:	48 89 85 70 ff ff ff 	mov    QWORD PTR [rbp-0x90],rax
   1c0ce:	48 8b 85 60 ff ff ff 	mov    rax,QWORD PTR [rbp-0xa0]
   1c0d5:	48 89 85 78 ff ff ff 	mov    QWORD PTR [rbp-0x88],rax
   1c0dc:	4c 89 f0             	mov    rax,r14
   1c0df:	4c 89 75 80          	mov    QWORD PTR [rbp-0x80],r14
   1c0e3:	4c 89 4d 88          	mov    QWORD PTR [rbp-0x78],r9
   1c0e7:	48 8b 85 50 fe ff ff 	mov    rax,QWORD PTR [rbp-0x1b0]
   1c0ee:	48 89 45 90          	mov    QWORD PTR [rbp-0x70],rax
   1c0f2:	48 8b 85 58 ff ff ff 	mov    rax,QWORD PTR [rbp-0xa8]
   1c0f9:	48 89 45 98          	mov    QWORD PTR [rbp-0x68],rax
   1c0fd:	48 8b 85 30 ff ff ff 	mov    rax,QWORD PTR [rbp-0xd0]
   1c104:	48 89 45 a0          	mov    QWORD PTR [rbp-0x60],rax
   1c108:	48 8b 85 28 ff ff ff 	mov    rax,QWORD PTR [rbp-0xd8]
   1c10f:	48 89 45 a8          	mov    QWORD PTR [rbp-0x58],rax
   1c113:	48 8b 85 40 ff ff ff 	mov    rax,QWORD PTR [rbp-0xc0]
   1c11a:	48 89 45 b0          	mov    QWORD PTR [rbp-0x50],rax
   1c11e:	48 8b 85 08 ff ff ff 	mov    rax,QWORD PTR [rbp-0xf8]
   1c125:	48 8b 8d 10 ff ff ff 	mov    rcx,QWORD PTR [rbp-0xf0]
   1c12c:	48 89 4d b8          	mov    QWORD PTR [rbp-0x48],rcx
   1c130:	48 8b 8d 20 ff ff ff 	mov    rcx,QWORD PTR [rbp-0xe0]
   1c137:	48 89 4d c0          	mov    QWORD PTR [rbp-0x40],rcx
   1c13b:	4c 8b 9d 18 ff ff ff 	mov    r11,QWORD PTR [rbp-0xe8]
   1c142:	4c 8b bd f8 fe ff ff 	mov    r15,QWORD PTR [rbp-0x108]
   1c149:	4c 8b ad f0 fe ff ff 	mov    r13,QWORD PTR [rbp-0x110]
   1c150:	48 8b 9d 00 ff ff ff 	mov    rbx,QWORD PTR [rbp-0x100]
   1c157:	4c 8b 95 38 ff ff ff 	mov    r10,QWORD PTR [rbp-0xc8]
   1c15e:	48 ba 43 95 7e cf d7 	movabs rdx,0x73995fd7cf7e9543
   1c165:	5f 99 73 
   1c168:	49 bc b5 50 23 a4 b8 	movabs r12,0x18914bb8a42350b5
   1c16f:	4b 91 18 
   1c172:	4c 39 a5 68 ff ff ff 	cmp    QWORD PTR [rbp-0x98],r12
   1c179:	0f 84 ae da ff ff    	je     19c2d <Java_com_adjust_sdk_sig_NativeLibHelper_nOnResume@@Base-0xa1076>
   1c17f:	48 b8 e3 9e 1b f8 fd 	movabs rax,0x1bd2befdf81b9ee3
   1c186:	be d2 1b 
   1c189:	48 39 85 68 ff ff ff 	cmp    QWORD PTR [rbp-0x98],rax
   1c190:	0f 84 19 4f 00 00    	je     210af <Java_com_adjust_sdk_sig_NativeLibHelper_nOnResume@@Base-0x99bf4>
   1c196:	48 b8 72 70 99 84 23 	movabs rax,0x1c53132384997072
   1c19d:	13 53 1c 
   1c1a0:	48 39 85 68 ff ff ff 	cmp    QWORD PTR [rbp-0x98],rax
   1c1a7:	40 8a 75 cd          	mov    sil,BYTE PTR [rbp-0x33]
   1c1ab:	4c 8b 95 38 ff ff ff 	mov    r10,QWORD PTR [rbp-0xc8]
   1c1b2:	48 8b 9d 00 ff ff ff 	mov    rbx,QWORD PTR [rbp-0x100]
   1c1b9:	4c 8b ad f0 fe ff ff 	mov    r13,QWORD PTR [rbp-0x110]
   1c1c0:	4c 8b bd f8 fe ff ff 	mov    r15,QWORD PTR [rbp-0x108]
   1c1c7:	4c 8b 8d 18 ff ff ff 	mov    r9,QWORD PTR [rbp-0xe8]
   1c1ce:	4c 8b 85 20 ff ff ff 	mov    r8,QWORD PTR [rbp-0xe0]
   1c1d5:	48 8b bd 10 ff ff ff 	mov    rdi,QWORD PTR [rbp-0xf0]
   1c1dc:	48 8b 8d 08 ff ff ff 	mov    rcx,QWORD PTR [rbp-0xf8]
   1c1e3:	4c 8b a5 40 ff ff ff 	mov    r12,QWORD PTR [rbp-0xc0]
   1c1ea:	0f 84 2d 52 00 00    	je     2141d <Java_com_adjust_sdk_sig_NativeLibHelper_nOnResume@@Base-0x99886>
   1c1f0:	8a 45 ce             	mov    al,BYTE PTR [rbp-0x32]
   1c1f3:	88 45 cf             	mov    BYTE PTR [rbp-0x31],al
   1c1f6:	48 8b 85 50 ff ff ff 	mov    rax,QWORD PTR [rbp-0xb0]
   1c1fd:	48 89 85 70 ff ff ff 	mov    QWORD PTR [rbp-0x90],rax
   1c204:	48 8b 85 60 ff ff ff 	mov    rax,QWORD PTR [rbp-0xa0]
   1c20b:	48 89 85 78 ff ff ff 	mov    QWORD PTR [rbp-0x88],rax
   1c212:	4c 8b 9d e0 fe ff ff 	mov    r11,QWORD PTR [rbp-0x120]
   1c219:	4c 89 d8             	mov    rax,r11
   1c21c:	4c 89 5d 80          	mov    QWORD PTR [rbp-0x80],r11
   1c220:	48 8b 95 e8 fe ff ff 	mov    rdx,QWORD PTR [rbp-0x118]
   1c227:	48 89 55 88          	mov    QWORD PTR [rbp-0x78],rdx
   1c22b:	48 8b 85 48 ff ff ff 	mov    rax,QWORD PTR [rbp-0xb8]
   1c232:	48 89 45 90          	mov    QWORD PTR [rbp-0x70],rax
   1c236:	48 8b 85 58 ff ff ff 	mov    rax,QWORD PTR [rbp-0xa8]
   1c23d:	48 89 45 98          	mov    QWORD PTR [rbp-0x68],rax
   1c241:	48 8b 85 30 ff ff ff 	mov    rax,QWORD PTR [rbp-0xd0]
   1c248:	48 89 45 a0          	mov    QWORD PTR [rbp-0x60],rax
   1c24c:	48 8b 85 28 ff ff ff 	mov    rax,QWORD PTR [rbp-0xd8]
   1c253:	48 89 45 a8          	mov    QWORD PTR [rbp-0x58],rax
   1c257:	4c 89 65 b0          	mov    QWORD PTR [rbp-0x50],r12
   1c25b:	48 89 c8             	mov    rax,rcx
   1c25e:	48 89 7d b8          	mov    QWORD PTR [rbp-0x48],rdi
   1c262:	4c 89 45 c0          	mov    QWORD PTR [rbp-0x40],r8
   1c266:	4d 89 d8             	mov    r8,r11
   1c269:	4d 89 cb             	mov    r11,r9
   1c26c:	49 89 d1             	mov    r9,rdx
   1c26f:	48 ba b9 14 99 92 75 	movabs rdx,0xe73a0575929914b9
   1c276:	05 3a e7 
   1c279:	49 bc b3 7b 64 c7 99 	movabs r12,0x1e4c6299c7647bb3
   1c280:	62 4c 1e 
   1c283:	4c 39 a5 68 ff ff ff 	cmp    QWORD PTR [rbp-0x98],r12
   1c28a:	0f 84 9d d9 ff ff    	je     19c2d <Java_com_adjust_sdk_sig_NativeLibHelper_nOnResume@@Base-0xa1076>
   1c290:	48 b8 b6 4f 0c 15 e8 	movabs rax,0x1e7963e8150c4fb6
   1c297:	63 79 1e 
   1c29a:	48 39 85 68 ff ff ff 	cmp    QWORD PTR [rbp-0x98],rax
   1c2a1:	0f 84 ab 22 00 00    	je     1e552 <Java_com_adjust_sdk_sig_NativeLibHelper_nOnResume@@Base-0x9c751>
   1c2a7:	48 b8 3a 4b eb 22 9e 	movabs rax,0x1f0a569e22eb4b3a
   1c2ae:	56 0a 1f 
   1c2b1:	48 39 85 68 ff ff ff 	cmp    QWORD PTR [rbp-0x98],rax
   1c2b8:	44 8a 65 cd          	mov    r12b,BYTE PTR [rbp-0x33]
   1c2bc:	48 8b 9d 00 ff ff ff 	mov    rbx,QWORD PTR [rbp-0x100]
   1c2c3:	4c 8b ad f0 fe ff ff 	mov    r13,QWORD PTR [rbp-0x110]
   1c2ca:	4c 8b bd f8 fe ff ff 	mov    r15,QWORD PTR [rbp-0x108]
   1c2d1:	4c 8b 9d 28 ff ff ff 	mov    r11,QWORD PTR [rbp-0xd8]
   1c2d8:	48 8b 95 30 ff ff ff 	mov    rdx,QWORD PTR [rbp-0xd0]
   1c2df:	0f 84 d3 4b 00 00    	je     20eb8 <Java_com_adjust_sdk_sig_NativeLibHelper_nOnResume@@Base-0x99deb>
   1c2e5:	48 b8 77 9e 41 4a d8 	movabs rax,0x1f8061d84a419e77
   1c2ec:	61 80 1f 
   1c2ef:	48 39 85 68 ff ff ff 	cmp    QWORD PTR [rbp-0x98],rax
   1c2f6:	0f 84 d0 20 00 00    	je     1e3cc <Java_com_adjust_sdk_sig_NativeLibHelper_nOnResume@@Base-0x9c8d7>
   1c2fc:	48 b8 9c 11 e5 14 71 	movabs rax,0x202d4b7114e5119c
   1c303:	4b 2d 20 
   1c306:	48 39 85 68 ff ff ff 	cmp    QWORD PTR [rbp-0x98],rax
   1c30d:	0f 84 6d 23 00 00    	je     1e680 <Java_com_adjust_sdk_sig_NativeLibHelper_nOnResume@@Base-0x9c623>
   1c313:	48 b8 09 23 38 c1 b8 	movabs rax,0x2100f9b8c1382309
   1c31a:	f9 00 21 
   1c31d:	48 39 85 68 ff ff ff 	cmp    QWORD PTR [rbp-0x98],rax
   1c324:	0f 84 69 2e 00 00    	je     1f193 <Java_com_adjust_sdk_sig_NativeLibHelper_nOnResume@@Base-0x9bb10>
   1c32a:	48 b8 1d 25 e9 88 08 	movabs rax,0x21baec0888e9251d
   1c331:	ec ba 21 
   1c334:	48 39 85 68 ff ff ff 	cmp    QWORD PTR [rbp-0x98],rax
   1c33b:	0f 84 bf 44 00 00    	je     20800 <Java_com_adjust_sdk_sig_NativeLibHelper_nOnResume@@Base-0x9a4a3>
   1c341:	48 b8 52 a3 f6 b1 c9 	movabs rax,0x253b8dc9b1f6a352
   1c348:	8d 3b 25 
   1c34b:	48 39 85 68 ff ff ff 	cmp    QWORD PTR [rbp-0x98],rax
   1c352:	0f 84 e6 48 00 00    	je     20c3e <Java_com_adjust_sdk_sig_NativeLibHelper_nOnResume@@Base-0x9a065>
   1c358:	48 b8 ee fa 59 de bd 	movabs rax,0x26ac5cbdde59faee
   1c35f:	5c ac 26 
   1c362:	48 39 85 68 ff ff ff 	cmp    QWORD PTR [rbp-0x98],rax
   1c369:	0f 84 7e 41 00 00    	je     204ed <Java_com_adjust_sdk_sig_NativeLibHelper_nOnResume@@Base-0x9a7b6>
   1c36f:	8a 45 ce             	mov    al,BYTE PTR [rbp-0x32]
   1c372:	88 45 cf             	mov    BYTE PTR [rbp-0x31],al
   1c375:	44 89 e6             	mov    esi,r12d
   1c378:	48 8b 85 50 ff ff ff 	mov    rax,QWORD PTR [rbp-0xb0]
   1c37f:	48 89 85 70 ff ff ff 	mov    QWORD PTR [rbp-0x90],rax
   1c386:	48 8b 85 60 ff ff ff 	mov    rax,QWORD PTR [rbp-0xa0]
   1c38d:	48 89 85 78 ff ff ff 	mov    QWORD PTR [rbp-0x88],rax
   1c394:	4c 89 c0             	mov    rax,r8
   1c397:	4c 89 45 80          	mov    QWORD PTR [rbp-0x80],r8
   1c39b:	4c 89 4d 88          	mov    QWORD PTR [rbp-0x78],r9
   1c39f:	48 8b 85 48 ff ff ff 	mov    rax,QWORD PTR [rbp-0xb8]
   1c3a6:	48 89 45 90          	mov    QWORD PTR [rbp-0x70],rax
   1c3aa:	48 8b 85 58 ff ff ff 	mov    rax,QWORD PTR [rbp-0xa8]
   1c3b1:	48 89 45 98          	mov    QWORD PTR [rbp-0x68],rax
   1c3b5:	48 89 55 a0          	mov    QWORD PTR [rbp-0x60],rdx
   1c3b9:	4c 89 5d a8          	mov    QWORD PTR [rbp-0x58],r11
   1c3bd:	48 8b 85 40 ff ff ff 	mov    rax,QWORD PTR [rbp-0xc0]
   1c3c4:	48 89 45 b0          	mov    QWORD PTR [rbp-0x50],rax
   1c3c8:	48 8b 85 08 ff ff ff 	mov    rax,QWORD PTR [rbp-0xf8]
   1c3cf:	48 8b 8d 10 ff ff ff 	mov    rcx,QWORD PTR [rbp-0xf0]
   1c3d6:	48 89 4d b8          	mov    QWORD PTR [rbp-0x48],rcx
   1c3da:	48 8b 8d 20 ff ff ff 	mov    rcx,QWORD PTR [rbp-0xe0]
   1c3e1:	48 89 4d c0          	mov    QWORD PTR [rbp-0x40],rcx
   1c3e5:	4c 8b 9d 18 ff ff ff 	mov    r11,QWORD PTR [rbp-0xe8]
   1c3ec:	4c 8b 95 38 ff ff ff 	mov    r10,QWORD PTR [rbp-0xc8]
   1c3f3:	48 ba fa b1 98 15 30 	movabs rdx,0xe2c041301598b1fa
   1c3fa:	41 c0 e2 
   1c3fd:	49 bc a3 84 6c 40 6d 	movabs r12,0x2773b06d406c84a3
   1c404:	b0 73 27 
   1c407:	4c 39 a5 68 ff ff ff 	cmp    QWORD PTR [rbp-0x98],r12
   1c40e:	0f 84 19 d8 ff ff    	je     19c2d <Java_com_adjust_sdk_sig_NativeLibHelper_nOnResume@@Base-0xa1076>
   1c414:	48 b8 be da 80 96 f3 	movabs rax,0x29286ef39680dabe
   1c41b:	6e 28 29 
   1c41e:	48 39 85 68 ff ff ff 	cmp    QWORD PTR [rbp-0x98],rax
   1c425:	0f 84 56 52 00 00    	je     21681 <Java_com_adjust_sdk_sig_NativeLibHelper_nOnResume@@Base-0x99622>
   1c42b:	48 b8 96 b1 3e ba c2 	movabs rax,0x29d075c2ba3eb196
   1c432:	75 d0 29 
   1c435:	48 39 85 68 ff ff ff 	cmp    QWORD PTR [rbp-0x98],rax
   1c43c:	44 8a 65 cd          	mov    r12b,BYTE PTR [rbp-0x33]
   1c440:	48 8b 9d 00 ff ff ff 	mov    rbx,QWORD PTR [rbp-0x100]
   1c447:	4c 8b ad f0 fe ff ff 	mov    r13,QWORD PTR [rbp-0x110]
   1c44e:	4c 8b bd f8 fe ff ff 	mov    r15,QWORD PTR [rbp-0x108]
   1c455:	0f 84 33 56 00 00    	je     21a8e <Java_com_adjust_sdk_sig_NativeLibHelper_nOnResume@@Base-0x99215>
   1c45b:	48 b8 66 d9 14 87 7a 	movabs rax,0x2b6f8b7a8714d966
   1c462:	8b 6f 2b 
   1c465:	48 39 85 68 ff ff ff 	cmp    QWORD PTR [rbp-0x98],rax
   1c46c:	0f 84 42 22 00 00    	je     1e6b4 <Java_com_adjust_sdk_sig_NativeLibHelper_nOnResume@@Base-0x9c5ef>
   1c472:	8a 45 ce             	mov    al,BYTE PTR [rbp-0x32]
   1c475:	88 45 cf             	mov    BYTE PTR [rbp-0x31],al
   1c478:	44 89 e6             	mov    esi,r12d
   1c47b:	48 8b 85 50 ff ff ff 	mov    rax,QWORD PTR [rbp-0xb0]
   1c482:	48 89 85 70 ff ff ff 	mov    QWORD PTR [rbp-0x90],rax
   1c489:	48 8b 85 60 ff ff ff 	mov    rax,QWORD PTR [rbp-0xa0]
   1c490:	48 89 85 78 ff ff ff 	mov    QWORD PTR [rbp-0x88],rax
   1c497:	4c 89 c0             	mov    rax,r8
   1c49a:	4c 89 45 80          	mov    QWORD PTR [rbp-0x80],r8
   1c49e:	4c 89 4d 88          	mov    QWORD PTR [rbp-0x78],r9
   1c4a2:	48 8b 85 48 ff ff ff 	mov    rax,QWORD PTR [rbp-0xb8]
   1c4a9:	48 89 45 90          	mov    QWORD PTR [rbp-0x70],rax
   1c4ad:	48 8b 85 58 ff ff ff 	mov    rax,QWORD PTR [rbp-0xa8]
   1c4b4:	48 89 45 98          	mov    QWORD PTR [rbp-0x68],rax
   1c4b8:	48 8b 85 30 ff ff ff 	mov    rax,QWORD PTR [rbp-0xd0]
   1c4bf:	48 89 45 a0          	mov    QWORD PTR [rbp-0x60],rax
   1c4c3:	48 8b 85 28 ff ff ff 	mov    rax,QWORD PTR [rbp-0xd8]
   1c4ca:	48 89 45 a8          	mov    QWORD PTR [rbp-0x58],rax
   1c4ce:	48 8b 85 40 ff ff ff 	mov    rax,QWORD PTR [rbp-0xc0]
   1c4d5:	48 89 45 b0          	mov    QWORD PTR [rbp-0x50],rax
   1c4d9:	48 8b 85 08 ff ff ff 	mov    rax,QWORD PTR [rbp-0xf8]
   1c4e0:	48 8b 8d 10 ff ff ff 	mov    rcx,QWORD PTR [rbp-0xf0]
   1c4e7:	48 89 4d b8          	mov    QWORD PTR [rbp-0x48],rcx
   1c4eb:	48 8b 8d 20 ff ff ff 	mov    rcx,QWORD PTR [rbp-0xe0]
   1c4f2:	48 89 4d c0          	mov    QWORD PTR [rbp-0x40],rcx
   1c4f6:	4c 8b 9d 18 ff ff ff 	mov    r11,QWORD PTR [rbp-0xe8]
   1c4fd:	4c 8b 95 38 ff ff ff 	mov    r10,QWORD PTR [rbp-0xc8]
   1c504:	48 ba 5b 1b a8 e1 5c 	movabs rdx,0xb54bb05ce1a81b5b
   1c50b:	b0 4b b5 
   1c50e:	49 bc 35 65 fd 23 0a 	movabs r12,0x2c55ab0a23fd6535
   1c515:	ab 55 2c 
   1c518:	4c 39 a5 68 ff ff ff 	cmp    QWORD PTR [rbp-0x98],r12
   1c51f:	0f 84 08 d7 ff ff    	je     19c2d <Java_com_adjust_sdk_sig_NativeLibHelper_nOnResume@@Base-0xa1076>
   1c525:	8a 45 ce             	mov    al,BYTE PTR [rbp-0x32]
   1c528:	88 45 cf             	mov    BYTE PTR [rbp-0x31],al
   1c52b:	8a 45 cd             	mov    al,BYTE PTR [rbp-0x33]
   1c52e:	89 c6                	mov    esi,eax
   1c530:	48 8b 85 58 fe ff ff 	mov    rax,QWORD PTR [rbp-0x1a8]
   1c537:	48 89 85 70 ff ff ff 	mov    QWORD PTR [rbp-0x90],rax
   1c53e:	48 8b 85 60 ff ff ff 	mov    rax,QWORD PTR [rbp-0xa0]
   1c545:	48 89 85 78 ff ff ff 	mov    QWORD PTR [rbp-0x88],rax
   1c54c:	4c 89 c0             	mov    rax,r8
   1c54f:	4c 89 45 80          	mov    QWORD PTR [rbp-0x80],r8
   1c553:	4c 89 4d 88          	mov    QWORD PTR [rbp-0x78],r9
   1c557:	48 8b 85 48 ff ff ff 	mov    rax,QWORD PTR [rbp-0xb8]
   1c55e:	48 89 45 90          	mov    QWORD PTR [rbp-0x70],rax
   1c562:	48 8b 85 58 ff ff ff 	mov    rax,QWORD PTR [rbp-0xa8]
   1c569:	48 89 45 98          	mov    QWORD PTR [rbp-0x68],rax
   1c56d:	48 8b 85 30 ff ff ff 	mov    rax,QWORD PTR [rbp-0xd0]
   1c574:	48 89 45 a0          	mov    QWORD PTR [rbp-0x60],rax
   1c578:	48 8b 85 28 ff ff ff 	mov    rax,QWORD PTR [rbp-0xd8]
   1c57f:	48 89 45 a8          	mov    QWORD PTR [rbp-0x58],rax
   1c583:	48 8b 85 40 ff ff ff 	mov    rax,QWORD PTR [rbp-0xc0]
   1c58a:	48 89 45 b0          	mov    QWORD PTR [rbp-0x50],rax
   1c58e:	48 8b 85 08 ff ff ff 	mov    rax,QWORD PTR [rbp-0xf8]
   1c595:	48 8b 8d 10 ff ff ff 	mov    rcx,QWORD PTR [rbp-0xf0]
   1c59c:	48 89 4d b8          	mov    QWORD PTR [rbp-0x48],rcx
   1c5a0:	48 8b 8d 20 ff ff ff 	mov    rcx,QWORD PTR [rbp-0xe0]
   1c5a7:	48 89 4d c0          	mov    QWORD PTR [rbp-0x40],rcx
   1c5ab:	4c 8b 9d 18 ff ff ff 	mov    r11,QWORD PTR [rbp-0xe8]
   1c5b2:	4c 8b bd f8 fe ff ff 	mov    r15,QWORD PTR [rbp-0x108]
   1c5b9:	4c 8b ad f0 fe ff ff 	mov    r13,QWORD PTR [rbp-0x110]
   1c5c0:	48 8b 9d 00 ff ff ff 	mov    rbx,QWORD PTR [rbp-0x100]
   1c5c7:	4c 8b 95 38 ff ff ff 	mov    r10,QWORD PTR [rbp-0xc8]
   1c5ce:	48 ba 34 b6 9f 4a c7 	movabs rdx,0x81bb9c74a9fb634
   1c5d5:	b9 1b 08 
   1c5d8:	49 bc a4 46 b5 a0 ef 	movabs r12,0x2d4a63efa0b546a4
   1c5df:	63 4a 2d 
   1c5e2:	4c 39 a5 68 ff ff ff 	cmp    QWORD PTR [rbp-0x98],r12
   1c5e9:	0f 84 3e d6 ff ff    	je     19c2d <Java_com_adjust_sdk_sig_NativeLibHelper_nOnResume@@Base-0xa1076>
   1c5ef:	8a 45 ce             	mov    al,BYTE PTR [rbp-0x32]
   1c5f2:	88 45 cf             	mov    BYTE PTR [rbp-0x31],al
   1c5f5:	8a 45 cd             	mov    al,BYTE PTR [rbp-0x33]
   1c5f8:	89 c6                	mov    esi,eax
   1c5fa:	48 8b 85 50 ff ff ff 	mov    rax,QWORD PTR [rbp-0xb0]
   1c601:	48 89 85 70 ff ff ff 	mov    QWORD PTR [rbp-0x90],rax
   1c608:	48 8b 85 a8 fc ff ff 	mov    rax,QWORD PTR [rbp-0x358]
   1c60f:	48 89 85 78 ff ff ff 	mov    QWORD PTR [rbp-0x88],rax
   1c616:	4c 89 c0             	mov    rax,r8
   1c619:	4c 89 45 80          	mov    QWORD PTR [rbp-0x80],r8
   1c61d:	4c 89 4d 88          	mov    QWORD PTR [rbp-0x78],r9
   1c621:	48 8b 85 48 ff ff ff 	mov    rax,QWORD PTR [rbp-0xb8]
   1c628:	48 89 45 90          	mov    QWORD PTR [rbp-0x70],rax
   1c62c:	48 8b 85 58 ff ff ff 	mov    rax,QWORD PTR [rbp-0xa8]
   1c633:	48 89 45 98          	mov    QWORD PTR [rbp-0x68],rax
   1c637:	48 8b 85 30 ff ff ff 	mov    rax,QWORD PTR [rbp-0xd0]
   1c63e:	48 89 45 a0          	mov    QWORD PTR [rbp-0x60],rax
   1c642:	48 8b 85 28 ff ff ff 	mov    rax,QWORD PTR [rbp-0xd8]
   1c649:	48 89 45 a8          	mov    QWORD PTR [rbp-0x58],rax
   1c64d:	48 8b 85 40 ff ff ff 	mov    rax,QWORD PTR [rbp-0xc0]
   1c654:	48 89 45 b0          	mov    QWORD PTR [rbp-0x50],rax
   1c658:	48 8b 85 08 ff ff ff 	mov    rax,QWORD PTR [rbp-0xf8]
   1c65f:	48 8b 8d 10 ff ff ff 	mov    rcx,QWORD PTR [rbp-0xf0]
   1c666:	48 89 4d b8          	mov    QWORD PTR [rbp-0x48],rcx
   1c66a:	48 8b 8d 20 ff ff ff 	mov    rcx,QWORD PTR [rbp-0xe0]
   1c671:	48 89 4d c0          	mov    QWORD PTR [rbp-0x40],rcx
   1c675:	4c 8b 9d 18 ff ff ff 	mov    r11,QWORD PTR [rbp-0xe8]
   1c67c:	4c 8b bd f8 fe ff ff 	mov    r15,QWORD PTR [rbp-0x108]
   1c683:	4c 8b ad f0 fe ff ff 	mov    r13,QWORD PTR [rbp-0x110]
   1c68a:	48 8b 9d 00 ff ff ff 	mov    rbx,QWORD PTR [rbp-0x100]
   1c691:	4c 8b 95 38 ff ff ff 	mov    r10,QWORD PTR [rbp-0xc8]
   1c698:	48 ba 6e a0 2e a8 8f 	movabs rdx,0xd079868fa82ea06e
   1c69f:	86 79 d0 
   1c6a2:	49 bc 11 bf 9a c2 6a 	movabs r12,0x2dc2fb6ac29abf11
   1c6a9:	fb c2 2d 
   1c6ac:	4c 39 a5 68 ff ff ff 	cmp    QWORD PTR [rbp-0x98],r12
   1c6b3:	0f 84 74 d5 ff ff    	je     19c2d <Java_com_adjust_sdk_sig_NativeLibHelper_nOnResume@@Base-0xa1076>
   1c6b9:	48 b8 f8 fc 34 b4 fd 	movabs rax,0x30499efdb434fcf8
   1c6c0:	9e 49 30 
   1c6c3:	48 39 85 68 ff ff ff 	cmp    QWORD PTR [rbp-0x98],rax
   1c6ca:	0f 84 9d 36 00 00    	je     1fd6d <Java_com_adjust_sdk_sig_NativeLibHelper_nOnResume@@Base-0x9af36>
   1c6d0:	48 b8 0a 30 93 f3 ce 	movabs rax,0x31714ecef393300a
   1c6d7:	4e 71 31 
   1c6da:	48 39 85 68 ff ff ff 	cmp    QWORD PTR [rbp-0x98],rax
   1c6e1:	44 8a 65 cd          	mov    r12b,BYTE PTR [rbp-0x33]
   1c6e5:	48 8b 9d 00 ff ff ff 	mov    rbx,QWORD PTR [rbp-0x100]
   1c6ec:	4c 8b ad f0 fe ff ff 	mov    r13,QWORD PTR [rbp-0x110]
   1c6f3:	4c 8b bd f8 fe ff ff 	mov    r15,QWORD PTR [rbp-0x108]
   1c6fa:	0f 84 15 21 00 00    	je     1e815 <Java_com_adjust_sdk_sig_NativeLibHelper_nOnResume@@Base-0x9c48e>
   1c700:	48 b8 fc e8 ca 90 f4 	movabs rax,0x33a5ddf490cae8fc
   1c707:	dd a5 33 
   1c70a:	48 39 85 68 ff ff ff 	cmp    QWORD PTR [rbp-0x98],rax
   1c711:	4c 8b 9d 28 ff ff ff 	mov    r11,QWORD PTR [rbp-0xd8]
   1c718:	48 8b 8d 30 ff ff ff 	mov    rcx,QWORD PTR [rbp-0xd0]
   1c71f:	0f 84 c8 4d 00 00    	je     214ed <Java_com_adjust_sdk_sig_NativeLibHelper_nOnResume@@Base-0x997b6>
   1c725:	48 b8 5f fd 73 55 3e 	movabs rax,0x33b6223e5573fd5f
   1c72c:	22 b6 33 
   1c72f:	48 39 85 68 ff ff ff 	cmp    QWORD PTR [rbp-0x98],rax
   1c736:	0f 84 cb 23 00 00    	je     1eb07 <Java_com_adjust_sdk_sig_NativeLibHelper_nOnResume@@Base-0x9c19c>
   1c73c:	48 b8 2a 48 2d 2e be 	movabs rax,0x34f000be2e2d482a
   1c743:	00 f0 34 
   1c746:	48 39 85 68 ff ff ff 	cmp    QWORD PTR [rbp-0x98],rax
   1c74d:	0f 84 3d 31 00 00    	je     1f890 <Java_com_adjust_sdk_sig_NativeLibHelper_nOnResume@@Base-0x9b413>
   1c753:	48 b8 de a6 c1 dc 00 	movabs rax,0x36024800dcc1a6de
   1c75a:	48 02 36 
   1c75d:	48 39 85 68 ff ff ff 	cmp    QWORD PTR [rbp-0x98],rax
   1c764:	0f 84 8d 39 00 00    	je     200f7 <Java_com_adjust_sdk_sig_NativeLibHelper_nOnResume@@Base-0x9abac>
   1c76a:	48 b8 a0 68 b2 a8 5c 	movabs rax,0x36fd975ca8b268a0
   1c771:	97 fd 36 
   1c774:	48 39 85 68 ff ff ff 	cmp    QWORD PTR [rbp-0x98],rax
   1c77b:	0f 84 8b 4b 00 00    	je     2130c <Java_com_adjust_sdk_sig_NativeLibHelper_nOnResume@@Base-0x99997>
   1c781:	8a 45 ce             	mov    al,BYTE PTR [rbp-0x32]
   1c784:	88 45 cf             	mov    BYTE PTR [rbp-0x31],al
   1c787:	44 89 e6             	mov    esi,r12d
   1c78a:	48 8b 85 50 ff ff ff 	mov    rax,QWORD PTR [rbp-0xb0]
   1c791:	48 89 85 70 ff ff ff 	mov    QWORD PTR [rbp-0x90],rax
   1c798:	48 8b 85 60 ff ff ff 	mov    rax,QWORD PTR [rbp-0xa0]
   1c79f:	48 89 85 78 ff ff ff 	mov    QWORD PTR [rbp-0x88],rax
   1c7a6:	4c 89 c0             	mov    rax,r8
   1c7a9:	4c 89 45 80          	mov    QWORD PTR [rbp-0x80],r8
   1c7ad:	4c 89 4d 88          	mov    QWORD PTR [rbp-0x78],r9
   1c7b1:	48 8b 85 48 ff ff ff 	mov    rax,QWORD PTR [rbp-0xb8]
   1c7b8:	48 89 45 90          	mov    QWORD PTR [rbp-0x70],rax
   1c7bc:	48 8b 85 58 ff ff ff 	mov    rax,QWORD PTR [rbp-0xa8]
   1c7c3:	48 89 45 98          	mov    QWORD PTR [rbp-0x68],rax
   1c7c7:	48 89 4d a0          	mov    QWORD PTR [rbp-0x60],rcx
   1c7cb:	4c 89 5d a8          	mov    QWORD PTR [rbp-0x58],r11
   1c7cf:	48 8b 85 40 ff ff ff 	mov    rax,QWORD PTR [rbp-0xc0]
   1c7d6:	48 89 45 b0          	mov    QWORD PTR [rbp-0x50],rax
   1c7da:	48 8b 85 08 ff ff ff 	mov    rax,QWORD PTR [rbp-0xf8]
   1c7e1:	48 8b 8d 10 ff ff ff 	mov    rcx,QWORD PTR [rbp-0xf0]
   1c7e8:	48 89 4d b8          	mov    QWORD PTR [rbp-0x48],rcx
   1c7ec:	48 8b 8d 20 ff ff ff 	mov    rcx,QWORD PTR [rbp-0xe0]
   1c7f3:	48 89 4d c0          	mov    QWORD PTR [rbp-0x40],rcx
   1c7f7:	4c 8b 9d 18 ff ff ff 	mov    r11,QWORD PTR [rbp-0xe8]
   1c7fe:	4c 8b 95 38 ff ff ff 	mov    r10,QWORD PTR [rbp-0xc8]
   1c805:	48 ba c9 fa 9c 1b 2d 	movabs rdx,0x654c132d1b9cfac9
   1c80c:	13 4c 65 
   1c80f:	49 bc 01 e1 5e 0e ec 	movabs r12,0x3864c6ec0e5ee101
   1c816:	c6 64 38 
   1c819:	4c 39 a5 68 ff ff ff 	cmp    QWORD PTR [rbp-0x98],r12
   1c820:	0f 84 07 d4 ff ff    	je     19c2d <Java_com_adjust_sdk_sig_NativeLibHelper_nOnResume@@Base-0xa1076>
   1c826:	48 b8 50 bc 28 be a9 	movabs rax,0x3ba140a9be28bc50
   1c82d:	40 a1 3b 
   1c830:	48 39 85 68 ff ff ff 	cmp    QWORD PTR [rbp-0x98],rax
   1c837:	0f 84 f0 26 00 00    	je     1ef2d <Java_com_adjust_sdk_sig_NativeLibHelper_nOnResume@@Base-0x9bd76>
   1c83d:	8a 45 ce             	mov    al,BYTE PTR [rbp-0x32]
   1c840:	88 45 cf             	mov    BYTE PTR [rbp-0x31],al
   1c843:	8a 45 cd             	mov    al,BYTE PTR [rbp-0x33]
   1c846:	89 c6                	mov    esi,eax
   1c848:	48 8b 85 50 ff ff ff 	mov    rax,QWORD PTR [rbp-0xb0]
   1c84f:	48 89 85 70 ff ff ff 	mov    QWORD PTR [rbp-0x90],rax
   1c856:	48 8b 85 60 ff ff ff 	mov    rax,QWORD PTR [rbp-0xa0]
   1c85d:	48 89 85 78 ff ff ff 	mov    QWORD PTR [rbp-0x88],rax
   1c864:	4c 89 c0             	mov    rax,r8
   1c867:	4c 89 45 80          	mov    QWORD PTR [rbp-0x80],r8
   1c86b:	4c 89 4d 88          	mov    QWORD PTR [rbp-0x78],r9
   1c86f:	48 8b 85 48 ff ff ff 	mov    rax,QWORD PTR [rbp-0xb8]
   1c876:	48 89 45 90          	mov    QWORD PTR [rbp-0x70],rax
   1c87a:	48 8b 85 58 ff ff ff 	mov    rax,QWORD PTR [rbp-0xa8]
   1c881:	48 89 45 98          	mov    QWORD PTR [rbp-0x68],rax
   1c885:	48 8b 85 30 ff ff ff 	mov    rax,QWORD PTR [rbp-0xd0]
   1c88c:	48 89 45 a0          	mov    QWORD PTR [rbp-0x60],rax
   1c890:	48 8b 85 28 ff ff ff 	mov    rax,QWORD PTR [rbp-0xd8]
   1c897:	48 89 45 a8          	mov    QWORD PTR [rbp-0x58],rax
   1c89b:	48 8b 85 40 ff ff ff 	mov    rax,QWORD PTR [rbp-0xc0]
   1c8a2:	48 89 45 b0          	mov    QWORD PTR [rbp-0x50],rax
   1c8a6:	48 8b 85 08 ff ff ff 	mov    rax,QWORD PTR [rbp-0xf8]
   1c8ad:	48 8b 8d 10 ff ff ff 	mov    rcx,QWORD PTR [rbp-0xf0]
   1c8b4:	48 89 4d b8          	mov    QWORD PTR [rbp-0x48],rcx
   1c8b8:	48 8b 8d 20 ff ff ff 	mov    rcx,QWORD PTR [rbp-0xe0]
   1c8bf:	48 89 4d c0          	mov    QWORD PTR [rbp-0x40],rcx
   1c8c3:	4c 8b 9d 18 ff ff ff 	mov    r11,QWORD PTR [rbp-0xe8]
   1c8ca:	4c 8b bd f8 fe ff ff 	mov    r15,QWORD PTR [rbp-0x108]
   1c8d1:	4c 8b ad b0 fc ff ff 	mov    r13,QWORD PTR [rbp-0x350]
   1c8d8:	48 8b 9d b8 fc ff ff 	mov    rbx,QWORD PTR [rbp-0x348]
   1c8df:	4c 8b 95 38 ff ff ff 	mov    r10,QWORD PTR [rbp-0xc8]
   1c8e6:	48 ba c4 4d 71 da bc 	movabs rdx,0xbe1ec9bcda714dc4
   1c8ed:	c9 1e be 
   1c8f0:	49 bc ca 56 76 0e 45 	movabs r12,0x3e5bb6450e7656ca
   1c8f7:	b6 5b 3e 
   1c8fa:	4c 39 a5 68 ff ff ff 	cmp    QWORD PTR [rbp-0x98],r12
   1c901:	0f 84 26 d3 ff ff    	je     19c2d <Java_com_adjust_sdk_sig_NativeLibHelper_nOnResume@@Base-0xa1076>
   1c907:	48 b8 82 8d 0c a7 ea 	movabs rax,0x43c03deaa70c8d82
   1c90e:	3d c0 43 
   1c911:	48 39 85 68 ff ff ff 	cmp    QWORD PTR [rbp-0x98],rax
   1c918:	0f 84 f7 48 00 00    	je     21215 <Java_com_adjust_sdk_sig_NativeLibHelper_nOnResume@@Base-0x99a8e>
   1c91e:	8a 45 ce             	mov    al,BYTE PTR [rbp-0x32]
   1c921:	88 45 cf             	mov    BYTE PTR [rbp-0x31],al
   1c924:	8a 45 cd             	mov    al,BYTE PTR [rbp-0x33]
   1c927:	89 c6                	mov    esi,eax
   1c929:	48 8b 85 50 ff ff ff 	mov    rax,QWORD PTR [rbp-0xb0]
   1c930:	48 89 85 70 ff ff ff 	mov    QWORD PTR [rbp-0x90],rax
   1c937:	48 8b 85 60 ff ff ff 	mov    rax,QWORD PTR [rbp-0xa0]
   1c93e:	48 89 85 78 ff ff ff 	mov    QWORD PTR [rbp-0x88],rax
   1c945:	4c 89 c0             	mov    rax,r8
   1c948:	4c 89 45 80          	mov    QWORD PTR [rbp-0x80],r8
   1c94c:	4c 89 4d 88          	mov    QWORD PTR [rbp-0x78],r9
   1c950:	48 8b 85 48 ff ff ff 	mov    rax,QWORD PTR [rbp-0xb8]
   1c957:	48 89 45 90          	mov    QWORD PTR [rbp-0x70],rax
   1c95b:	48 8b 85 58 ff ff ff 	mov    rax,QWORD PTR [rbp-0xa8]
   1c962:	48 89 45 98          	mov    QWORD PTR [rbp-0x68],rax
   1c966:	48 8b 85 30 ff ff ff 	mov    rax,QWORD PTR [rbp-0xd0]
   1c96d:	48 89 45 a0          	mov    QWORD PTR [rbp-0x60],rax
   1c971:	48 8b 85 28 ff ff ff 	mov    rax,QWORD PTR [rbp-0xd8]
   1c978:	48 89 45 a8          	mov    QWORD PTR [rbp-0x58],rax
   1c97c:	48 8b 85 40 ff ff ff 	mov    rax,QWORD PTR [rbp-0xc0]
   1c983:	48 89 45 b0          	mov    QWORD PTR [rbp-0x50],rax
   1c987:	48 8b 85 08 ff ff ff 	mov    rax,QWORD PTR [rbp-0xf8]
   1c98e:	48 8b bd 60 fe ff ff 	mov    rdi,QWORD PTR [rbp-0x1a0]
   1c995:	48 89 7d b8          	mov    QWORD PTR [rbp-0x48],rdi
   1c999:	48 8b 8d 20 ff ff ff 	mov    rcx,QWORD PTR [rbp-0xe0]
   1c9a0:	48 89 4d c0          	mov    QWORD PTR [rbp-0x40],rcx
   1c9a4:	4c 8b 9d 18 ff ff ff 	mov    r11,QWORD PTR [rbp-0xe8]
   1c9ab:	4c 8b bd f8 fe ff ff 	mov    r15,QWORD PTR [rbp-0x108]
   1c9b2:	4c 8b ad f0 fe ff ff 	mov    r13,QWORD PTR [rbp-0x110]
   1c9b9:	48 8b 9d 00 ff ff ff 	mov    rbx,QWORD PTR [rbp-0x100]
   1c9c0:	4c 8b 95 38 ff ff ff 	mov    r10,QWORD PTR [rbp-0xc8]
   1c9c7:	48 ba db be 77 62 ce 	movabs rdx,0xfb0b6cce6277bedb
   1c9ce:	6c 0b fb 
   1c9d1:	49 bc 23 b3 0e c6 83 	movabs r12,0x441bef83c60eb323
   1c9d8:	ef 1b 44 
   1c9db:	4c 39 a5 68 ff ff ff 	cmp    QWORD PTR [rbp-0x98],r12
   1c9e2:	0f 84 45 d2 ff ff    	je     19c2d <Java_com_adjust_sdk_sig_NativeLibHelper_nOnResume@@Base-0xa1076>
   1c9e8:	8a 45 ce             	mov    al,BYTE PTR [rbp-0x32]
   1c9eb:	88 45 cf             	mov    BYTE PTR [rbp-0x31],al
   1c9ee:	8a 45 cd             	mov    al,BYTE PTR [rbp-0x33]
   1c9f1:	89 c6                	mov    esi,eax
   1c9f3:	48 8b 85 50 ff ff ff 	mov    rax,QWORD PTR [rbp-0xb0]
   1c9fa:	48 89 85 70 ff ff ff 	mov    QWORD PTR [rbp-0x90],rax
   1ca01:	48 8b 85 60 ff ff ff 	mov    rax,QWORD PTR [rbp-0xa0]
   1ca08:	48 89 85 78 ff ff ff 	mov    QWORD PTR [rbp-0x88],rax
   1ca0f:	4c 89 c0             	mov    rax,r8
   1ca12:	4c 89 45 80          	mov    QWORD PTR [rbp-0x80],r8
   1ca16:	4c 89 4d 88          	mov    QWORD PTR [rbp-0x78],r9
   1ca1a:	48 8b 85 48 ff ff ff 	mov    rax,QWORD PTR [rbp-0xb8]
   1ca21:	48 89 45 90          	mov    QWORD PTR [rbp-0x70],rax
   1ca25:	48 8b 85 58 ff ff ff 	mov    rax,QWORD PTR [rbp-0xa8]
   1ca2c:	48 89 45 98          	mov    QWORD PTR [rbp-0x68],rax
   1ca30:	48 8b 85 30 ff ff ff 	mov    rax,QWORD PTR [rbp-0xd0]
   1ca37:	48 89 45 a0          	mov    QWORD PTR [rbp-0x60],rax
   1ca3b:	48 8b 85 28 ff ff ff 	mov    rax,QWORD PTR [rbp-0xd8]
   1ca42:	48 89 45 a8          	mov    QWORD PTR [rbp-0x58],rax
   1ca46:	48 8b 85 40 ff ff ff 	mov    rax,QWORD PTR [rbp-0xc0]
   1ca4d:	48 89 45 b0          	mov    QWORD PTR [rbp-0x50],rax
   1ca51:	48 8b 85 08 ff ff ff 	mov    rax,QWORD PTR [rbp-0xf8]
   1ca58:	48 8b 8d 10 ff ff ff 	mov    rcx,QWORD PTR [rbp-0xf0]
   1ca5f:	48 89 4d b8          	mov    QWORD PTR [rbp-0x48],rcx
   1ca63:	48 8b 8d 20 ff ff ff 	mov    rcx,QWORD PTR [rbp-0xe0]
   1ca6a:	48 89 4d c0          	mov    QWORD PTR [rbp-0x40],rcx
   1ca6e:	4c 8b 9d 18 ff ff ff 	mov    r11,QWORD PTR [rbp-0xe8]
   1ca75:	4c 8b bd f8 fe ff ff 	mov    r15,QWORD PTR [rbp-0x108]
   1ca7c:	4c 8b ad f0 fe ff ff 	mov    r13,QWORD PTR [rbp-0x110]
   1ca83:	48 8b 9d 00 ff ff ff 	mov    rbx,QWORD PTR [rbp-0x100]
   1ca8a:	4c 8b 95 38 ff ff ff 	mov    r10,QWORD PTR [rbp-0xc8]
   1ca91:	48 ba 29 b0 b2 48 32 	movabs rdx,0x5d78403248b2b029
   1ca98:	40 78 5d 
   1ca9b:	49 bc e5 ce 16 49 0d 	movabs r12,0x466ba40d4916cee5
   1caa2:	a4 6b 46 
   1caa5:	4c 39 a5 68 ff ff ff 	cmp    QWORD PTR [rbp-0x98],r12
   1caac:	0f 84 7b d1 ff ff    	je     19c2d <Java_com_adjust_sdk_sig_NativeLibHelper_nOnResume@@Base-0xa1076>
   1cab2:	8a 45 ce             	mov    al,BYTE PTR [rbp-0x32]
   1cab5:	88 45 cf             	mov    BYTE PTR [rbp-0x31],al
   1cab8:	8a 45 cd             	mov    al,BYTE PTR [rbp-0x33]
   1cabb:	89 c6                	mov    esi,eax
   1cabd:	48 8b 85 50 ff ff ff 	mov    rax,QWORD PTR [rbp-0xb0]
   1cac4:	48 89 85 70 ff ff ff 	mov    QWORD PTR [rbp-0x90],rax
   1cacb:	48 8b 85 60 ff ff ff 	mov    rax,QWORD PTR [rbp-0xa0]
   1cad2:	48 89 85 78 ff ff ff 	mov    QWORD PTR [rbp-0x88],rax
   1cad9:	4c 89 c0             	mov    rax,r8
   1cadc:	4c 89 45 80          	mov    QWORD PTR [rbp-0x80],r8
   1cae0:	4c 89 4d 88          	mov    QWORD PTR [rbp-0x78],r9
   1cae4:	48 8b 85 48 ff ff ff 	mov    rax,QWORD PTR [rbp-0xb8]
   1caeb:	48 89 45 90          	mov    QWORD PTR [rbp-0x70],rax
   1caef:	48 8b 85 58 ff ff ff 	mov    rax,QWORD PTR [rbp-0xa8]
   1caf6:	48 89 45 98          	mov    QWORD PTR [rbp-0x68],rax
   1cafa:	48 8b 85 30 ff ff ff 	mov    rax,QWORD PTR [rbp-0xd0]
   1cb01:	48 89 45 a0          	mov    QWORD PTR [rbp-0x60],rax
   1cb05:	48 8b 85 28 ff ff ff 	mov    rax,QWORD PTR [rbp-0xd8]
   1cb0c:	48 89 45 a8          	mov    QWORD PTR [rbp-0x58],rax
   1cb10:	48 8b 85 40 ff ff ff 	mov    rax,QWORD PTR [rbp-0xc0]
   1cb17:	48 89 45 b0          	mov    QWORD PTR [rbp-0x50],rax
   1cb1b:	48 8b 85 08 ff ff ff 	mov    rax,QWORD PTR [rbp-0xf8]
   1cb22:	48 8b 8d 10 ff ff ff 	mov    rcx,QWORD PTR [rbp-0xf0]
   1cb29:	48 89 4d b8          	mov    QWORD PTR [rbp-0x48],rcx
   1cb2d:	48 8b 8d 20 ff ff ff 	mov    rcx,QWORD PTR [rbp-0xe0]
   1cb34:	48 89 4d c0          	mov    QWORD PTR [rbp-0x40],rcx
   1cb38:	4c 8b 9d 18 ff ff ff 	mov    r11,QWORD PTR [rbp-0xe8]
   1cb3f:	4c 8b bd f8 fe ff ff 	mov    r15,QWORD PTR [rbp-0x108]
   1cb46:	4c 8b ad f0 fe ff ff 	mov    r13,QWORD PTR [rbp-0x110]
   1cb4d:	48 8b 9d 00 ff ff ff 	mov    rbx,QWORD PTR [rbp-0x100]
   1cb54:	4c 8b 95 38 ff ff ff 	mov    r10,QWORD PTR [rbp-0xc8]
   1cb5b:	48 ba a4 46 b5 a0 ef 	movabs rdx,0x2d4a63efa0b546a4
   1cb62:	63 4a 2d 
   1cb65:	49 bc 34 4e 4f bf 57 	movabs r12,0x4775c857bf4f4e34
   1cb6c:	c8 75 47 
   1cb6f:	4c 39 a5 68 ff ff ff 	cmp    QWORD PTR [rbp-0x98],r12
   1cb76:	0f 84 b1 d0 ff ff    	je     19c2d <Java_com_adjust_sdk_sig_NativeLibHelper_nOnResume@@Base-0xa1076>
   1cb7c:	48 b8 ac 98 db cb 66 	movabs rax,0x48b31966cbdb98ac
   1cb83:	19 b3 48 
   1cb86:	48 39 85 68 ff ff ff 	cmp    QWORD PTR [rbp-0x98],rax
   1cb8d:	0f 84 de 43 00 00    	je     20f71 <Java_com_adjust_sdk_sig_NativeLibHelper_nOnResume@@Base-0x99d32>
   1cb93:	8a 45 ce             	mov    al,BYTE PTR [rbp-0x32]
   1cb96:	88 45 cf             	mov    BYTE PTR [rbp-0x31],al
   1cb99:	8a 45 cd             	mov    al,BYTE PTR [rbp-0x33]
   1cb9c:	89 c6                	mov    esi,eax
   1cb9e:	48 8b 85 50 ff ff ff 	mov    rax,QWORD PTR [rbp-0xb0]
   1cba5:	48 89 85 70 ff ff ff 	mov    QWORD PTR [rbp-0x90],rax
   1cbac:	48 8b 85 60 ff ff ff 	mov    rax,QWORD PTR [rbp-0xa0]
   1cbb3:	48 89 85 78 ff ff ff 	mov    QWORD PTR [rbp-0x88],rax
   1cbba:	4c 89 c0             	mov    rax,r8
   1cbbd:	4c 89 45 80          	mov    QWORD PTR [rbp-0x80],r8
   1cbc1:	4c 89 4d 88          	mov    QWORD PTR [rbp-0x78],r9
   1cbc5:	48 8b 85 48 ff ff ff 	mov    rax,QWORD PTR [rbp-0xb8]
   1cbcc:	48 89 45 90          	mov    QWORD PTR [rbp-0x70],rax
   1cbd0:	48 8b 85 58 ff ff ff 	mov    rax,QWORD PTR [rbp-0xa8]
   1cbd7:	48 89 45 98          	mov    QWORD PTR [rbp-0x68],rax
   1cbdb:	48 8b 85 30 ff ff ff 	mov    rax,QWORD PTR [rbp-0xd0]
   1cbe2:	48 89 45 a0          	mov    QWORD PTR [rbp-0x60],rax
   1cbe6:	48 8b 85 28 ff ff ff 	mov    rax,QWORD PTR [rbp-0xd8]
   1cbed:	48 89 45 a8          	mov    QWORD PTR [rbp-0x58],rax
   1cbf1:	48 8b 85 40 ff ff ff 	mov    rax,QWORD PTR [rbp-0xc0]
   1cbf8:	48 89 45 b0          	mov    QWORD PTR [rbp-0x50],rax
   1cbfc:	48 8b 85 08 ff ff ff 	mov    rax,QWORD PTR [rbp-0xf8]
   1cc03:	48 8b 8d 10 ff ff ff 	mov    rcx,QWORD PTR [rbp-0xf0]
   1cc0a:	48 89 4d b8          	mov    QWORD PTR [rbp-0x48],rcx
   1cc0e:	48 8b 8d 20 ff ff ff 	mov    rcx,QWORD PTR [rbp-0xe0]
   1cc15:	48 89 4d c0          	mov    QWORD PTR [rbp-0x40],rcx
   1cc19:	4c 8b 9d 18 ff ff ff 	mov    r11,QWORD PTR [rbp-0xe8]
   1cc20:	4c 8b bd f8 fe ff ff 	mov    r15,QWORD PTR [rbp-0x108]
   1cc27:	4c 8b ad f0 fe ff ff 	mov    r13,QWORD PTR [rbp-0x110]
   1cc2e:	48 8b 9d 00 ff ff ff 	mov    rbx,QWORD PTR [rbp-0x100]
   1cc35:	4c 8b 95 38 ff ff ff 	mov    r10,QWORD PTR [rbp-0xc8]
   1cc3c:	48 ba bc 5b fe 7c ef 	movabs rdx,0xbee440ef7cfe5bbc
   1cc43:	40 e4 be 
   1cc46:	49 bc 80 ec f1 25 bc 	movabs r12,0x4bba50bc25f1ec80
   1cc4d:	50 ba 4b 
   1cc50:	4c 39 a5 68 ff ff ff 	cmp    QWORD PTR [rbp-0x98],r12
   1cc57:	0f 84 d0 cf ff ff    	je     19c2d <Java_com_adjust_sdk_sig_NativeLibHelper_nOnResume@@Base-0xa1076>
   1cc5d:	8a 45 ce             	mov    al,BYTE PTR [rbp-0x32]
   1cc60:	88 45 cf             	mov    BYTE PTR [rbp-0x31],al
   1cc63:	8a 45 cd             	mov    al,BYTE PTR [rbp-0x33]
   1cc66:	89 c6                	mov    esi,eax
   1cc68:	48 8b 85 50 ff ff ff 	mov    rax,QWORD PTR [rbp-0xb0]
   1cc6f:	48 89 85 70 ff ff ff 	mov    QWORD PTR [rbp-0x90],rax
   1cc76:	48 8b 85 60 ff ff ff 	mov    rax,QWORD PTR [rbp-0xa0]
   1cc7d:	48 89 85 78 ff ff ff 	mov    QWORD PTR [rbp-0x88],rax
   1cc84:	4c 89 c0             	mov    rax,r8
   1cc87:	4c 89 45 80          	mov    QWORD PTR [rbp-0x80],r8
   1cc8b:	4c 89 4d 88          	mov    QWORD PTR [rbp-0x78],r9
   1cc8f:	48 8b 85 48 ff ff ff 	mov    rax,QWORD PTR [rbp-0xb8]
   1cc96:	48 89 45 90          	mov    QWORD PTR [rbp-0x70],rax
   1cc9a:	48 8b 85 58 ff ff ff 	mov    rax,QWORD PTR [rbp-0xa8]
   1cca1:	48 89 45 98          	mov    QWORD PTR [rbp-0x68],rax
   1cca5:	48 8b 85 30 ff ff ff 	mov    rax,QWORD PTR [rbp-0xd0]
   1ccac:	48 89 45 a0          	mov    QWORD PTR [rbp-0x60],rax
   1ccb0:	48 8b 85 28 ff ff ff 	mov    rax,QWORD PTR [rbp-0xd8]
   1ccb7:	48 89 45 a8          	mov    QWORD PTR [rbp-0x58],rax
   1ccbb:	48 8b 85 40 ff ff ff 	mov    rax,QWORD PTR [rbp-0xc0]
   1ccc2:	48 89 45 b0          	mov    QWORD PTR [rbp-0x50],rax
   1ccc6:	48 8b 85 08 ff ff ff 	mov    rax,QWORD PTR [rbp-0xf8]
   1cccd:	48 8b 8d 10 ff ff ff 	mov    rcx,QWORD PTR [rbp-0xf0]
   1ccd4:	48 89 4d b8          	mov    QWORD PTR [rbp-0x48],rcx
   1ccd8:	48 8b 8d 20 ff ff ff 	mov    rcx,QWORD PTR [rbp-0xe0]
   1ccdf:	48 89 4d c0          	mov    QWORD PTR [rbp-0x40],rcx
   1cce3:	4c 8b 9d 18 ff ff ff 	mov    r11,QWORD PTR [rbp-0xe8]
   1ccea:	4c 8b bd f8 fe ff ff 	mov    r15,QWORD PTR [rbp-0x108]
   1ccf1:	4c 8b ad f0 fe ff ff 	mov    r13,QWORD PTR [rbp-0x110]
   1ccf8:	48 8b 9d 00 ff ff ff 	mov    rbx,QWORD PTR [rbp-0x100]
   1ccff:	4c 8b 95 38 ff ff ff 	mov    r10,QWORD PTR [rbp-0xc8]
   1cd06:	48 ba 01 e1 5e 0e ec 	movabs rdx,0x3864c6ec0e5ee101
   1cd0d:	c6 64 38 
   1cd10:	49 bc f5 ee 10 e3 5b 	movabs r12,0x4c81a55be310eef5
   1cd17:	a5 81 4c 
   1cd1a:	4c 39 a5 68 ff ff ff 	cmp    QWORD PTR [rbp-0x98],r12
   1cd21:	0f 84 06 cf ff ff    	je     19c2d <Java_com_adjust_sdk_sig_NativeLibHelper_nOnResume@@Base-0xa1076>
   1cd27:	48 b8 0b 28 6e b6 97 	movabs rax,0x4d49f797b66e280b
   1cd2e:	f7 49 4d 
   1cd31:	48 39 85 68 ff ff ff 	cmp    QWORD PTR [rbp-0x98],rax
   1cd38:	0f 84 6b 46 00 00    	je     213a9 <Java_com_adjust_sdk_sig_NativeLibHelper_nOnResume@@Base-0x998fa>
   1cd3e:	8a 45 ce             	mov    al,BYTE PTR [rbp-0x32]
   1cd41:	88 45 cf             	mov    BYTE PTR [rbp-0x31],al
   1cd44:	8a 45 cd             	mov    al,BYTE PTR [rbp-0x33]
   1cd47:	89 c6                	mov    esi,eax
   1cd49:	48 8b 85 50 ff ff ff 	mov    rax,QWORD PTR [rbp-0xb0]
   1cd50:	48 89 85 70 ff ff ff 	mov    QWORD PTR [rbp-0x90],rax
   1cd57:	48 8b 85 60 ff ff ff 	mov    rax,QWORD PTR [rbp-0xa0]
   1cd5e:	48 89 85 78 ff ff ff 	mov    QWORD PTR [rbp-0x88],rax
   1cd65:	4c 89 c0             	mov    rax,r8
   1cd68:	4c 89 45 80          	mov    QWORD PTR [rbp-0x80],r8
   1cd6c:	4c 89 4d 88          	mov    QWORD PTR [rbp-0x78],r9
   1cd70:	48 8b 85 48 ff ff ff 	mov    rax,QWORD PTR [rbp-0xb8]
   1cd77:	48 89 45 90          	mov    QWORD PTR [rbp-0x70],rax
   1cd7b:	48 8b 85 58 ff ff ff 	mov    rax,QWORD PTR [rbp-0xa8]
   1cd82:	48 89 45 98          	mov    QWORD PTR [rbp-0x68],rax
   1cd86:	48 8b 85 30 ff ff ff 	mov    rax,QWORD PTR [rbp-0xd0]
   1cd8d:	48 89 45 a0          	mov    QWORD PTR [rbp-0x60],rax
   1cd91:	48 8b 85 28 ff ff ff 	mov    rax,QWORD PTR [rbp-0xd8]
   1cd98:	48 89 45 a8          	mov    QWORD PTR [rbp-0x58],rax
   1cd9c:	48 8b 85 40 ff ff ff 	mov    rax,QWORD PTR [rbp-0xc0]
   1cda3:	48 89 45 b0          	mov    QWORD PTR [rbp-0x50],rax
   1cda7:	48 8b 85 08 ff ff ff 	mov    rax,QWORD PTR [rbp-0xf8]
   1cdae:	48 8b 8d 10 ff ff ff 	mov    rcx,QWORD PTR [rbp-0xf0]
   1cdb5:	48 89 4d b8          	mov    QWORD PTR [rbp-0x48],rcx
   1cdb9:	48 8b 8d 20 ff ff ff 	mov    rcx,QWORD PTR [rbp-0xe0]
   1cdc0:	48 89 4d c0          	mov    QWORD PTR [rbp-0x40],rcx
   1cdc4:	4c 8b 9d 18 ff ff ff 	mov    r11,QWORD PTR [rbp-0xe8]
   1cdcb:	4c 8b bd f8 fe ff ff 	mov    r15,QWORD PTR [rbp-0x108]
   1cdd2:	4c 8b ad f0 fe ff ff 	mov    r13,QWORD PTR [rbp-0x110]
   1cdd9:	48 8b 9d 00 ff ff ff 	mov    rbx,QWORD PTR [rbp-0x100]
   1cde0:	4c 8b 95 38 ff ff ff 	mov    r10,QWORD PTR [rbp-0xc8]
   1cde7:	48 ba bc 5b fe 7c ef 	movabs rdx,0xbee440ef7cfe5bbc
   1cdee:	40 e4 be 
   1cdf1:	49 bc 4b 74 08 7e a2 	movabs r12,0x4f067aa27e08744b
   1cdf8:	7a 06 4f 
   1cdfb:	4c 39 a5 68 ff ff ff 	cmp    QWORD PTR [rbp-0x98],r12
   1ce02:	0f 84 25 ce ff ff    	je     19c2d <Java_com_adjust_sdk_sig_NativeLibHelper_nOnResume@@Base-0xa1076>
   1ce08:	48 b8 b5 fe 89 1c e7 	movabs rax,0x4f6366e71c89feb5
   1ce0f:	66 63 4f 
   1ce12:	48 39 85 68 ff ff ff 	cmp    QWORD PTR [rbp-0x98],rax
   1ce19:	0f 84 8a 43 00 00    	je     211a9 <Java_com_adjust_sdk_sig_NativeLibHelper_nOnResume@@Base-0x99afa>
   1ce1f:	8a 45 ce             	mov    al,BYTE PTR [rbp-0x32]
   1ce22:	88 45 cf             	mov    BYTE PTR [rbp-0x31],al
   1ce25:	8a 45 cd             	mov    al,BYTE PTR [rbp-0x33]
   1ce28:	89 c6                	mov    esi,eax
   1ce2a:	48 8b 85 50 ff ff ff 	mov    rax,QWORD PTR [rbp-0xb0]
   1ce31:	48 89 85 70 ff ff ff 	mov    QWORD PTR [rbp-0x90],rax
   1ce38:	48 8b 85 60 ff ff ff 	mov    rax,QWORD PTR [rbp-0xa0]
   1ce3f:	48 89 85 78 ff ff ff 	mov    QWORD PTR [rbp-0x88],rax
   1ce46:	4c 89 c0             	mov    rax,r8
   1ce49:	4c 89 45 80          	mov    QWORD PTR [rbp-0x80],r8
   1ce4d:	4c 89 4d 88          	mov    QWORD PTR [rbp-0x78],r9
   1ce51:	48 8b 85 48 ff ff ff 	mov    rax,QWORD PTR [rbp-0xb8]
   1ce58:	48 89 45 90          	mov    QWORD PTR [rbp-0x70],rax
   1ce5c:	48 8b 85 58 ff ff ff 	mov    rax,QWORD PTR [rbp-0xa8]
   1ce63:	48 89 45 98          	mov    QWORD PTR [rbp-0x68],rax
   1ce67:	48 8b 85 30 ff ff ff 	mov    rax,QWORD PTR [rbp-0xd0]
   1ce6e:	48 89 45 a0          	mov    QWORD PTR [rbp-0x60],rax
   1ce72:	48 8b 85 28 ff ff ff 	mov    rax,QWORD PTR [rbp-0xd8]
   1ce79:	48 89 45 a8          	mov    QWORD PTR [rbp-0x58],rax
   1ce7d:	48 8b 85 40 ff ff ff 	mov    rax,QWORD PTR [rbp-0xc0]
   1ce84:	48 89 45 b0          	mov    QWORD PTR [rbp-0x50],rax
   1ce88:	48 8b 85 08 ff ff ff 	mov    rax,QWORD PTR [rbp-0xf8]
   1ce8f:	48 8b 8d 10 ff ff ff 	mov    rcx,QWORD PTR [rbp-0xf0]
   1ce96:	48 89 4d b8          	mov    QWORD PTR [rbp-0x48],rcx
   1ce9a:	48 8b 8d 20 ff ff ff 	mov    rcx,QWORD PTR [rbp-0xe0]
   1cea1:	48 89 4d c0          	mov    QWORD PTR [rbp-0x40],rcx
   1cea5:	4c 8b 9d 18 ff ff ff 	mov    r11,QWORD PTR [rbp-0xe8]
   1ceac:	4c 8b bd f8 fe ff ff 	mov    r15,QWORD PTR [rbp-0x108]
   1ceb3:	4c 8b ad f0 fe ff ff 	mov    r13,QWORD PTR [rbp-0x110]
   1ceba:	48 8b 9d 00 ff ff ff 	mov    rbx,QWORD PTR [rbp-0x100]
   1cec1:	4c 8b 95 38 ff ff ff 	mov    r10,QWORD PTR [rbp-0xc8]
   1cec8:	48 ba 2c 7c 3d f8 60 	movabs rdx,0x59e82660f83d7c2c
   1cecf:	26 e8 59 
   1ced2:	49 bc bc 98 47 ae e0 	movabs r12,0x503753e0ae4798bc
   1ced9:	53 37 50 
   1cedc:	4c 39 a5 68 ff ff ff 	cmp    QWORD PTR [rbp-0x98],r12
   1cee3:	0f 84 44 cd ff ff    	je     19c2d <Java_com_adjust_sdk_sig_NativeLibHelper_nOnResume@@Base-0xa1076>
   1cee9:	48 b8 08 5a 04 c0 3d 	movabs rax,0x5092e43dc0045a08
   1cef0:	e4 92 50 
   1cef3:	48 39 85 68 ff ff ff 	cmp    QWORD PTR [rbp-0x98],rax
   1cefa:	0f 84 a2 39 00 00    	je     208a2 <Java_com_adjust_sdk_sig_NativeLibHelper_nOnResume@@Base-0x9a401>
   1cf00:	48 b8 73 e4 15 57 21 	movabs rax,0x520ea6215715e473
   1cf07:	a6 0e 52 
   1cf0a:	48 39 85 68 ff ff ff 	cmp    QWORD PTR [rbp-0x98],rax
   1cf11:	44 8a 65 cd          	mov    r12b,BYTE PTR [rbp-0x33]
   1cf15:	48 8b 9d 00 ff ff ff 	mov    rbx,QWORD PTR [rbp-0x100]
   1cf1c:	4c 8b ad f0 fe ff ff 	mov    r13,QWORD PTR [rbp-0x110]
   1cf23:	4c 8b bd f8 fe ff ff 	mov    r15,QWORD PTR [rbp-0x108]
   1cf2a:	0f 84 9d 3b 00 00    	je     20acd <Java_com_adjust_sdk_sig_NativeLibHelper_nOnResume@@Base-0x9a1d6>
   1cf30:	48 b8 d8 ef 61 2a b6 	movabs rax,0x523f72b62a61efd8
   1cf37:	72 3f 52 
   1cf3a:	48 39 85 68 ff ff ff 	cmp    QWORD PTR [rbp-0x98],rax
   1cf41:	4c 8b 9d 28 ff ff ff 	mov    r11,QWORD PTR [rbp-0xd8]
   1cf48:	48 8b 95 30 ff ff ff 	mov    rdx,QWORD PTR [rbp-0xd0]
   1cf4f:	0f 84 5a 31 00 00    	je     200af <Java_com_adjust_sdk_sig_NativeLibHelper_nOnResume@@Base-0x9abf4>
   1cf55:	48 b8 a7 1f 82 ca 40 	movabs rax,0x548ff940ca821fa7
   1cf5c:	f9 8f 54 
   1cf5f:	48 39 85 68 ff ff ff 	cmp    QWORD PTR [rbp-0x98],rax
   1cf66:	0f 84 17 37 00 00    	je     20683 <Java_com_adjust_sdk_sig_NativeLibHelper_nOnResume@@Base-0x9a620>
   1cf6c:	48 b8 ba c5 28 51 81 	movabs rax,0x550006815128c5ba
   1cf73:	06 00 55 
   1cf76:	48 39 85 68 ff ff ff 	cmp    QWORD PTR [rbp-0x98],rax
   1cf7d:	0f 84 b2 20 00 00    	je     1f035 <Java_com_adjust_sdk_sig_NativeLibHelper_nOnResume@@Base-0x9bc6e>
   1cf83:	48 b8 bb ec 6f 4e 0c 	movabs rax,0x5617630c4e6fecbb
   1cf8a:	63 17 56 
   1cf8d:	48 39 85 68 ff ff ff 	cmp    QWORD PTR [rbp-0x98],rax
   1cf94:	0f 84 a7 1d 00 00    	je     1ed41 <Java_com_adjust_sdk_sig_NativeLibHelper_nOnResume@@Base-0x9bf62>
   1cf9a:	8a 45 ce             	mov    al,BYTE PTR [rbp-0x32]
   1cf9d:	88 45 cf             	mov    BYTE PTR [rbp-0x31],al
   1cfa0:	44 89 e6             	mov    esi,r12d
   1cfa3:	48 8b 85 50 ff ff ff 	mov    rax,QWORD PTR [rbp-0xb0]
   1cfaa:	48 89 85 70 ff ff ff 	mov    QWORD PTR [rbp-0x90],rax
   1cfb1:	48 8b 85 60 ff ff ff 	mov    rax,QWORD PTR [rbp-0xa0]
   1cfb8:	48 89 85 78 ff ff ff 	mov    QWORD PTR [rbp-0x88],rax
   1cfbf:	4c 89 c0             	mov    rax,r8
   1cfc2:	4c 89 45 80          	mov    QWORD PTR [rbp-0x80],r8
   1cfc6:	4c 89 4d 88          	mov    QWORD PTR [rbp-0x78],r9
   1cfca:	48 8b 85 48 ff ff ff 	mov    rax,QWORD PTR [rbp-0xb8]
   1cfd1:	48 89 45 90          	mov    QWORD PTR [rbp-0x70],rax
   1cfd5:	48 8b 85 58 ff ff ff 	mov    rax,QWORD PTR [rbp-0xa8]
   1cfdc:	48 89 45 98          	mov    QWORD PTR [rbp-0x68],rax
   1cfe0:	48 89 55 a0          	mov    QWORD PTR [rbp-0x60],rdx
   1cfe4:	4c 89 5d a8          	mov    QWORD PTR [rbp-0x58],r11
   1cfe8:	48 8b 85 40 ff ff ff 	mov    rax,QWORD PTR [rbp-0xc0]
   1cfef:	48 89 45 b0          	mov    QWORD PTR [rbp-0x50],rax
   1cff3:	48 8b 85 08 ff ff ff 	mov    rax,QWORD PTR [rbp-0xf8]
   1cffa:	48 8b 8d 10 ff ff ff 	mov    rcx,QWORD PTR [rbp-0xf0]
   1d001:	48 89 4d b8          	mov    QWORD PTR [rbp-0x48],rcx
   1d005:	48 8b 8d 20 ff ff ff 	mov    rcx,QWORD PTR [rbp-0xe0]
   1d00c:	48 89 4d c0          	mov    QWORD PTR [rbp-0x40],rcx
   1d010:	4c 8b 9d 18 ff ff ff 	mov    r11,QWORD PTR [rbp-0xe8]
   1d017:	4c 8b 95 38 ff ff ff 	mov    r10,QWORD PTR [rbp-0xc8]
   1d01e:	48 ba 72 44 7c ec c4 	movabs rdx,0x6f022dc4ec7c4472
   1d025:	2d 02 6f 
   1d028:	49 bc 4f 0e f9 b5 ce 	movabs r12,0x592bd2ceb5f90e4f
   1d02f:	d2 2b 59 
   1d032:	4c 39 a5 68 ff ff ff 	cmp    QWORD PTR [rbp-0x98],r12
   1d039:	0f 84 ee cb ff ff    	je     19c2d <Java_com_adjust_sdk_sig_NativeLibHelper_nOnResume@@Base-0xa1076>
   1d03f:	48 b8 2c 7c 3d f8 60 	movabs rax,0x59e82660f83d7c2c
   1d046:	26 e8 59 
   1d049:	48 39 85 68 ff ff ff 	cmp    QWORD PTR [rbp-0x98],rax
   1d050:	0f 84 19 19 00 00    	je     1e96f <Java_com_adjust_sdk_sig_NativeLibHelper_nOnResume@@Base-0x9c334>
   1d056:	8a 45 ce             	mov    al,BYTE PTR [rbp-0x32]
   1d059:	88 45 cf             	mov    BYTE PTR [rbp-0x31],al
   1d05c:	8a 45 cd             	mov    al,BYTE PTR [rbp-0x33]
   1d05f:	89 c6                	mov    esi,eax
   1d061:	48 8b 85 50 ff ff ff 	mov    rax,QWORD PTR [rbp-0xb0]
   1d068:	48 89 85 70 ff ff ff 	mov    QWORD PTR [rbp-0x90],rax
   1d06f:	48 8b 85 60 ff ff ff 	mov    rax,QWORD PTR [rbp-0xa0]
   1d076:	48 89 85 78 ff ff ff 	mov    QWORD PTR [rbp-0x88],rax
   1d07d:	4c 89 c0             	mov    rax,r8
   1d080:	4c 89 45 80          	mov    QWORD PTR [rbp-0x80],r8
   1d084:	4c 89 4d 88          	mov    QWORD PTR [rbp-0x78],r9
   1d088:	48 8b 85 48 ff ff ff 	mov    rax,QWORD PTR [rbp-0xb8]
   1d08f:	48 89 45 90          	mov    QWORD PTR [rbp-0x70],rax
   1d093:	48 8b 85 58 ff ff ff 	mov    rax,QWORD PTR [rbp-0xa8]
   1d09a:	48 89 45 98          	mov    QWORD PTR [rbp-0x68],rax
   1d09e:	48 8b 85 30 ff ff ff 	mov    rax,QWORD PTR [rbp-0xd0]
   1d0a5:	48 89 45 a0          	mov    QWORD PTR [rbp-0x60],rax
   1d0a9:	48 8b 85 28 ff ff ff 	mov    rax,QWORD PTR [rbp-0xd8]
   1d0b0:	48 89 45 a8          	mov    QWORD PTR [rbp-0x58],rax
   1d0b4:	48 8b 85 40 ff ff ff 	mov    rax,QWORD PTR [rbp-0xc0]
   1d0bb:	48 89 45 b0          	mov    QWORD PTR [rbp-0x50],rax
   1d0bf:	48 8b 85 08 ff ff ff 	mov    rax,QWORD PTR [rbp-0xf8]
   1d0c6:	48 8b 8d 10 ff ff ff 	mov    rcx,QWORD PTR [rbp-0xf0]
   1d0cd:	48 89 4d b8          	mov    QWORD PTR [rbp-0x48],rcx
   1d0d1:	48 8b 8d 20 ff ff ff 	mov    rcx,QWORD PTR [rbp-0xe0]
   1d0d8:	48 89 4d c0          	mov    QWORD PTR [rbp-0x40],rcx
   1d0dc:	4c 8b 9d 18 ff ff ff 	mov    r11,QWORD PTR [rbp-0xe8]
   1d0e3:	4c 8b bd f8 fe ff ff 	mov    r15,QWORD PTR [rbp-0x108]
   1d0ea:	4c 8b ad f0 fe ff ff 	mov    r13,QWORD PTR [rbp-0x110]
   1d0f1:	48 8b 9d 00 ff ff ff 	mov    rbx,QWORD PTR [rbp-0x100]
   1d0f8:	4c 8b 95 38 ff ff ff 	mov    r10,QWORD PTR [rbp-0xc8]
   1d0ff:	48 ba 01 e1 5e 0e ec 	movabs rdx,0x3864c6ec0e5ee101
   1d106:	c6 64 38 
   1d109:	49 bc 10 21 37 41 e5 	movabs r12,0x5a4353e541372110
   1d110:	53 43 5a 
   1d113:	4c 39 a5 68 ff ff ff 	cmp    QWORD PTR [rbp-0x98],r12
   1d11a:	0f 84 0d cb ff ff    	je     19c2d <Java_com_adjust_sdk_sig_NativeLibHelper_nOnResume@@Base-0xa1076>
   1d120:	48 b8 80 cc 19 b2 1d 	movabs rax,0x5be0461db219cc80
   1d127:	46 e0 5b 
   1d12a:	48 39 85 68 ff ff ff 	cmp    QWORD PTR [rbp-0x98],rax
   1d131:	0f 84 b5 30 00 00    	je     201ec <Java_com_adjust_sdk_sig_NativeLibHelper_nOnResume@@Base-0x9aab7>
   1d137:	48 b8 29 b0 b2 48 32 	movabs rax,0x5d78403248b2b029
   1d13e:	40 78 5d 
   1d141:	48 39 85 68 ff ff ff 	cmp    QWORD PTR [rbp-0x98],rax
   1d148:	40 8a 75 cd          	mov    sil,BYTE PTR [rbp-0x33]
   1d14c:	4c 8b 95 38 ff ff ff 	mov    r10,QWORD PTR [rbp-0xc8]
   1d153:	48 8b 9d 00 ff ff ff 	mov    rbx,QWORD PTR [rbp-0x100]
   1d15a:	4c 8b ad f0 fe ff ff 	mov    r13,QWORD PTR [rbp-0x110]
   1d161:	4c 8b bd f8 fe ff ff 	mov    r15,QWORD PTR [rbp-0x108]
   1d168:	4c 8b 9d 18 ff ff ff 	mov    r11,QWORD PTR [rbp-0xe8]
   1d16f:	4c 8b 85 20 ff ff ff 	mov    r8,QWORD PTR [rbp-0xe0]
   1d176:	48 8b bd 10 ff ff ff 	mov    rdi,QWORD PTR [rbp-0xf0]
   1d17d:	4c 8b a5 08 ff ff ff 	mov    r12,QWORD PTR [rbp-0xf8]
   1d184:	0f 84 02 1d 00 00    	je     1ee8c <Java_com_adjust_sdk_sig_NativeLibHelper_nOnResume@@Base-0x9be17>
   1d18a:	8a 45 ce             	mov    al,BYTE PTR [rbp-0x32]
   1d18d:	88 45 cf             	mov    BYTE PTR [rbp-0x31],al
   1d190:	48 8b 85 50 ff ff ff 	mov    rax,QWORD PTR [rbp-0xb0]
   1d197:	48 89 85 70 ff ff ff 	mov    QWORD PTR [rbp-0x90],rax
   1d19e:	48 8b 85 60 ff ff ff 	mov    rax,QWORD PTR [rbp-0xa0]
   1d1a5:	48 89 85 78 ff ff ff 	mov    QWORD PTR [rbp-0x88],rax
   1d1ac:	48 8b 95 e0 fe ff ff 	mov    rdx,QWORD PTR [rbp-0x120]
   1d1b3:	48 89 d0             	mov    rax,rdx
   1d1b6:	48 89 55 80          	mov    QWORD PTR [rbp-0x80],rdx
   1d1ba:	48 8b 8d e8 fe ff ff 	mov    rcx,QWORD PTR [rbp-0x118]
   1d1c1:	48 89 4d 88          	mov    QWORD PTR [rbp-0x78],rcx
   1d1c5:	48 8b 85 48 ff ff ff 	mov    rax,QWORD PTR [rbp-0xb8]
   1d1cc:	48 89 45 90          	mov    QWORD PTR [rbp-0x70],rax
   1d1d0:	48 8b 85 58 ff ff ff 	mov    rax,QWORD PTR [rbp-0xa8]
   1d1d7:	48 89 45 98          	mov    QWORD PTR [rbp-0x68],rax
   1d1db:	48 8b 85 30 ff ff ff 	mov    rax,QWORD PTR [rbp-0xd0]
   1d1e2:	48 89 45 a0          	mov    QWORD PTR [rbp-0x60],rax
   1d1e6:	48 8b 85 28 ff ff ff 	mov    rax,QWORD PTR [rbp-0xd8]
   1d1ed:	48 89 45 a8          	mov    QWORD PTR [rbp-0x58],rax
   1d1f1:	48 8b 85 40 ff ff ff 	mov    rax,QWORD PTR [rbp-0xc0]
   1d1f8:	48 89 45 b0          	mov    QWORD PTR [rbp-0x50],rax
   1d1fc:	4c 89 e0             	mov    rax,r12
   1d1ff:	48 89 7d b8          	mov    QWORD PTR [rbp-0x48],rdi
   1d203:	4c 89 45 c0          	mov    QWORD PTR [rbp-0x40],r8
   1d207:	49 89 d0             	mov    r8,rdx
   1d20a:	48 ba 01 e1 5e 0e ec 	movabs rdx,0x3864c6ec0e5ee101
   1d211:	c6 64 38 
   1d214:	49 bc ac a6 5a 15 b6 	movabs r12,0x5e552fb6155aa6ac
   1d21b:	2f 55 5e 
   1d21e:	4c 39 a5 68 ff ff ff 	cmp    QWORD PTR [rbp-0x98],r12
   1d225:	0f 84 02 ca ff ff    	je     19c2d <Java_com_adjust_sdk_sig_NativeLibHelper_nOnResume@@Base-0xa1076>
   1d22b:	49 89 c9             	mov    r9,rcx
   1d22e:	8a 45 ce             	mov    al,BYTE PTR [rbp-0x32]
   1d231:	88 45 cf             	mov    BYTE PTR [rbp-0x31],al
   1d234:	8a 45 cd             	mov    al,BYTE PTR [rbp-0x33]
   1d237:	89 c6                	mov    esi,eax
   1d239:	48 8b 85 50 ff ff ff 	mov    rax,QWORD PTR [rbp-0xb0]
   1d240:	48 89 85 70 ff ff ff 	mov    QWORD PTR [rbp-0x90],rax
   1d247:	48 8b 85 60 ff ff ff 	mov    rax,QWORD PTR [rbp-0xa0]
   1d24e:	48 89 85 78 ff ff ff 	mov    QWORD PTR [rbp-0x88],rax
   1d255:	4c 89 c0             	mov    rax,r8
   1d258:	4c 89 45 80          	mov    QWORD PTR [rbp-0x80],r8
   1d25c:	48 89 4d 88          	mov    QWORD PTR [rbp-0x78],rcx
   1d260:	48 8b 85 48 ff ff ff 	mov    rax,QWORD PTR [rbp-0xb8]
   1d267:	48 89 45 90          	mov    QWORD PTR [rbp-0x70],rax
   1d26b:	48 8b 85 58 ff ff ff 	mov    rax,QWORD PTR [rbp-0xa8]
   1d272:	48 89 45 98          	mov    QWORD PTR [rbp-0x68],rax
   1d276:	48 8b 85 30 ff ff ff 	mov    rax,QWORD PTR [rbp-0xd0]
   1d27d:	48 89 45 a0          	mov    QWORD PTR [rbp-0x60],rax
   1d281:	48 8b 85 28 ff ff ff 	mov    rax,QWORD PTR [rbp-0xd8]
   1d288:	48 89 45 a8          	mov    QWORD PTR [rbp-0x58],rax
   1d28c:	48 8b 85 40 ff ff ff 	mov    rax,QWORD PTR [rbp-0xc0]
   1d293:	48 89 45 b0          	mov    QWORD PTR [rbp-0x50],rax
   1d297:	48 8b 85 08 ff ff ff 	mov    rax,QWORD PTR [rbp-0xf8]
   1d29e:	48 8b 8d 10 ff ff ff 	mov    rcx,QWORD PTR [rbp-0xf0]
   1d2a5:	48 89 4d b8          	mov    QWORD PTR [rbp-0x48],rcx
   1d2a9:	48 8b 8d 20 ff ff ff 	mov    rcx,QWORD PTR [rbp-0xe0]
   1d2b0:	48 89 4d c0          	mov    QWORD PTR [rbp-0x40],rcx
   1d2b4:	4c 8b 9d 18 ff ff ff 	mov    r11,QWORD PTR [rbp-0xe8]
   1d2bb:	4c 8b bd f8 fe ff ff 	mov    r15,QWORD PTR [rbp-0x108]
   1d2c2:	4c 8b ad f0 fe ff ff 	mov    r13,QWORD PTR [rbp-0x110]
   1d2c9:	48 8b 9d 00 ff ff ff 	mov    rbx,QWORD PTR [rbp-0x100]
   1d2d0:	4c 8b 95 38 ff ff ff 	mov    r10,QWORD PTR [rbp-0xc8]
   1d2d7:	48 ba 50 bc 28 be a9 	movabs rdx,0x3ba140a9be28bc50
   1d2de:	40 a1 3b 
   1d2e1:	49 bc 2b 4e 6f 43 f6 	movabs r12,0x5f30d8f6436f4e2b
   1d2e8:	d8 30 5f 
   1d2eb:	4c 39 a5 68 ff ff ff 	cmp    QWORD PTR [rbp-0x98],r12
   1d2f2:	0f 84 35 c9 ff ff    	je     19c2d <Java_com_adjust_sdk_sig_NativeLibHelper_nOnResume@@Base-0xa1076>
   1d2f8:	8a 45 ce             	mov    al,BYTE PTR [rbp-0x32]
   1d2fb:	88 45 cf             	mov    BYTE PTR [rbp-0x31],al
   1d2fe:	8a 45 cd             	mov    al,BYTE PTR [rbp-0x33]
   1d301:	89 c6                	mov    esi,eax
   1d303:	48 8b 85 50 ff ff ff 	mov    rax,QWORD PTR [rbp-0xb0]
   1d30a:	48 89 85 70 ff ff ff 	mov    QWORD PTR [rbp-0x90],rax
   1d311:	48 8b 85 60 ff ff ff 	mov    rax,QWORD PTR [rbp-0xa0]
   1d318:	48 89 85 78 ff ff ff 	mov    QWORD PTR [rbp-0x88],rax
   1d31f:	4c 89 c0             	mov    rax,r8
   1d322:	4c 89 45 80          	mov    QWORD PTR [rbp-0x80],r8
   1d326:	4c 89 4d 88          	mov    QWORD PTR [rbp-0x78],r9
   1d32a:	48 8b 85 48 ff ff ff 	mov    rax,QWORD PTR [rbp-0xb8]
   1d331:	48 89 45 90          	mov    QWORD PTR [rbp-0x70],rax
   1d335:	48 8b 85 58 ff ff ff 	mov    rax,QWORD PTR [rbp-0xa8]
   1d33c:	48 89 45 98          	mov    QWORD PTR [rbp-0x68],rax
   1d340:	48 8b 85 30 ff ff ff 	mov    rax,QWORD PTR [rbp-0xd0]
   1d347:	48 89 45 a0          	mov    QWORD PTR [rbp-0x60],rax
   1d34b:	48 8b 85 28 ff ff ff 	mov    rax,QWORD PTR [rbp-0xd8]
   1d352:	48 89 45 a8          	mov    QWORD PTR [rbp-0x58],rax
   1d356:	48 8b 85 40 ff ff ff 	mov    rax,QWORD PTR [rbp-0xc0]
   1d35d:	48 89 45 b0          	mov    QWORD PTR [rbp-0x50],rax
   1d361:	48 8b 85 08 ff ff ff 	mov    rax,QWORD PTR [rbp-0xf8]
   1d368:	48 8b 8d 10 ff ff ff 	mov    rcx,QWORD PTR [rbp-0xf0]
   1d36f:	48 89 4d b8          	mov    QWORD PTR [rbp-0x48],rcx
   1d373:	48 8b 8d 20 ff ff ff 	mov    rcx,QWORD PTR [rbp-0xe0]
   1d37a:	48 89 4d c0          	mov    QWORD PTR [rbp-0x40],rcx
   1d37e:	4c 8b 9d 18 ff ff ff 	mov    r11,QWORD PTR [rbp-0xe8]
   1d385:	4c 8b bd f8 fe ff ff 	mov    r15,QWORD PTR [rbp-0x108]
   1d38c:	4c 8b ad f0 fe ff ff 	mov    r13,QWORD PTR [rbp-0x110]
   1d393:	48 8b 9d 00 ff ff ff 	mov    rbx,QWORD PTR [rbp-0x100]
   1d39a:	4c 8b 95 38 ff ff ff 	mov    r10,QWORD PTR [rbp-0xc8]
   1d3a1:	48 ba 2a 04 4d af c1 	movabs rdx,0x96eeb6c1af4d042a
   1d3a8:	b6 ee 96 
   1d3ab:	49 bc d5 b0 33 22 71 	movabs r12,0x5fcf00712233b0d5
   1d3b2:	00 cf 5f 
   1d3b5:	4c 39 a5 68 ff ff ff 	cmp    QWORD PTR [rbp-0x98],r12
   1d3bc:	0f 84 6b c8 ff ff    	je     19c2d <Java_com_adjust_sdk_sig_NativeLibHelper_nOnResume@@Base-0xa1076>
   1d3c2:	48 b8 18 b7 2a 7a 9a 	movabs rax,0x61fe569a7a2ab718
   1d3c9:	56 fe 61 
   1d3cc:	48 39 85 68 ff ff ff 	cmp    QWORD PTR [rbp-0x98],rax
   1d3d3:	0f 84 a1 35 00 00    	je     2097a <Java_com_adjust_sdk_sig_NativeLibHelper_nOnResume@@Base-0x9a329>
   1d3d9:	48 b8 08 2e 3d 1e 2d 	movabs rax,0x62db2a2d1e3d2e08
   1d3e0:	2a db 62 
   1d3e3:	48 39 85 68 ff ff ff 	cmp    QWORD PTR [rbp-0x98],rax
   1d3ea:	44 8a 65 cd          	mov    r12b,BYTE PTR [rbp-0x33]
   1d3ee:	48 8b 9d 00 ff ff ff 	mov    rbx,QWORD PTR [rbp-0x100]
   1d3f5:	4c 8b ad f0 fe ff ff 	mov    r13,QWORD PTR [rbp-0x110]
   1d3fc:	4c 8b bd f8 fe ff ff 	mov    r15,QWORD PTR [rbp-0x108]
   1d403:	0f 84 5c 23 00 00    	je     1f765 <Java_com_adjust_sdk_sig_NativeLibHelper_nOnResume@@Base-0x9b53e>
   1d409:	48 b8 3a 64 6a c7 0f 	movabs rax,0x63e9f80fc76a643a
   1d410:	f8 e9 63 
   1d413:	48 39 85 68 ff ff ff 	cmp    QWORD PTR [rbp-0x98],rax
   1d41a:	0f 84 5a 2a 00 00    	je     1fe7a <Java_com_adjust_sdk_sig_NativeLibHelper_nOnResume@@Base-0x9ae29>
   1d420:	48 b8 c9 fa 9c 1b 2d 	movabs rax,0x654c132d1b9cfac9
   1d427:	13 4c 65 
   1d42a:	48 39 85 68 ff ff ff 	cmp    QWORD PTR [rbp-0x98],rax
   1d431:	0f 84 1f 24 00 00    	je     1f856 <Java_com_adjust_sdk_sig_NativeLibHelper_nOnResume@@Base-0x9b44d>
   1d437:	48 b8 33 c1 9c fa 5d 	movabs rax,0x65f32b5dfa9cc133
   1d43e:	2b f3 65 
   1d441:	48 39 85 68 ff ff ff 	cmp    QWORD PTR [rbp-0x98],rax
   1d448:	0f 84 7f 31 00 00    	je     205cd <Java_com_adjust_sdk_sig_NativeLibHelper_nOnResume@@Base-0x9a6d6>
   1d44e:	48 b8 af 6e 00 5d b2 	movabs rax,0x68d52db25d006eaf
   1d455:	2d d5 68 
   1d458:	48 39 85 68 ff ff ff 	cmp    QWORD PTR [rbp-0x98],rax
   1d45f:	4c 8b 9d 28 ff ff ff 	mov    r11,QWORD PTR [rbp-0xd8]
   1d466:	48 8b 8d 30 ff ff ff 	mov    rcx,QWORD PTR [rbp-0xd0]
   1d46d:	0f 84 cc 30 00 00    	je     2053f <Java_com_adjust_sdk_sig_NativeLibHelper_nOnResume@@Base-0x9a764>
   1d473:	48 b8 d1 bf 7f 53 77 	movabs rax,0x69c25f77537fbfd1
   1d47a:	5f c2 69 
   1d47d:	48 39 85 68 ff ff ff 	cmp    QWORD PTR [rbp-0x98],rax
   1d484:	0f 84 1f 1f 00 00    	je     1f3a9 <Java_com_adjust_sdk_sig_NativeLibHelper_nOnResume@@Base-0x9b8fa>
   1d48a:	48 b8 41 bf 77 6f bd 	movabs rax,0x6a1c41bd6f77bf41
   1d491:	41 1c 6a 
   1d494:	48 39 85 68 ff ff ff 	cmp    QWORD PTR [rbp-0x98],rax
   1d49b:	0f 84 1a 2f 00 00    	je     203bb <Java_com_adjust_sdk_sig_NativeLibHelper_nOnResume@@Base-0x9a8e8>
   1d4a1:	48 b8 df 22 97 63 cc 	movabs rax,0x6a4893cc639722df
   1d4a8:	93 48 6a 
   1d4ab:	48 39 85 68 ff ff ff 	cmp    QWORD PTR [rbp-0x98],rax
   1d4b2:	0f 84 50 26 00 00    	je     1fb08 <Java_com_adjust_sdk_sig_NativeLibHelper_nOnResume@@Base-0x9b19b>
   1d4b8:	8a 45 ce             	mov    al,BYTE PTR [rbp-0x32]
   1d4bb:	88 45 cf             	mov    BYTE PTR [rbp-0x31],al
   1d4be:	44 89 e6             	mov    esi,r12d
   1d4c1:	48 8b 85 50 ff ff ff 	mov    rax,QWORD PTR [rbp-0xb0]
   1d4c8:	48 89 85 70 ff ff ff 	mov    QWORD PTR [rbp-0x90],rax
   1d4cf:	48 8b 85 60 ff ff ff 	mov    rax,QWORD PTR [rbp-0xa0]
   1d4d6:	48 89 85 78 ff ff ff 	mov    QWORD PTR [rbp-0x88],rax
   1d4dd:	4c 89 c0             	mov    rax,r8
   1d4e0:	4c 89 45 80          	mov    QWORD PTR [rbp-0x80],r8
   1d4e4:	4c 89 4d 88          	mov    QWORD PTR [rbp-0x78],r9
   1d4e8:	48 8b 85 48 ff ff ff 	mov    rax,QWORD PTR [rbp-0xb8]
   1d4ef:	48 89 45 90          	mov    QWORD PTR [rbp-0x70],rax
   1d4f3:	48 8b 85 58 ff ff ff 	mov    rax,QWORD PTR [rbp-0xa8]
   1d4fa:	48 89 45 98          	mov    QWORD PTR [rbp-0x68],rax
   1d4fe:	48 89 4d a0          	mov    QWORD PTR [rbp-0x60],rcx
   1d502:	4c 89 5d a8          	mov    QWORD PTR [rbp-0x58],r11
   1d506:	48 8b 85 40 ff ff ff 	mov    rax,QWORD PTR [rbp-0xc0]
   1d50d:	48 89 45 b0          	mov    QWORD PTR [rbp-0x50],rax
   1d511:	48 8b 85 08 ff ff ff 	mov    rax,QWORD PTR [rbp-0xf8]
   1d518:	48 8b 8d 10 ff ff ff 	mov    rcx,QWORD PTR [rbp-0xf0]
   1d51f:	48 89 4d b8          	mov    QWORD PTR [rbp-0x48],rcx
   1d523:	48 8b 8d 20 ff ff ff 	mov    rcx,QWORD PTR [rbp-0xe0]
   1d52a:	48 89 4d c0          	mov    QWORD PTR [rbp-0x40],rcx
   1d52e:	4c 8b 9d 18 ff ff ff 	mov    r11,QWORD PTR [rbp-0xe8]
   1d535:	4c 8b 95 38 ff ff ff 	mov    r10,QWORD PTR [rbp-0xc8]
   1d53c:	48 ba 01 e1 5e 0e ec 	movabs rdx,0x3864c6ec0e5ee101
   1d543:	c6 64 38 
   1d546:	49 bc 60 17 8d 52 70 	movabs r12,0x6b193770528d1760
   1d54d:	37 19 6b 
   1d550:	4c 39 a5 68 ff ff ff 	cmp    QWORD PTR [rbp-0x98],r12
   1d557:	0f 84 d0 c6 ff ff    	je     19c2d <Java_com_adjust_sdk_sig_NativeLibHelper_nOnResume@@Base-0xa1076>
   1d55d:	48 b8 f5 d4 74 d2 9e 	movabs rax,0x6ba73a9ed274d4f5
   1d564:	3a a7 6b 
   1d567:	48 39 85 68 ff ff ff 	cmp    QWORD PTR [rbp-0x98],rax
   1d56e:	0f 84 f1 1d 00 00    	je     1f365 <Java_com_adjust_sdk_sig_NativeLibHelper_nOnResume@@Base-0x9b93e>
   1d574:	48 b8 65 b9 94 3e 0c 	movabs rax,0x6e3cc40c3e94b965
   1d57b:	c4 3c 6e 
   1d57e:	48 39 85 68 ff ff ff 	cmp    QWORD PTR [rbp-0x98],rax
   1d585:	44 8a 65 cd          	mov    r12b,BYTE PTR [rbp-0x33]
   1d589:	48 8b 9d 00 ff ff ff 	mov    rbx,QWORD PTR [rbp-0x100]
   1d590:	4c 8b ad f0 fe ff ff 	mov    r13,QWORD PTR [rbp-0x110]
   1d597:	4c 8b bd f8 fe ff ff 	mov    r15,QWORD PTR [rbp-0x108]
   1d59e:	0f 84 e4 35 00 00    	je     20b88 <Java_com_adjust_sdk_sig_NativeLibHelper_nOnResume@@Base-0x9a11b>
   1d5a4:	48 b8 72 44 7c ec c4 	movabs rax,0x6f022dc4ec7c4472
   1d5ab:	2d 02 6f 
   1d5ae:	48 39 85 68 ff ff ff 	cmp    QWORD PTR [rbp-0x98],rax
   1d5b5:	4c 8b 9d 28 ff ff ff 	mov    r11,QWORD PTR [rbp-0xd8]
   1d5bc:	48 8b 8d 30 ff ff ff 	mov    rcx,QWORD PTR [rbp-0xd0]
   1d5c3:	0f 84 6e 2b 00 00    	je     20137 <Java_com_adjust_sdk_sig_NativeLibHelper_nOnResume@@Base-0x9ab6c>
   1d5c9:	8a 45 ce             	mov    al,BYTE PTR [rbp-0x32]
   1d5cc:	88 45 cf             	mov    BYTE PTR [rbp-0x31],al
   1d5cf:	44 89 e6             	mov    esi,r12d
   1d5d2:	48 8b 85 50 ff ff ff 	mov    rax,QWORD PTR [rbp-0xb0]
   1d5d9:	48 89 85 70 ff ff ff 	mov    QWORD PTR [rbp-0x90],rax
   1d5e0:	48 8b 85 60 ff ff ff 	mov    rax,QWORD PTR [rbp-0xa0]
   1d5e7:	48 89 85 78 ff ff ff 	mov    QWORD PTR [rbp-0x88],rax
   1d5ee:	4c 89 c0             	mov    rax,r8
   1d5f1:	4c 89 45 80          	mov    QWORD PTR [rbp-0x80],r8
   1d5f5:	4c 89 4d 88          	mov    QWORD PTR [rbp-0x78],r9
   1d5f9:	48 8b 85 48 ff ff ff 	mov    rax,QWORD PTR [rbp-0xb8]
   1d600:	48 89 45 90          	mov    QWORD PTR [rbp-0x70],rax
   1d604:	48 8b 85 58 ff ff ff 	mov    rax,QWORD PTR [rbp-0xa8]
   1d60b:	48 89 45 98          	mov    QWORD PTR [rbp-0x68],rax
   1d60f:	48 89 4d a0          	mov    QWORD PTR [rbp-0x60],rcx
   1d613:	4c 89 5d a8          	mov    QWORD PTR [rbp-0x58],r11
   1d617:	48 8b 85 40 ff ff ff 	mov    rax,QWORD PTR [rbp-0xc0]
   1d61e:	48 89 45 b0          	mov    QWORD PTR [rbp-0x50],rax
   1d622:	48 8b 85 08 ff ff ff 	mov    rax,QWORD PTR [rbp-0xf8]
   1d629:	48 8b 8d 10 ff ff ff 	mov    rcx,QWORD PTR [rbp-0xf0]
   1d630:	48 89 4d b8          	mov    QWORD PTR [rbp-0x48],rcx
   1d634:	48 8b 8d 20 ff ff ff 	mov    rcx,QWORD PTR [rbp-0xe0]
   1d63b:	48 89 4d c0          	mov    QWORD PTR [rbp-0x40],rcx
   1d63f:	4c 8b 9d 18 ff ff ff 	mov    r11,QWORD PTR [rbp-0xe8]
   1d646:	4c 8b 95 38 ff ff ff 	mov    r10,QWORD PTR [rbp-0xc8]
   1d64d:	48 ba 29 b0 b2 48 32 	movabs rdx,0x5d78403248b2b029
   1d654:	40 78 5d 
   1d657:	49 bc 9d c7 ee 13 aa 	movabs r12,0x6f2d55aa13eec79d
   1d65e:	55 2d 6f 
   1d661:	4c 39 a5 68 ff ff ff 	cmp    QWORD PTR [rbp-0x98],r12
   1d668:	0f 84 bf c5 ff ff    	je     19c2d <Java_com_adjust_sdk_sig_NativeLibHelper_nOnResume@@Base-0xa1076>
   1d66e:	48 b8 29 f2 f0 59 9c 	movabs rax,0x6ff99c9c59f0f229
   1d675:	9c f9 6f 
   1d678:	48 39 85 68 ff ff ff 	cmp    QWORD PTR [rbp-0x98],rax
   1d67f:	0f 84 1f 23 00 00    	je     1f9a4 <Java_com_adjust_sdk_sig_NativeLibHelper_nOnResume@@Base-0x9b2ff>
   1d685:	48 b8 10 03 a5 6c 84 	movabs rax,0x70ac8f846ca50310
   1d68c:	8f ac 70 
   1d68f:	48 39 85 68 ff ff ff 	cmp    QWORD PTR [rbp-0x98],rax
   1d696:	40 8a 75 cd          	mov    sil,BYTE PTR [rbp-0x33]
   1d69a:	4c 8b 95 38 ff ff ff 	mov    r10,QWORD PTR [rbp-0xc8]
   1d6a1:	48 8b 9d 00 ff ff ff 	mov    rbx,QWORD PTR [rbp-0x100]
   1d6a8:	4c 8b ad f0 fe ff ff 	mov    r13,QWORD PTR [rbp-0x110]
   1d6af:	4c 8b bd f8 fe ff ff 	mov    r15,QWORD PTR [rbp-0x108]
   1d6b6:	4c 8b 9d 18 ff ff ff 	mov    r11,QWORD PTR [rbp-0xe8]
   1d6bd:	4c 8b 8d 20 ff ff ff 	mov    r9,QWORD PTR [rbp-0xe0]
   1d6c4:	48 8b bd 10 ff ff ff 	mov    rdi,QWORD PTR [rbp-0xf0]
   1d6cb:	4c 8b a5 08 ff ff ff 	mov    r12,QWORD PTR [rbp-0xf8]
   1d6d2:	48 8b 8d 40 ff ff ff 	mov    rcx,QWORD PTR [rbp-0xc0]
   1d6d9:	4c 8b 85 28 ff ff ff 	mov    r8,QWORD PTR [rbp-0xd8]
   1d6e0:	48 8b 95 30 ff ff ff 	mov    rdx,QWORD PTR [rbp-0xd0]
   1d6e7:	0f 84 50 33 00 00    	je     20a3d <Java_com_adjust_sdk_sig_NativeLibHelper_nOnResume@@Base-0x9a266>
   1d6ed:	48 b8 9e cc 65 19 d2 	movabs rax,0x71080ed21965cc9e
   1d6f4:	0e 08 71 
   1d6f7:	48 39 85 68 ff ff ff 	cmp    QWORD PTR [rbp-0x98],rax
   1d6fe:	0f 84 06 1a 00 00    	je     1f10a <Java_com_adjust_sdk_sig_NativeLibHelper_nOnResume@@Base-0x9bb99>
   1d704:	48 b8 0b 39 f5 e6 3b 	movabs rax,0x7179b33be6f5390b
   1d70b:	b3 79 71 
   1d70e:	48 39 85 68 ff ff ff 	cmp    QWORD PTR [rbp-0x98],rax
   1d715:	0f 84 8a 27 00 00    	je     1fea5 <Java_com_adjust_sdk_sig_NativeLibHelper_nOnResume@@Base-0x9adfe>
   1d71b:	8a 45 ce             	mov    al,BYTE PTR [rbp-0x32]
   1d71e:	88 45 cf             	mov    BYTE PTR [rbp-0x31],al
   1d721:	48 8b 85 50 ff ff ff 	mov    rax,QWORD PTR [rbp-0xb0]
   1d728:	48 89 85 70 ff ff ff 	mov    QWORD PTR [rbp-0x90],rax
   1d72f:	48 8b 85 60 ff ff ff 	mov    rax,QWORD PTR [rbp-0xa0]
   1d736:	48 89 85 78 ff ff ff 	mov    QWORD PTR [rbp-0x88],rax
   1d73d:	4c 8b b5 e0 fe ff ff 	mov    r14,QWORD PTR [rbp-0x120]
   1d744:	4c 89 f0             	mov    rax,r14
   1d747:	4c 89 75 80          	mov    QWORD PTR [rbp-0x80],r14
   1d74b:	4d 89 ca             	mov    r10,r9
   1d74e:	4c 8b 8d e8 fe ff ff 	mov    r9,QWORD PTR [rbp-0x118]
   1d755:	4c 89 4d 88          	mov    QWORD PTR [rbp-0x78],r9
   1d759:	48 8b 85 48 ff ff ff 	mov    rax,QWORD PTR [rbp-0xb8]
   1d760:	48 89 45 90          	mov    QWORD PTR [rbp-0x70],rax
   1d764:	48 8b 85 58 ff ff ff 	mov    rax,QWORD PTR [rbp-0xa8]
   1d76b:	48 89 45 98          	mov    QWORD PTR [rbp-0x68],rax
   1d76f:	48 89 55 a0          	mov    QWORD PTR [rbp-0x60],rdx
   1d773:	4c 89 45 a8          	mov    QWORD PTR [rbp-0x58],r8
   1d777:	48 89 4d b0          	mov    QWORD PTR [rbp-0x50],rcx
   1d77b:	4c 89 e0             	mov    rax,r12
   1d77e:	48 89 7d b8          	mov    QWORD PTR [rbp-0x48],rdi
   1d782:	4c 89 55 c0          	mov    QWORD PTR [rbp-0x40],r10
   1d786:	4c 8b 95 38 ff ff ff 	mov    r10,QWORD PTR [rbp-0xc8]
   1d78d:	48 ba 4b c4 0a 99 13 	movabs rdx,0x13e17013990ac44b
   1d794:	70 e1 13 
   1d797:	49 bc 99 4f cd 98 01 	movabs r12,0x71ec920198cd4f99
   1d79e:	92 ec 71 
   1d7a1:	4c 39 a5 68 ff ff ff 	cmp    QWORD PTR [rbp-0x98],r12
   1d7a8:	0f 84 7f c4 ff ff    	je     19c2d <Java_com_adjust_sdk_sig_NativeLibHelper_nOnResume@@Base-0xa1076>
   1d7ae:	8a 45 ce             	mov    al,BYTE PTR [rbp-0x32]
   1d7b1:	88 45 cf             	mov    BYTE PTR [rbp-0x31],al
   1d7b4:	8a 85 df fe ff ff    	mov    al,BYTE PTR [rbp-0x121]
   1d7ba:	89 c6                	mov    esi,eax
   1d7bc:	48 8b 85 50 ff ff ff 	mov    rax,QWORD PTR [rbp-0xb0]
   1d7c3:	48 89 85 70 ff ff ff 	mov    QWORD PTR [rbp-0x90],rax
   1d7ca:	48 8b 85 60 ff ff ff 	mov    rax,QWORD PTR [rbp-0xa0]
   1d7d1:	48 89 85 78 ff ff ff 	mov    QWORD PTR [rbp-0x88],rax
   1d7d8:	4c 89 f0             	mov    rax,r14
   1d7db:	4c 89 75 80          	mov    QWORD PTR [rbp-0x80],r14
   1d7df:	4c 89 4d 88          	mov    QWORD PTR [rbp-0x78],r9
   1d7e3:	48 8b 85 48 ff ff ff 	mov    rax,QWORD PTR [rbp-0xb8]
   1d7ea:	48 89 45 90          	mov    QWORD PTR [rbp-0x70],rax
   1d7ee:	48 8b 85 58 ff ff ff 	mov    rax,QWORD PTR [rbp-0xa8]
   1d7f5:	48 89 45 98          	mov    QWORD PTR [rbp-0x68],rax
   1d7f9:	48 8b 85 30 ff ff ff 	mov    rax,QWORD PTR [rbp-0xd0]
   1d800:	48 89 45 a0          	mov    QWORD PTR [rbp-0x60],rax
   1d804:	48 8b 85 28 ff ff ff 	mov    rax,QWORD PTR [rbp-0xd8]
   1d80b:	48 89 45 a8          	mov    QWORD PTR [rbp-0x58],rax
   1d80f:	48 8b 85 40 ff ff ff 	mov    rax,QWORD PTR [rbp-0xc0]
   1d816:	48 89 45 b0          	mov    QWORD PTR [rbp-0x50],rax
   1d81a:	48 8b 85 08 ff ff ff 	mov    rax,QWORD PTR [rbp-0xf8]
   1d821:	48 8b 8d 10 ff ff ff 	mov    rcx,QWORD PTR [rbp-0xf0]
   1d828:	48 89 4d b8          	mov    QWORD PTR [rbp-0x48],rcx
   1d82c:	48 8b 8d 20 ff ff ff 	mov    rcx,QWORD PTR [rbp-0xe0]
   1d833:	48 89 4d c0          	mov    QWORD PTR [rbp-0x40],rcx
   1d837:	4c 8b 9d 18 ff ff ff 	mov    r11,QWORD PTR [rbp-0xe8]
   1d83e:	4c 8b bd f8 fe ff ff 	mov    r15,QWORD PTR [rbp-0x108]
   1d845:	4c 8b ad f0 fe ff ff 	mov    r13,QWORD PTR [rbp-0x110]
   1d84c:	48 8b 9d 00 ff ff ff 	mov    rbx,QWORD PTR [rbp-0x100]
   1d853:	4c 8b 95 38 ff ff ff 	mov    r10,QWORD PTR [rbp-0xc8]
   1d85a:	48 ba 08 bf 53 4c b3 	movabs rdx,0x177defb34c53bf08
   1d861:	ef 7d 17 
   1d864:	49 bc 17 2c 41 ba 3a 	movabs r12,0x726f033aba412c17
   1d86b:	03 6f 72 
   1d86e:	4c 39 a5 68 ff ff ff 	cmp    QWORD PTR [rbp-0x98],r12
   1d875:	0f 84 b2 c3 ff ff    	je     19c2d <Java_com_adjust_sdk_sig_NativeLibHelper_nOnResume@@Base-0xa1076>
   1d87b:	48 b8 43 95 7e cf d7 	movabs rax,0x73995fd7cf7e9543
   1d882:	5f 99 73 
   1d885:	48 39 85 68 ff ff ff 	cmp    QWORD PTR [rbp-0x98],rax
   1d88c:	0f 84 4f 2b 00 00    	je     203e1 <Java_com_adjust_sdk_sig_NativeLibHelper_nOnResume@@Base-0x9a8c2>
   1d892:	8a 45 ce             	mov    al,BYTE PTR [rbp-0x32]
   1d895:	88 45 cf             	mov    BYTE PTR [rbp-0x31],al
   1d898:	8a 45 cd             	mov    al,BYTE PTR [rbp-0x33]
   1d89b:	89 c6                	mov    esi,eax
   1d89d:	48 8b 85 50 ff ff ff 	mov    rax,QWORD PTR [rbp-0xb0]
   1d8a4:	48 89 85 70 ff ff ff 	mov    QWORD PTR [rbp-0x90],rax
   1d8ab:	48 8b 85 60 ff ff ff 	mov    rax,QWORD PTR [rbp-0xa0]
   1d8b2:	48 89 85 78 ff ff ff 	mov    QWORD PTR [rbp-0x88],rax
   1d8b9:	4c 89 f0             	mov    rax,r14
   1d8bc:	4c 89 75 80          	mov    QWORD PTR [rbp-0x80],r14
   1d8c0:	4c 89 4d 88          	mov    QWORD PTR [rbp-0x78],r9
   1d8c4:	48 8b 85 48 ff ff ff 	mov    rax,QWORD PTR [rbp-0xb8]
   1d8cb:	48 89 45 90          	mov    QWORD PTR [rbp-0x70],rax
   1d8cf:	48 8b 85 58 ff ff ff 	mov    rax,QWORD PTR [rbp-0xa8]
   1d8d6:	48 89 45 98          	mov    QWORD PTR [rbp-0x68],rax
   1d8da:	48 8b 85 30 ff ff ff 	mov    rax,QWORD PTR [rbp-0xd0]
   1d8e1:	48 89 45 a0          	mov    QWORD PTR [rbp-0x60],rax
   1d8e5:	48 8b 85 28 ff ff ff 	mov    rax,QWORD PTR [rbp-0xd8]
   1d8ec:	48 89 45 a8          	mov    QWORD PTR [rbp-0x58],rax
   1d8f0:	48 8b 85 40 ff ff ff 	mov    rax,QWORD PTR [rbp-0xc0]
   1d8f7:	48 89 45 b0          	mov    QWORD PTR [rbp-0x50],rax
   1d8fb:	48 8b 85 08 ff ff ff 	mov    rax,QWORD PTR [rbp-0xf8]
   1d902:	48 8b 8d 10 ff ff ff 	mov    rcx,QWORD PTR [rbp-0xf0]
   1d909:	48 89 4d b8          	mov    QWORD PTR [rbp-0x48],rcx
   1d90d:	48 8b 8d 20 ff ff ff 	mov    rcx,QWORD PTR [rbp-0xe0]
   1d914:	48 89 4d c0          	mov    QWORD PTR [rbp-0x40],rcx
   1d918:	4c 8b 9d 18 ff ff ff 	mov    r11,QWORD PTR [rbp-0xe8]
   1d91f:	4c 8b bd f8 fe ff ff 	mov    r15,QWORD PTR [rbp-0x108]
   1d926:	4c 8b ad f0 fe ff ff 	mov    r13,QWORD PTR [rbp-0x110]
   1d92d:	48 8b 9d 00 ff ff ff 	mov    rbx,QWORD PTR [rbp-0x100]
   1d934:	4c 8b 95 38 ff ff ff 	mov    r10,QWORD PTR [rbp-0xc8]
   1d93b:	48 ba fa b1 98 15 30 	movabs rdx,0xe2c041301598b1fa
   1d942:	41 c0 e2 
   1d945:	49 bc 2c 74 6e 7a 89 	movabs r12,0x73a9e0897a6e742c
   1d94c:	e0 a9 73 
   1d94f:	4c 39 a5 68 ff ff ff 	cmp    QWORD PTR [rbp-0x98],r12
   1d956:	0f 84 d1 c2 ff ff    	je     19c2d <Java_com_adjust_sdk_sig_NativeLibHelper_nOnResume@@Base-0xa1076>
   1d95c:	8a 45 ce             	mov    al,BYTE PTR [rbp-0x32]
   1d95f:	88 45 cf             	mov    BYTE PTR [rbp-0x31],al
   1d962:	8a 45 cd             	mov    al,BYTE PTR [rbp-0x33]
   1d965:	89 c6                	mov    esi,eax
   1d967:	48 8b 85 50 ff ff ff 	mov    rax,QWORD PTR [rbp-0xb0]
   1d96e:	48 89 85 70 ff ff ff 	mov    QWORD PTR [rbp-0x90],rax
   1d975:	48 8b 85 60 ff ff ff 	mov    rax,QWORD PTR [rbp-0xa0]
   1d97c:	48 89 85 78 ff ff ff 	mov    QWORD PTR [rbp-0x88],rax
   1d983:	4c 89 f0             	mov    rax,r14
   1d986:	4c 89 75 80          	mov    QWORD PTR [rbp-0x80],r14
   1d98a:	4c 89 4d 88          	mov    QWORD PTR [rbp-0x78],r9
   1d98e:	48 8b 85 48 ff ff ff 	mov    rax,QWORD PTR [rbp-0xb8]
   1d995:	48 89 45 90          	mov    QWORD PTR [rbp-0x70],rax
   1d999:	48 8b 85 58 ff ff ff 	mov    rax,QWORD PTR [rbp-0xa8]
   1d9a0:	48 89 45 98          	mov    QWORD PTR [rbp-0x68],rax
   1d9a4:	48 8b 85 30 ff ff ff 	mov    rax,QWORD PTR [rbp-0xd0]
   1d9ab:	48 89 45 a0          	mov    QWORD PTR [rbp-0x60],rax
   1d9af:	48 8b 85 28 ff ff ff 	mov    rax,QWORD PTR [rbp-0xd8]
   1d9b6:	48 89 45 a8          	mov    QWORD PTR [rbp-0x58],rax
   1d9ba:	48 8b 85 40 ff ff ff 	mov    rax,QWORD PTR [rbp-0xc0]
   1d9c1:	48 89 45 b0          	mov    QWORD PTR [rbp-0x50],rax
   1d9c5:	48 8b 85 08 ff ff ff 	mov    rax,QWORD PTR [rbp-0xf8]
   1d9cc:	48 8b 8d 10 ff ff ff 	mov    rcx,QWORD PTR [rbp-0xf0]
   1d9d3:	48 89 4d b8          	mov    QWORD PTR [rbp-0x48],rcx
   1d9d7:	48 8b 8d 20 ff ff ff 	mov    rcx,QWORD PTR [rbp-0xe0]
   1d9de:	48 89 4d c0          	mov    QWORD PTR [rbp-0x40],rcx
   1d9e2:	4c 8b 9d 18 ff ff ff 	mov    r11,QWORD PTR [rbp-0xe8]
   1d9e9:	4c 8b bd f8 fe ff ff 	mov    r15,QWORD PTR [rbp-0x108]
   1d9f0:	4c 8b ad f0 fe ff ff 	mov    r13,QWORD PTR [rbp-0x110]
   1d9f7:	48 8b 9d 00 ff ff ff 	mov    rbx,QWORD PTR [rbp-0x100]
   1d9fe:	4c 8b 95 38 ff ff ff 	mov    r10,QWORD PTR [rbp-0xc8]
   1da05:	48 ba 01 e1 5e 0e ec 	movabs rdx,0x3864c6ec0e5ee101
   1da0c:	c6 64 38 
   1da0f:	49 bc 7e 09 3c f6 5b 	movabs r12,0x7656f65bf63c097e
   1da16:	f6 56 76 
   1da19:	4c 39 a5 68 ff ff ff 	cmp    QWORD PTR [rbp-0x98],r12
   1da20:	0f 84 07 c2 ff ff    	je     19c2d <Java_com_adjust_sdk_sig_NativeLibHelper_nOnResume@@Base-0xa1076>
   1da26:	48 b8 9d 0f 45 29 85 	movabs rax,0x766c658529450f9d
   1da2d:	65 6c 76 
   1da30:	48 39 85 68 ff ff ff 	cmp    QWORD PTR [rbp-0x98],rax
   1da37:	0f 84 fd 24 00 00    	je     1ff3a <Java_com_adjust_sdk_sig_NativeLibHelper_nOnResume@@Base-0x9ad69>
   1da3d:	48 b8 c0 25 03 0f ff 	movabs rax,0x76af6eff0f0325c0
   1da44:	6e af 76 
   1da47:	48 39 85 68 ff ff ff 	cmp    QWORD PTR [rbp-0x98],rax
   1da4e:	40 8a 75 cd          	mov    sil,BYTE PTR [rbp-0x33]
   1da52:	4c 8b 95 38 ff ff ff 	mov    r10,QWORD PTR [rbp-0xc8]
   1da59:	48 8b 9d 00 ff ff ff 	mov    rbx,QWORD PTR [rbp-0x100]
   1da60:	4c 8b ad f0 fe ff ff 	mov    r13,QWORD PTR [rbp-0x110]
   1da67:	4c 8b bd f8 fe ff ff 	mov    r15,QWORD PTR [rbp-0x108]
   1da6e:	4c 8b 8d 18 ff ff ff 	mov    r9,QWORD PTR [rbp-0xe8]
   1da75:	4c 8b 85 20 ff ff ff 	mov    r8,QWORD PTR [rbp-0xe0]
   1da7c:	48 8b bd 10 ff ff ff 	mov    rdi,QWORD PTR [rbp-0xf0]
   1da83:	4c 8b a5 08 ff ff ff 	mov    r12,QWORD PTR [rbp-0xf8]
   1da8a:	4c 8b 9d 28 ff ff ff 	mov    r11,QWORD PTR [rbp-0xd8]
   1da91:	48 8b 95 30 ff ff ff 	mov    rdx,QWORD PTR [rbp-0xd0]
   1da98:	0f 84 f4 21 00 00    	je     1fc92 <Java_com_adjust_sdk_sig_NativeLibHelper_nOnResume@@Base-0x9b011>
   1da9e:	48 b8 46 eb 53 bf 65 	movabs rax,0x77f78c65bf53eb46
   1daa5:	8c f7 77 
   1daa8:	48 39 85 68 ff ff ff 	cmp    QWORD PTR [rbp-0x98],rax
   1daaf:	0f 84 b1 15 00 00    	je     1f066 <Java_com_adjust_sdk_sig_NativeLibHelper_nOnResume@@Base-0x9bc3d>
   1dab5:	48 b8 02 84 46 ec 12 	movabs rax,0x79d30012ec468402
   1dabc:	00 d3 79 
   1dabf:	48 39 85 68 ff ff ff 	cmp    QWORD PTR [rbp-0x98],rax
   1dac6:	0f 84 57 25 00 00    	je     20023 <Java_com_adjust_sdk_sig_NativeLibHelper_nOnResume@@Base-0x9ac80>
   1dacc:	48 b8 73 ca 09 20 fe 	movabs rax,0x7bded1fe2009ca73
   1dad3:	d1 de 7b 
   1dad6:	48 39 85 68 ff ff ff 	cmp    QWORD PTR [rbp-0x98],rax
   1dadd:	0f 84 f6 20 00 00    	je     1fbd9 <Java_com_adjust_sdk_sig_NativeLibHelper_nOnResume@@Base-0x9b0ca>
   1dae3:	48 b8 31 c4 bf 8b a2 	movabs rax,0x7c0cc7a28bbfc431
   1daea:	c7 0c 7c 
   1daed:	48 39 85 68 ff ff ff 	cmp    QWORD PTR [rbp-0x98],rax
   1daf4:	0f 84 9c 17 00 00    	je     1f296 <Java_com_adjust_sdk_sig_NativeLibHelper_nOnResume@@Base-0x9ba0d>
   1dafa:	8a 45 ce             	mov    al,BYTE PTR [rbp-0x32]
   1dafd:	88 45 cf             	mov    BYTE PTR [rbp-0x31],al
   1db00:	48 8b 85 50 ff ff ff 	mov    rax,QWORD PTR [rbp-0xb0]
   1db07:	48 89 85 70 ff ff ff 	mov    QWORD PTR [rbp-0x90],rax
   1db0e:	48 8b 85 60 ff ff ff 	mov    rax,QWORD PTR [rbp-0xa0]
   1db15:	48 89 85 78 ff ff ff 	mov    QWORD PTR [rbp-0x88],rax
   1db1c:	4c 8b b5 e0 fe ff ff 	mov    r14,QWORD PTR [rbp-0x120]
   1db23:	4c 89 f0             	mov    rax,r14
   1db26:	4c 89 75 80          	mov    QWORD PTR [rbp-0x80],r14
   1db2a:	48 8b 8d e8 fe ff ff 	mov    rcx,QWORD PTR [rbp-0x118]
   1db31:	48 89 4d 88          	mov    QWORD PTR [rbp-0x78],rcx
   1db35:	48 8b 85 48 ff ff ff 	mov    rax,QWORD PTR [rbp-0xb8]
   1db3c:	48 89 45 90          	mov    QWORD PTR [rbp-0x70],rax
   1db40:	48 8b 85 58 ff ff ff 	mov    rax,QWORD PTR [rbp-0xa8]
   1db47:	48 89 45 98          	mov    QWORD PTR [rbp-0x68],rax
   1db4b:	48 89 55 a0          	mov    QWORD PTR [rbp-0x60],rdx
   1db4f:	4c 89 5d a8          	mov    QWORD PTR [rbp-0x58],r11
   1db53:	48 8b 85 40 ff ff ff 	mov    rax,QWORD PTR [rbp-0xc0]
   1db5a:	48 89 45 b0          	mov    QWORD PTR [rbp-0x50],rax
   1db5e:	4c 89 e0             	mov    rax,r12
   1db61:	48 89 7d b8          	mov    QWORD PTR [rbp-0x48],rdi
   1db65:	4c 89 45 c0          	mov    QWORD PTR [rbp-0x40],r8
   1db69:	4d 89 cb             	mov    r11,r9
   1db6c:	48 ba 5b 1b a8 e1 5c 	movabs rdx,0xb54bb05ce1a81b5b
   1db73:	b0 4b b5 
   1db76:	49 bc d4 d3 3d f2 04 	movabs r12,0x7cb35704f23dd3d4
   1db7d:	57 b3 7c 
   1db80:	4c 39 a5 68 ff ff ff 	cmp    QWORD PTR [rbp-0x98],r12
   1db87:	0f 84 a0 c0 ff ff    	je     19c2d <Java_com_adjust_sdk_sig_NativeLibHelper_nOnResume@@Base-0xa1076>
   1db8d:	4d 89 f0             	mov    r8,r14
   1db90:	49 89 c9             	mov    r9,rcx
   1db93:	8a 45 ce             	mov    al,BYTE PTR [rbp-0x32]
   1db96:	88 45 cf             	mov    BYTE PTR [rbp-0x31],al
   1db99:	8a 45 cd             	mov    al,BYTE PTR [rbp-0x33]
   1db9c:	89 c6                	mov    esi,eax
   1db9e:	48 8b 85 50 ff ff ff 	mov    rax,QWORD PTR [rbp-0xb0]
   1dba5:	48 89 85 70 ff ff ff 	mov    QWORD PTR [rbp-0x90],rax
   1dbac:	48 8b 85 60 ff ff ff 	mov    rax,QWORD PTR [rbp-0xa0]
   1dbb3:	48 89 85 78 ff ff ff 	mov    QWORD PTR [rbp-0x88],rax
   1dbba:	4c 89 f0             	mov    rax,r14
   1dbbd:	4c 89 45 80          	mov    QWORD PTR [rbp-0x80],r8
   1dbc1:	48 89 4d 88          	mov    QWORD PTR [rbp-0x78],rcx
   1dbc5:	48 8b 85 48 ff ff ff 	mov    rax,QWORD PTR [rbp-0xb8]
   1dbcc:	48 89 45 90          	mov    QWORD PTR [rbp-0x70],rax
   1dbd0:	48 8b 85 58 ff ff ff 	mov    rax,QWORD PTR [rbp-0xa8]
   1dbd7:	48 89 45 98          	mov    QWORD PTR [rbp-0x68],rax
   1dbdb:	48 8b 85 30 ff ff ff 	mov    rax,QWORD PTR [rbp-0xd0]
   1dbe2:	48 89 45 a0          	mov    QWORD PTR [rbp-0x60],rax
   1dbe6:	48 8b 85 28 ff ff ff 	mov    rax,QWORD PTR [rbp-0xd8]
   1dbed:	48 89 45 a8          	mov    QWORD PTR [rbp-0x58],rax
   1dbf1:	48 8b 85 40 ff ff ff 	mov    rax,QWORD PTR [rbp-0xc0]
   1dbf8:	48 89 45 b0          	mov    QWORD PTR [rbp-0x50],rax
   1dbfc:	48 8b 85 08 ff ff ff 	mov    rax,QWORD PTR [rbp-0xf8]
   1dc03:	48 8b 8d 10 ff ff ff 	mov    rcx,QWORD PTR [rbp-0xf0]
   1dc0a:	48 89 4d b8          	mov    QWORD PTR [rbp-0x48],rcx
   1dc0e:	48 8b 8d 20 ff ff ff 	mov    rcx,QWORD PTR [rbp-0xe0]
   1dc15:	48 89 4d c0          	mov    QWORD PTR [rbp-0x40],rcx
   1dc19:	4c 8b 9d 18 ff ff ff 	mov    r11,QWORD PTR [rbp-0xe8]
   1dc20:	4c 8b bd f8 fe ff ff 	mov    r15,QWORD PTR [rbp-0x108]
   1dc27:	4c 8b ad f0 fe ff ff 	mov    r13,QWORD PTR [rbp-0x110]
   1dc2e:	48 8b 9d 00 ff ff ff 	mov    rbx,QWORD PTR [rbp-0x100]
   1dc35:	4c 8b 95 38 ff ff ff 	mov    r10,QWORD PTR [rbp-0xc8]
   1dc3c:	48 ba ab 05 b0 c2 ba 	movabs rdx,0x8f3126bac2b005ab
   1dc43:	26 31 8f 
   1dc46:	49 bc 82 2a fa 41 99 	movabs r12,0x7cb64e9941fa2a82
   1dc4d:	4e b6 7c 
   1dc50:	4c 39 a5 68 ff ff ff 	cmp    QWORD PTR [rbp-0x98],r12
   1dc57:	0f 84 d0 bf ff ff    	je     19c2d <Java_com_adjust_sdk_sig_NativeLibHelper_nOnResume@@Base-0xa1076>
   1dc5d:	48 b8 f9 ee 42 72 b3 	movabs rax,0x7ec488b37242eef9
   1dc64:	88 c4 7e 
   1dc67:	48 39 85 68 ff ff ff 	cmp    QWORD PTR [rbp-0x98],rax
   1dc6e:	0f 84 e1 17 00 00    	je     1f455 <Java_com_adjust_sdk_sig_NativeLibHelper_nOnResume@@Base-0x9b84e>
   1dc74:	48 b8 fa 4e 00 7d e8 	movabs rax,0x7fed88e87d004efa
   1dc7b:	88 ed 7f 
   1dc7e:	48 39 85 68 ff ff ff 	cmp    QWORD PTR [rbp-0x98],rax
   1dc85:	44 8a 75 cd          	mov    r14b,BYTE PTR [rbp-0x33]
   1dc89:	4c 8b 95 38 ff ff ff 	mov    r10,QWORD PTR [rbp-0xc8]
   1dc90:	48 8b 8d 00 ff ff ff 	mov    rcx,QWORD PTR [rbp-0x100]
   1dc97:	4c 8b ad f0 fe ff ff 	mov    r13,QWORD PTR [rbp-0x110]
   1dc9e:	4c 8b bd f8 fe ff ff 	mov    r15,QWORD PTR [rbp-0x108]
   1dca5:	48 8b 9d 18 ff ff ff 	mov    rbx,QWORD PTR [rbp-0xe8]
   1dcac:	48 8b b5 20 ff ff ff 	mov    rsi,QWORD PTR [rbp-0xe0]
   1dcb3:	48 8b bd 10 ff ff ff 	mov    rdi,QWORD PTR [rbp-0xf0]
   1dcba:	4c 8b a5 08 ff ff ff 	mov    r12,QWORD PTR [rbp-0xf8]
   1dcc1:	4c 8b 9d 28 ff ff ff 	mov    r11,QWORD PTR [rbp-0xd8]
   1dcc8:	48 8b 95 30 ff ff ff 	mov    rdx,QWORD PTR [rbp-0xd0]
   1dccf:	0f 84 37 19 00 00    	je     1f60c <Java_com_adjust_sdk_sig_NativeLibHelper_nOnResume@@Base-0x9b697>
   1dcd5:	8a 45 ce             	mov    al,BYTE PTR [rbp-0x32]
   1dcd8:	88 45 cf             	mov    BYTE PTR [rbp-0x31],al
   1dcdb:	48 8b 85 50 ff ff ff 	mov    rax,QWORD PTR [rbp-0xb0]
   1dce2:	48 89 85 70 ff ff ff 	mov    QWORD PTR [rbp-0x90],rax
   1dce9:	48 8b 85 60 ff ff ff 	mov    rax,QWORD PTR [rbp-0xa0]
   1dcf0:	48 89 85 78 ff ff ff 	mov    QWORD PTR [rbp-0x88],rax
   1dcf7:	4c 89 c0             	mov    rax,r8
   1dcfa:	4c 89 45 80          	mov    QWORD PTR [rbp-0x80],r8
   1dcfe:	4c 89 4d 88          	mov    QWORD PTR [rbp-0x78],r9
   1dd02:	48 8b 85 48 ff ff ff 	mov    rax,QWORD PTR [rbp-0xb8]
   1dd09:	48 89 45 90          	mov    QWORD PTR [rbp-0x70],rax
   1dd0d:	48 8b 85 58 ff ff ff 	mov    rax,QWORD PTR [rbp-0xa8]
   1dd14:	48 89 45 98          	mov    QWORD PTR [rbp-0x68],rax
   1dd18:	48 89 55 a0          	mov    QWORD PTR [rbp-0x60],rdx
   1dd1c:	4c 89 5d a8          	mov    QWORD PTR [rbp-0x58],r11
   1dd20:	48 8b 85 40 ff ff ff 	mov    rax,QWORD PTR [rbp-0xc0]
   1dd27:	48 89 45 b0          	mov    QWORD PTR [rbp-0x50],rax
   1dd2b:	4c 89 e0             	mov    rax,r12
   1dd2e:	48 89 7d b8          	mov    QWORD PTR [rbp-0x48],rdi
   1dd32:	48 89 75 c0          	mov    QWORD PTR [rbp-0x40],rsi
   1dd36:	49 89 db             	mov    r11,rbx
   1dd39:	48 89 cb             	mov    rbx,rcx
   1dd3c:	44 89 f6             	mov    esi,r14d
   1dd3f:	48 8b 8d 68 ff ff ff 	mov    rcx,QWORD PTR [rbp-0x98]
   1dd46:	48 89 ca             	mov    rdx,rcx
   1dd49:	49 bc 8a 05 1f a3 bd 	movabs r12,0xa95e6abda31f058a
   1dd50:	6a 5e a9 
   1dd53:	4c 39 e1             	cmp    rcx,r12
   1dd56:	0f 85 d1 be ff ff    	jne    19c2d <Java_com_adjust_sdk_sig_NativeLibHelper_nOnResume@@Base-0xa1076>
   1dd5c:	e9 d0 4d 00 00       	jmp    22b31 <Java_com_adjust_sdk_sig_NativeLibHelper_nOnResume@@Base-0x98172>
   1dd61:	4c 8b a5 48 ff ff ff 	mov    r12,QWORD PTR [rbp-0xb8]
   1dd68:	48 ba 04 3c 23 00 d6 	movabs rdx,0x10d621d600233c04
   1dd6f:	21 d6 10 
   1dd72:	4c 8b b5 90 fd ff ff 	mov    r14,QWORD PTR [rbp-0x270]
   1dd79:	4d 85 f6             	test   r14,r14
   1dd7c:	74 0a                	je     1dd88 <Java_com_adjust_sdk_sig_NativeLibHelper_nOnResume@@Base-0x9cf1b>
   1dd7e:	48 ba 0b 28 6e b6 97 	movabs rdx,0x4d49f797b66e280b
   1dd85:	f7 49 4d 
   1dd88:	44 8a 5d ce          	mov    r11b,BYTE PTR [rbp-0x32]
   1dd8c:	44 88 5d cf          	mov    BYTE PTR [rbp-0x31],r11b
   1dd90:	4c 8b 9d 50 ff ff ff 	mov    r11,QWORD PTR [rbp-0xb0]
   1dd97:	4c 89 9d 70 ff ff ff 	mov    QWORD PTR [rbp-0x90],r11
   1dd9e:	4c 8b 9d 60 ff ff ff 	mov    r11,QWORD PTR [rbp-0xa0]
   1dda5:	4c 89 9d 78 ff ff ff 	mov    QWORD PTR [rbp-0x88],r11
   1ddac:	4c 8b 9d e0 fe ff ff 	mov    r11,QWORD PTR [rbp-0x120]
   1ddb3:	4c 89 5d 80          	mov    QWORD PTR [rbp-0x80],r11
   1ddb7:	4c 8b 9d e8 fe ff ff 	mov    r11,QWORD PTR [rbp-0x118]
   1ddbe:	4c 89 5d 88          	mov    QWORD PTR [rbp-0x78],r11
   1ddc2:	4c 89 65 90          	mov    QWORD PTR [rbp-0x70],r12
   1ddc6:	4c 8b 9d 58 ff ff ff 	mov    r11,QWORD PTR [rbp-0xa8]
   1ddcd:	4c 89 5d 98          	mov    QWORD PTR [rbp-0x68],r11
   1ddd1:	4c 8b 9d 30 ff ff ff 	mov    r11,QWORD PTR [rbp-0xd0]
   1ddd8:	4c 89 5d a0          	mov    QWORD PTR [rbp-0x60],r11
   1dddc:	4c 8b 9d 28 ff ff ff 	mov    r11,QWORD PTR [rbp-0xd8]
   1dde3:	4c 89 5d a8          	mov    QWORD PTR [rbp-0x58],r11
   1dde7:	48 89 45 b0          	mov    QWORD PTR [rbp-0x50],rax
   1ddeb:	48 89 c8             	mov    rax,rcx
   1ddee:	48 89 7d b8          	mov    QWORD PTR [rbp-0x48],rdi
   1ddf2:	4c 89 45 c0          	mov    QWORD PTR [rbp-0x40],r8
   1ddf6:	4d 89 cb             	mov    r11,r9
   1ddf9:	4c 89 b5 70 fc ff ff 	mov    QWORD PTR [rbp-0x390],r14
   1de00:	4c 8b b5 98 fd ff ff 	mov    r14,QWORD PTR [rbp-0x268]
   1de07:	4c 89 b5 20 fd ff ff 	mov    QWORD PTR [rbp-0x2e0],r14
   1de0e:	4c 8b b5 88 fd ff ff 	mov    r14,QWORD PTR [rbp-0x278]
   1de15:	4c 89 b5 28 fd ff ff 	mov    QWORD PTR [rbp-0x2d8],r14
   1de1c:	e9 0c be ff ff       	jmp    19c2d <Java_com_adjust_sdk_sig_NativeLibHelper_nOnResume@@Base-0xa1076>
   1de21:	48 8b bd b0 fe ff ff 	mov    rdi,QWORD PTR [rbp-0x150]
   1de28:	e8 43 4a 11 00       	call   132870 <strdup@plt>
   1de2d:	48 8b 8d 70 fe ff ff 	mov    rcx,QWORD PTR [rbp-0x190]
   1de34:	48 89 01             	mov    QWORD PTR [rcx],rax
   1de37:	48 ba c4 a9 c2 35 35 	movabs rdx,0x9074123535c2a9c4
   1de3e:	12 74 90 
   1de41:	48 85 c0             	test   rax,rax
   1de44:	40 8a 75 cd          	mov    sil,BYTE PTR [rbp-0x33]
   1de48:	4c 8b 95 38 ff ff ff 	mov    r10,QWORD PTR [rbp-0xc8]
   1de4f:	48 8b 9d 00 ff ff ff 	mov    rbx,QWORD PTR [rbp-0x100]
   1de56:	4c 8b ad f0 fe ff ff 	mov    r13,QWORD PTR [rbp-0x110]
   1de5d:	4c 8b bd f8 fe ff ff 	mov    r15,QWORD PTR [rbp-0x108]
   1de64:	4c 8b 8d 18 ff ff ff 	mov    r9,QWORD PTR [rbp-0xe8]
   1de6b:	4c 8b 85 20 ff ff ff 	mov    r8,QWORD PTR [rbp-0xe0]
   1de72:	48 8b bd 10 ff ff ff 	mov    rdi,QWORD PTR [rbp-0xf0]
   1de79:	48 8b 8d 08 ff ff ff 	mov    rcx,QWORD PTR [rbp-0xf8]
   1de80:	48 8b 85 40 ff ff ff 	mov    rax,QWORD PTR [rbp-0xc0]
   1de87:	0f 84 2c 49 00 00    	je     227b9 <Java_com_adjust_sdk_sig_NativeLibHelper_nOnResume@@Base-0x984ea>
   1de8d:	48 ba 9d 41 b3 b6 a8 	movabs rdx,0xfa7167a8b6b3419d
   1de94:	67 71 fa 
   1de97:	e9 1d 49 00 00       	jmp    227b9 <Java_com_adjust_sdk_sig_NativeLibHelper_nOnResume@@Base-0x984ea>
   1de9c:	4c 8b 9d 48 ff ff ff 	mov    r11,QWORD PTR [rbp-0xb8]
   1dea3:	48 8b 85 b8 fe ff ff 	mov    rax,QWORD PTR [rbp-0x148]
   1deaa:	4c 8b b5 60 fc ff ff 	mov    r14,QWORD PTR [rbp-0x3a0]
   1deb1:	42 8a 44 30 ff       	mov    al,BYTE PTR [rax+r14*1-0x1]
   1deb6:	48 ba 6b 6b 81 6b 0e 	movabs rdx,0x9c3f250e6b816b6b
   1debd:	25 3f 9c 
   1dec0:	48 8b 8d 68 fe ff ff 	mov    rcx,QWORD PTR [rbp-0x198]
   1dec7:	42 3a 44 31 ff       	cmp    al,BYTE PTR [rcx+r14*1-0x1]
   1decc:	74 0a                	je     1ded8 <Java_com_adjust_sdk_sig_NativeLibHelper_nOnResume@@Base-0x9cdcb>
   1dece:	48 ba a3 4e 31 e2 8a 	movabs rdx,0xf151628ae2314ea3
   1ded5:	62 51 f1 
   1ded8:	8a 45 ce             	mov    al,BYTE PTR [rbp-0x32]
   1dedb:	88 45 cf             	mov    BYTE PTR [rbp-0x31],al
   1dede:	48 8b 85 50 ff ff ff 	mov    rax,QWORD PTR [rbp-0xb0]
   1dee5:	48 89 85 70 ff ff ff 	mov    QWORD PTR [rbp-0x90],rax
   1deec:	48 8b 85 60 ff ff ff 	mov    rax,QWORD PTR [rbp-0xa0]
   1def3:	48 89 85 78 ff ff ff 	mov    QWORD PTR [rbp-0x88],rax
   1defa:	48 8b 85 e0 fe ff ff 	mov    rax,QWORD PTR [rbp-0x120]
   1df01:	48 89 45 80          	mov    QWORD PTR [rbp-0x80],rax
   1df05:	48 8b 85 e8 fe ff ff 	mov    rax,QWORD PTR [rbp-0x118]
   1df0c:	48 89 45 88          	mov    QWORD PTR [rbp-0x78],rax
   1df10:	4c 89 5d 90          	mov    QWORD PTR [rbp-0x70],r11
   1df14:	48 8b 85 58 ff ff ff 	mov    rax,QWORD PTR [rbp-0xa8]
   1df1b:	48 89 45 98          	mov    QWORD PTR [rbp-0x68],rax
   1df1f:	48 8b 85 30 ff ff ff 	mov    rax,QWORD PTR [rbp-0xd0]
   1df26:	48 89 45 a0          	mov    QWORD PTR [rbp-0x60],rax
   1df2a:	48 8b 85 28 ff ff ff 	mov    rax,QWORD PTR [rbp-0xd8]
   1df31:	48 89 45 a8          	mov    QWORD PTR [rbp-0x58],rax
   1df35:	48 8b 85 40 ff ff ff 	mov    rax,QWORD PTR [rbp-0xc0]
   1df3c:	48 89 45 b0          	mov    QWORD PTR [rbp-0x50],rax
   1df40:	4c 89 e0             	mov    rax,r12
   1df43:	48 89 7d b8          	mov    QWORD PTR [rbp-0x48],rdi
   1df47:	4c 89 45 c0          	mov    QWORD PTR [rbp-0x40],r8
   1df4b:	4d 89 cb             	mov    r11,r9
   1df4e:	49 ff ce             	dec    r14
   1df51:	4c 89 b5 f0 fb ff ff 	mov    QWORD PTR [rbp-0x410],r14
   1df58:	e9 d0 bc ff ff       	jmp    19c2d <Java_com_adjust_sdk_sig_NativeLibHelper_nOnResume@@Base-0xa1076>
   1df5d:	48 8b 85 98 fc ff ff 	mov    rax,QWORD PTR [rbp-0x368]
   1df64:	8a 00                	mov    al,BYTE PTR [rax]
   1df66:	48 ba 7e 09 3c f6 5b 	movabs rdx,0x7656f65bf63c097e
   1df6d:	f6 56 76 
   1df70:	88 85 d9 fe ff ff    	mov    BYTE PTR [rbp-0x127],al
   1df76:	84 c0                	test   al,al
   1df78:	40 8a 75 cd          	mov    sil,BYTE PTR [rbp-0x33]
   1df7c:	4c 8b 95 38 ff ff ff 	mov    r10,QWORD PTR [rbp-0xc8]
   1df83:	48 8b 9d 00 ff ff ff 	mov    rbx,QWORD PTR [rbp-0x100]
   1df8a:	4c 8b ad f0 fe ff ff 	mov    r13,QWORD PTR [rbp-0x110]
   1df91:	4c 8b bd f8 fe ff ff 	mov    r15,QWORD PTR [rbp-0x108]
   1df98:	4c 8b 8d 18 ff ff ff 	mov    r9,QWORD PTR [rbp-0xe8]
   1df9f:	4c 8b 85 20 ff ff ff 	mov    r8,QWORD PTR [rbp-0xe0]
   1dfa6:	48 8b bd 10 ff ff ff 	mov    rdi,QWORD PTR [rbp-0xf0]
   1dfad:	48 8b 8d 08 ff ff ff 	mov    rcx,QWORD PTR [rbp-0xf8]
   1dfb4:	48 8b 85 40 ff ff ff 	mov    rax,QWORD PTR [rbp-0xc0]
   1dfbb:	0f 84 f8 47 00 00    	je     227b9 <Java_com_adjust_sdk_sig_NativeLibHelper_nOnResume@@Base-0x984ea>
   1dfc1:	48 ba d3 f7 5b 43 e3 	movabs rdx,0xb0bb71e3435bf7d3
   1dfc8:	71 bb b0 
   1dfcb:	e9 e9 47 00 00       	jmp    227b9 <Java_com_adjust_sdk_sig_NativeLibHelper_nOnResume@@Base-0x984ea>
   1dfd0:	81 35 36 db 11 00 29 	xor    DWORD PTR [rip+0x11db36],0x29292929        # 13bb10 <write@plt+0x8f90>
   1dfd7:	29 29 29 
   1dfda:	c6 05 54 0d 12 00 01 	mov    BYTE PTR [rip+0x120d54],0x1        # 13ed35 <write@plt+0xc1b5>
   1dfe1:	8a 45 ce             	mov    al,BYTE PTR [rbp-0x32]
   1dfe4:	88 45 cf             	mov    BYTE PTR [rbp-0x31],al
   1dfe7:	48 8b 85 50 ff ff ff 	mov    rax,QWORD PTR [rbp-0xb0]
   1dfee:	48 89 85 70 ff ff ff 	mov    QWORD PTR [rbp-0x90],rax
   1dff5:	48 8b 85 60 ff ff ff 	mov    rax,QWORD PTR [rbp-0xa0]
   1dffc:	48 89 85 78 ff ff ff 	mov    QWORD PTR [rbp-0x88],rax
   1e003:	48 89 c8             	mov    rax,rcx
   1e006:	48 89 4d 80          	mov    QWORD PTR [rbp-0x80],rcx
   1e00a:	4c 89 4d 88          	mov    QWORD PTR [rbp-0x78],r9
   1e00e:	48 8b 85 48 ff ff ff 	mov    rax,QWORD PTR [rbp-0xb8]
   1e015:	48 89 45 90          	mov    QWORD PTR [rbp-0x70],rax
   1e019:	48 8b 85 58 ff ff ff 	mov    rax,QWORD PTR [rbp-0xa8]
   1e020:	48 89 45 98          	mov    QWORD PTR [rbp-0x68],rax
   1e024:	48 8b 85 30 ff ff ff 	mov    rax,QWORD PTR [rbp-0xd0]
   1e02b:	48 89 45 a0          	mov    QWORD PTR [rbp-0x60],rax
   1e02f:	48 8b 85 28 ff ff ff 	mov    rax,QWORD PTR [rbp-0xd8]
   1e036:	48 89 45 a8          	mov    QWORD PTR [rbp-0x58],rax
   1e03a:	48 8b 85 40 ff ff ff 	mov    rax,QWORD PTR [rbp-0xc0]
   1e041:	48 89 45 b0          	mov    QWORD PTR [rbp-0x50],rax
   1e045:	48 8b 85 08 ff ff ff 	mov    rax,QWORD PTR [rbp-0xf8]
   1e04c:	48 8b 8d 10 ff ff ff 	mov    rcx,QWORD PTR [rbp-0xf0]
   1e053:	48 89 4d b8          	mov    QWORD PTR [rbp-0x48],rcx
   1e057:	48 8b 8d 20 ff ff ff 	mov    rcx,QWORD PTR [rbp-0xe0]
   1e05e:	48 89 4d c0          	mov    QWORD PTR [rbp-0x40],rcx
   1e062:	4c 8b 9d 18 ff ff ff 	mov    r11,QWORD PTR [rbp-0xe8]
   1e069:	4c 8b bd f8 fe ff ff 	mov    r15,QWORD PTR [rbp-0x108]
   1e070:	4c 8b ad f0 fe ff ff 	mov    r13,QWORD PTR [rbp-0x110]
   1e077:	48 8b 9d 00 ff ff ff 	mov    rbx,QWORD PTR [rbp-0x100]
   1e07e:	4c 8b 95 38 ff ff ff 	mov    r10,QWORD PTR [rbp-0xc8]
   1e085:	8a 55 cd             	mov    dl,BYTE PTR [rbp-0x33]
   1e088:	89 d6                	mov    esi,edx
   1e08a:	48 ba 62 b7 3f a4 74 	movabs rdx,0xc1feef74a43fb762
   1e091:	ef fe c1 
   1e094:	e9 94 bb ff ff       	jmp    19c2d <Java_com_adjust_sdk_sig_NativeLibHelper_nOnResume@@Base-0xa1076>
   1e099:	48 8b 85 b8 fe ff ff 	mov    rax,QWORD PTR [rbp-0x148]
   1e0a0:	8a 00                	mov    al,BYTE PTR [rax]
   1e0a2:	48 ba 6d bd a5 e5 0c 	movabs rdx,0x8689970ce5a5bd6d
   1e0a9:	97 89 86 
   1e0ac:	88 85 de fe ff ff    	mov    BYTE PTR [rbp-0x122],al
   1e0b2:	84 c0                	test   al,al
   1e0b4:	0f 84 a4 47 00 00    	je     2285e <Java_com_adjust_sdk_sig_NativeLibHelper_nOnResume@@Base-0x98445>
   1e0ba:	48 ba fd ec 04 1c 83 	movabs rdx,0xc8e7a3831c04ecfd
   1e0c1:	a3 e7 c8 
   1e0c4:	e9 95 47 00 00       	jmp    2285e <Java_com_adjust_sdk_sig_NativeLibHelper_nOnResume@@Base-0x98445>
   1e0c9:	48 8b 85 c8 fd ff ff 	mov    rax,QWORD PTR [rbp-0x238]
   1e0d0:	c7 00 08 00 00 00    	mov    DWORD PTR [rax],0x8
   1e0d6:	8a 45 ce             	mov    al,BYTE PTR [rbp-0x32]
   1e0d9:	88 45 cf             	mov    BYTE PTR [rbp-0x31],al
   1e0dc:	48 8b 85 50 ff ff ff 	mov    rax,QWORD PTR [rbp-0xb0]
   1e0e3:	48 89 85 70 ff ff ff 	mov    QWORD PTR [rbp-0x90],rax
   1e0ea:	48 8b 85 60 ff ff ff 	mov    rax,QWORD PTR [rbp-0xa0]
   1e0f1:	48 89 85 78 ff ff ff 	mov    QWORD PTR [rbp-0x88],rax
   1e0f8:	48 89 f8             	mov    rax,rdi
   1e0fb:	48 89 7d 80          	mov    QWORD PTR [rbp-0x80],rdi
   1e0ff:	4c 89 4d 88          	mov    QWORD PTR [rbp-0x78],r9
   1e103:	48 8b 85 48 ff ff ff 	mov    rax,QWORD PTR [rbp-0xb8]
   1e10a:	48 89 45 90          	mov    QWORD PTR [rbp-0x70],rax
   1e10e:	48 8b 85 58 ff ff ff 	mov    rax,QWORD PTR [rbp-0xa8]
   1e115:	48 89 45 98          	mov    QWORD PTR [rbp-0x68],rax
   1e119:	48 8b 85 30 ff ff ff 	mov    rax,QWORD PTR [rbp-0xd0]
   1e120:	48 89 45 a0          	mov    QWORD PTR [rbp-0x60],rax
   1e124:	48 8b 85 28 ff ff ff 	mov    rax,QWORD PTR [rbp-0xd8]
   1e12b:	48 89 45 a8          	mov    QWORD PTR [rbp-0x58],rax
   1e12f:	48 8b 85 40 ff ff ff 	mov    rax,QWORD PTR [rbp-0xc0]
   1e136:	48 89 45 b0          	mov    QWORD PTR [rbp-0x50],rax
   1e13a:	48 8b 85 08 ff ff ff 	mov    rax,QWORD PTR [rbp-0xf8]
   1e141:	48 8b 8d 10 ff ff ff 	mov    rcx,QWORD PTR [rbp-0xf0]
   1e148:	48 89 4d b8          	mov    QWORD PTR [rbp-0x48],rcx
   1e14c:	48 8b 8d 20 ff ff ff 	mov    rcx,QWORD PTR [rbp-0xe0]
   1e153:	48 89 4d c0          	mov    QWORD PTR [rbp-0x40],rcx
   1e157:	4c 8b 9d 18 ff ff ff 	mov    r11,QWORD PTR [rbp-0xe8]
   1e15e:	4c 8b bd f8 fe ff ff 	mov    r15,QWORD PTR [rbp-0x108]
   1e165:	4c 8b ad f0 fe ff ff 	mov    r13,QWORD PTR [rbp-0x110]
   1e16c:	48 8b 9d 00 ff ff ff 	mov    rbx,QWORD PTR [rbp-0x100]
   1e173:	4c 8b 95 38 ff ff ff 	mov    r10,QWORD PTR [rbp-0xc8]
   1e17a:	8a 55 cd             	mov    dl,BYTE PTR [rbp-0x33]
   1e17d:	89 d6                	mov    esi,edx
   1e17f:	48 ba 8a 05 1f a3 bd 	movabs rdx,0xa95e6abda31f058a
   1e186:	6a 5e a9 
   1e189:	e9 9f ba ff ff       	jmp    19c2d <Java_com_adjust_sdk_sig_NativeLibHelper_nOnResume@@Base-0xa1076>
   1e18e:	8a 45 ce             	mov    al,BYTE PTR [rbp-0x32]
   1e191:	88 45 cf             	mov    BYTE PTR [rbp-0x31],al
   1e194:	48 8b 85 50 ff ff ff 	mov    rax,QWORD PTR [rbp-0xb0]
   1e19b:	48 89 85 70 ff ff ff 	mov    QWORD PTR [rbp-0x90],rax
   1e1a2:	48 8b 85 60 ff ff ff 	mov    rax,QWORD PTR [rbp-0xa0]
   1e1a9:	48 89 85 78 ff ff ff 	mov    QWORD PTR [rbp-0x88],rax
   1e1b0:	48 8b 85 e0 fe ff ff 	mov    rax,QWORD PTR [rbp-0x120]
   1e1b7:	48 89 45 80          	mov    QWORD PTR [rbp-0x80],rax
   1e1bb:	48 8b 85 e8 fe ff ff 	mov    rax,QWORD PTR [rbp-0x118]
   1e1c2:	48 89 45 88          	mov    QWORD PTR [rbp-0x78],rax
   1e1c6:	48 8b 85 48 ff ff ff 	mov    rax,QWORD PTR [rbp-0xb8]
   1e1cd:	48 89 45 90          	mov    QWORD PTR [rbp-0x70],rax
   1e1d1:	48 8b 85 58 ff ff ff 	mov    rax,QWORD PTR [rbp-0xa8]
   1e1d8:	48 89 45 98          	mov    QWORD PTR [rbp-0x68],rax
   1e1dc:	48 89 55 a0          	mov    QWORD PTR [rbp-0x60],rdx
   1e1e0:	4c 89 5d a8          	mov    QWORD PTR [rbp-0x58],r11
   1e1e4:	48 8b 85 40 ff ff ff 	mov    rax,QWORD PTR [rbp-0xc0]
   1e1eb:	48 89 45 b0          	mov    QWORD PTR [rbp-0x50],rax
   1e1ef:	4c 89 e0             	mov    rax,r12
   1e1f2:	48 89 7d b8          	mov    QWORD PTR [rbp-0x48],rdi
   1e1f6:	4c 89 45 c0          	mov    QWORD PTR [rbp-0x40],r8
   1e1fa:	49 89 cb             	mov    r11,rcx
   1e1fd:	31 f6                	xor    esi,esi
   1e1ff:	48 ba 08 bf 53 4c b3 	movabs rdx,0x177defb34c53bf08
   1e206:	ef 7d 17 
   1e209:	e9 1f ba ff ff       	jmp    19c2d <Java_com_adjust_sdk_sig_NativeLibHelper_nOnResume@@Base-0xa1076>
   1e20e:	8a 45 ce             	mov    al,BYTE PTR [rbp-0x32]
   1e211:	88 45 cf             	mov    BYTE PTR [rbp-0x31],al
   1e214:	48 8b 85 50 ff ff ff 	mov    rax,QWORD PTR [rbp-0xb0]
   1e21b:	48 89 85 70 ff ff ff 	mov    QWORD PTR [rbp-0x90],rax
   1e222:	48 8b 85 60 ff ff ff 	mov    rax,QWORD PTR [rbp-0xa0]
   1e229:	48 89 85 78 ff ff ff 	mov    QWORD PTR [rbp-0x88],rax
   1e230:	48 89 f8             	mov    rax,rdi
   1e233:	48 89 7d 80          	mov    QWORD PTR [rbp-0x80],rdi
   1e237:	4c 89 4d 88          	mov    QWORD PTR [rbp-0x78],r9
   1e23b:	48 8b 85 48 ff ff ff 	mov    rax,QWORD PTR [rbp-0xb8]
   1e242:	48 89 45 90          	mov    QWORD PTR [rbp-0x70],rax
   1e246:	48 8b 85 58 ff ff ff 	mov    rax,QWORD PTR [rbp-0xa8]
   1e24d:	48 89 45 98          	mov    QWORD PTR [rbp-0x68],rax
   1e251:	48 89 4d a0          	mov    QWORD PTR [rbp-0x60],rcx
   1e255:	4c 89 5d a8          	mov    QWORD PTR [rbp-0x58],r11
   1e259:	48 8b 85 40 ff ff ff 	mov    rax,QWORD PTR [rbp-0xc0]
   1e260:	48 89 45 b0          	mov    QWORD PTR [rbp-0x50],rax
   1e264:	48 8b 85 08 ff ff ff 	mov    rax,QWORD PTR [rbp-0xf8]
   1e26b:	48 8b 8d 10 ff ff ff 	mov    rcx,QWORD PTR [rbp-0xf0]
   1e272:	48 89 4d b8          	mov    QWORD PTR [rbp-0x48],rcx
   1e276:	48 8b 8d 20 ff ff ff 	mov    rcx,QWORD PTR [rbp-0xe0]
   1e27d:	48 89 4d c0          	mov    QWORD PTR [rbp-0x40],rcx
   1e281:	4c 8b 9d 18 ff ff ff 	mov    r11,QWORD PTR [rbp-0xe8]
   1e288:	4c 8b 95 38 ff ff ff 	mov    r10,QWORD PTR [rbp-0xc8]
   1e28f:	44 89 e6             	mov    esi,r12d
   1e292:	48 8b 95 b0 fe ff ff 	mov    rdx,QWORD PTR [rbp-0x150]
   1e299:	48 89 95 28 fc ff ff 	mov    QWORD PTR [rbp-0x3d8],rdx
   1e2a0:	48 ba c9 fa 9c 1b 2d 	movabs rdx,0x654c132d1b9cfac9
   1e2a7:	13 4c 65 
   1e2aa:	e9 7e b9 ff ff       	jmp    19c2d <Java_com_adjust_sdk_sig_NativeLibHelper_nOnResume@@Base-0xa1076>
   1e2af:	0f 28 05 1a d8 11 00 	movaps xmm0,XMMWORD PTR [rip+0x11d81a]        # 13bad0 <write@plt+0x8f50>
   1e2b6:	0f 57 05 83 5b fe ff 	xorps  xmm0,XMMWORD PTR [rip+0xfffffffffffe5b83]        # 3e40 <Java_com_adjust_sdk_sig_NativeLibHelper_nOnResume@@Base-0xb6e63>
   1e2bd:	0f 29 05 0c d8 11 00 	movaps XMMWORD PTR [rip+0x11d80c],xmm0        # 13bad0 <write@plt+0x8f50>
   1e2c4:	c6 05 62 0a 12 00 01 	mov    BYTE PTR [rip+0x120a62],0x1        # 13ed2d <write@plt+0xc1ad>
   1e2cb:	8a 45 ce             	mov    al,BYTE PTR [rbp-0x32]
   1e2ce:	88 45 cf             	mov    BYTE PTR [rbp-0x31],al
   1e2d1:	48 8b 85 50 ff ff ff 	mov    rax,QWORD PTR [rbp-0xb0]
   1e2d8:	48 89 85 70 ff ff ff 	mov    QWORD PTR [rbp-0x90],rax
   1e2df:	48 8b 85 60 ff ff ff 	mov    rax,QWORD PTR [rbp-0xa0]
   1e2e6:	48 89 85 78 ff ff ff 	mov    QWORD PTR [rbp-0x88],rax
   1e2ed:	4c 89 f0             	mov    rax,r14
   1e2f0:	4c 89 75 80          	mov    QWORD PTR [rbp-0x80],r14
   1e2f4:	4c 89 4d 88          	mov    QWORD PTR [rbp-0x78],r9
   1e2f8:	48 8b 85 48 ff ff ff 	mov    rax,QWORD PTR [rbp-0xb8]
   1e2ff:	48 89 45 90          	mov    QWORD PTR [rbp-0x70],rax
   1e303:	48 8b 85 58 ff ff ff 	mov    rax,QWORD PTR [rbp-0xa8]
   1e30a:	48 89 45 98          	mov    QWORD PTR [rbp-0x68],rax
   1e30e:	48 8b 85 30 ff ff ff 	mov    rax,QWORD PTR [rbp-0xd0]
   1e315:	48 89 45 a0          	mov    QWORD PTR [rbp-0x60],rax
   1e319:	48 8b 85 28 ff ff ff 	mov    rax,QWORD PTR [rbp-0xd8]
   1e320:	48 89 45 a8          	mov    QWORD PTR [rbp-0x58],rax
   1e324:	48 8b 85 40 ff ff ff 	mov    rax,QWORD PTR [rbp-0xc0]
   1e32b:	48 89 45 b0          	mov    QWORD PTR [rbp-0x50],rax
   1e32f:	48 8b 85 08 ff ff ff 	mov    rax,QWORD PTR [rbp-0xf8]
   1e336:	48 8b 8d 10 ff ff ff 	mov    rcx,QWORD PTR [rbp-0xf0]
   1e33d:	48 89 4d b8          	mov    QWORD PTR [rbp-0x48],rcx
   1e341:	48 8b 8d 20 ff ff ff 	mov    rcx,QWORD PTR [rbp-0xe0]
   1e348:	48 89 4d c0          	mov    QWORD PTR [rbp-0x40],rcx
   1e34c:	4c 8b 9d 18 ff ff ff 	mov    r11,QWORD PTR [rbp-0xe8]
   1e353:	4c 8b bd f8 fe ff ff 	mov    r15,QWORD PTR [rbp-0x108]
   1e35a:	4c 8b ad f0 fe ff ff 	mov    r13,QWORD PTR [rbp-0x110]
   1e361:	48 8b 9d 00 ff ff ff 	mov    rbx,QWORD PTR [rbp-0x100]
   1e368:	4c 8b 95 38 ff ff ff 	mov    r10,QWORD PTR [rbp-0xc8]
   1e36f:	8a 55 cd             	mov    dl,BYTE PTR [rbp-0x33]
   1e372:	89 d6                	mov    esi,edx
   1e374:	48 ba de a6 c1 dc 00 	movabs rdx,0x36024800dcc1a6de
   1e37b:	48 02 36 
   1e37e:	e9 aa b8 ff ff       	jmp    19c2d <Java_com_adjust_sdk_sig_NativeLibHelper_nOnResume@@Base-0xa1076>
   1e383:	31 c0                	xor    eax,eax
   1e385:	b1 01                	mov    cl,0x1
   1e387:	f0 0f b0 0d 9d 09 12 	lock cmpxchg BYTE PTR [rip+0x12099d],cl        # 13ed2c <write@plt+0xc1ac>
   1e38e:	00 
   1e38f:	48 ba 0b 39 f5 e6 3b 	movabs rdx,0x7179b33be6f5390b
   1e396:	b3 79 71 
   1e399:	74 0a                	je     1e3a5 <Java_com_adjust_sdk_sig_NativeLibHelper_nOnResume@@Base-0x9c8fe>
   1e39b:	48 ba a3 84 6c 40 6d 	movabs rdx,0x2773b06d406c84a3
   1e3a2:	b0 73 27 
   1e3a5:	8a 45 ce             	mov    al,BYTE PTR [rbp-0x32]
   1e3a8:	88 45 cf             	mov    BYTE PTR [rbp-0x31],al
   1e3ab:	48 8b 85 50 ff ff ff 	mov    rax,QWORD PTR [rbp-0xb0]
   1e3b2:	48 89 85 70 ff ff ff 	mov    QWORD PTR [rbp-0x90],rax
   1e3b9:	48 8b 85 60 ff ff ff 	mov    rax,QWORD PTR [rbp-0xa0]
   1e3c0:	48 89 85 78 ff ff ff 	mov    QWORD PTR [rbp-0x88],rax
   1e3c7:	e9 57 3a 00 00       	jmp    21e23 <Java_com_adjust_sdk_sig_NativeLibHelper_nOnResume@@Base-0x98e80>
   1e3cc:	48 8b 85 c8 fd ff ff 	mov    rax,QWORD PTR [rbp-0x238]
   1e3d3:	c7 00 02 00 00 00    	mov    DWORD PTR [rax],0x2
   1e3d9:	8a 45 ce             	mov    al,BYTE PTR [rbp-0x32]
   1e3dc:	88 45 cf             	mov    BYTE PTR [rbp-0x31],al
   1e3df:	48 8b 85 50 ff ff ff 	mov    rax,QWORD PTR [rbp-0xb0]
   1e3e6:	48 89 85 70 ff ff ff 	mov    QWORD PTR [rbp-0x90],rax
   1e3ed:	48 8b 85 60 ff ff ff 	mov    rax,QWORD PTR [rbp-0xa0]
   1e3f4:	48 89 85 78 ff ff ff 	mov    QWORD PTR [rbp-0x88],rax
   1e3fb:	4c 89 c0             	mov    rax,r8
   1e3fe:	4c 89 45 80          	mov    QWORD PTR [rbp-0x80],r8
   1e402:	4c 89 4d 88          	mov    QWORD PTR [rbp-0x78],r9
   1e406:	48 8b 85 48 ff ff ff 	mov    rax,QWORD PTR [rbp-0xb8]
   1e40d:	48 89 45 90          	mov    QWORD PTR [rbp-0x70],rax
   1e411:	48 8b 85 58 ff ff ff 	mov    rax,QWORD PTR [rbp-0xa8]
   1e418:	48 89 45 98          	mov    QWORD PTR [rbp-0x68],rax
   1e41c:	48 89 55 a0          	mov    QWORD PTR [rbp-0x60],rdx
   1e420:	4c 89 5d a8          	mov    QWORD PTR [rbp-0x58],r11
   1e424:	48 8b 85 40 ff ff ff 	mov    rax,QWORD PTR [rbp-0xc0]
   1e42b:	48 89 45 b0          	mov    QWORD PTR [rbp-0x50],rax
   1e42f:	48 8b 85 08 ff ff ff 	mov    rax,QWORD PTR [rbp-0xf8]
   1e436:	48 8b 8d 10 ff ff ff 	mov    rcx,QWORD PTR [rbp-0xf0]
   1e43d:	48 89 4d b8          	mov    QWORD PTR [rbp-0x48],rcx
   1e441:	48 8b 8d 20 ff ff ff 	mov    rcx,QWORD PTR [rbp-0xe0]
   1e448:	48 89 4d c0          	mov    QWORD PTR [rbp-0x40],rcx
   1e44c:	4c 8b 9d 18 ff ff ff 	mov    r11,QWORD PTR [rbp-0xe8]
   1e453:	4c 8b 95 38 ff ff ff 	mov    r10,QWORD PTR [rbp-0xc8]
   1e45a:	44 89 e6             	mov    esi,r12d
   1e45d:	48 ba 16 c5 ef 5c c2 	movabs rdx,0xe4b0ccc25cefc516
   1e464:	cc b0 e4 
   1e467:	e9 c1 b7 ff ff       	jmp    19c2d <Java_com_adjust_sdk_sig_NativeLibHelper_nOnResume@@Base-0xa1076>
   1e46c:	48 8b 85 38 ff ff ff 	mov    rax,QWORD PTR [rbp-0xc8]
   1e473:	8a 00                	mov    al,BYTE PTR [rax]
   1e475:	48 b9 96 b1 3e ba c2 	movabs rcx,0x29d075c2ba3eb196
   1e47c:	75 d0 29 
   1e47f:	3a 85 de fe ff ff    	cmp    al,BYTE PTR [rbp-0x122]
   1e485:	0f 94 85 cd fe ff ff 	sete   BYTE PTR [rbp-0x133]
   1e48c:	74 0a                	je     1e498 <Java_com_adjust_sdk_sig_NativeLibHelper_nOnResume@@Base-0x9c80b>
   1e48e:	48 b9 ad 7a c8 9a 0f 	movabs rcx,0xa75a6f0f9ac87aad
   1e495:	6f 5a a7 
   1e498:	48 ba 96 b1 3e ba c2 	movabs rdx,0x29d075c2ba3eb196
   1e49f:	75 d0 29 
   1e4a2:	84 c0                	test   al,al
   1e4a4:	74 03                	je     1e4a9 <Java_com_adjust_sdk_sig_NativeLibHelper_nOnResume@@Base-0x9c7fa>
   1e4a6:	48 89 ca             	mov    rdx,rcx
   1e4a9:	8a 45 ce             	mov    al,BYTE PTR [rbp-0x32]
   1e4ac:	88 45 cf             	mov    BYTE PTR [rbp-0x31],al
   1e4af:	48 8b 85 50 ff ff ff 	mov    rax,QWORD PTR [rbp-0xb0]
   1e4b6:	48 89 85 70 ff ff ff 	mov    QWORD PTR [rbp-0x90],rax
   1e4bd:	48 8b 85 60 ff ff ff 	mov    rax,QWORD PTR [rbp-0xa0]
   1e4c4:	48 89 85 78 ff ff ff 	mov    QWORD PTR [rbp-0x88],rax
   1e4cb:	4c 89 c0             	mov    rax,r8
   1e4ce:	4c 89 45 80          	mov    QWORD PTR [rbp-0x80],r8
   1e4d2:	4c 89 4d 88          	mov    QWORD PTR [rbp-0x78],r9
   1e4d6:	48 8b 85 48 ff ff ff 	mov    rax,QWORD PTR [rbp-0xb8]
   1e4dd:	48 89 45 90          	mov    QWORD PTR [rbp-0x70],rax
   1e4e1:	48 8b 85 58 ff ff ff 	mov    rax,QWORD PTR [rbp-0xa8]
   1e4e8:	48 89 45 98          	mov    QWORD PTR [rbp-0x68],rax
   1e4ec:	48 8b 85 30 ff ff ff 	mov    rax,QWORD PTR [rbp-0xd0]
   1e4f3:	48 89 45 a0          	mov    QWORD PTR [rbp-0x60],rax
   1e4f7:	48 8b 85 28 ff ff ff 	mov    rax,QWORD PTR [rbp-0xd8]
   1e4fe:	48 89 45 a8          	mov    QWORD PTR [rbp-0x58],rax
   1e502:	48 8b 85 40 ff ff ff 	mov    rax,QWORD PTR [rbp-0xc0]
   1e509:	48 89 45 b0          	mov    QWORD PTR [rbp-0x50],rax
   1e50d:	48 8b 85 08 ff ff ff 	mov    rax,QWORD PTR [rbp-0xf8]
   1e514:	48 8b 8d 10 ff ff ff 	mov    rcx,QWORD PTR [rbp-0xf0]
   1e51b:	48 89 4d b8          	mov    QWORD PTR [rbp-0x48],rcx
   1e51f:	48 8b 8d 20 ff ff ff 	mov    rcx,QWORD PTR [rbp-0xe0]
   1e526:	48 89 4d c0          	mov    QWORD PTR [rbp-0x40],rcx
   1e52a:	4c 8b 9d 18 ff ff ff 	mov    r11,QWORD PTR [rbp-0xe8]
   1e531:	4c 8b 95 38 ff ff ff 	mov    r10,QWORD PTR [rbp-0xc8]
   1e538:	49 8d 72 01          	lea    rsi,[r10+0x1]
   1e53c:	48 89 b5 98 fc ff ff 	mov    QWORD PTR [rbp-0x368],rsi
   1e543:	4c 89 95 a0 fe ff ff 	mov    QWORD PTR [rbp-0x160],r10
   1e54a:	44 89 e6             	mov    esi,r12d
   1e54d:	e9 db b6 ff ff       	jmp    19c2d <Java_com_adjust_sdk_sig_NativeLibHelper_nOnResume@@Base-0xa1076>
   1e552:	8a 45 ce             	mov    al,BYTE PTR [rbp-0x32]
   1e555:	88 45 cf             	mov    BYTE PTR [rbp-0x31],al
   1e558:	48 8b 85 50 ff ff ff 	mov    rax,QWORD PTR [rbp-0xb0]
   1e55f:	48 89 85 70 ff ff ff 	mov    QWORD PTR [rbp-0x90],rax
   1e566:	48 8b 85 60 ff ff ff 	mov    rax,QWORD PTR [rbp-0xa0]
   1e56d:	48 89 85 78 ff ff ff 	mov    QWORD PTR [rbp-0x88],rax
   1e574:	4c 89 c0             	mov    rax,r8
   1e577:	4c 89 45 80          	mov    QWORD PTR [rbp-0x80],r8
   1e57b:	4c 89 4d 88          	mov    QWORD PTR [rbp-0x78],r9
   1e57f:	48 8b 85 48 ff ff ff 	mov    rax,QWORD PTR [rbp-0xb8]
   1e586:	48 89 45 90          	mov    QWORD PTR [rbp-0x70],rax
   1e58a:	48 8b 85 58 ff ff ff 	mov    rax,QWORD PTR [rbp-0xa8]
   1e591:	48 89 45 98          	mov    QWORD PTR [rbp-0x68],rax
   1e595:	48 8b 85 30 ff ff ff 	mov    rax,QWORD PTR [rbp-0xd0]
   1e59c:	48 89 45 a0          	mov    QWORD PTR [rbp-0x60],rax
   1e5a0:	48 8b 85 28 ff ff ff 	mov    rax,QWORD PTR [rbp-0xd8]
   1e5a7:	48 89 45 a8          	mov    QWORD PTR [rbp-0x58],rax
   1e5ab:	48 8b 85 40 ff ff ff 	mov    rax,QWORD PTR [rbp-0xc0]
   1e5b2:	48 89 45 b0          	mov    QWORD PTR [rbp-0x50],rax
   1e5b6:	48 8b 85 08 ff ff ff 	mov    rax,QWORD PTR [rbp-0xf8]
   1e5bd:	48 8b 8d 10 ff ff ff 	mov    rcx,QWORD PTR [rbp-0xf0]
   1e5c4:	48 89 4d b8          	mov    QWORD PTR [rbp-0x48],rcx
   1e5c8:	48 8b 8d 20 ff ff ff 	mov    rcx,QWORD PTR [rbp-0xe0]
   1e5cf:	48 89 4d c0          	mov    QWORD PTR [rbp-0x40],rcx
   1e5d3:	4c 8b 9d 18 ff ff ff 	mov    r11,QWORD PTR [rbp-0xe8]
   1e5da:	4c 8b bd f8 fe ff ff 	mov    r15,QWORD PTR [rbp-0x108]
   1e5e1:	4c 8b ad f0 fe ff ff 	mov    r13,QWORD PTR [rbp-0x110]
   1e5e8:	48 8b 9d 00 ff ff ff 	mov    rbx,QWORD PTR [rbp-0x100]
   1e5ef:	4c 8b 95 38 ff ff ff 	mov    r10,QWORD PTR [rbp-0xc8]
   1e5f6:	8a 55 cd             	mov    dl,BYTE PTR [rbp-0x33]
   1e5f9:	89 d6                	mov    esi,edx
   1e5fb:	31 d2                	xor    edx,edx
   1e5fd:	48 89 95 68 fd ff ff 	mov    QWORD PTR [rbp-0x298],rdx
   1e604:	6a ff                	push   0xffffffffffffffff
   1e606:	5a                   	pop    rdx
   1e607:	e9 33 0e 00 00       	jmp    1f43f <Java_com_adjust_sdk_sig_NativeLibHelper_nOnResume@@Base-0x9b864>
   1e60c:	48 8b 85 b8 fe ff ff 	mov    rax,QWORD PTR [rbp-0x148]
   1e613:	8a 40 01             	mov    al,BYTE PTR [rax+0x1]
   1e616:	48 ba 80 ec f1 25 bc 	movabs rdx,0x4bba50bc25f1ec80
   1e61d:	50 ba 4b 
   1e620:	88 85 ca fe ff ff    	mov    BYTE PTR [rbp-0x136],al
   1e626:	84 c0                	test   al,al
   1e628:	40 8a 75 cd          	mov    sil,BYTE PTR [rbp-0x33]
   1e62c:	4c 8b 95 38 ff ff ff 	mov    r10,QWORD PTR [rbp-0xc8]
   1e633:	48 8b 9d 00 ff ff ff 	mov    rbx,QWORD PTR [rbp-0x100]
   1e63a:	4c 8b ad f0 fe ff ff 	mov    r13,QWORD PTR [rbp-0x110]
   1e641:	4c 8b bd f8 fe ff ff 	mov    r15,QWORD PTR [rbp-0x108]
   1e648:	4c 8b 8d 18 ff ff ff 	mov    r9,QWORD PTR [rbp-0xe8]
   1e64f:	4c 8b 85 20 ff ff ff 	mov    r8,QWORD PTR [rbp-0xe0]
   1e656:	48 8b bd 10 ff ff ff 	mov    rdi,QWORD PTR [rbp-0xf0]
   1e65d:	48 8b 8d 08 ff ff ff 	mov    rcx,QWORD PTR [rbp-0xf8]
   1e664:	48 8b 85 40 ff ff ff 	mov    rax,QWORD PTR [rbp-0xc0]
   1e66b:	0f 84 48 41 00 00    	je     227b9 <Java_com_adjust_sdk_sig_NativeLibHelper_nOnResume@@Base-0x984ea>
   1e671:	48 ba f3 0d 4e 47 de 	movabs rdx,0xe75866de474e0df3
   1e678:	66 58 e7 
   1e67b:	e9 39 41 00 00       	jmp    227b9 <Java_com_adjust_sdk_sig_NativeLibHelper_nOnResume@@Base-0x984ea>
   1e680:	6a 01                	push   0x1
   1e682:	5f                   	pop    rdi
   1e683:	6a 10                	push   0x10
   1e685:	5e                   	pop    rsi
   1e686:	e8 f5 41 11 00       	call   132880 <calloc@plt>
   1e68b:	48 ba 62 05 9d 9e 2a 	movabs rdx,0xed7322a9e9d0562
   1e692:	32 d7 0e 
   1e695:	48 89 85 70 fe ff ff 	mov    QWORD PTR [rbp-0x190],rax
   1e69c:	48 85 c0             	test   rax,rax
   1e69f:	0f 84 0a 1b 00 00    	je     201af <Java_com_adjust_sdk_sig_NativeLibHelper_nOnResume@@Base-0x9aaf4>
   1e6a5:	48 ba a9 42 e3 52 be 	movabs rdx,0xa910b9be52e342a9
   1e6ac:	b9 10 a9 
   1e6af:	e9 fb 1a 00 00       	jmp    201af <Java_com_adjust_sdk_sig_NativeLibHelper_nOnResume@@Base-0x9aaf4>
   1e6b4:	48 ba c3 0a 29 23 44 	movabs rdx,0xe27a944423290ac3
   1e6bb:	94 7a e2 
   1e6be:	8a 85 d7 fe ff ff    	mov    al,BYTE PTR [rbp-0x129]
   1e6c4:	48 8b 8d 68 fe ff ff 	mov    rcx,QWORD PTR [rbp-0x198]
   1e6cb:	48 8b b5 38 fe ff ff 	mov    rsi,QWORD PTR [rbp-0x1c8]
   1e6d2:	3a 04 31             	cmp    al,BYTE PTR [rcx+rsi*1]
   1e6d5:	0f 84 e6 33 00 00    	je     21ac1 <Java_com_adjust_sdk_sig_NativeLibHelper_nOnResume@@Base-0x991e2>
   1e6db:	48 ba 0c 78 9f fd 30 	movabs rdx,0xfdfd1130fd9f780c
   1e6e2:	11 fd fd 
   1e6e5:	e9 d7 33 00 00       	jmp    21ac1 <Java_com_adjust_sdk_sig_NativeLibHelper_nOnResume@@Base-0x991e2>
   1e6ea:	48 8b 85 60 fe ff ff 	mov    rax,QWORD PTR [rbp-0x1a0]
   1e6f1:	48 3b 85 f0 fc ff ff 	cmp    rax,QWORD PTR [rbp-0x310]
   1e6f8:	48 ba cd 43 77 1e d1 	movabs rdx,0xd9aff2d11e7743cd
   1e6ff:	f2 af d9 
   1e702:	48 b8 23 b3 0e c6 83 	movabs rax,0x441bef83c60eb323
   1e709:	ef 1b 44 
   1e70c:	48 0f 44 d0          	cmove  rdx,rax
   1e710:	8a 45 ce             	mov    al,BYTE PTR [rbp-0x32]
   1e713:	88 45 cf             	mov    BYTE PTR [rbp-0x31],al
   1e716:	48 8b 85 50 ff ff ff 	mov    rax,QWORD PTR [rbp-0xb0]
   1e71d:	48 89 85 70 ff ff ff 	mov    QWORD PTR [rbp-0x90],rax
   1e724:	48 8b 85 60 ff ff ff 	mov    rax,QWORD PTR [rbp-0xa0]
   1e72b:	48 89 85 78 ff ff ff 	mov    QWORD PTR [rbp-0x88],rax
   1e732:	4c 89 f0             	mov    rax,r14
   1e735:	4c 89 75 80          	mov    QWORD PTR [rbp-0x80],r14
   1e739:	48 89 4d 88          	mov    QWORD PTR [rbp-0x78],rcx
   1e73d:	e9 f6 1a 00 00       	jmp    20238 <Java_com_adjust_sdk_sig_NativeLibHelper_nOnResume@@Base-0x9aa6b>
   1e742:	80 3d e8 05 12 00 00 	cmp    BYTE PTR [rip+0x1205e8],0x0        # 13ed31 <write@plt+0xc1b1>
   1e749:	48 ba 65 31 3f dd 90 	movabs rdx,0xaf052090dd3f3165
   1e750:	20 05 af 
   1e753:	40 8a 75 cd          	mov    sil,BYTE PTR [rbp-0x33]
   1e757:	48 8b 9d 00 ff ff ff 	mov    rbx,QWORD PTR [rbp-0x100]
   1e75e:	4c 8b ad f0 fe ff ff 	mov    r13,QWORD PTR [rbp-0x110]
   1e765:	4c 8b bd f8 fe ff ff 	mov    r15,QWORD PTR [rbp-0x108]
   1e76c:	4c 8b 9d 18 ff ff ff 	mov    r11,QWORD PTR [rbp-0xe8]
   1e773:	4c 8b 85 20 ff ff ff 	mov    r8,QWORD PTR [rbp-0xe0]
   1e77a:	48 8b bd 10 ff ff ff 	mov    rdi,QWORD PTR [rbp-0xf0]
   1e781:	48 8b 8d 08 ff ff ff 	mov    rcx,QWORD PTR [rbp-0xf8]
   1e788:	48 8b 85 40 ff ff ff 	mov    rax,QWORD PTR [rbp-0xc0]
   1e78f:	75 0a                	jne    1e79b <Java_com_adjust_sdk_sig_NativeLibHelper_nOnResume@@Base-0x9c508>
   1e791:	48 ba d5 03 5a 7c 82 	movabs rdx,0xcbeb4f827c5a03d5
   1e798:	4f eb cb 
   1e79b:	44 8a 55 ce          	mov    r10b,BYTE PTR [rbp-0x32]
   1e79f:	44 88 55 cf          	mov    BYTE PTR [rbp-0x31],r10b
   1e7a3:	4c 8b 95 50 ff ff ff 	mov    r10,QWORD PTR [rbp-0xb0]
   1e7aa:	4c 89 95 70 ff ff ff 	mov    QWORD PTR [rbp-0x90],r10
   1e7b1:	4c 8b 95 60 ff ff ff 	mov    r10,QWORD PTR [rbp-0xa0]
   1e7b8:	4c 89 95 78 ff ff ff 	mov    QWORD PTR [rbp-0x88],r10
   1e7bf:	4c 8b 95 e0 fe ff ff 	mov    r10,QWORD PTR [rbp-0x120]
   1e7c6:	4c 89 55 80          	mov    QWORD PTR [rbp-0x80],r10
   1e7ca:	4c 8b 95 e8 fe ff ff 	mov    r10,QWORD PTR [rbp-0x118]
   1e7d1:	4c 89 55 88          	mov    QWORD PTR [rbp-0x78],r10
   1e7d5:	4c 8b 95 48 ff ff ff 	mov    r10,QWORD PTR [rbp-0xb8]
   1e7dc:	4c 89 55 90          	mov    QWORD PTR [rbp-0x70],r10
   1e7e0:	4c 8b 95 58 ff ff ff 	mov    r10,QWORD PTR [rbp-0xa8]
   1e7e7:	4c 89 55 98          	mov    QWORD PTR [rbp-0x68],r10
   1e7eb:	4c 8b 95 30 ff ff ff 	mov    r10,QWORD PTR [rbp-0xd0]
   1e7f2:	4c 89 55 a0          	mov    QWORD PTR [rbp-0x60],r10
   1e7f6:	4c 8b 95 28 ff ff ff 	mov    r10,QWORD PTR [rbp-0xd8]
   1e7fd:	4c 89 55 a8          	mov    QWORD PTR [rbp-0x58],r10
   1e801:	48 89 45 b0          	mov    QWORD PTR [rbp-0x50],rax
   1e805:	48 89 c8             	mov    rax,rcx
   1e808:	48 89 7d b8          	mov    QWORD PTR [rbp-0x48],rdi
   1e80c:	4c 89 45 c0          	mov    QWORD PTR [rbp-0x40],r8
   1e810:	e9 70 41 00 00       	jmp    22985 <Java_com_adjust_sdk_sig_NativeLibHelper_nOnResume@@Base-0x9831e>
   1e815:	8a 45 ce             	mov    al,BYTE PTR [rbp-0x32]
   1e818:	88 45 cf             	mov    BYTE PTR [rbp-0x31],al
   1e81b:	48 8b 85 50 ff ff ff 	mov    rax,QWORD PTR [rbp-0xb0]
   1e822:	48 89 85 70 ff ff ff 	mov    QWORD PTR [rbp-0x90],rax
   1e829:	48 8b 85 60 ff ff ff 	mov    rax,QWORD PTR [rbp-0xa0]
   1e830:	48 89 85 78 ff ff ff 	mov    QWORD PTR [rbp-0x88],rax
   1e837:	4c 89 c0             	mov    rax,r8
   1e83a:	4c 89 45 80          	mov    QWORD PTR [rbp-0x80],r8
   1e83e:	4c 89 4d 88          	mov    QWORD PTR [rbp-0x78],r9
   1e842:	48 8b 85 48 ff ff ff 	mov    rax,QWORD PTR [rbp-0xb8]
   1e849:	48 89 45 90          	mov    QWORD PTR [rbp-0x70],rax
   1e84d:	48 8b 85 58 ff ff ff 	mov    rax,QWORD PTR [rbp-0xa8]
   1e854:	48 89 45 98          	mov    QWORD PTR [rbp-0x68],rax
   1e858:	48 8b 85 30 ff ff ff 	mov    rax,QWORD PTR [rbp-0xd0]
   1e85f:	48 89 45 a0          	mov    QWORD PTR [rbp-0x60],rax
   1e863:	48 8b 85 28 ff ff ff 	mov    rax,QWORD PTR [rbp-0xd8]
   1e86a:	48 89 45 a8          	mov    QWORD PTR [rbp-0x58],rax
   1e86e:	48 8b 85 40 ff ff ff 	mov    rax,QWORD PTR [rbp-0xc0]
   1e875:	48 89 45 b0          	mov    QWORD PTR [rbp-0x50],rax
   1e879:	48 8b 85 08 ff ff ff 	mov    rax,QWORD PTR [rbp-0xf8]
   1e880:	48 8b 8d 10 ff ff ff 	mov    rcx,QWORD PTR [rbp-0xf0]
   1e887:	48 89 4d b8          	mov    QWORD PTR [rbp-0x48],rcx
   1e88b:	48 8b 8d 20 ff ff ff 	mov    rcx,QWORD PTR [rbp-0xe0]
   1e892:	48 89 4d c0          	mov    QWORD PTR [rbp-0x40],rcx
   1e896:	4c 8b 9d 18 ff ff ff 	mov    r11,QWORD PTR [rbp-0xe8]
   1e89d:	4c 8b 95 38 ff ff ff 	mov    r10,QWORD PTR [rbp-0xc8]
   1e8a4:	44 89 e6             	mov    esi,r12d
   1e8a7:	48 8b 95 f8 fc ff ff 	mov    rdx,QWORD PTR [rbp-0x308]
   1e8ae:	4c 8d 72 01          	lea    r14,[rdx+0x1]
   1e8b2:	4c 89 b5 80 fd ff ff 	mov    QWORD PTR [rbp-0x280],r14
   1e8b9:	e9 c7 3d 00 00       	jmp    22685 <Java_com_adjust_sdk_sig_NativeLibHelper_nOnResume@@Base-0x9861e>
   1e8be:	48 8b bd c0 fc ff ff 	mov    rdi,QWORD PTR [rbp-0x340]
   1e8c5:	e8 c6 3f 11 00       	call   132890 <fclose@plt>
   1e8ca:	8a 45 ce             	mov    al,BYTE PTR [rbp-0x32]
   1e8cd:	88 45 cf             	mov    BYTE PTR [rbp-0x31],al
   1e8d0:	48 8b 85 50 ff ff ff 	mov    rax,QWORD PTR [rbp-0xb0]
   1e8d7:	48 89 85 70 ff ff ff 	mov    QWORD PTR [rbp-0x90],rax
   1e8de:	48 8b 85 60 ff ff ff 	mov    rax,QWORD PTR [rbp-0xa0]
   1e8e5:	48 89 85 78 ff ff ff 	mov    QWORD PTR [rbp-0x88],rax
   1e8ec:	4c 89 75 80          	mov    QWORD PTR [rbp-0x80],r14
   1e8f0:	48 8b 85 e8 fe ff ff 	mov    rax,QWORD PTR [rbp-0x118]
   1e8f7:	48 89 45 88          	mov    QWORD PTR [rbp-0x78],rax
   1e8fb:	48 8b 85 48 ff ff ff 	mov    rax,QWORD PTR [rbp-0xb8]
   1e902:	48 89 45 90          	mov    QWORD PTR [rbp-0x70],rax
   1e906:	48 8b 85 58 ff ff ff 	mov    rax,QWORD PTR [rbp-0xa8]
   1e90d:	48 89 45 98          	mov    QWORD PTR [rbp-0x68],rax
   1e911:	48 8b 85 30 ff ff ff 	mov    rax,QWORD PTR [rbp-0xd0]
   1e918:	48 89 45 a0          	mov    QWORD PTR [rbp-0x60],rax
   1e91c:	48 8b 85 28 ff ff ff 	mov    rax,QWORD PTR [rbp-0xd8]
   1e923:	48 89 45 a8          	mov    QWORD PTR [rbp-0x58],rax
   1e927:	48 8b 85 40 ff ff ff 	mov    rax,QWORD PTR [rbp-0xc0]
   1e92e:	48 89 45 b0          	mov    QWORD PTR [rbp-0x50],rax
   1e932:	48 8b 85 08 ff ff ff 	mov    rax,QWORD PTR [rbp-0xf8]
   1e939:	48 8b 8d 10 ff ff ff 	mov    rcx,QWORD PTR [rbp-0xf0]
   1e940:	48 89 4d b8          	mov    QWORD PTR [rbp-0x48],rcx
   1e944:	48 8b 8d 20 ff ff ff 	mov    rcx,QWORD PTR [rbp-0xe0]
   1e94b:	48 89 4d c0          	mov    QWORD PTR [rbp-0x40],rcx
   1e94f:	4c 8b 9d 18 ff ff ff 	mov    r11,QWORD PTR [rbp-0xe8]
   1e956:	4c 8b 95 38 ff ff ff 	mov    r10,QWORD PTR [rbp-0xc8]
   1e95d:	44 89 e6             	mov    esi,r12d
   1e960:	48 ba 8a 05 1f a3 bd 	movabs rdx,0xa95e6abda31f058a
   1e967:	6a 5e a9 
   1e96a:	e9 be b2 ff ff       	jmp    19c2d <Java_com_adjust_sdk_sig_NativeLibHelper_nOnResume@@Base-0xa1076>
   1e96f:	31 c0                	xor    eax,eax
   1e971:	b1 01                	mov    cl,0x1
   1e973:	f0 0f b0 0d b1 03 12 	lock cmpxchg BYTE PTR [rip+0x1203b1],cl        # 13ed2c <write@plt+0xc1ac>
   1e97a:	00 
   1e97b:	48 ba 69 d5 1f 12 bf 	movabs rdx,0x988ed9bf121fd569
   1e982:	d9 8e 98 
   1e985:	40 8a 75 cd          	mov    sil,BYTE PTR [rbp-0x33]
   1e989:	4c 8b 95 38 ff ff ff 	mov    r10,QWORD PTR [rbp-0xc8]
   1e990:	48 8b 9d 00 ff ff ff 	mov    rbx,QWORD PTR [rbp-0x100]
   1e997:	4c 8b ad f0 fe ff ff 	mov    r13,QWORD PTR [rbp-0x110]
   1e99e:	4c 8b bd f8 fe ff ff 	mov    r15,QWORD PTR [rbp-0x108]
   1e9a5:	4c 8b 8d 18 ff ff ff 	mov    r9,QWORD PTR [rbp-0xe8]
   1e9ac:	4c 8b 85 20 ff ff ff 	mov    r8,QWORD PTR [rbp-0xe0]
   1e9b3:	48 8b bd 10 ff ff ff 	mov    rdi,QWORD PTR [rbp-0xf0]
   1e9ba:	48 8b 8d 08 ff ff ff 	mov    rcx,QWORD PTR [rbp-0xf8]
   1e9c1:	48 8b 85 40 ff ff ff 	mov    rax,QWORD PTR [rbp-0xc0]
   1e9c8:	0f 84 eb 3d 00 00    	je     227b9 <Java_com_adjust_sdk_sig_NativeLibHelper_nOnResume@@Base-0x984ea>
   1e9ce:	48 ba bc 98 47 ae e0 	movabs rdx,0x503753e0ae4798bc
   1e9d5:	53 37 50 
   1e9d8:	e9 dc 3d 00 00       	jmp    227b9 <Java_com_adjust_sdk_sig_NativeLibHelper_nOnResume@@Base-0x984ea>
   1e9dd:	48 8b 85 c0 fe ff ff 	mov    rax,QWORD PTR [rbp-0x140]
   1e9e4:	48 2b 85 20 fc ff ff 	sub    rax,QWORD PTR [rbp-0x3e0]
   1e9eb:	48 8b 8d 30 fe ff ff 	mov    rcx,QWORD PTR [rbp-0x1d0]
   1e9f2:	48 39 c8             	cmp    rax,rcx
   1e9f5:	48 0f 46 c1          	cmovbe rax,rcx
   1e9f9:	eb 0e                	jmp    1ea09 <Java_com_adjust_sdk_sig_NativeLibHelper_nOnResume@@Base-0x9c29a>
   1e9fb:	48 8b 85 38 fe ff ff 	mov    rax,QWORD PTR [rbp-0x1c8]
   1ea02:	48 2b 85 d8 fc ff ff 	sub    rax,QWORD PTR [rbp-0x328]
   1ea09:	8a 4d ce             	mov    cl,BYTE PTR [rbp-0x32]
   1ea0c:	88 4d cf             	mov    BYTE PTR [rbp-0x31],cl
   1ea0f:	48 8b 8d 50 ff ff ff 	mov    rcx,QWORD PTR [rbp-0xb0]
   1ea16:	48 89 8d 70 ff ff ff 	mov    QWORD PTR [rbp-0x90],rcx
   1ea1d:	48 8b 8d 60 ff ff ff 	mov    rcx,QWORD PTR [rbp-0xa0]
   1ea24:	48 89 8d 78 ff ff ff 	mov    QWORD PTR [rbp-0x88],rcx
   1ea2b:	48 89 45 88          	mov    QWORD PTR [rbp-0x78],rax
   1ea2f:	48 8b 85 48 ff ff ff 	mov    rax,QWORD PTR [rbp-0xb8]
   1ea36:	48 89 45 90          	mov    QWORD PTR [rbp-0x70],rax
   1ea3a:	48 8b 85 58 ff ff ff 	mov    rax,QWORD PTR [rbp-0xa8]
   1ea41:	48 89 45 98          	mov    QWORD PTR [rbp-0x68],rax
   1ea45:	48 89 55 a0          	mov    QWORD PTR [rbp-0x60],rdx
   1ea49:	4c 89 5d a8          	mov    QWORD PTR [rbp-0x58],r11
   1ea4d:	48 8b 85 40 ff ff ff 	mov    rax,QWORD PTR [rbp-0xc0]
   1ea54:	48 89 45 b0          	mov    QWORD PTR [rbp-0x50],rax
   1ea58:	4c 89 e0             	mov    rax,r12
   1ea5b:	48 89 7d b8          	mov    QWORD PTR [rbp-0x48],rdi
   1ea5f:	4c 89 45 c0          	mov    QWORD PTR [rbp-0x40],r8
   1ea63:	4d 89 cb             	mov    r11,r9
   1ea66:	31 d2                	xor    edx,edx
   1ea68:	48 89 55 80          	mov    QWORD PTR [rbp-0x80],rdx
   1ea6c:	48 ba 3a 4b eb 22 9e 	movabs rdx,0x1f0a569e22eb4b3a
   1ea73:	56 0a 1f 
   1ea76:	e9 b2 b1 ff ff       	jmp    19c2d <Java_com_adjust_sdk_sig_NativeLibHelper_nOnResume@@Base-0xa1076>
   1ea7b:	c6 05 ae 02 12 00 00 	mov    BYTE PTR [rip+0x1202ae],0x0        # 13ed30 <write@plt+0xc1b0>
   1ea82:	8a 45 ce             	mov    al,BYTE PTR [rbp-0x32]
   1ea85:	88 45 cf             	mov    BYTE PTR [rbp-0x31],al
   1ea88:	48 8b 85 50 ff ff ff 	mov    rax,QWORD PTR [rbp-0xb0]
   1ea8f:	48 89 85 70 ff ff ff 	mov    QWORD PTR [rbp-0x90],rax
   1ea96:	48 8b 85 60 ff ff ff 	mov    rax,QWORD PTR [rbp-0xa0]
   1ea9d:	48 89 85 78 ff ff ff 	mov    QWORD PTR [rbp-0x88],rax
   1eaa4:	48 8b 85 e0 fe ff ff 	mov    rax,QWORD PTR [rbp-0x120]
   1eaab:	48 89 45 80          	mov    QWORD PTR [rbp-0x80],rax
   1eaaf:	48 8b 85 e8 fe ff ff 	mov    rax,QWORD PTR [rbp-0x118]
   1eab6:	48 89 45 88          	mov    QWORD PTR [rbp-0x78],rax
   1eaba:	48 8b 85 48 ff ff ff 	mov    rax,QWORD PTR [rbp-0xb8]
   1eac1:	48 89 45 90          	mov    QWORD PTR [rbp-0x70],rax
   1eac5:	48 8b 85 58 ff ff ff 	mov    rax,QWORD PTR [rbp-0xa8]
   1eacc:	48 89 45 98          	mov    QWORD PTR [rbp-0x68],rax
   1ead0:	48 8b 85 30 ff ff ff 	mov    rax,QWORD PTR [rbp-0xd0]
   1ead7:	48 89 45 a0          	mov    QWORD PTR [rbp-0x60],rax
   1eadb:	48 8b 85 28 ff ff ff 	mov    rax,QWORD PTR [rbp-0xd8]
   1eae2:	48 89 45 a8          	mov    QWORD PTR [rbp-0x58],rax
   1eae6:	4c 89 65 b0          	mov    QWORD PTR [rbp-0x50],r12
   1eaea:	48 89 c8             	mov    rax,rcx
   1eaed:	48 89 7d b8          	mov    QWORD PTR [rbp-0x48],rdi
   1eaf1:	4c 89 45 c0          	mov    QWORD PTR [rbp-0x40],r8
   1eaf5:	4d 89 cb             	mov    r11,r9
   1eaf8:	48 ba 2c 7c 3d f8 60 	movabs rdx,0x59e82660f83d7c2c
   1eaff:	26 e8 59 
   1eb02:	e9 26 b1 ff ff       	jmp    19c2d <Java_com_adjust_sdk_sig_NativeLibHelper_nOnResume@@Base-0xa1076>
   1eb07:	8a 45 ce             	mov    al,BYTE PTR [rbp-0x32]
   1eb0a:	88 45 cf             	mov    BYTE PTR [rbp-0x31],al
   1eb0d:	48 8b 85 50 ff ff ff 	mov    rax,QWORD PTR [rbp-0xb0]
   1eb14:	48 89 85 70 ff ff ff 	mov    QWORD PTR [rbp-0x90],rax
   1eb1b:	48 8b 85 60 ff ff ff 	mov    rax,QWORD PTR [rbp-0xa0]
   1eb22:	48 89 85 78 ff ff ff 	mov    QWORD PTR [rbp-0x88],rax
   1eb29:	4c 89 c0             	mov    rax,r8
   1eb2c:	4c 89 45 80          	mov    QWORD PTR [rbp-0x80],r8
   1eb30:	4c 89 4d 88          	mov    QWORD PTR [rbp-0x78],r9
   1eb34:	48 8b 85 48 ff ff ff 	mov    rax,QWORD PTR [rbp-0xb8]
   1eb3b:	48 89 45 90          	mov    QWORD PTR [rbp-0x70],rax
   1eb3f:	48 8b 85 58 ff ff ff 	mov    rax,QWORD PTR [rbp-0xa8]
   1eb46:	48 89 45 98          	mov    QWORD PTR [rbp-0x68],rax
   1eb4a:	48 89 4d a0          	mov    QWORD PTR [rbp-0x60],rcx
   1eb4e:	4c 89 5d a8          	mov    QWORD PTR [rbp-0x58],r11
   1eb52:	48 8b 85 40 ff ff ff 	mov    rax,QWORD PTR [rbp-0xc0]
   1eb59:	48 89 45 b0          	mov    QWORD PTR [rbp-0x50],rax
   1eb5d:	48 8b 85 08 ff ff ff 	mov    rax,QWORD PTR [rbp-0xf8]
   1eb64:	48 8b 8d 10 ff ff ff 	mov    rcx,QWORD PTR [rbp-0xf0]
   1eb6b:	48 89 4d b8          	mov    QWORD PTR [rbp-0x48],rcx
   1eb6f:	48 8b 8d 20 ff ff ff 	mov    rcx,QWORD PTR [rbp-0xe0]
   1eb76:	48 89 4d c0          	mov    QWORD PTR [rbp-0x40],rcx
   1eb7a:	4c 8b 9d 18 ff ff ff 	mov    r11,QWORD PTR [rbp-0xe8]
   1eb81:	4c 8b 95 38 ff ff ff 	mov    r10,QWORD PTR [rbp-0xc8]
   1eb88:	4c 8b b5 38 fd ff ff 	mov    r14,QWORD PTR [rbp-0x2c8]
   1eb8f:	41 8a 56 01          	mov    dl,BYTE PTR [r14+0x1]
   1eb93:	88 95 da fe ff ff    	mov    BYTE PTR [rbp-0x126],dl
   1eb99:	44 89 e6             	mov    esi,r12d
   1eb9c:	49 8d 56 01          	lea    rdx,[r14+0x1]
   1eba0:	e9 d8 05 00 00       	jmp    1f17d <Java_com_adjust_sdk_sig_NativeLibHelper_nOnResume@@Base-0x9bb26>
   1eba5:	48 8b 8d 48 ff ff ff 	mov    rcx,QWORD PTR [rbp-0xb8]
   1ebac:	4c 8b a5 60 fd ff ff 	mov    r12,QWORD PTR [rbp-0x2a0]
   1ebb3:	4c 89 e0             	mov    rax,r12
   1ebb6:	4c 8b b5 40 fd ff ff 	mov    r14,QWORD PTR [rbp-0x2c0]
   1ebbd:	4c 29 f0             	sub    rax,r14
   1ebc0:	48 ba 4f 08 c4 71 79 	movabs rdx,0x97450f7971c4084f
   1ebc7:	0f 45 97 
   1ebca:	48 3b 85 c0 fe ff ff 	cmp    rax,QWORD PTR [rbp-0x140]
   1ebd1:	48 8b 9d 00 ff ff ff 	mov    rbx,QWORD PTR [rbp-0x100]
   1ebd8:	4c 8b ad f0 fe ff ff 	mov    r13,QWORD PTR [rbp-0x110]
   1ebdf:	4c 8b bd f8 fe ff ff 	mov    r15,QWORD PTR [rbp-0x108]
   1ebe6:	7c 0a                	jl     1ebf2 <Java_com_adjust_sdk_sig_NativeLibHelper_nOnResume@@Base-0x9c0b1>
   1ebe8:	48 ba b6 c9 4c 73 9f 	movabs rdx,0xaaa8c49f734cc9b6
   1ebef:	c4 a8 aa 
   1ebf2:	8a 45 ce             	mov    al,BYTE PTR [rbp-0x32]
   1ebf5:	88 45 cf             	mov    BYTE PTR [rbp-0x31],al
   1ebf8:	48 8b 85 50 ff ff ff 	mov    rax,QWORD PTR [rbp-0xb0]
   1ebff:	48 89 85 70 ff ff ff 	mov    QWORD PTR [rbp-0x90],rax
   1ec06:	48 8b 85 60 ff ff ff 	mov    rax,QWORD PTR [rbp-0xa0]
   1ec0d:	48 89 85 78 ff ff ff 	mov    QWORD PTR [rbp-0x88],rax
   1ec14:	48 89 f8             	mov    rax,rdi
   1ec17:	48 89 7d 80          	mov    QWORD PTR [rbp-0x80],rdi
   1ec1b:	4c 89 4d 88          	mov    QWORD PTR [rbp-0x78],r9
   1ec1f:	48 89 4d 90          	mov    QWORD PTR [rbp-0x70],rcx
   1ec23:	48 8b 85 58 ff ff ff 	mov    rax,QWORD PTR [rbp-0xa8]
   1ec2a:	48 89 45 98          	mov    QWORD PTR [rbp-0x68],rax
   1ec2e:	48 8b 85 30 ff ff ff 	mov    rax,QWORD PTR [rbp-0xd0]
   1ec35:	48 89 45 a0          	mov    QWORD PTR [rbp-0x60],rax
   1ec39:	48 8b 85 28 ff ff ff 	mov    rax,QWORD PTR [rbp-0xd8]
   1ec40:	48 89 45 a8          	mov    QWORD PTR [rbp-0x58],rax
   1ec44:	48 8b 85 40 ff ff ff 	mov    rax,QWORD PTR [rbp-0xc0]
   1ec4b:	48 89 45 b0          	mov    QWORD PTR [rbp-0x50],rax
   1ec4f:	48 8b 85 08 ff ff ff 	mov    rax,QWORD PTR [rbp-0xf8]
   1ec56:	48 8b 8d 10 ff ff ff 	mov    rcx,QWORD PTR [rbp-0xf0]
   1ec5d:	48 89 4d b8          	mov    QWORD PTR [rbp-0x48],rcx
   1ec61:	48 8b 8d 20 ff ff ff 	mov    rcx,QWORD PTR [rbp-0xe0]
   1ec68:	48 89 4d c0          	mov    QWORD PTR [rbp-0x40],rcx
   1ec6c:	4c 8b 9d 18 ff ff ff 	mov    r11,QWORD PTR [rbp-0xe8]
   1ec73:	4c 8b 95 38 ff ff ff 	mov    r10,QWORD PTR [rbp-0xc8]
   1ec7a:	40 8a 75 cd          	mov    sil,BYTE PTR [rbp-0x33]
   1ec7e:	4c 89 a5 f8 fd ff ff 	mov    QWORD PTR [rbp-0x208],r12
   1ec85:	4c 8b a5 50 fd ff ff 	mov    r12,QWORD PTR [rbp-0x2b0]
   1ec8c:	4c 89 a5 30 fe ff ff 	mov    QWORD PTR [rbp-0x1d0],r12
   1ec93:	4c 89 b5 68 fe ff ff 	mov    QWORD PTR [rbp-0x198],r14
   1ec9a:	4c 89 b5 80 fc ff ff 	mov    QWORD PTR [rbp-0x380],r14
   1eca1:	e9 87 af ff ff       	jmp    19c2d <Java_com_adjust_sdk_sig_NativeLibHelper_nOnResume@@Base-0xa1076>
   1eca6:	80 35 33 ce 11 00 4b 	xor    BYTE PTR [rip+0x11ce33],0x4b        # 13bae0 <write@plt+0x8f60>
   1ecad:	80 35 2d ce 11 00 4b 	xor    BYTE PTR [rip+0x11ce2d],0x4b        # 13bae1 <write@plt+0x8f61>
   1ecb4:	c6 05 76 00 12 00 01 	mov    BYTE PTR [rip+0x120076],0x1        # 13ed31 <write@plt+0xc1b1>
   1ecbb:	40 8a 75 ce          	mov    sil,BYTE PTR [rbp-0x32]
   1ecbf:	40 88 75 cf          	mov    BYTE PTR [rbp-0x31],sil
   1ecc3:	48 8b b5 50 ff ff ff 	mov    rsi,QWORD PTR [rbp-0xb0]
   1ecca:	48 89 b5 70 ff ff ff 	mov    QWORD PTR [rbp-0x90],rsi
   1ecd1:	48 8b b5 60 ff ff ff 	mov    rsi,QWORD PTR [rbp-0xa0]
   1ecd8:	48 89 b5 78 ff ff ff 	mov    QWORD PTR [rbp-0x88],rsi
   1ecdf:	48 8b b5 e0 fe ff ff 	mov    rsi,QWORD PTR [rbp-0x120]
   1ece6:	48 89 75 80          	mov    QWORD PTR [rbp-0x80],rsi
   1ecea:	48 8b b5 e8 fe ff ff 	mov    rsi,QWORD PTR [rbp-0x118]
   1ecf1:	48 89 75 88          	mov    QWORD PTR [rbp-0x78],rsi
   1ecf5:	48 8b b5 48 ff ff ff 	mov    rsi,QWORD PTR [rbp-0xb8]
   1ecfc:	48 89 75 90          	mov    QWORD PTR [rbp-0x70],rsi
   1ed00:	48 8b b5 58 ff ff ff 	mov    rsi,QWORD PTR [rbp-0xa8]
   1ed07:	48 89 75 98          	mov    QWORD PTR [rbp-0x68],rsi
   1ed0b:	48 8b b5 30 ff ff ff 	mov    rsi,QWORD PTR [rbp-0xd0]
   1ed12:	48 89 75 a0          	mov    QWORD PTR [rbp-0x60],rsi
   1ed16:	48 8b b5 28 ff ff ff 	mov    rsi,QWORD PTR [rbp-0xd8]
   1ed1d:	48 89 75 a8          	mov    QWORD PTR [rbp-0x58],rsi
   1ed21:	48 89 45 b0          	mov    QWORD PTR [rbp-0x50],rax
   1ed25:	48 89 c8             	mov    rax,rcx
   1ed28:	48 89 7d b8          	mov    QWORD PTR [rbp-0x48],rdi
   1ed2c:	4c 89 45 c0          	mov    QWORD PTR [rbp-0x40],r8
   1ed30:	89 d6                	mov    esi,edx
   1ed32:	48 ba d5 d8 9d e5 4f 	movabs rdx,0xd02c834fe59dd8d5
   1ed39:	83 2c d0 
   1ed3c:	e9 ec ae ff ff       	jmp    19c2d <Java_com_adjust_sdk_sig_NativeLibHelper_nOnResume@@Base-0xa1076>
   1ed41:	48 8b 85 f8 fc ff ff 	mov    rax,QWORD PTR [rbp-0x308]
   1ed48:	4c 8b b5 a8 fd ff ff 	mov    r14,QWORD PTR [rbp-0x258]
   1ed4f:	49 8d 0c 06          	lea    rcx,[r14+rax*1]
   1ed53:	48 89 c8             	mov    rax,rcx
   1ed56:	48 89 8d 08 fe ff ff 	mov    QWORD PTR [rbp-0x1f8],rcx
   1ed5d:	48 3b 8d c0 fe ff ff 	cmp    rcx,QWORD PTR [rbp-0x140]
   1ed64:	48 89 d1             	mov    rcx,rdx
   1ed67:	48 ba b6 4f 0c 15 e8 	movabs rdx,0x1e7963e8150c4fb6
   1ed6e:	63 79 1e 
   1ed71:	48 b8 ee fa 59 de bd 	movabs rax,0x26ac5cbdde59faee
   1ed78:	5c ac 26 
   1ed7b:	48 0f 42 d0          	cmovb  rdx,rax
   1ed7f:	8a 45 ce             	mov    al,BYTE PTR [rbp-0x32]
   1ed82:	88 45 cf             	mov    BYTE PTR [rbp-0x31],al
   1ed85:	48 8b 85 50 ff ff ff 	mov    rax,QWORD PTR [rbp-0xb0]
   1ed8c:	48 89 85 70 ff ff ff 	mov    QWORD PTR [rbp-0x90],rax
   1ed93:	48 8b 85 60 ff ff ff 	mov    rax,QWORD PTR [rbp-0xa0]
   1ed9a:	48 89 85 78 ff ff ff 	mov    QWORD PTR [rbp-0x88],rax
   1eda1:	4c 89 c0             	mov    rax,r8
   1eda4:	4c 89 45 80          	mov    QWORD PTR [rbp-0x80],r8
   1eda8:	4c 89 4d 88          	mov    QWORD PTR [rbp-0x78],r9
   1edac:	48 8b 85 48 ff ff ff 	mov    rax,QWORD PTR [rbp-0xb8]
   1edb3:	48 89 45 90          	mov    QWORD PTR [rbp-0x70],rax
   1edb7:	48 8b 85 58 ff ff ff 	mov    rax,QWORD PTR [rbp-0xa8]
   1edbe:	48 89 45 98          	mov    QWORD PTR [rbp-0x68],rax
   1edc2:	48 89 4d a0          	mov    QWORD PTR [rbp-0x60],rcx
   1edc6:	4c 89 5d a8          	mov    QWORD PTR [rbp-0x58],r11
   1edca:	48 8b 85 40 ff ff ff 	mov    rax,QWORD PTR [rbp-0xc0]
   1edd1:	48 89 45 b0          	mov    QWORD PTR [rbp-0x50],rax
   1edd5:	48 8b 85 08 ff ff ff 	mov    rax,QWORD PTR [rbp-0xf8]
   1eddc:	48 8b 8d 10 ff ff ff 	mov    rcx,QWORD PTR [rbp-0xf0]
   1ede3:	48 89 4d b8          	mov    QWORD PTR [rbp-0x48],rcx
   1ede7:	48 8b 8d 20 ff ff ff 	mov    rcx,QWORD PTR [rbp-0xe0]
   1edee:	48 89 4d c0          	mov    QWORD PTR [rbp-0x40],rcx
   1edf2:	4c 8b 9d 18 ff ff ff 	mov    r11,QWORD PTR [rbp-0xe8]
   1edf9:	4c 8b 95 38 ff ff ff 	mov    r10,QWORD PTR [rbp-0xc8]
   1ee00:	44 89 e6             	mov    esi,r12d
   1ee03:	4c 89 b5 60 fe ff ff 	mov    QWORD PTR [rbp-0x1a0],r14
   1ee0a:	e9 1e ae ff ff       	jmp    19c2d <Java_com_adjust_sdk_sig_NativeLibHelper_nOnResume@@Base-0xa1076>
   1ee0f:	48 8b 85 c8 fc ff ff 	mov    rax,QWORD PTR [rbp-0x338]
   1ee16:	48 8b 8d 18 fc ff ff 	mov    rcx,QWORD PTR [rbp-0x3e8]
   1ee1d:	48 8b 04 c8          	mov    rax,QWORD PTR [rax+rcx*8]
   1ee21:	48 ba 29 f2 f0 59 9c 	movabs rdx,0x6ff99c9c59f0f229
   1ee28:	9c f9 6f 
   1ee2b:	48 89 85 20 fc ff ff 	mov    QWORD PTR [rbp-0x3e0],rax
   1ee32:	48 39 85 c0 fe ff ff 	cmp    QWORD PTR [rbp-0x140],rax
   1ee39:	40 8a 75 cd          	mov    sil,BYTE PTR [rbp-0x33]
   1ee3d:	48 8b 9d 00 ff ff ff 	mov    rbx,QWORD PTR [rbp-0x100]
   1ee44:	4c 8b ad f0 fe ff ff 	mov    r13,QWORD PTR [rbp-0x110]
   1ee4b:	4c 8b bd f8 fe ff ff 	mov    r15,QWORD PTR [rbp-0x108]
   1ee52:	74 0a                	je     1ee5e <Java_com_adjust_sdk_sig_NativeLibHelper_nOnResume@@Base-0x9be45>
   1ee54:	48 ba b7 2e be da de 	movabs rdx,0xff84c6dedabe2eb7
   1ee5b:	c6 84 ff 
   1ee5e:	8a 45 ce             	mov    al,BYTE PTR [rbp-0x32]
   1ee61:	88 45 cf             	mov    BYTE PTR [rbp-0x31],al
   1ee64:	48 8b 85 50 ff ff ff 	mov    rax,QWORD PTR [rbp-0xb0]
   1ee6b:	48 89 85 70 ff ff ff 	mov    QWORD PTR [rbp-0x90],rax
   1ee72:	48 8b 85 60 ff ff ff 	mov    rax,QWORD PTR [rbp-0xa0]
   1ee79:	48 89 85 78 ff ff ff 	mov    QWORD PTR [rbp-0x88],rax
   1ee80:	4c 89 f0             	mov    rax,r14
   1ee83:	4c 89 75 80          	mov    QWORD PTR [rbp-0x80],r14
   1ee87:	e9 45 0f 00 00       	jmp    1fdd1 <Java_com_adjust_sdk_sig_NativeLibHelper_nOnResume@@Base-0x9aed2>
   1ee8c:	31 c0                	xor    eax,eax
   1ee8e:	b1 01                	mov    cl,0x1
   1ee90:	f0 0f b0 0d 9a fe 11 	lock cmpxchg BYTE PTR [rip+0x11fe9a],cl        # 13ed32 <write@plt+0xc1b2>
   1ee97:	00 
   1ee98:	48 ba f2 a0 a6 1d 3d 	movabs rdx,0x10e5703d1da6a0f2
   1ee9f:	70 e5 10 
   1eea2:	74 0a                	je     1eeae <Java_com_adjust_sdk_sig_NativeLibHelper_nOnResume@@Base-0x9bdf5>
   1eea4:	48 ba 9d c7 ee 13 aa 	movabs rdx,0x6f2d55aa13eec79d
   1eeab:	55 2d 6f 
   1eeae:	8a 45 ce             	mov    al,BYTE PTR [rbp-0x32]
   1eeb1:	88 45 cf             	mov    BYTE PTR [rbp-0x31],al
   1eeb4:	48 8b 85 50 ff ff ff 	mov    rax,QWORD PTR [rbp-0xb0]
   1eebb:	48 89 85 70 ff ff ff 	mov    QWORD PTR [rbp-0x90],rax
   1eec2:	48 8b 85 60 ff ff ff 	mov    rax,QWORD PTR [rbp-0xa0]
   1eec9:	48 89 85 78 ff ff ff 	mov    QWORD PTR [rbp-0x88],rax
   1eed0:	48 8b 85 e0 fe ff ff 	mov    rax,QWORD PTR [rbp-0x120]
   1eed7:	48 89 45 80          	mov    QWORD PTR [rbp-0x80],rax
   1eedb:	48 8b 85 e8 fe ff ff 	mov    rax,QWORD PTR [rbp-0x118]
   1eee2:	48 89 45 88          	mov    QWORD PTR [rbp-0x78],rax
   1eee6:	48 8b 85 48 ff ff ff 	mov    rax,QWORD PTR [rbp-0xb8]
   1eeed:	48 89 45 90          	mov    QWORD PTR [rbp-0x70],rax
   1eef1:	48 8b 85 58 ff ff ff 	mov    rax,QWORD PTR [rbp-0xa8]
   1eef8:	48 89 45 98          	mov    QWORD PTR [rbp-0x68],rax
   1eefc:	48 8b 85 30 ff ff ff 	mov    rax,QWORD PTR [rbp-0xd0]
   1ef03:	48 89 45 a0          	mov    QWORD PTR [rbp-0x60],rax
   1ef07:	48 8b 85 28 ff ff ff 	mov    rax,QWORD PTR [rbp-0xd8]
   1ef0e:	48 89 45 a8          	mov    QWORD PTR [rbp-0x58],rax
   1ef12:	48 8b 85 40 ff ff ff 	mov    rax,QWORD PTR [rbp-0xc0]
   1ef19:	48 89 45 b0          	mov    QWORD PTR [rbp-0x50],rax
   1ef1d:	4c 89 e0             	mov    rax,r12
   1ef20:	48 89 7d b8          	mov    QWORD PTR [rbp-0x48],rdi
   1ef24:	4c 89 45 c0          	mov    QWORD PTR [rbp-0x40],r8
   1ef28:	e9 00 ad ff ff       	jmp    19c2d <Java_com_adjust_sdk_sig_NativeLibHelper_nOnResume@@Base-0xa1076>
   1ef2d:	31 c0                	xor    eax,eax
   1ef2f:	b1 01                	mov    cl,0x1
   1ef31:	f0 0f b0 0d f7 fd 11 	lock cmpxchg BYTE PTR [rip+0x11fdf7],cl        # 13ed30 <write@plt+0xc1b0>
   1ef38:	00 
   1ef39:	48 ba 73 0f c8 e7 d3 	movabs rdx,0xa4f8c0d3e7c80f73
   1ef40:	c0 f8 a4 
   1ef43:	40 8a 75 cd          	mov    sil,BYTE PTR [rbp-0x33]
   1ef47:	4c 8b 95 38 ff ff ff 	mov    r10,QWORD PTR [rbp-0xc8]
   1ef4e:	4c 8b bd f8 fe ff ff 	mov    r15,QWORD PTR [rbp-0x108]
   1ef55:	4c 8b 8d 18 ff ff ff 	mov    r9,QWORD PTR [rbp-0xe8]
   1ef5c:	4c 8b 85 20 ff ff ff 	mov    r8,QWORD PTR [rbp-0xe0]
   1ef63:	48 8b bd 10 ff ff ff 	mov    rdi,QWORD PTR [rbp-0xf0]
   1ef6a:	48 8b 8d 08 ff ff ff 	mov    rcx,QWORD PTR [rbp-0xf8]
   1ef71:	48 8b 85 40 ff ff ff 	mov    rax,QWORD PTR [rbp-0xc0]
   1ef78:	48 8b 9d 58 ff ff ff 	mov    rbx,QWORD PTR [rbp-0xa8]
   1ef7f:	4c 8b 9d 60 ff ff ff 	mov    r11,QWORD PTR [rbp-0xa0]
   1ef86:	4c 8b b5 50 ff ff ff 	mov    r14,QWORD PTR [rbp-0xb0]
   1ef8d:	74 0a                	je     1ef99 <Java_com_adjust_sdk_sig_NativeLibHelper_nOnResume@@Base-0x9bd0a>
   1ef8f:	48 ba 0c 0e 28 d1 5a 	movabs rdx,0x96fb5a5ad1280e0c
   1ef96:	5a fb 96 
   1ef99:	44 8a 65 ce          	mov    r12b,BYTE PTR [rbp-0x32]
   1ef9d:	44 88 65 cf          	mov    BYTE PTR [rbp-0x31],r12b
   1efa1:	4c 89 b5 70 ff ff ff 	mov    QWORD PTR [rbp-0x90],r14
   1efa8:	4c 89 9d 78 ff ff ff 	mov    QWORD PTR [rbp-0x88],r11
   1efaf:	4c 8b 9d e0 fe ff ff 	mov    r11,QWORD PTR [rbp-0x120]
   1efb6:	4c 89 5d 80          	mov    QWORD PTR [rbp-0x80],r11
   1efba:	4c 8b 9d e8 fe ff ff 	mov    r11,QWORD PTR [rbp-0x118]
   1efc1:	4c 89 5d 88          	mov    QWORD PTR [rbp-0x78],r11
   1efc5:	4c 8b 9d 48 ff ff ff 	mov    r11,QWORD PTR [rbp-0xb8]
   1efcc:	4c 89 5d 90          	mov    QWORD PTR [rbp-0x70],r11
   1efd0:	48 89 5d 98          	mov    QWORD PTR [rbp-0x68],rbx
   1efd4:	4c 8b 9d 30 ff ff ff 	mov    r11,QWORD PTR [rbp-0xd0]
   1efdb:	4c 89 5d a0          	mov    QWORD PTR [rbp-0x60],r11
   1efdf:	4c 8b 9d 28 ff ff ff 	mov    r11,QWORD PTR [rbp-0xd8]
   1efe6:	4c 89 5d a8          	mov    QWORD PTR [rbp-0x58],r11
   1efea:	48 89 45 b0          	mov    QWORD PTR [rbp-0x50],rax
   1efee:	48 89 c8             	mov    rax,rcx
   1eff1:	48 89 7d b8          	mov    QWORD PTR [rbp-0x48],rdi
   1eff5:	4c 89 45 c0          	mov    QWORD PTR [rbp-0x40],r8
   1eff9:	4d 89 cb             	mov    r11,r9
   1effc:	4c 8b ad f0 fe ff ff 	mov    r13,QWORD PTR [rbp-0x110]
   1f003:	48 8b 9d 00 ff ff ff 	mov    rbx,QWORD PTR [rbp-0x100]
   1f00a:	e9 1e ac ff ff       	jmp    19c2d <Java_com_adjust_sdk_sig_NativeLibHelper_nOnResume@@Base-0xa1076>
   1f00f:	80 3d 1f fd 11 00 00 	cmp    BYTE PTR [rip+0x11fd1f],0x0        # 13ed35 <write@plt+0xc1b5>
   1f016:	48 ba ca 09 51 68 46 	movabs rdx,0xb82f8946685109ca
   1f01d:	89 2f b8 
   1f020:	0f 85 d8 2d 00 00    	jne    21dfe <Java_com_adjust_sdk_sig_NativeLibHelper_nOnResume@@Base-0x98ea5>
   1f026:	48 ba d5 30 ad 4a 81 	movabs rdx,0xfdd8ea814aad30d5
   1f02d:	ea d8 fd 
   1f030:	e9 c9 2d 00 00       	jmp    21dfe <Java_com_adjust_sdk_sig_NativeLibHelper_nOnResume@@Base-0x98ea5>
   1f035:	48 8b 85 b8 fe ff ff 	mov    rax,QWORD PTR [rbp-0x148]
   1f03c:	8a 40 03             	mov    al,BYTE PTR [rax+0x3]
   1f03f:	48 ba fc e8 ca 90 f4 	movabs rdx,0x33a5ddf490cae8fc
   1f046:	dd a5 33 
   1f049:	88 85 ce fe ff ff    	mov    BYTE PTR [rbp-0x132],al
   1f04f:	84 c0                	test   al,al
   1f051:	0f 84 6a 2a 00 00    	je     21ac1 <Java_com_adjust_sdk_sig_NativeLibHelper_nOnResume@@Base-0x991e2>
   1f057:	48 ba e3 9e 1b f8 fd 	movabs rdx,0x1bd2befdf81b9ee3
   1f05e:	be d2 1b 
   1f061:	e9 5b 2a 00 00       	jmp    21ac1 <Java_com_adjust_sdk_sig_NativeLibHelper_nOnResume@@Base-0x991e2>
   1f066:	0f 57 c0             	xorps  xmm0,xmm0
   1f069:	48 8b 85 10 fe ff ff 	mov    rax,QWORD PTR [rbp-0x1f0]
   1f070:	0f 29 40 10          	movaps XMMWORD PTR [rax+0x10],xmm0
   1f074:	0f 29 00             	movaps XMMWORD PTR [rax],xmm0
   1f077:	8a 45 ce             	mov    al,BYTE PTR [rbp-0x32]
   1f07a:	88 45 cf             	mov    BYTE PTR [rbp-0x31],al
   1f07d:	48 8b 85 50 ff ff ff 	mov    rax,QWORD PTR [rbp-0xb0]
   1f084:	48 89 85 70 ff ff ff 	mov    QWORD PTR [rbp-0x90],rax
   1f08b:	48 8b 85 60 ff ff ff 	mov    rax,QWORD PTR [rbp-0xa0]
   1f092:	48 89 85 78 ff ff ff 	mov    QWORD PTR [rbp-0x88],rax
   1f099:	48 8b 85 e0 fe ff ff 	mov    rax,QWORD PTR [rbp-0x120]
   1f0a0:	48 89 45 80          	mov    QWORD PTR [rbp-0x80],rax
   1f0a4:	48 8b 85 e8 fe ff ff 	mov    rax,QWORD PTR [rbp-0x118]
   1f0ab:	48 89 45 88          	mov    QWORD PTR [rbp-0x78],rax
   1f0af:	48 8b 85 48 ff ff ff 	mov    rax,QWORD PTR [rbp-0xb8]
   1f0b6:	48 89 45 90          	mov    QWORD PTR [rbp-0x70],rax
   1f0ba:	48 8b 85 58 ff ff ff 	mov    rax,QWORD PTR [rbp-0xa8]
   1f0c1:	48 89 45 98          	mov    QWORD PTR [rbp-0x68],rax
   1f0c5:	48 89 55 a0          	mov    QWORD PTR [rbp-0x60],rdx
   1f0c9:	4c 89 5d a8          	mov    QWORD PTR [rbp-0x58],r11
   1f0cd:	48 8b 85 40 ff ff ff 	mov    rax,QWORD PTR [rbp-0xc0]
   1f0d4:	48 89 45 b0          	mov    QWORD PTR [rbp-0x50],rax
   1f0d8:	4c 89 e0             	mov    rax,r12
   1f0db:	48 89 7d b8          	mov    QWORD PTR [rbp-0x48],rdi
   1f0df:	4c 89 45 c0          	mov    QWORD PTR [rbp-0x40],r8
   1f0e3:	4d 89 cb             	mov    r11,r9
   1f0e6:	8a 95 de fe ff ff    	mov    dl,BYTE PTR [rbp-0x122]
   1f0ec:	88 95 dc fe ff ff    	mov    BYTE PTR [rbp-0x124],dl
   1f0f2:	31 d2                	xor    edx,edx
   1f0f4:	48 89 95 30 fd ff ff 	mov    QWORD PTR [rbp-0x2d0],rdx
   1f0fb:	48 ba f6 22 77 8d 3d 	movabs rdx,0xcaa45f3d8d7722f6
   1f102:	5f a4 ca 
   1f105:	e9 23 ab ff ff       	jmp    19c2d <Java_com_adjust_sdk_sig_NativeLibHelper_nOnResume@@Base-0xa1076>
   1f10a:	8a 45 ce             	mov    al,BYTE PTR [rbp-0x32]
   1f10d:	88 45 cf             	mov    BYTE PTR [rbp-0x31],al
   1f110:	48 8b 85 50 ff ff ff 	mov    rax,QWORD PTR [rbp-0xb0]
   1f117:	48 89 85 70 ff ff ff 	mov    QWORD PTR [rbp-0x90],rax
   1f11e:	48 8b 85 60 ff ff ff 	mov    rax,QWORD PTR [rbp-0xa0]
   1f125:	48 89 85 78 ff ff ff 	mov    QWORD PTR [rbp-0x88],rax
   1f12c:	48 8b 85 e0 fe ff ff 	mov    rax,QWORD PTR [rbp-0x120]
   1f133:	48 89 45 80          	mov    QWORD PTR [rbp-0x80],rax
   1f137:	48 8b 85 e8 fe ff ff 	mov    rax,QWORD PTR [rbp-0x118]
   1f13e:	48 89 45 88          	mov    QWORD PTR [rbp-0x78],rax
   1f142:	48 8b 85 48 ff ff ff 	mov    rax,QWORD PTR [rbp-0xb8]
   1f149:	48 89 45 90          	mov    QWORD PTR [rbp-0x70],rax
   1f14d:	48 8b 85 58 ff ff ff 	mov    rax,QWORD PTR [rbp-0xa8]
   1f154:	48 89 45 98          	mov    QWORD PTR [rbp-0x68],rax
   1f158:	48 89 55 a0          	mov    QWORD PTR [rbp-0x60],rdx
   1f15c:	4c 89 45 a8          	mov    QWORD PTR [rbp-0x58],r8
   1f160:	48 89 4d b0          	mov    QWORD PTR [rbp-0x50],rcx
   1f164:	4c 89 e0             	mov    rax,r12
   1f167:	48 89 7d b8          	mov    QWORD PTR [rbp-0x48],rdi
   1f16b:	4c 89 4d c0          	mov    QWORD PTR [rbp-0x40],r9
   1f16f:	c6 85 da fe ff ff 01 	mov    BYTE PTR [rbp-0x126],0x1
   1f176:	48 8b 95 b0 fe ff ff 	mov    rdx,QWORD PTR [rbp-0x150]
   1f17d:	48 89 95 58 fd ff ff 	mov    QWORD PTR [rbp-0x2a8],rdx
   1f184:	48 ba 08 5a 04 c0 3d 	movabs rdx,0x5092e43dc0045a08
   1f18b:	e4 92 50 
   1f18e:	e9 9a aa ff ff       	jmp    19c2d <Java_com_adjust_sdk_sig_NativeLibHelper_nOnResume@@Base-0xa1076>
   1f193:	48 8b 85 40 fe ff ff 	mov    rax,QWORD PTR [rbp-0x1c0]
   1f19a:	48 8b 8d 48 fd ff ff 	mov    rcx,QWORD PTR [rbp-0x2b8]
   1f1a1:	48 89 48 08          	mov    QWORD PTR [rax+0x8],rcx
   1f1a5:	48 8b 8d 70 fe ff ff 	mov    rcx,QWORD PTR [rbp-0x190]
   1f1ac:	48 89 08             	mov    QWORD PTR [rax],rcx
   1f1af:	8a 45 ce             	mov    al,BYTE PTR [rbp-0x32]
   1f1b2:	88 45 cf             	mov    BYTE PTR [rbp-0x31],al
   1f1b5:	48 8b 85 50 ff ff ff 	mov    rax,QWORD PTR [rbp-0xb0]
   1f1bc:	48 89 85 70 ff ff ff 	mov    QWORD PTR [rbp-0x90],rax
   1f1c3:	48 8b 85 60 ff ff ff 	mov    rax,QWORD PTR [rbp-0xa0]
   1f1ca:	48 89 85 78 ff ff ff 	mov    QWORD PTR [rbp-0x88],rax
   1f1d1:	4c 89 c0             	mov    rax,r8
   1f1d4:	4c 89 45 80          	mov    QWORD PTR [rbp-0x80],r8
   1f1d8:	4c 89 4d 88          	mov    QWORD PTR [rbp-0x78],r9
   1f1dc:	48 8b 85 48 ff ff ff 	mov    rax,QWORD PTR [rbp-0xb8]
   1f1e3:	48 89 45 90          	mov    QWORD PTR [rbp-0x70],rax
   1f1e7:	48 8b 85 58 ff ff ff 	mov    rax,QWORD PTR [rbp-0xa8]
   1f1ee:	48 89 45 98          	mov    QWORD PTR [rbp-0x68],rax
   1f1f2:	48 89 55 a0          	mov    QWORD PTR [rbp-0x60],rdx
   1f1f6:	4c 89 5d a8          	mov    QWORD PTR [rbp-0x58],r11
   1f1fa:	48 8b 85 40 ff ff ff 	mov    rax,QWORD PTR [rbp-0xc0]
   1f201:	48 89 45 b0          	mov    QWORD PTR [rbp-0x50],rax
   1f205:	48 8b 85 08 ff ff ff 	mov    rax,QWORD PTR [rbp-0xf8]
   1f20c:	48 8b 8d 10 ff ff ff 	mov    rcx,QWORD PTR [rbp-0xf0]
   1f213:	48 89 4d b8          	mov    QWORD PTR [rbp-0x48],rcx
   1f217:	48 8b 8d 20 ff ff ff 	mov    rcx,QWORD PTR [rbp-0xe0]
   1f21e:	48 89 4d c0          	mov    QWORD PTR [rbp-0x40],rcx
   1f222:	4c 8b 9d 18 ff ff ff 	mov    r11,QWORD PTR [rbp-0xe8]
   1f229:	4c 8b 95 38 ff ff ff 	mov    r10,QWORD PTR [rbp-0xc8]
   1f230:	44 89 e6             	mov    esi,r12d
   1f233:	48 ba 5c 36 e2 b2 0f 	movabs rdx,0xcf84e40fb2e2365c
   1f23a:	e4 84 cf 
   1f23d:	e9 eb a9 ff ff       	jmp    19c2d <Java_com_adjust_sdk_sig_NativeLibHelper_nOnResume@@Base-0xa1076>
   1f242:	48 8b 85 48 fe ff ff 	mov    rax,QWORD PTR [rbp-0x1b8]
   1f249:	48 3b 85 e0 fc ff ff 	cmp    rax,QWORD PTR [rbp-0x320]
   1f250:	48 ba ec ae b0 db 62 	movabs rdx,0x9af2262dbb0aeec
   1f257:	22 af 09 
   1f25a:	48 b8 ee 54 af 91 bd 	movabs rax,0xe84101bd91af54ee
   1f261:	01 41 e8 
   1f264:	48 0f 44 d0          	cmove  rdx,rax
   1f268:	8a 45 ce             	mov    al,BYTE PTR [rbp-0x32]
   1f26b:	88 45 cf             	mov    BYTE PTR [rbp-0x31],al
   1f26e:	48 8b 85 50 ff ff ff 	mov    rax,QWORD PTR [rbp-0xb0]
   1f275:	48 89 85 70 ff ff ff 	mov    QWORD PTR [rbp-0x90],rax
   1f27c:	48 8b 85 60 ff ff ff 	mov    rax,QWORD PTR [rbp-0xa0]
   1f283:	48 89 85 78 ff ff ff 	mov    QWORD PTR [rbp-0x88],rax
   1f28a:	48 89 f8             	mov    rax,rdi
   1f28d:	48 89 7d 80          	mov    QWORD PTR [rbp-0x80],rdi
   1f291:	e9 9e 0f 00 00       	jmp    20234 <Java_com_adjust_sdk_sig_NativeLibHelper_nOnResume@@Base-0x9aa6f>
   1f296:	48 8b 85 d8 fc ff ff 	mov    rax,QWORD PTR [rbp-0x328]
   1f29d:	48 89 c1             	mov    rcx,rax
   1f2a0:	48 f7 d1             	not    rcx
   1f2a3:	48 03 8d c0 fe ff ff 	add    rcx,QWORD PTR [rbp-0x140]
   1f2aa:	48 39 c8             	cmp    rax,rcx
   1f2ad:	48 0f 47 c8          	cmova  rcx,rax
   1f2b1:	48 ff c1             	inc    rcx
   1f2b4:	48 89 8d 10 fd ff ff 	mov    QWORD PTR [rbp-0x2f0],rcx
   1f2bb:	8a 45 ce             	mov    al,BYTE PTR [rbp-0x32]
   1f2be:	88 45 cf             	mov    BYTE PTR [rbp-0x31],al
   1f2c1:	48 8b 85 50 ff ff ff 	mov    rax,QWORD PTR [rbp-0xb0]
   1f2c8:	48 89 85 70 ff ff ff 	mov    QWORD PTR [rbp-0x90],rax
   1f2cf:	48 8b 85 60 ff ff ff 	mov    rax,QWORD PTR [rbp-0xa0]
   1f2d6:	48 89 85 78 ff ff ff 	mov    QWORD PTR [rbp-0x88],rax
   1f2dd:	48 8b 85 e0 fe ff ff 	mov    rax,QWORD PTR [rbp-0x120]
   1f2e4:	48 89 45 80          	mov    QWORD PTR [rbp-0x80],rax
   1f2e8:	48 8b 85 e8 fe ff ff 	mov    rax,QWORD PTR [rbp-0x118]
   1f2ef:	48 89 45 88          	mov    QWORD PTR [rbp-0x78],rax
   1f2f3:	48 8b 85 48 ff ff ff 	mov    rax,QWORD PTR [rbp-0xb8]
   1f2fa:	48 89 45 90          	mov    QWORD PTR [rbp-0x70],rax
   1f2fe:	48 8b 85 58 ff ff ff 	mov    rax,QWORD PTR [rbp-0xa8]
   1f305:	48 89 45 98          	mov    QWORD PTR [rbp-0x68],rax
   1f309:	48 89 55 a0          	mov    QWORD PTR [rbp-0x60],rdx
   1f30d:	4c 89 5d a8          	mov    QWORD PTR [rbp-0x58],r11
   1f311:	48 8b 85 40 ff ff ff 	mov    rax,QWORD PTR [rbp-0xc0]
   1f318:	48 89 45 b0          	mov    QWORD PTR [rbp-0x50],rax
   1f31c:	4c 89 e0             	mov    rax,r12
   1f31f:	48 89 7d b8          	mov    QWORD PTR [rbp-0x48],rdi
   1f323:	4c 89 45 c0          	mov    QWORD PTR [rbp-0x40],r8
   1f327:	4d 89 cb             	mov    r11,r9
   1f32a:	ba 00 00 00 00       	mov    edx,0x0
   1f32f:	48 89 95 18 fd ff ff 	mov    QWORD PTR [rbp-0x2e8],rdx
   1f336:	48 ba 20 00 88 a4 ce 	movabs rdx,0x183b0ecea4880020
   1f33d:	0e 3b 18 
   1f340:	e9 e8 a8 ff ff       	jmp    19c2d <Java_com_adjust_sdk_sig_NativeLibHelper_nOnResume@@Base-0xa1076>
   1f345:	f6 85 d2 fe ff ff 01 	test   BYTE PTR [rbp-0x12e],0x1
   1f34c:	48 ba 10 21 37 41 e5 	movabs rdx,0x5a4353e541372110
   1f353:	53 43 5a 
   1f356:	48 b8 d3 ac dc d1 78 	movabs rax,0xe513c078d1dcacd3
   1f35d:	c0 13 e5 
   1f360:	e9 a2 0e 00 00       	jmp    20207 <Java_com_adjust_sdk_sig_NativeLibHelper_nOnResume@@Base-0x9aa9c>
   1f365:	48 ba 02 84 46 ec 12 	movabs rdx,0x79d30012ec468402
   1f36c:	00 d3 79 
   1f36f:	8a 85 d8 fe ff ff    	mov    al,BYTE PTR [rbp-0x128]
   1f375:	38 85 d5 fe ff ff    	cmp    BYTE PTR [rbp-0x12b],al
   1f37b:	40 8a 75 cd          	mov    sil,BYTE PTR [rbp-0x33]
   1f37f:	48 8b 9d 00 ff ff ff 	mov    rbx,QWORD PTR [rbp-0x100]
   1f386:	4c 8b ad f0 fe ff ff 	mov    r13,QWORD PTR [rbp-0x110]
   1f38d:	4c 8b bd f8 fe ff ff 	mov    r15,QWORD PTR [rbp-0x108]
   1f394:	0f 82 0e 0a 00 00    	jb     1fda8 <Java_com_adjust_sdk_sig_NativeLibHelper_nOnResume@@Base-0x9aefb>
   1f39a:	48 ba d1 bf 7f 53 77 	movabs rdx,0x69c25f77537fbfd1
   1f3a1:	5f c2 69 
   1f3a4:	e9 ff 09 00 00       	jmp    1fda8 <Java_com_adjust_sdk_sig_NativeLibHelper_nOnResume@@Base-0x9aefb>
   1f3a9:	8a 45 ce             	mov    al,BYTE PTR [rbp-0x32]
   1f3ac:	88 45 cf             	mov    BYTE PTR [rbp-0x31],al
   1f3af:	48 8b 85 50 ff ff ff 	mov    rax,QWORD PTR [rbp-0xb0]
   1f3b6:	48 89 85 70 ff ff ff 	mov    QWORD PTR [rbp-0x90],rax
   1f3bd:	48 8b 85 60 ff ff ff 	mov    rax,QWORD PTR [rbp-0xa0]
   1f3c4:	48 89 85 78 ff ff ff 	mov    QWORD PTR [rbp-0x88],rax
   1f3cb:	4c 89 c0             	mov    rax,r8
   1f3ce:	4c 89 45 80          	mov    QWORD PTR [rbp-0x80],r8
   1f3d2:	4c 89 4d 88          	mov    QWORD PTR [rbp-0x78],r9
   1f3d6:	48 8b 85 48 ff ff ff 	mov    rax,QWORD PTR [rbp-0xb8]
   1f3dd:	48 89 45 90          	mov    QWORD PTR [rbp-0x70],rax
   1f3e1:	48 8b 85 58 ff ff ff 	mov    rax,QWORD PTR [rbp-0xa8]
   1f3e8:	48 89 45 98          	mov    QWORD PTR [rbp-0x68],rax
   1f3ec:	48 89 4d a0          	mov    QWORD PTR [rbp-0x60],rcx
   1f3f0:	4c 89 5d a8          	mov    QWORD PTR [rbp-0x58],r11
   1f3f4:	48 8b 85 40 ff ff ff 	mov    rax,QWORD PTR [rbp-0xc0]
   1f3fb:	48 89 45 b0          	mov    QWORD PTR [rbp-0x50],rax
   1f3ff:	48 8b 85 08 ff ff ff 	mov    rax,QWORD PTR [rbp-0xf8]
   1f406:	48 8b 8d 10 ff ff ff 	mov    rcx,QWORD PTR [rbp-0xf0]
   1f40d:	48 89 4d b8          	mov    QWORD PTR [rbp-0x48],rcx
   1f411:	48 8b 8d 20 ff ff ff 	mov    rcx,QWORD PTR [rbp-0xe0]
   1f418:	48 89 4d c0          	mov    QWORD PTR [rbp-0x40],rcx
   1f41c:	4c 8b 9d 18 ff ff ff 	mov    r11,QWORD PTR [rbp-0xe8]
   1f423:	4c 8b 95 38 ff ff ff 	mov    r10,QWORD PTR [rbp-0xc8]
   1f42a:	44 89 e6             	mov    esi,r12d
   1f42d:	48 8b 95 e8 fc ff ff 	mov    rdx,QWORD PTR [rbp-0x318]
   1f434:	4c 8d 72 01          	lea    r14,[rdx+0x1]
   1f438:	4c 89 b5 68 fd ff ff 	mov    QWORD PTR [rbp-0x298],r14
   1f43f:	48 89 95 70 fd ff ff 	mov    QWORD PTR [rbp-0x290],rdx
   1f446:	48 ba d4 2e b2 59 e8 	movabs rdx,0xe5c15fe859b22ed4
   1f44d:	5f c1 e5 
   1f450:	e9 d8 a7 ff ff       	jmp    19c2d <Java_com_adjust_sdk_sig_NativeLibHelper_nOnResume@@Base-0xa1076>
   1f455:	8a 45 ce             	mov    al,BYTE PTR [rbp-0x32]
   1f458:	88 45 cf             	mov    BYTE PTR [rbp-0x31],al
   1f45b:	48 8b 85 50 ff ff ff 	mov    rax,QWORD PTR [rbp-0xb0]
   1f462:	48 89 85 70 ff ff ff 	mov    QWORD PTR [rbp-0x90],rax
   1f469:	48 8b 85 60 ff ff ff 	mov    rax,QWORD PTR [rbp-0xa0]
   1f470:	48 89 85 78 ff ff ff 	mov    QWORD PTR [rbp-0x88],rax
   1f477:	4c 89 c0             	mov    rax,r8
   1f47a:	4c 89 45 80          	mov    QWORD PTR [rbp-0x80],r8
   1f47e:	4c 89 4d 88          	mov    QWORD PTR [rbp-0x78],r9
   1f482:	48 8b 85 48 ff ff ff 	mov    rax,QWORD PTR [rbp-0xb8]
   1f489:	48 89 45 90          	mov    QWORD PTR [rbp-0x70],rax
   1f48d:	48 8b 85 58 ff ff ff 	mov    rax,QWORD PTR [rbp-0xa8]
   1f494:	48 89 45 98          	mov    QWORD PTR [rbp-0x68],rax
   1f498:	48 8b 85 30 ff ff ff 	mov    rax,QWORD PTR [rbp-0xd0]
   1f49f:	48 89 45 a0          	mov    QWORD PTR [rbp-0x60],rax
   1f4a3:	48 8b 85 28 ff ff ff 	mov    rax,QWORD PTR [rbp-0xd8]
   1f4aa:	48 89 45 a8          	mov    QWORD PTR [rbp-0x58],rax
   1f4ae:	48 8b 85 40 ff ff ff 	mov    rax,QWORD PTR [rbp-0xc0]
   1f4b5:	48 89 45 b0          	mov    QWORD PTR [rbp-0x50],rax
   1f4b9:	48 8b 85 08 ff ff ff 	mov    rax,QWORD PTR [rbp-0xf8]
   1f4c0:	48 8b 8d 10 ff ff ff 	mov    rcx,QWORD PTR [rbp-0xf0]
   1f4c7:	48 89 4d b8          	mov    QWORD PTR [rbp-0x48],rcx
   1f4cb:	4c 8b 85 20 ff ff ff 	mov    r8,QWORD PTR [rbp-0xe0]
   1f4d2:	4c 89 85 f0 fc ff ff 	mov    QWORD PTR [rbp-0x310],r8
   1f4d9:	4c 89 45 c0          	mov    QWORD PTR [rbp-0x40],r8
   1f4dd:	4c 8b 9d 18 ff ff ff 	mov    r11,QWORD PTR [rbp-0xe8]
   1f4e4:	4c 89 da             	mov    rdx,r11
   1f4e7:	4c 89 9d f8 fc ff ff 	mov    QWORD PTR [rbp-0x308],r11
   1f4ee:	4c 8b bd f8 fe ff ff 	mov    r15,QWORD PTR [rbp-0x108]
   1f4f5:	4c 8b ad f0 fe ff ff 	mov    r13,QWORD PTR [rbp-0x110]
   1f4fc:	48 8b 9d 00 ff ff ff 	mov    rbx,QWORD PTR [rbp-0x100]
   1f503:	4c 8b 95 38 ff ff ff 	mov    r10,QWORD PTR [rbp-0xc8]
   1f50a:	8a 55 cd             	mov    dl,BYTE PTR [rbp-0x33]
   1f50d:	89 d6                	mov    esi,edx
   1f50f:	6a 01                	push   0x1
   1f511:	5a                   	pop    rdx
   1f512:	e9 12 2e 00 00       	jmp    22329 <Java_com_adjust_sdk_sig_NativeLibHelper_nOnResume@@Base-0x9897a>
   1f517:	4c 8b a5 48 ff ff ff 	mov    r12,QWORD PTR [rbp-0xb8]
   1f51e:	48 ba d5 b4 95 59 ca 	movabs rdx,0xac2aa0ca5995b4d5
   1f525:	a0 2a ac 
   1f528:	44 8a b5 dc fe ff ff 	mov    r14b,BYTE PTR [rbp-0x124]
   1f52f:	45 84 f6             	test   r14b,r14b
   1f532:	40 8a 75 cd          	mov    sil,BYTE PTR [rbp-0x33]
   1f536:	4c 8b 95 38 ff ff ff 	mov    r10,QWORD PTR [rbp-0xc8]
   1f53d:	48 8b 9d 00 ff ff ff 	mov    rbx,QWORD PTR [rbp-0x100]
   1f544:	4c 8b ad f0 fe ff ff 	mov    r13,QWORD PTR [rbp-0x110]
   1f54b:	4c 8b bd f8 fe ff ff 	mov    r15,QWORD PTR [rbp-0x108]
   1f552:	4c 8b 8d 18 ff ff ff 	mov    r9,QWORD PTR [rbp-0xe8]
   1f559:	4c 8b 85 20 ff ff ff 	mov    r8,QWORD PTR [rbp-0xe0]
   1f560:	48 8b bd 10 ff ff ff 	mov    rdi,QWORD PTR [rbp-0xf0]
   1f567:	48 8b 8d 08 ff ff ff 	mov    rcx,QWORD PTR [rbp-0xf8]
   1f56e:	48 8b 85 40 ff ff ff 	mov    rax,QWORD PTR [rbp-0xc0]
   1f575:	74 0a                	je     1f581 <Java_com_adjust_sdk_sig_NativeLibHelper_nOnResume@@Base-0x9b722>
   1f577:	48 ba c0 72 a3 8b 1a 	movabs rdx,0xc0222c1a8ba372c0
   1f57e:	2c 22 c0 
   1f581:	44 8a 5d ce          	mov    r11b,BYTE PTR [rbp-0x32]
   1f585:	44 88 5d cf          	mov    BYTE PTR [rbp-0x31],r11b
   1f589:	4c 8b 9d 50 ff ff ff 	mov    r11,QWORD PTR [rbp-0xb0]
   1f590:	4c 89 9d 70 ff ff ff 	mov    QWORD PTR [rbp-0x90],r11
   1f597:	4c 8b 9d 60 ff ff ff 	mov    r11,QWORD PTR [rbp-0xa0]
   1f59e:	4c 89 9d 78 ff ff ff 	mov    QWORD PTR [rbp-0x88],r11
   1f5a5:	4c 8b 9d e0 fe ff ff 	mov    r11,QWORD PTR [rbp-0x120]
   1f5ac:	4c 89 5d 80          	mov    QWORD PTR [rbp-0x80],r11
   1f5b0:	4c 8b 9d e8 fe ff ff 	mov    r11,QWORD PTR [rbp-0x118]
   1f5b7:	4c 89 5d 88          	mov    QWORD PTR [rbp-0x78],r11
   1f5bb:	4c 89 65 90          	mov    QWORD PTR [rbp-0x70],r12
   1f5bf:	4c 8b 9d 58 ff ff ff 	mov    r11,QWORD PTR [rbp-0xa8]
   1f5c6:	4c 89 5d 98          	mov    QWORD PTR [rbp-0x68],r11
   1f5ca:	4c 8b 9d 30 ff ff ff 	mov    r11,QWORD PTR [rbp-0xd0]
   1f5d1:	4c 89 5d a0          	mov    QWORD PTR [rbp-0x60],r11
   1f5d5:	4c 8b 9d 28 ff ff ff 	mov    r11,QWORD PTR [rbp-0xd8]
   1f5dc:	4c 89 5d a8          	mov    QWORD PTR [rbp-0x58],r11
   1f5e0:	48 89 45 b0          	mov    QWORD PTR [rbp-0x50],rax
   1f5e4:	48 89 c8             	mov    rax,rcx
   1f5e7:	48 89 7d b8          	mov    QWORD PTR [rbp-0x48],rdi
   1f5eb:	4c 89 45 c0          	mov    QWORD PTR [rbp-0x40],r8
   1f5ef:	4d 89 cb             	mov    r11,r9
   1f5f2:	44 88 b5 d3 fe ff ff 	mov    BYTE PTR [rbp-0x12d],r14b
   1f5f9:	4c 8b b5 30 fd ff ff 	mov    r14,QWORD PTR [rbp-0x2d0]
   1f600:	4c 89 b5 c0 fe ff ff 	mov    QWORD PTR [rbp-0x140],r14
   1f607:	e9 21 a6 ff ff       	jmp    19c2d <Java_com_adjust_sdk_sig_NativeLibHelper_nOnResume@@Base-0xa1076>
   1f60c:	48 8b 85 e8 fc ff ff 	mov    rax,QWORD PTR [rbp-0x318]
   1f613:	4d 89 c2             	mov    r10,r8
   1f616:	4c 8b 85 78 fd ff ff 	mov    r8,QWORD PTR [rbp-0x288]
   1f61d:	49 8d 0c 00          	lea    rcx,[r8+rax*1]
   1f621:	48 89 c8             	mov    rax,rcx
   1f624:	48 89 8d 00 fe ff ff 	mov    QWORD PTR [rbp-0x200],rcx
   1f62b:	48 3b 8d c0 fe ff ff 	cmp    rcx,QWORD PTR [rbp-0x140]
   1f632:	48 89 d1             	mov    rcx,rdx
   1f635:	48 ba 42 ba 0a 7b 0c 	movabs rdx,0xd574430c7b0aba42
   1f63c:	43 74 d5 
   1f63f:	48 b8 2a 48 2d 2e be 	movabs rax,0x34f000be2e2d482a
   1f646:	00 f0 34 
   1f649:	48 0f 42 d0          	cmovb  rdx,rax
   1f64d:	8a 45 ce             	mov    al,BYTE PTR [rbp-0x32]
   1f650:	88 45 cf             	mov    BYTE PTR [rbp-0x31],al
   1f653:	48 8b 85 50 ff ff ff 	mov    rax,QWORD PTR [rbp-0xb0]
   1f65a:	48 89 85 70 ff ff ff 	mov    QWORD PTR [rbp-0x90],rax
   1f661:	48 8b 85 60 ff ff ff 	mov    rax,QWORD PTR [rbp-0xa0]
   1f668:	48 89 85 78 ff ff ff 	mov    QWORD PTR [rbp-0x88],rax
   1f66f:	4c 89 55 80          	mov    QWORD PTR [rbp-0x80],r10
   1f673:	4c 89 4d 88          	mov    QWORD PTR [rbp-0x78],r9
   1f677:	48 8b 85 48 ff ff ff 	mov    rax,QWORD PTR [rbp-0xb8]
   1f67e:	48 89 45 90          	mov    QWORD PTR [rbp-0x70],rax
   1f682:	48 8b 85 58 ff ff ff 	mov    rax,QWORD PTR [rbp-0xa8]
   1f689:	48 89 45 98          	mov    QWORD PTR [rbp-0x68],rax
   1f68d:	48 89 4d a0          	mov    QWORD PTR [rbp-0x60],rcx
   1f691:	4c 89 5d a8          	mov    QWORD PTR [rbp-0x58],r11
   1f695:	48 8b 85 40 ff ff ff 	mov    rax,QWORD PTR [rbp-0xc0]
   1f69c:	48 89 45 b0          	mov    QWORD PTR [rbp-0x50],rax
   1f6a0:	4c 89 e0             	mov    rax,r12
   1f6a3:	48 89 7d b8          	mov    QWORD PTR [rbp-0x48],rdi
   1f6a7:	48 89 75 c0          	mov    QWORD PTR [rbp-0x40],rsi
   1f6ab:	49 89 db             	mov    r11,rbx
   1f6ae:	48 8b 9d 00 ff ff ff 	mov    rbx,QWORD PTR [rbp-0x100]
   1f6b5:	4c 8b 95 38 ff ff ff 	mov    r10,QWORD PTR [rbp-0xc8]
   1f6bc:	44 89 f6             	mov    esi,r14d
   1f6bf:	4c 89 85 48 fe ff ff 	mov    QWORD PTR [rbp-0x1b8],r8
   1f6c6:	e9 62 a5 ff ff       	jmp    19c2d <Java_com_adjust_sdk_sig_NativeLibHelper_nOnResume@@Base-0xa1076>
   1f6cb:	f6 85 d4 fe ff ff 01 	test   BYTE PTR [rbp-0x12c],0x1
   1f6d2:	48 ba 60 17 8d 52 70 	movabs rdx,0x6b193770528d1760
   1f6d9:	37 19 6b 
   1f6dc:	48 b8 4b 83 08 9e 65 	movabs rax,0xfdcf09659e08834b
   1f6e3:	09 cf fd 
   1f6e6:	48 0f 45 d0          	cmovne rdx,rax
   1f6ea:	8a 45 ce             	mov    al,BYTE PTR [rbp-0x32]
   1f6ed:	88 45 cf             	mov    BYTE PTR [rbp-0x31],al
   1f6f0:	48 8b 85 50 ff ff ff 	mov    rax,QWORD PTR [rbp-0xb0]
   1f6f7:	48 89 85 70 ff ff ff 	mov    QWORD PTR [rbp-0x90],rax
   1f6fe:	48 8b 85 60 ff ff ff 	mov    rax,QWORD PTR [rbp-0xa0]
   1f705:	48 89 85 78 ff ff ff 	mov    QWORD PTR [rbp-0x88],rax
   1f70c:	48 8b 85 e0 fe ff ff 	mov    rax,QWORD PTR [rbp-0x120]
   1f713:	48 89 45 80          	mov    QWORD PTR [rbp-0x80],rax
   1f717:	48 8b 85 e8 fe ff ff 	mov    rax,QWORD PTR [rbp-0x118]
   1f71e:	48 89 45 88          	mov    QWORD PTR [rbp-0x78],rax
   1f722:	48 8b 85 48 ff ff ff 	mov    rax,QWORD PTR [rbp-0xb8]
   1f729:	48 89 45 90          	mov    QWORD PTR [rbp-0x70],rax
   1f72d:	48 8b 85 58 ff ff ff 	mov    rax,QWORD PTR [rbp-0xa8]
   1f734:	48 89 45 98          	mov    QWORD PTR [rbp-0x68],rax
   1f738:	48 8b 85 30 ff ff ff 	mov    rax,QWORD PTR [rbp-0xd0]
   1f73f:	48 89 45 a0          	mov    QWORD PTR [rbp-0x60],rax
   1f743:	48 8b 85 28 ff ff ff 	mov    rax,QWORD PTR [rbp-0xd8]
   1f74a:	48 89 45 a8          	mov    QWORD PTR [rbp-0x58],rax
   1f74e:	48 8b 85 40 ff ff ff 	mov    rax,QWORD PTR [rbp-0xc0]
   1f755:	48 89 45 b0          	mov    QWORD PTR [rbp-0x50],rax
   1f759:	48 8b 85 08 ff ff ff 	mov    rax,QWORD PTR [rbp-0xf8]
   1f760:	e9 c1 30 00 00       	jmp    22826 <Java_com_adjust_sdk_sig_NativeLibHelper_nOnResume@@Base-0x9847d>
   1f765:	0f b6 8d d3 fe ff ff 	movzx  ecx,BYTE PTR [rbp-0x12d]
   1f76c:	6a 01                	push   0x1
   1f76e:	58                   	pop    rax
   1f76f:	48 d3 e0             	shl    rax,cl
   1f772:	48 89 ca             	mov    rdx,rcx
   1f775:	48 c1 ea 06          	shr    rdx,0x6
   1f779:	48 8b b5 10 fe ff ff 	mov    rsi,QWORD PTR [rbp-0x1f0]
   1f780:	48 09 04 d6          	or     QWORD PTR [rsi+rdx*8],rax
   1f784:	48 8b b5 c0 fe ff ff 	mov    rsi,QWORD PTR [rbp-0x140]
   1f78b:	48 8d 7e 01          	lea    rdi,[rsi+0x1]
   1f78f:	48 8b 85 c8 fc ff ff 	mov    rax,QWORD PTR [rbp-0x338]
   1f796:	48 89 fa             	mov    rdx,rdi
   1f799:	48 89 bd 30 fd ff ff 	mov    QWORD PTR [rbp-0x2d0],rdi
   1f7a0:	48 89 3c c8          	mov    QWORD PTR [rax+rcx*8],rdi
   1f7a4:	8a 45 ce             	mov    al,BYTE PTR [rbp-0x32]
   1f7a7:	88 45 cf             	mov    BYTE PTR [rbp-0x31],al
   1f7aa:	48 8b 85 50 ff ff ff 	mov    rax,QWORD PTR [rbp-0xb0]
   1f7b1:	48 89 85 70 ff ff ff 	mov    QWORD PTR [rbp-0x90],rax
   1f7b8:	48 8b 85 60 ff ff ff 	mov    rax,QWORD PTR [rbp-0xa0]
   1f7bf:	48 89 85 78 ff ff ff 	mov    QWORD PTR [rbp-0x88],rax
   1f7c6:	4c 89 c0             	mov    rax,r8
   1f7c9:	4c 89 45 80          	mov    QWORD PTR [rbp-0x80],r8
   1f7cd:	4c 89 4d 88          	mov    QWORD PTR [rbp-0x78],r9
   1f7d1:	48 8b 85 48 ff ff ff 	mov    rax,QWORD PTR [rbp-0xb8]
   1f7d8:	48 89 45 90          	mov    QWORD PTR [rbp-0x70],rax
   1f7dc:	48 8b 85 58 ff ff ff 	mov    rax,QWORD PTR [rbp-0xa8]
   1f7e3:	48 89 45 98          	mov    QWORD PTR [rbp-0x68],rax
   1f7e7:	48 8b 85 30 ff ff ff 	mov    rax,QWORD PTR [rbp-0xd0]
   1f7ee:	48 89 45 a0          	mov    QWORD PTR [rbp-0x60],rax
   1f7f2:	48 8b 85 28 ff ff ff 	mov    rax,QWORD PTR [rbp-0xd8]
   1f7f9:	48 89 45 a8          	mov    QWORD PTR [rbp-0x58],rax
   1f7fd:	48 8b 85 40 ff ff ff 	mov    rax,QWORD PTR [rbp-0xc0]
   1f804:	48 89 45 b0          	mov    QWORD PTR [rbp-0x50],rax
   1f808:	48 8b 85 08 ff ff ff 	mov    rax,QWORD PTR [rbp-0xf8]
   1f80f:	48 8b 8d 10 ff ff ff 	mov    rcx,QWORD PTR [rbp-0xf0]
   1f816:	48 89 4d b8          	mov    QWORD PTR [rbp-0x48],rcx
   1f81a:	48 8b 8d 20 ff ff ff 	mov    rcx,QWORD PTR [rbp-0xe0]
   1f821:	48 89 4d c0          	mov    QWORD PTR [rbp-0x40],rcx
   1f825:	4c 8b 9d 18 ff ff ff 	mov    r11,QWORD PTR [rbp-0xe8]
   1f82c:	4c 8b 95 38 ff ff ff 	mov    r10,QWORD PTR [rbp-0xc8]
   1f833:	48 8b 95 b8 fe ff ff 	mov    rdx,QWORD PTR [rbp-0x148]
   1f83a:	8a 54 32 01          	mov    dl,BYTE PTR [rdx+rsi*1+0x1]
   1f83e:	88 95 dc fe ff ff    	mov    BYTE PTR [rbp-0x124],dl
   1f844:	44 89 e6             	mov    esi,r12d
   1f847:	48 ba f6 22 77 8d 3d 	movabs rdx,0xcaa45f3d8d7722f6
   1f84e:	5f a4 ca 
   1f851:	e9 d7 a3 ff ff       	jmp    19c2d <Java_com_adjust_sdk_sig_NativeLibHelper_nOnResume@@Base-0xa1076>
   1f856:	48 8b bd d0 fc ff ff 	mov    rdi,QWORD PTR [rbp-0x330]
   1f85d:	be 80 10 00 00       	mov    esi,0x1080
   1f862:	48 8b 95 c0 fc ff ff 	mov    rdx,QWORD PTR [rbp-0x340]
   1f869:	e8 32 30 11 00       	call   1328a0 <fgets@plt>
   1f86e:	48 ba bf ef f1 d0 8e 	movabs rdx,0xc501f8ed0f1efbf
   1f875:	1f 50 0c 
   1f878:	48 85 c0             	test   rax,rax
   1f87b:	0f 84 2e 09 00 00    	je     201af <Java_com_adjust_sdk_sig_NativeLibHelper_nOnResume@@Base-0x9aaf4>
   1f881:	48 ba e5 ce 16 49 0d 	movabs rdx,0x466ba40d4916cee5
   1f888:	a4 6b 46 
   1f88b:	e9 1f 09 00 00       	jmp    201af <Java_com_adjust_sdk_sig_NativeLibHelper_nOnResume@@Base-0x9aaf4>
   1f890:	48 8b 85 20 fe ff ff 	mov    rax,QWORD PTR [rbp-0x1e0]
   1f897:	48 8b 8d 48 fe ff ff 	mov    rcx,QWORD PTR [rbp-0x1b8]
   1f89e:	48 01 c8             	add    rax,rcx
   1f8a1:	48 8b 8d b8 fe ff ff 	mov    rcx,QWORD PTR [rbp-0x148]
   1f8a8:	40 8a 34 01          	mov    sil,BYTE PTR [rcx+rax*1]
   1f8ac:	48 8b 85 00 fe ff ff 	mov    rax,QWORD PTR [rbp-0x200]
   1f8b3:	8a 04 01             	mov    al,BYTE PTR [rcx+rax*1]
   1f8b6:	48 ba 1c 04 e4 d0 02 	movabs rdx,0xeaca2402d0e4041c
   1f8bd:	24 ca ea 
   1f8c0:	40 88 b5 d5 fe ff ff 	mov    BYTE PTR [rbp-0x12b],sil
   1f8c7:	88 85 d8 fe ff ff    	mov    BYTE PTR [rbp-0x128],al
   1f8cd:	40 38 c6             	cmp    sil,al
   1f8d0:	0f 84 eb 21 00 00    	je     21ac1 <Java_com_adjust_sdk_sig_NativeLibHelper_nOnResume@@Base-0x991e2>
   1f8d6:	48 ba f5 d4 74 d2 9e 	movabs rdx,0x6ba73a9ed274d4f5
   1f8dd:	3a a7 6b 
   1f8e0:	e9 dc 21 00 00       	jmp    21ac1 <Java_com_adjust_sdk_sig_NativeLibHelper_nOnResume@@Base-0x991e2>
   1f8e5:	8a 45 ce             	mov    al,BYTE PTR [rbp-0x32]
   1f8e8:	88 45 cf             	mov    BYTE PTR [rbp-0x31],al
   1f8eb:	48 8b 85 50 ff ff ff 	mov    rax,QWORD PTR [rbp-0xb0]
   1f8f2:	48 89 85 70 ff ff ff 	mov    QWORD PTR [rbp-0x90],rax
   1f8f9:	48 8b 85 60 ff ff ff 	mov    rax,QWORD PTR [rbp-0xa0]
   1f900:	48 89 85 78 ff ff ff 	mov    QWORD PTR [rbp-0x88],rax
   1f907:	4c 89 75 80          	mov    QWORD PTR [rbp-0x80],r14
   1f90b:	4c 89 4d 88          	mov    QWORD PTR [rbp-0x78],r9
   1f90f:	48 8b 85 48 ff ff ff 	mov    rax,QWORD PTR [rbp-0xb8]
   1f916:	48 89 45 90          	mov    QWORD PTR [rbp-0x70],rax
   1f91a:	48 8b 85 58 ff ff ff 	mov    rax,QWORD PTR [rbp-0xa8]
   1f921:	48 89 45 98          	mov    QWORD PTR [rbp-0x68],rax
   1f925:	48 8b 85 30 ff ff ff 	mov    rax,QWORD PTR [rbp-0xd0]
   1f92c:	48 89 45 a0          	mov    QWORD PTR [rbp-0x60],rax
   1f930:	48 8b 85 28 ff ff ff 	mov    rax,QWORD PTR [rbp-0xd8]
   1f937:	48 89 45 a8          	mov    QWORD PTR [rbp-0x58],rax
   1f93b:	48 8b 85 10 ff ff ff 	mov    rax,QWORD PTR [rbp-0xf0]
   1f942:	48 89 45 b8          	mov    QWORD PTR [rbp-0x48],rax
   1f946:	48 8b 85 20 ff ff ff 	mov    rax,QWORD PTR [rbp-0xe0]
   1f94d:	48 89 45 c0          	mov    QWORD PTR [rbp-0x40],rax
   1f951:	4c 8b 9d 18 ff ff ff 	mov    r11,QWORD PTR [rbp-0xe8]
   1f958:	4c 8b bd f8 fe ff ff 	mov    r15,QWORD PTR [rbp-0x108]
   1f95f:	4c 8b ad f0 fe ff ff 	mov    r13,QWORD PTR [rbp-0x110]
   1f966:	48 8b 9d 00 ff ff ff 	mov    rbx,QWORD PTR [rbp-0x100]
   1f96d:	4c 8b 95 38 ff ff ff 	mov    r10,QWORD PTR [rbp-0xc8]
   1f974:	8a 45 cd             	mov    al,BYTE PTR [rbp-0x33]
   1f977:	89 c6                	mov    esi,eax
   1f979:	48 8b 85 70 fd ff ff 	mov    rax,QWORD PTR [rbp-0x290]
   1f980:	48 89 85 20 fe ff ff 	mov    QWORD PTR [rbp-0x1e0],rax
   1f987:	6a 01                	push   0x1
   1f989:	58                   	pop    rax
   1f98a:	48 89 45 b0          	mov    QWORD PTR [rbp-0x50],rax
   1f98e:	48 8b 85 68 fd ff ff 	mov    rax,QWORD PTR [rbp-0x298]
   1f995:	48 ba a0 68 b2 a8 5c 	movabs rdx,0x36fd975ca8b268a0
   1f99c:	97 fd 36 
   1f99f:	e9 89 a2 ff ff       	jmp    19c2d <Java_com_adjust_sdk_sig_NativeLibHelper_nOnResume@@Base-0xa1076>
   1f9a4:	48 8b 8d a8 fc ff ff 	mov    rcx,QWORD PTR [rbp-0x358]
   1f9ab:	48 8b 85 30 fe ff ff 	mov    rax,QWORD PTR [rbp-0x1d0]
   1f9b2:	48 39 c1             	cmp    rcx,rax
   1f9b5:	48 0f 47 c1          	cmova  rax,rcx
   1f9b9:	48 89 85 08 fd ff ff 	mov    QWORD PTR [rbp-0x2f8],rax
   1f9c0:	8a 45 ce             	mov    al,BYTE PTR [rbp-0x32]
   1f9c3:	88 45 cf             	mov    BYTE PTR [rbp-0x31],al
   1f9c6:	48 8b 85 50 ff ff ff 	mov    rax,QWORD PTR [rbp-0xb0]
   1f9cd:	48 89 85 70 ff ff ff 	mov    QWORD PTR [rbp-0x90],rax
   1f9d4:	48 8b 85 60 ff ff ff 	mov    rax,QWORD PTR [rbp-0xa0]
   1f9db:	48 89 85 78 ff ff ff 	mov    QWORD PTR [rbp-0x88],rax
   1f9e2:	4c 89 c0             	mov    rax,r8
   1f9e5:	4c 89 45 80          	mov    QWORD PTR [rbp-0x80],r8
   1f9e9:	4c 89 4d 88          	mov    QWORD PTR [rbp-0x78],r9
   1f9ed:	48 8b 85 48 ff ff ff 	mov    rax,QWORD PTR [rbp-0xb8]
   1f9f4:	48 89 45 90          	mov    QWORD PTR [rbp-0x70],rax
   1f9f8:	48 8b 85 58 ff ff ff 	mov    rax,QWORD PTR [rbp-0xa8]
   1f9ff:	48 89 45 98          	mov    QWORD PTR [rbp-0x68],rax
   1fa03:	48 8b 85 30 ff ff ff 	mov    rax,QWORD PTR [rbp-0xd0]
   1fa0a:	48 89 45 a0          	mov    QWORD PTR [rbp-0x60],rax
   1fa0e:	48 8b 85 28 ff ff ff 	mov    rax,QWORD PTR [rbp-0xd8]
   1fa15:	48 89 45 a8          	mov    QWORD PTR [rbp-0x58],rax
   1fa19:	48 8b 85 40 ff ff ff 	mov    rax,QWORD PTR [rbp-0xc0]
   1fa20:	48 89 45 b0          	mov    QWORD PTR [rbp-0x50],rax
   1fa24:	48 8b 85 08 ff ff ff 	mov    rax,QWORD PTR [rbp-0xf8]
   1fa2b:	48 8b 8d 10 ff ff ff 	mov    rcx,QWORD PTR [rbp-0xf0]
   1fa32:	48 89 4d b8          	mov    QWORD PTR [rbp-0x48],rcx
   1fa36:	48 8b 8d 20 ff ff ff 	mov    rcx,QWORD PTR [rbp-0xe0]
   1fa3d:	48 89 4d c0          	mov    QWORD PTR [rbp-0x40],rcx
   1fa41:	4c 8b 9d 18 ff ff ff 	mov    r11,QWORD PTR [rbp-0xe8]
   1fa48:	4c 8b bd f8 fe ff ff 	mov    r15,QWORD PTR [rbp-0x108]
   1fa4f:	4c 8b ad f0 fe ff ff 	mov    r13,QWORD PTR [rbp-0x110]
   1fa56:	48 8b 9d 00 ff ff ff 	mov    rbx,QWORD PTR [rbp-0x100]
   1fa5d:	4c 8b 95 38 ff ff ff 	mov    r10,QWORD PTR [rbp-0xc8]
   1fa64:	8a 55 cd             	mov    dl,BYTE PTR [rbp-0x33]
   1fa67:	89 d6                	mov    esi,edx
   1fa69:	48 ba 73 ca 09 20 fe 	movabs rdx,0x7bded1fe2009ca73
   1fa70:	d1 de 7b 
   1fa73:	e9 b5 a1 ff ff       	jmp    19c2d <Java_com_adjust_sdk_sig_NativeLibHelper_nOnResume@@Base-0xa1076>
   1fa78:	40 8a 75 ce          	mov    sil,BYTE PTR [rbp-0x32]
   1fa7c:	40 88 75 cf          	mov    BYTE PTR [rbp-0x31],sil
   1fa80:	48 8b b5 50 ff ff ff 	mov    rsi,QWORD PTR [rbp-0xb0]
   1fa87:	48 89 b5 70 ff ff ff 	mov    QWORD PTR [rbp-0x90],rsi
   1fa8e:	48 8b b5 60 ff ff ff 	mov    rsi,QWORD PTR [rbp-0xa0]
   1fa95:	48 89 b5 78 ff ff ff 	mov    QWORD PTR [rbp-0x88],rsi
   1fa9c:	48 8b b5 e0 fe ff ff 	mov    rsi,QWORD PTR [rbp-0x120]
   1faa3:	48 89 75 80          	mov    QWORD PTR [rbp-0x80],rsi
   1faa7:	48 8b b5 e8 fe ff ff 	mov    rsi,QWORD PTR [rbp-0x118]
   1faae:	48 89 75 88          	mov    QWORD PTR [rbp-0x78],rsi
   1fab2:	48 8b b5 48 ff ff ff 	mov    rsi,QWORD PTR [rbp-0xb8]
   1fab9:	48 89 75 90          	mov    QWORD PTR [rbp-0x70],rsi
   1fabd:	48 8b b5 58 ff ff ff 	mov    rsi,QWORD PTR [rbp-0xa8]
   1fac4:	48 89 75 98          	mov    QWORD PTR [rbp-0x68],rsi
   1fac8:	48 8b b5 30 ff ff ff 	mov    rsi,QWORD PTR [rbp-0xd0]
   1facf:	48 89 75 a0          	mov    QWORD PTR [rbp-0x60],rsi
   1fad3:	48 8b b5 28 ff ff ff 	mov    rsi,QWORD PTR [rbp-0xd8]
   1fada:	48 89 75 a8          	mov    QWORD PTR [rbp-0x58],rsi
   1fade:	48 89 45 b0          	mov    QWORD PTR [rbp-0x50],rax
   1fae2:	48 89 c8             	mov    rax,rcx
   1fae5:	48 89 7d b8          	mov    QWORD PTR [rbp-0x48],rdi
   1fae9:	4c 89 45 c0          	mov    QWORD PTR [rbp-0x40],r8
   1faed:	4d 89 cb             	mov    r11,r9
   1faf0:	89 d6                	mov    esi,edx
   1faf2:	48 8b 95 b0 fe ff ff 	mov    rdx,QWORD PTR [rbp-0x150]
   1faf9:	4c 8b b5 28 fe ff ff 	mov    r14,QWORD PTR [rbp-0x1d8]
   1fb00:	4c 01 f2             	add    rdx,r14
   1fb03:	e9 ea 24 00 00       	jmp    21ff2 <Java_com_adjust_sdk_sig_NativeLibHelper_nOnResume@@Base-0x98cb1>
   1fb08:	48 8b 85 b0 fe ff ff 	mov    rax,QWORD PTR [rbp-0x150]
   1fb0f:	48 8b 8d 28 fe ff ff 	mov    rcx,QWORD PTR [rbp-0x1d8]
   1fb16:	80 7c 08 ff 2f       	cmp    BYTE PTR [rax+rcx*1-0x1],0x2f
   1fb1b:	48 ba d4 d3 3d f2 04 	movabs rdx,0x7cb35704f23dd3d4
   1fb22:	57 b3 7c 
   1fb25:	74 0a                	je     1fb31 <Java_com_adjust_sdk_sig_NativeLibHelper_nOnResume@@Base-0x9b172>
   1fb27:	48 ba 9e 5c af ee 7b 	movabs rdx,0x216d87beeaf5c9e
   1fb2e:	d8 16 02 
   1fb31:	8a 45 ce             	mov    al,BYTE PTR [rbp-0x32]
   1fb34:	88 45 cf             	mov    BYTE PTR [rbp-0x31],al
   1fb37:	48 8b 85 50 ff ff ff 	mov    rax,QWORD PTR [rbp-0xb0]
   1fb3e:	48 89 85 70 ff ff ff 	mov    QWORD PTR [rbp-0x90],rax
   1fb45:	48 8b 85 60 ff ff ff 	mov    rax,QWORD PTR [rbp-0xa0]
   1fb4c:	48 89 85 78 ff ff ff 	mov    QWORD PTR [rbp-0x88],rax
   1fb53:	4c 89 c0             	mov    rax,r8
   1fb56:	4c 89 45 80          	mov    QWORD PTR [rbp-0x80],r8
   1fb5a:	4c 89 4d 88          	mov    QWORD PTR [rbp-0x78],r9
   1fb5e:	48 8b 85 48 ff ff ff 	mov    rax,QWORD PTR [rbp-0xb8]
   1fb65:	48 89 45 90          	mov    QWORD PTR [rbp-0x70],rax
   1fb69:	48 8b 85 58 ff ff ff 	mov    rax,QWORD PTR [rbp-0xa8]
   1fb70:	48 89 45 98          	mov    QWORD PTR [rbp-0x68],rax
   1fb74:	48 8b 85 30 ff ff ff 	mov    rax,QWORD PTR [rbp-0xd0]
   1fb7b:	48 89 45 a0          	mov    QWORD PTR [rbp-0x60],rax
   1fb7f:	48 8b 85 28 ff ff ff 	mov    rax,QWORD PTR [rbp-0xd8]
   1fb86:	48 89 45 a8          	mov    QWORD PTR [rbp-0x58],rax
   1fb8a:	48 8b 85 40 ff ff ff 	mov    rax,QWORD PTR [rbp-0xc0]
   1fb91:	48 89 45 b0          	mov    QWORD PTR [rbp-0x50],rax
   1fb95:	48 8b 85 08 ff ff ff 	mov    rax,QWORD PTR [rbp-0xf8]
   1fb9c:	48 8b 8d 10 ff ff ff 	mov    rcx,QWORD PTR [rbp-0xf0]
   1fba3:	48 89 4d b8          	mov    QWORD PTR [rbp-0x48],rcx
   1fba7:	48 8b 8d 20 ff ff ff 	mov    rcx,QWORD PTR [rbp-0xe0]
   1fbae:	48 89 4d c0          	mov    QWORD PTR [rbp-0x40],rcx
   1fbb2:	4c 8b 9d 18 ff ff ff 	mov    r11,QWORD PTR [rbp-0xe8]
   1fbb9:	4c 8b 95 38 ff ff ff 	mov    r10,QWORD PTR [rbp-0xc8]
   1fbc0:	44 89 e6             	mov    esi,r12d
   1fbc3:	4c 8b b5 28 fe ff ff 	mov    r14,QWORD PTR [rbp-0x1d8]
   1fbca:	49 ff ce             	dec    r14
   1fbcd:	4c 89 b5 08 fc ff ff 	mov    QWORD PTR [rbp-0x3f8],r14
   1fbd4:	e9 54 a0 ff ff       	jmp    19c2d <Java_com_adjust_sdk_sig_NativeLibHelper_nOnResume@@Base-0xa1076>
   1fbd9:	48 8b 8d 48 ff ff ff 	mov    rcx,QWORD PTR [rbp-0xb8]
   1fbe0:	48 8b 85 b8 fe ff ff 	mov    rax,QWORD PTR [rbp-0x148]
   1fbe7:	4c 8b b5 08 fd ff ff 	mov    r14,QWORD PTR [rbp-0x2f8]
   1fbee:	42 8a 04 30          	mov    al,BYTE PTR [rax+r14*1]
   1fbf2:	48 ba 11 bf 9a c2 6a 	movabs rdx,0x2dc2fb6ac29abf11
   1fbf9:	fb c2 2d 
   1fbfc:	88 85 d7 fe ff ff    	mov    BYTE PTR [rbp-0x129],al
   1fc02:	84 c0                	test   al,al
   1fc04:	74 0a                	je     1fc10 <Java_com_adjust_sdk_sig_NativeLibHelper_nOnResume@@Base-0x9b093>
   1fc06:	48 ba 66 d9 14 87 7a 	movabs rdx,0x2b6f8b7a8714d966
   1fc0d:	8b 6f 2b 
   1fc10:	8a 45 ce             	mov    al,BYTE PTR [rbp-0x32]
   1fc13:	88 45 cf             	mov    BYTE PTR [rbp-0x31],al
   1fc16:	48 8b 85 50 ff ff ff 	mov    rax,QWORD PTR [rbp-0xb0]
   1fc1d:	48 89 85 70 ff ff ff 	mov    QWORD PTR [rbp-0x90],rax
   1fc24:	48 8b 85 60 ff ff ff 	mov    rax,QWORD PTR [rbp-0xa0]
   1fc2b:	48 89 85 78 ff ff ff 	mov    QWORD PTR [rbp-0x88],rax
   1fc32:	48 8b 85 e0 fe ff ff 	mov    rax,QWORD PTR [rbp-0x120]
   1fc39:	48 89 45 80          	mov    QWORD PTR [rbp-0x80],rax
   1fc3d:	48 8b 85 e8 fe ff ff 	mov    rax,QWORD PTR [rbp-0x118]
   1fc44:	48 89 45 88          	mov    QWORD PTR [rbp-0x78],rax
   1fc48:	48 89 4d 90          	mov    QWORD PTR [rbp-0x70],rcx
   1fc4c:	48 8b 85 58 ff ff ff 	mov    rax,QWORD PTR [rbp-0xa8]
   1fc53:	48 89 45 98          	mov    QWORD PTR [rbp-0x68],rax
   1fc57:	48 8b 85 30 ff ff ff 	mov    rax,QWORD PTR [rbp-0xd0]
   1fc5e:	48 89 45 a0          	mov    QWORD PTR [rbp-0x60],rax
   1fc62:	48 8b 85 28 ff ff ff 	mov    rax,QWORD PTR [rbp-0xd8]
   1fc69:	48 89 45 a8          	mov    QWORD PTR [rbp-0x58],rax
   1fc6d:	48 8b 85 40 ff ff ff 	mov    rax,QWORD PTR [rbp-0xc0]
   1fc74:	48 89 45 b0          	mov    QWORD PTR [rbp-0x50],rax
   1fc78:	4c 89 e0             	mov    rax,r12
   1fc7b:	48 89 7d b8          	mov    QWORD PTR [rbp-0x48],rdi
   1fc7f:	4c 89 45 c0          	mov    QWORD PTR [rbp-0x40],r8
   1fc83:	4d 89 cb             	mov    r11,r9
   1fc86:	4c 89 b5 38 fe ff ff 	mov    QWORD PTR [rbp-0x1c8],r14
   1fc8d:	e9 9b 9f ff ff       	jmp    19c2d <Java_com_adjust_sdk_sig_NativeLibHelper_nOnResume@@Base-0xa1076>
   1fc92:	8a 8d db fe ff ff    	mov    cl,BYTE PTR [rbp-0x125]
   1fc98:	0f b6 c1             	movzx  eax,cl
   1fc9b:	0b 85 8c fe ff ff    	or     eax,DWORD PTR [rbp-0x174]
   1fca1:	89 85 e0 fd ff ff    	mov    DWORD PTR [rbp-0x220],eax
   1fca7:	0f b7 c0             	movzx  eax,ax
   1fcaa:	48 ba 63 67 77 38 87 	movabs rdx,0x932da08738776763
   1fcb1:	a0 2d 93 
   1fcb4:	3b 85 ec fd ff ff    	cmp    eax,DWORD PTR [rbp-0x214]
   1fcba:	75 0a                	jne    1fcc6 <Java_com_adjust_sdk_sig_NativeLibHelper_nOnResume@@Base-0x9afdd>
   1fcbc:	48 ba 80 cc 19 b2 1d 	movabs rdx,0x5be0461db219cc80
   1fcc3:	46 e0 5b 
   1fcc6:	84 c9                	test   cl,cl
   1fcc8:	48 b8 80 cc 19 b2 1d 	movabs rax,0x5be0461db219cc80
   1fccf:	46 e0 5b 
   1fcd2:	48 0f 44 d0          	cmove  rdx,rax
   1fcd6:	8a 45 ce             	mov    al,BYTE PTR [rbp-0x32]
   1fcd9:	88 45 cf             	mov    BYTE PTR [rbp-0x31],al
   1fcdc:	48 8b 85 50 ff ff ff 	mov    rax,QWORD PTR [rbp-0xb0]
   1fce3:	48 89 85 70 ff ff ff 	mov    QWORD PTR [rbp-0x90],rax
   1fcea:	48 8b 85 60 ff ff ff 	mov    rax,QWORD PTR [rbp-0xa0]
   1fcf1:	48 89 85 78 ff ff ff 	mov    QWORD PTR [rbp-0x88],rax
   1fcf8:	48 8b 85 e0 fe ff ff 	mov    rax,QWORD PTR [rbp-0x120]
   1fcff:	48 89 45 80          	mov    QWORD PTR [rbp-0x80],rax
   1fd03:	48 8b 85 e8 fe ff ff 	mov    rax,QWORD PTR [rbp-0x118]
   1fd0a:	48 89 45 88          	mov    QWORD PTR [rbp-0x78],rax
   1fd0e:	48 8b 85 48 ff ff ff 	mov    rax,QWORD PTR [rbp-0xb8]
   1fd15:	48 89 45 90          	mov    QWORD PTR [rbp-0x70],rax
   1fd19:	48 8b 85 58 ff ff ff 	mov    rax,QWORD PTR [rbp-0xa8]
   1fd20:	48 89 45 98          	mov    QWORD PTR [rbp-0x68],rax
   1fd24:	48 8b 85 30 ff ff ff 	mov    rax,QWORD PTR [rbp-0xd0]
   1fd2b:	48 89 45 a0          	mov    QWORD PTR [rbp-0x60],rax
   1fd2f:	48 8b 85 28 ff ff ff 	mov    rax,QWORD PTR [rbp-0xd8]
   1fd36:	48 89 45 a8          	mov    QWORD PTR [rbp-0x58],rax
   1fd3a:	48 8b 85 40 ff ff ff 	mov    rax,QWORD PTR [rbp-0xc0]
   1fd41:	48 89 45 b0          	mov    QWORD PTR [rbp-0x50],rax
   1fd45:	4c 89 e0             	mov    rax,r12
   1fd48:	48 89 7d b8          	mov    QWORD PTR [rbp-0x48],rdi
   1fd4c:	4c 89 45 c0          	mov    QWORD PTR [rbp-0x40],r8
   1fd50:	4d 89 cb             	mov    r11,r9
   1fd53:	0f 95 85 d1 fe ff ff 	setne  BYTE PTR [rbp-0x12f]
   1fd5a:	4c 8b b5 b0 fd ff ff 	mov    r14,QWORD PTR [rbp-0x250]
   1fd61:	4c 89 b5 58 fc ff ff 	mov    QWORD PTR [rbp-0x3a8],r14
   1fd68:	e9 c0 9e ff ff       	jmp    19c2d <Java_com_adjust_sdk_sig_NativeLibHelper_nOnResume@@Base-0xa1076>
   1fd6d:	48 ba 08 94 e5 f3 11 	movabs rdx,0xd93eac11f3e59408
   1fd74:	ac 3e d9 
   1fd77:	8a 85 d6 fe ff ff    	mov    al,BYTE PTR [rbp-0x12a]
   1fd7d:	38 85 d0 fe ff ff    	cmp    BYTE PTR [rbp-0x130],al
   1fd83:	40 8a 75 cd          	mov    sil,BYTE PTR [rbp-0x33]
   1fd87:	48 8b 9d 00 ff ff ff 	mov    rbx,QWORD PTR [rbp-0x100]
   1fd8e:	4c 8b ad f0 fe ff ff 	mov    r13,QWORD PTR [rbp-0x110]
   1fd95:	4c 8b bd f8 fe ff ff 	mov    r15,QWORD PTR [rbp-0x108]
   1fd9c:	77 0a                	ja     1fda8 <Java_com_adjust_sdk_sig_NativeLibHelper_nOnResume@@Base-0x9aefb>
   1fd9e:	48 ba 0a 30 93 f3 ce 	movabs rdx,0x31714ecef393300a
   1fda5:	4e 71 31 
   1fda8:	8a 45 ce             	mov    al,BYTE PTR [rbp-0x32]
   1fdab:	88 45 cf             	mov    BYTE PTR [rbp-0x31],al
   1fdae:	48 8b 85 50 ff ff ff 	mov    rax,QWORD PTR [rbp-0xb0]
   1fdb5:	48 89 85 70 ff ff ff 	mov    QWORD PTR [rbp-0x90],rax
   1fdbc:	48 8b 85 60 ff ff ff 	mov    rax,QWORD PTR [rbp-0xa0]
   1fdc3:	48 89 85 78 ff ff ff 	mov    QWORD PTR [rbp-0x88],rax
   1fdca:	4c 89 c0             	mov    rax,r8
   1fdcd:	4c 89 45 80          	mov    QWORD PTR [rbp-0x80],r8
   1fdd1:	4c 89 4d 88          	mov    QWORD PTR [rbp-0x78],r9
   1fdd5:	48 8b 85 48 ff ff ff 	mov    rax,QWORD PTR [rbp-0xb8]
   1fddc:	48 89 45 90          	mov    QWORD PTR [rbp-0x70],rax
   1fde0:	48 8b 85 58 ff ff ff 	mov    rax,QWORD PTR [rbp-0xa8]
   1fde7:	48 89 45 98          	mov    QWORD PTR [rbp-0x68],rax
   1fdeb:	48 8b 85 30 ff ff ff 	mov    rax,QWORD PTR [rbp-0xd0]
   1fdf2:	48 89 45 a0          	mov    QWORD PTR [rbp-0x60],rax
   1fdf6:	48 8b 85 28 ff ff ff 	mov    rax,QWORD PTR [rbp-0xd8]
   1fdfd:	48 89 45 a8          	mov    QWORD PTR [rbp-0x58],rax
   1fe01:	48 8b 85 40 ff ff ff 	mov    rax,QWORD PTR [rbp-0xc0]
   1fe08:	48 89 45 b0          	mov    QWORD PTR [rbp-0x50],rax
   1fe0c:	48 8b 85 08 ff ff ff 	mov    rax,QWORD PTR [rbp-0xf8]
   1fe13:	48 8b 8d 10 ff ff ff 	mov    rcx,QWORD PTR [rbp-0xf0]
   1fe1a:	48 89 4d b8          	mov    QWORD PTR [rbp-0x48],rcx
   1fe1e:	48 8b 8d 20 ff ff ff 	mov    rcx,QWORD PTR [rbp-0xe0]
   1fe25:	48 89 4d c0          	mov    QWORD PTR [rbp-0x40],rcx
   1fe29:	4c 8b 9d 18 ff ff ff 	mov    r11,QWORD PTR [rbp-0xe8]
   1fe30:	e9 50 2b 00 00       	jmp    22985 <Java_com_adjust_sdk_sig_NativeLibHelper_nOnResume@@Base-0x9831e>
   1fe35:	c6 05 f6 ee 11 00 00 	mov    BYTE PTR [rip+0x11eef6],0x0        # 13ed32 <write@plt+0xc1b2>
   1fe3c:	48 8b bd d0 fc ff ff 	mov    rdi,QWORD PTR [rbp-0x330]
   1fe43:	48 8d 35 a6 bc 11 00 	lea    rsi,[rip+0x11bca6]        # 13baf0 <write@plt+0x8f70>
   1fe4a:	48 8b 95 b0 fe ff ff 	mov    rdx,QWORD PTR [rbp-0x150]
   1fe51:	31 c0                	xor    eax,eax
   1fe53:	e8 58 2a 11 00       	call   1328b0 <sscanf@plt>
   1fe58:	48 ba 2d af f8 2b 27 	movabs rdx,0xbcd164272bf8af2d
   1fe5f:	64 d1 bc 
   1fe62:	83 f8 01             	cmp    eax,0x1
   1fe65:	0f 84 44 03 00 00    	je     201af <Java_com_adjust_sdk_sig_NativeLibHelper_nOnResume@@Base-0x9aaf4>
   1fe6b:	48 ba ac a6 5a 15 b6 	movabs rdx,0x5e552fb6155aa6ac
   1fe72:	2f 55 5e 
   1fe75:	e9 35 03 00 00       	jmp    201af <Java_com_adjust_sdk_sig_NativeLibHelper_nOnResume@@Base-0x9aaf4>
   1fe7a:	48 ba fa 23 c2 bd 44 	movabs rdx,0x972d7c44bdc223fa
   1fe81:	7c 2d 97 
   1fe84:	8a 85 df fe ff ff    	mov    al,BYTE PTR [rbp-0x121]
   1fe8a:	38 85 78 fe ff ff    	cmp    BYTE PTR [rbp-0x188],al
   1fe90:	0f 84 2b 1c 00 00    	je     21ac1 <Java_com_adjust_sdk_sig_NativeLibHelper_nOnResume@@Base-0x991e2>
   1fe96:	48 ba 7d 36 6e 44 08 	movabs rdx,0xb2d22108446e367d
   1fe9d:	21 d2 b2 
   1fea0:	e9 1c 1c 00 00       	jmp    21ac1 <Java_com_adjust_sdk_sig_NativeLibHelper_nOnResume@@Base-0x991e2>
   1fea5:	80 3d 81 ee 11 00 00 	cmp    BYTE PTR [rip+0x11ee81],0x0        # 13ed2d <write@plt+0xc1ad>
   1feac:	48 ba 4f 0e f9 b5 ce 	movabs rdx,0x592bd2ceb5f90e4f
   1feb3:	d2 2b 59 
   1feb6:	8a 45 ce             	mov    al,BYTE PTR [rbp-0x32]
   1feb9:	75 0a                	jne    1fec5 <Java_com_adjust_sdk_sig_NativeLibHelper_nOnResume@@Base-0x9adde>
   1febb:	48 ba 10 03 a5 6c 84 	movabs rdx,0x70ac8f846ca50310
   1fec2:	8f ac 70 
   1fec5:	88 45 cf             	mov    BYTE PTR [rbp-0x31],al
   1fec8:	48 8b 85 50 ff ff ff 	mov    rax,QWORD PTR [rbp-0xb0]
   1fecf:	48 89 85 70 ff ff ff 	mov    QWORD PTR [rbp-0x90],rax
   1fed6:	48 8b 85 60 ff ff ff 	mov    rax,QWORD PTR [rbp-0xa0]
   1fedd:	48 89 85 78 ff ff ff 	mov    QWORD PTR [rbp-0x88],rax
   1fee4:	48 8b 85 e0 fe ff ff 	mov    rax,QWORD PTR [rbp-0x120]
   1feeb:	48 89 45 80          	mov    QWORD PTR [rbp-0x80],rax
   1feef:	48 8b 85 e8 fe ff ff 	mov    rax,QWORD PTR [rbp-0x118]
   1fef6:	48 89 45 88          	mov    QWORD PTR [rbp-0x78],rax
   1fefa:	48 8b 85 48 ff ff ff 	mov    rax,QWORD PTR [rbp-0xb8]
   1ff01:	48 89 45 90          	mov    QWORD PTR [rbp-0x70],rax
   1ff05:	48 8b 85 58 ff ff ff 	mov    rax,QWORD PTR [rbp-0xa8]
   1ff0c:	48 89 45 98          	mov    QWORD PTR [rbp-0x68],rax
   1ff10:	48 8b 85 30 ff ff ff 	mov    rax,QWORD PTR [rbp-0xd0]
   1ff17:	48 89 45 a0          	mov    QWORD PTR [rbp-0x60],rax
   1ff1b:	48 8b 85 28 ff ff ff 	mov    rax,QWORD PTR [rbp-0xd8]
   1ff22:	48 89 45 a8          	mov    QWORD PTR [rbp-0x58],rax
   1ff26:	48 89 4d b0          	mov    QWORD PTR [rbp-0x50],rcx
   1ff2a:	4c 89 e0             	mov    rax,r12
   1ff2d:	48 89 7d b8          	mov    QWORD PTR [rbp-0x48],rdi
   1ff31:	4c 89 4d c0          	mov    QWORD PTR [rbp-0x40],r9
   1ff35:	e9 f3 9c ff ff       	jmp    19c2d <Java_com_adjust_sdk_sig_NativeLibHelper_nOnResume@@Base-0xa1076>
   1ff3a:	8b 8d 84 fe ff ff    	mov    ecx,DWORD PTR [rbp-0x17c]
   1ff40:	c1 e1 08             	shl    ecx,0x8
   1ff43:	03 8d 88 fe ff ff    	add    ecx,DWORD PTR [rbp-0x178]
   1ff49:	48 8b 85 98 fe ff ff 	mov    rax,QWORD PTR [rbp-0x168]
   1ff50:	0f b6 00             	movzx  eax,BYTE PTR [rax]
   1ff53:	c1 e0 08             	shl    eax,0x8
   1ff56:	89 85 8c fe ff ff    	mov    DWORD PTR [rbp-0x174],eax
   1ff5c:	8a 45 ce             	mov    al,BYTE PTR [rbp-0x32]
   1ff5f:	88 45 cf             	mov    BYTE PTR [rbp-0x31],al
   1ff62:	89 8d ec fd ff ff    	mov    DWORD PTR [rbp-0x214],ecx
   1ff68:	48 8b 85 50 ff ff ff 	mov    rax,QWORD PTR [rbp-0xb0]
   1ff6f:	48 89 85 70 ff ff ff 	mov    QWORD PTR [rbp-0x90],rax
   1ff76:	48 8b 85 60 ff ff ff 	mov    rax,QWORD PTR [rbp-0xa0]
   1ff7d:	48 89 85 78 ff ff ff 	mov    QWORD PTR [rbp-0x88],rax
   1ff84:	4c 89 f0             	mov    rax,r14
   1ff87:	4c 89 75 80          	mov    QWORD PTR [rbp-0x80],r14
   1ff8b:	4c 89 4d 88          	mov    QWORD PTR [rbp-0x78],r9
   1ff8f:	48 8b 85 48 ff ff ff 	mov    rax,QWORD PTR [rbp-0xb8]
   1ff96:	48 89 45 90          	mov    QWORD PTR [rbp-0x70],rax
   1ff9a:	48 8b 85 58 ff ff ff 	mov    rax,QWORD PTR [rbp-0xa8]
   1ffa1:	48 89 45 98          	mov    QWORD PTR [rbp-0x68],rax
   1ffa5:	48 8b 85 30 ff ff ff 	mov    rax,QWORD PTR [rbp-0xd0]
   1ffac:	48 89 45 a0          	mov    QWORD PTR [rbp-0x60],rax
   1ffb0:	48 8b 85 28 ff ff ff 	mov    rax,QWORD PTR [rbp-0xd8]
   1ffb7:	48 89 45 a8          	mov    QWORD PTR [rbp-0x58],rax
   1ffbb:	48 8b 85 40 ff ff ff 	mov    rax,QWORD PTR [rbp-0xc0]
   1ffc2:	48 89 45 b0          	mov    QWORD PTR [rbp-0x50],rax
   1ffc6:	48 8b 85 08 ff ff ff 	mov    rax,QWORD PTR [rbp-0xf8]
   1ffcd:	48 8b 8d 10 ff ff ff 	mov    rcx,QWORD PTR [rbp-0xf0]
   1ffd4:	48 89 4d b8          	mov    QWORD PTR [rbp-0x48],rcx
   1ffd8:	48 8b 8d 20 ff ff ff 	mov    rcx,QWORD PTR [rbp-0xe0]
   1ffdf:	48 89 4d c0          	mov    QWORD PTR [rbp-0x40],rcx
   1ffe3:	4c 8b 9d 18 ff ff ff 	mov    r11,QWORD PTR [rbp-0xe8]
   1ffea:	4c 8b bd f8 fe ff ff 	mov    r15,QWORD PTR [rbp-0x108]
   1fff1:	4c 8b ad f0 fe ff ff 	mov    r13,QWORD PTR [rbp-0x110]
   1fff8:	48 8b 9d 00 ff ff ff 	mov    rbx,QWORD PTR [rbp-0x100]
   1ffff:	4c 8b 95 38 ff ff ff 	mov    r10,QWORD PTR [rbp-0xc8]
   20006:	8a 55 cd             	mov    dl,BYTE PTR [rbp-0x33]
   20009:	89 d6                	mov    esi,edx
   2000b:	8a 95 d9 fe ff ff    	mov    dl,BYTE PTR [rbp-0x127]
   20011:	88 95 db fe ff ff    	mov    BYTE PTR [rbp-0x125],dl
   20017:	48 8b 95 a0 fe ff ff 	mov    rdx,QWORD PTR [rbp-0x160]
   2001e:	e9 9b 1b 00 00       	jmp    21bbe <Java_com_adjust_sdk_sig_NativeLibHelper_nOnResume@@Base-0x990e5>
   20023:	4c 8b 9d 00 fe ff ff 	mov    r11,QWORD PTR [rbp-0x200]
   2002a:	4c 2b 9d 20 fe ff ff 	sub    r11,QWORD PTR [rbp-0x1e0]
   20031:	8a 45 ce             	mov    al,BYTE PTR [rbp-0x32]
   20034:	88 45 cf             	mov    BYTE PTR [rbp-0x31],al
   20037:	48 8b 85 50 ff ff ff 	mov    rax,QWORD PTR [rbp-0xb0]
   2003e:	48 89 85 70 ff ff ff 	mov    QWORD PTR [rbp-0x90],rax
   20045:	48 8b 85 60 ff ff ff 	mov    rax,QWORD PTR [rbp-0xa0]
   2004c:	48 89 85 78 ff ff ff 	mov    QWORD PTR [rbp-0x88],rax
   20053:	48 8b 85 e0 fe ff ff 	mov    rax,QWORD PTR [rbp-0x120]
   2005a:	48 89 45 80          	mov    QWORD PTR [rbp-0x80],rax
   2005e:	48 8b 85 e8 fe ff ff 	mov    rax,QWORD PTR [rbp-0x118]
   20065:	48 89 45 88          	mov    QWORD PTR [rbp-0x78],rax
   20069:	48 8b 85 48 ff ff ff 	mov    rax,QWORD PTR [rbp-0xb8]
   20070:	48 89 45 90          	mov    QWORD PTR [rbp-0x70],rax
   20074:	48 8b 85 58 ff ff ff 	mov    rax,QWORD PTR [rbp-0xa8]
   2007b:	48 89 45 98          	mov    QWORD PTR [rbp-0x68],rax
   2007f:	48 89 55 a0          	mov    QWORD PTR [rbp-0x60],rdx
   20083:	4c 89 5d a8          	mov    QWORD PTR [rbp-0x58],r11
   20087:	48 8b 85 40 ff ff ff 	mov    rax,QWORD PTR [rbp-0xc0]
   2008e:	48 89 45 b0          	mov    QWORD PTR [rbp-0x50],rax
   20092:	4c 89 e0             	mov    rax,r12
   20095:	48 89 7d b8          	mov    QWORD PTR [rbp-0x48],rdi
   20099:	4c 89 45 c0          	mov    QWORD PTR [rbp-0x40],r8
   2009d:	4d 89 cb             	mov    r11,r9
   200a0:	48 ba f7 61 c1 f1 5c 	movabs rdx,0xd92d285cf1c161f7
   200a7:	28 2d d9 
   200aa:	e9 7e 9b ff ff       	jmp    19c2d <Java_com_adjust_sdk_sig_NativeLibHelper_nOnResume@@Base-0xa1076>
   200af:	0f b6 85 78 fe ff ff 	movzx  eax,BYTE PTR [rbp-0x188]
   200b6:	8d 48 a5             	lea    ecx,[rax-0x5b]
   200b9:	89 c6                	mov    esi,eax
   200bb:	83 ce 20             	or     esi,0x20
   200be:	83 f9 e6             	cmp    ecx,0xffffffe6
   200c1:	0f 42 f0             	cmovb  esi,eax
   200c4:	0f b6 45 ce          	movzx  eax,BYTE PTR [rbp-0x32]
   200c8:	8d 48 a5             	lea    ecx,[rax-0x5b]
   200cb:	89 c7                	mov    edi,eax
   200cd:	83 cf 20             	or     edi,0x20
   200d0:	83 f9 e6             	cmp    ecx,0xffffffe6
   200d3:	0f 42 f8             	cmovb  edi,eax
   200d6:	48 ba 9c 11 e5 14 71 	movabs rdx,0x202d4b7114e5119c
   200dd:	4b 2d 20 
   200e0:	39 fe                	cmp    esi,edi
   200e2:	0f 84 d9 19 00 00    	je     21ac1 <Java_com_adjust_sdk_sig_NativeLibHelper_nOnResume@@Base-0x991e2>
   200e8:	48 ba 5e 9e 7a 1f fe 	movabs rdx,0xcdc81ffe1f7a9e5e
   200ef:	1f c8 cd 
   200f2:	e9 ca 19 00 00       	jmp    21ac1 <Java_com_adjust_sdk_sig_NativeLibHelper_nOnResume@@Base-0x991e2>
   200f7:	c6 05 2e ec 11 00 00 	mov    BYTE PTR [rip+0x11ec2e],0x0        # 13ed2c <write@plt+0xc1ac>
   200fe:	48 8d 3d cb b9 11 00 	lea    rdi,[rip+0x11b9cb]        # 13bad0 <write@plt+0x8f50>
   20105:	48 8d 35 d4 b9 11 00 	lea    rsi,[rip+0x11b9d4]        # 13bae0 <write@plt+0x8f60>
   2010c:	e8 af 27 11 00       	call   1328c0 <fopen@plt>
   20111:	48 ba 01 3f 6c d3 c8 	movabs rdx,0xd8e551c8d36c3f01
   20118:	51 e5 d8 
   2011b:	48 89 85 c0 fc ff ff 	mov    QWORD PTR [rbp-0x340],rax
   20122:	48 85 c0             	test   rax,rax
   20125:	0f 84 84 00 00 00    	je     201af <Java_com_adjust_sdk_sig_NativeLibHelper_nOnResume@@Base-0x9aaf4>
   2012b:	48 ba 62 b1 21 17 8e 	movabs rdx,0xc30a4a8e1721b162
   20132:	4a 0a c3 
   20135:	eb 78                	jmp    201af <Java_com_adjust_sdk_sig_NativeLibHelper_nOnResume@@Base-0x9aaf4>
   20137:	c6 05 ee eb 11 00 00 	mov    BYTE PTR [rip+0x11ebee],0x0        # 13ed2c <write@plt+0xc1ac>
   2013e:	48 89 e0             	mov    rax,rsp
   20141:	48 83 c0 e0          	add    rax,0xffffffffffffffe0
   20145:	48 89 85 10 fe ff ff 	mov    QWORD PTR [rbp-0x1f0],rax
   2014c:	48 89 c4             	mov    rsp,rax
   2014f:	48 89 e0             	mov    rax,rsp
   20152:	48 05 00 f8 ff ff    	add    rax,0xfffffffffffff800
   20158:	48 89 85 c8 fc ff ff 	mov    QWORD PTR [rbp-0x338],rax
   2015f:	48 89 c4             	mov    rsp,rax
   20162:	48 89 e0             	mov    rax,rsp
   20165:	48 05 80 ef ff ff    	add    rax,0xffffffffffffef80
   2016b:	48 89 85 d0 fc ff ff 	mov    QWORD PTR [rbp-0x330],rax
   20172:	48 89 c4             	mov    rsp,rax
   20175:	48 89 e0             	mov    rax,rsp
   20178:	48 05 80 ef ff ff    	add    rax,0xffffffffffffef80
   2017e:	48 89 85 b0 fe ff ff 	mov    QWORD PTR [rbp-0x150],rax
   20185:	48 89 c4             	mov    rsp,rax
   20188:	48 8d 3d 41 b9 11 00 	lea    rdi,[rip+0x11b941]        # 13bad0 <write@plt+0x8f50>
   2018f:	6a 04                	push   0x4
   20191:	5e                   	pop    rsi
   20192:	e8 c9 26 11 00       	call   132860 <access@plt>
   20197:	48 ba 2b 4e 6f 43 f6 	movabs rdx,0x5f30d8f6436f4e2b
   2019e:	d8 30 5f 
   201a1:	85 c0                	test   eax,eax
   201a3:	74 0a                	je     201af <Java_com_adjust_sdk_sig_NativeLibHelper_nOnResume@@Base-0x9aaf4>
   201a5:	48 ba d5 b0 33 22 71 	movabs rdx,0x5fcf00712233b0d5
   201ac:	00 cf 5f 
   201af:	8a 45 ce             	mov    al,BYTE PTR [rbp-0x32]
   201b2:	88 45 cf             	mov    BYTE PTR [rbp-0x31],al
   201b5:	48 8b 85 50 ff ff ff 	mov    rax,QWORD PTR [rbp-0xb0]
   201bc:	48 89 85 70 ff ff ff 	mov    QWORD PTR [rbp-0x90],rax
   201c3:	48 8b 85 60 ff ff ff 	mov    rax,QWORD PTR [rbp-0xa0]
   201ca:	48 89 85 78 ff ff ff 	mov    QWORD PTR [rbp-0x88],rax
   201d1:	48 8b 85 e0 fe ff ff 	mov    rax,QWORD PTR [rbp-0x120]
   201d8:	48 89 45 80          	mov    QWORD PTR [rbp-0x80],rax
   201dc:	48 8b 85 e8 fe ff ff 	mov    rax,QWORD PTR [rbp-0x118]
   201e3:	48 89 45 88          	mov    QWORD PTR [rbp-0x78],rax
   201e7:	e9 9f 26 00 00       	jmp    2288b <Java_com_adjust_sdk_sig_NativeLibHelper_nOnResume@@Base-0x98418>
   201ec:	f6 85 d1 fe ff ff 01 	test   BYTE PTR [rbp-0x12f],0x1
   201f3:	48 ba 79 31 77 ac f9 	movabs rdx,0xdd2b1ff9ac773179
   201fa:	1f 2b dd 
   201fd:	48 b8 4b 74 08 7e a2 	movabs rax,0x4f067aa27e08744b
   20204:	7a 06 4f 
   20207:	48 0f 45 d0          	cmovne rdx,rax
   2020b:	8a 45 ce             	mov    al,BYTE PTR [rbp-0x32]
   2020e:	88 45 cf             	mov    BYTE PTR [rbp-0x31],al
   20211:	48 8b 85 50 ff ff ff 	mov    rax,QWORD PTR [rbp-0xb0]
   20218:	48 89 85 70 ff ff ff 	mov    QWORD PTR [rbp-0x90],rax
   2021f:	48 8b 85 60 ff ff ff 	mov    rax,QWORD PTR [rbp-0xa0]
   20226:	48 89 85 78 ff ff ff 	mov    QWORD PTR [rbp-0x88],rax
   2022d:	4c 89 c0             	mov    rax,r8
   20230:	4c 89 45 80          	mov    QWORD PTR [rbp-0x80],r8
   20234:	4c 89 4d 88          	mov    QWORD PTR [rbp-0x78],r9
   20238:	48 8b 85 48 ff ff ff 	mov    rax,QWORD PTR [rbp-0xb8]
   2023f:	48 89 45 90          	mov    QWORD PTR [rbp-0x70],rax
   20243:	48 8b 85 58 ff ff ff 	mov    rax,QWORD PTR [rbp-0xa8]
   2024a:	48 89 45 98          	mov    QWORD PTR [rbp-0x68],rax
   2024e:	48 8b 85 30 ff ff ff 	mov    rax,QWORD PTR [rbp-0xd0]
   20255:	48 89 45 a0          	mov    QWORD PTR [rbp-0x60],rax
   20259:	48 8b 85 28 ff ff ff 	mov    rax,QWORD PTR [rbp-0xd8]
   20260:	48 89 45 a8          	mov    QWORD PTR [rbp-0x58],rax
   20264:	48 8b 85 40 ff ff ff 	mov    rax,QWORD PTR [rbp-0xc0]
   2026b:	48 89 45 b0          	mov    QWORD PTR [rbp-0x50],rax
   2026f:	48 8b 85 08 ff ff ff 	mov    rax,QWORD PTR [rbp-0xf8]
   20276:	48 8b 8d 10 ff ff ff 	mov    rcx,QWORD PTR [rbp-0xf0]
   2027d:	48 89 4d b8          	mov    QWORD PTR [rbp-0x48],rcx
   20281:	48 8b 8d 20 ff ff ff 	mov    rcx,QWORD PTR [rbp-0xe0]
   20288:	48 89 4d c0          	mov    QWORD PTR [rbp-0x40],rcx
   2028c:	4c 8b 9d 18 ff ff ff 	mov    r11,QWORD PTR [rbp-0xe8]
   20293:	4c 8b bd f8 fe ff ff 	mov    r15,QWORD PTR [rbp-0x108]
   2029a:	4c 8b ad f0 fe ff ff 	mov    r13,QWORD PTR [rbp-0x110]
   202a1:	48 8b 9d 00 ff ff ff 	mov    rbx,QWORD PTR [rbp-0x100]
   202a8:	4c 8b 95 38 ff ff ff 	mov    r10,QWORD PTR [rbp-0xc8]
   202af:	40 8a 75 cd          	mov    sil,BYTE PTR [rbp-0x33]
   202b3:	e9 75 99 ff ff       	jmp    19c2d <Java_com_adjust_sdk_sig_NativeLibHelper_nOnResume@@Base-0xa1076>
   202b8:	48 8b 95 20 fe ff ff 	mov    rdx,QWORD PTR [rbp-0x1e0]
   202bf:	48 8d 42 01          	lea    rax,[rdx+0x1]
   202c3:	4d 89 cb             	mov    r11,r9
   202c6:	4d 89 c1             	mov    r9,r8
   202c9:	49 89 f8             	mov    r8,rdi
   202cc:	48 89 cf             	mov    rdi,rcx
   202cf:	4c 89 e6             	mov    rsi,r12
   202d2:	4c 8b a5 18 fe ff ff 	mov    r12,QWORD PTR [rbp-0x1e8]
   202d9:	49 8d 4c 24 01       	lea    rcx,[r12+0x1]
   202de:	48 39 c8             	cmp    rax,rcx
   202e1:	4c 8b b5 f0 fc ff ff 	mov    r14,QWORD PTR [rbp-0x310]
   202e8:	4c 0f 47 b5 e0 fc ff 	cmova  r14,QWORD PTR [rbp-0x320]
   202ef:	ff 
   202f0:	4c 0f 47 e2          	cmova  r12,rdx
   202f4:	8a 45 ce             	mov    al,BYTE PTR [rbp-0x32]
   202f7:	88 45 cf             	mov    BYTE PTR [rbp-0x31],al
   202fa:	48 8b 85 50 ff ff ff 	mov    rax,QWORD PTR [rbp-0xb0]
   20301:	48 89 85 70 ff ff ff 	mov    QWORD PTR [rbp-0x90],rax
   20308:	48 8b 85 60 ff ff ff 	mov    rax,QWORD PTR [rbp-0xa0]
   2030f:	48 89 85 78 ff ff ff 	mov    QWORD PTR [rbp-0x88],rax
   20316:	48 8b 85 e0 fe ff ff 	mov    rax,QWORD PTR [rbp-0x120]
   2031d:	48 89 45 80          	mov    QWORD PTR [rbp-0x80],rax
   20321:	48 8b 85 e8 fe ff ff 	mov    rax,QWORD PTR [rbp-0x118]
   20328:	48 89 45 88          	mov    QWORD PTR [rbp-0x78],rax
   2032c:	48 8b 85 48 ff ff ff 	mov    rax,QWORD PTR [rbp-0xb8]
   20333:	48 89 45 90          	mov    QWORD PTR [rbp-0x70],rax
   20337:	48 8b 85 58 ff ff ff 	mov    rax,QWORD PTR [rbp-0xa8]
   2033e:	48 89 45 98          	mov    QWORD PTR [rbp-0x68],rax
   20342:	48 8b 85 30 ff ff ff 	mov    rax,QWORD PTR [rbp-0xd0]
   20349:	48 89 45 a0          	mov    QWORD PTR [rbp-0x60],rax
   2034d:	48 8b 85 28 ff ff ff 	mov    rax,QWORD PTR [rbp-0xd8]
   20354:	48 89 45 a8          	mov    QWORD PTR [rbp-0x58],rax
   20358:	48 89 75 b0          	mov    QWORD PTR [rbp-0x50],rsi
   2035c:	48 89 f8             	mov    rax,rdi
   2035f:	4c 89 45 b8          	mov    QWORD PTR [rbp-0x48],r8
   20363:	4c 89 4d c0          	mov    QWORD PTR [rbp-0x40],r9
   20367:	4c 8b 95 38 ff ff ff 	mov    r10,QWORD PTR [rbp-0xc8]
   2036e:	8a 4d cd             	mov    cl,BYTE PTR [rbp-0x33]
   20371:	89 ce                	mov    esi,ecx
   20373:	48 8b 95 b8 fe ff ff 	mov    rdx,QWORD PTR [rbp-0x148]
   2037a:	4c 89 b5 10 fc ff ff 	mov    QWORD PTR [rbp-0x3f0],r14
   20381:	49 01 d6             	add    r14,rdx
   20384:	4c 89 b5 88 fd ff ff 	mov    QWORD PTR [rbp-0x278],r14
   2038b:	4c 89 a5 d8 fc ff ff 	mov    QWORD PTR [rbp-0x328],r12
   20392:	4d 8d 74 24 01       	lea    r14,[r12+0x1]
   20397:	48 89 95 98 fd ff ff 	mov    QWORD PTR [rbp-0x268],rdx
   2039e:	4c 89 b5 90 fd ff ff 	mov    QWORD PTR [rbp-0x270],r14
   203a5:	4c 89 b5 a8 fc ff ff 	mov    QWORD PTR [rbp-0x358],r14
   203ac:	48 ba 2b dc fc d1 73 	movabs rdx,0xadb4c673d1fcdc2b
   203b3:	c6 b4 ad 
   203b6:	e9 72 98 ff ff       	jmp    19c2d <Java_com_adjust_sdk_sig_NativeLibHelper_nOnResume@@Base-0xa1076>
   203bb:	80 3d c5 eb 11 00 00 	cmp    BYTE PTR [rip+0x11ebc5],0x0        # 13ef87 <write@plt+0xc407>
   203c2:	48 ba 82 2a fa 41 99 	movabs rdx,0x7cb64e9941fa2a82
   203c9:	4e b6 7c 
   203cc:	0f 85 ef 16 00 00    	jne    21ac1 <Java_com_adjust_sdk_sig_NativeLibHelper_nOnResume@@Base-0x991e2>
   203d2:	48 ba 33 c1 9c fa 5d 	movabs rdx,0x65f32b5dfa9cc133
   203d9:	2b f3 65 
   203dc:	e9 e0 16 00 00       	jmp    21ac1 <Java_com_adjust_sdk_sig_NativeLibHelper_nOnResume@@Base-0x991e2>
   203e1:	48 8b 85 78 fc ff ff 	mov    rax,QWORD PTR [rbp-0x388]
   203e8:	48 8b 8d 68 fe ff ff 	mov    rcx,QWORD PTR [rbp-0x198]
   203ef:	0f b6 14 01          	movzx  edx,BYTE PTR [rcx+rax*1]
   203f3:	48 89 d0             	mov    rax,rdx
   203f6:	48 c1 e8 06          	shr    rax,0x6
   203fa:	48 8b 8d 10 fe ff ff 	mov    rcx,QWORD PTR [rbp-0x1f0]
   20401:	48 8b 04 c1          	mov    rax,QWORD PTR [rcx+rax*8]
   20405:	48 89 d1             	mov    rcx,rdx
   20408:	48 89 95 18 fc ff ff 	mov    QWORD PTR [rbp-0x3e8],rdx
   2040f:	48 0f a3 d0          	bt     rax,rdx
   20413:	48 ba 72 62 d1 0f 5e 	movabs rdx,0xbc1ce55e0fd16272
   2041a:	e5 1c bc 
   2041d:	40 8a 75 cd          	mov    sil,BYTE PTR [rbp-0x33]
   20421:	4c 8b 95 38 ff ff ff 	mov    r10,QWORD PTR [rbp-0xc8]
   20428:	48 8b 9d 00 ff ff ff 	mov    rbx,QWORD PTR [rbp-0x100]
   2042f:	4c 8b ad f0 fe ff ff 	mov    r13,QWORD PTR [rbp-0x110]
   20436:	4c 8b bd f8 fe ff ff 	mov    r15,QWORD PTR [rbp-0x108]
   2043d:	4c 8b 8d 18 ff ff ff 	mov    r9,QWORD PTR [rbp-0xe8]
   20444:	4c 8b 85 20 ff ff ff 	mov    r8,QWORD PTR [rbp-0xe0]
   2044b:	48 8b bd 10 ff ff ff 	mov    rdi,QWORD PTR [rbp-0xf0]
   20452:	48 8b 8d 08 ff ff ff 	mov    rcx,QWORD PTR [rbp-0xf8]
   20459:	48 8b 85 40 ff ff ff 	mov    rax,QWORD PTR [rbp-0xc0]
   20460:	73 0a                	jae    2046c <Java_com_adjust_sdk_sig_NativeLibHelper_nOnResume@@Base-0x9a837>
   20462:	48 ba 64 ea 2a 3d ba 	movabs rdx,0x10ad31ba3d2aea64
   20469:	31 ad 10 
   2046c:	44 8a 5d ce          	mov    r11b,BYTE PTR [rbp-0x32]
   20470:	44 88 5d cf          	mov    BYTE PTR [rbp-0x31],r11b
   20474:	4c 8b 9d 50 ff ff ff 	mov    r11,QWORD PTR [rbp-0xb0]
   2047b:	4c 89 9d 70 ff ff ff 	mov    QWORD PTR [rbp-0x90],r11
   20482:	4c 8b 9d 60 ff ff ff 	mov    r11,QWORD PTR [rbp-0xa0]
   20489:	4c 89 9d 78 ff ff ff 	mov    QWORD PTR [rbp-0x88],r11
   20490:	4c 8b 9d e0 fe ff ff 	mov    r11,QWORD PTR [rbp-0x120]
   20497:	4c 89 5d 80          	mov    QWORD PTR [rbp-0x80],r11
   2049b:	4c 8b 9d e8 fe ff ff 	mov    r11,QWORD PTR [rbp-0x118]
   204a2:	4c 89 5d 88          	mov    QWORD PTR [rbp-0x78],r11
   204a6:	4c 8b 9d 58 ff ff ff 	mov    r11,QWORD PTR [rbp-0xa8]
   204ad:	4c 89 5d 98          	mov    QWORD PTR [rbp-0x68],r11
   204b1:	4c 8b 9d 30 ff ff ff 	mov    r11,QWORD PTR [rbp-0xd0]
   204b8:	4c 89 5d a0          	mov    QWORD PTR [rbp-0x60],r11
   204bc:	4c 8b 9d 28 ff ff ff 	mov    r11,QWORD PTR [rbp-0xd8]
   204c3:	4c 89 5d a8          	mov    QWORD PTR [rbp-0x58],r11
   204c7:	48 89 45 b0          	mov    QWORD PTR [rbp-0x50],rax
   204cb:	48 89 c8             	mov    rax,rcx
   204ce:	48 89 7d b8          	mov    QWORD PTR [rbp-0x48],rdi
   204d2:	4c 89 45 c0          	mov    QWORD PTR [rbp-0x40],r8
   204d6:	48 8b 8d 48 ff ff ff 	mov    rcx,QWORD PTR [rbp-0xb8]
   204dd:	48 89 4d 90          	mov    QWORD PTR [rbp-0x70],rcx
   204e1:	48 89 8d 40 fc ff ff 	mov    QWORD PTR [rbp-0x3c0],rcx
   204e8:	e9 41 23 00 00       	jmp    2282e <Java_com_adjust_sdk_sig_NativeLibHelper_nOnResume@@Base-0x98475>
   204ed:	48 8b 85 18 fe ff ff 	mov    rax,QWORD PTR [rbp-0x1e8]
   204f4:	48 8b 8d 60 fe ff ff 	mov    rcx,QWORD PTR [rbp-0x1a0]
   204fb:	48 01 c8             	add    rax,rcx
   204fe:	48 8b 8d b8 fe ff ff 	mov    rcx,QWORD PTR [rbp-0x148]
   20505:	8a 04 01             	mov    al,BYTE PTR [rcx+rax*1]
   20508:	48 8b 95 08 fe ff ff 	mov    rdx,QWORD PTR [rbp-0x1f8]
   2050f:	8a 0c 11             	mov    cl,BYTE PTR [rcx+rdx*1]
   20512:	48 ba 27 0a 70 dd 00 	movabs rdx,0xaf185300dd700a27
   20519:	53 18 af 
   2051c:	88 85 d0 fe ff ff    	mov    BYTE PTR [rbp-0x130],al
   20522:	88 8d d6 fe ff ff    	mov    BYTE PTR [rbp-0x12a],cl
   20528:	38 c8                	cmp    al,cl
   2052a:	0f 84 91 15 00 00    	je     21ac1 <Java_com_adjust_sdk_sig_NativeLibHelper_nOnResume@@Base-0x991e2>
   20530:	48 ba f8 fc 34 b4 fd 	movabs rdx,0x30499efdb434fcf8
   20537:	9e 49 30 
   2053a:	e9 82 15 00 00       	jmp    21ac1 <Java_com_adjust_sdk_sig_NativeLibHelper_nOnResume@@Base-0x991e2>
   2053f:	48 85 c9             	test   rcx,rcx
   20542:	48 89 ce             	mov    rsi,rcx
   20545:	48 ba b5 fe 89 1c e7 	movabs rdx,0x4f6366e71c89feb5
   2054c:	66 63 4f 
   2054f:	48 b8 a7 1f 82 ca 40 	movabs rax,0x548ff940ca821fa7
   20556:	f9 8f 54 
   20559:	48 0f 44 d0          	cmove  rdx,rax
   2055d:	8a 45 ce             	mov    al,BYTE PTR [rbp-0x32]
   20560:	88 45 cf             	mov    BYTE PTR [rbp-0x31],al
   20563:	48 8b 85 50 ff ff ff 	mov    rax,QWORD PTR [rbp-0xb0]
   2056a:	48 89 85 70 ff ff ff 	mov    QWORD PTR [rbp-0x90],rax
   20571:	48 8b 85 60 ff ff ff 	mov    rax,QWORD PTR [rbp-0xa0]
   20578:	48 89 85 78 ff ff ff 	mov    QWORD PTR [rbp-0x88],rax
   2057f:	4c 89 c0             	mov    rax,r8
   20582:	4c 89 45 80          	mov    QWORD PTR [rbp-0x80],r8
   20586:	4c 89 4d 88          	mov    QWORD PTR [rbp-0x78],r9
   2058a:	48 8b 85 48 ff ff ff 	mov    rax,QWORD PTR [rbp-0xb8]
   20591:	48 89 45 90          	mov    QWORD PTR [rbp-0x70],rax
   20595:	4c 89 5d a8          	mov    QWORD PTR [rbp-0x58],r11
   20599:	48 8b 85 40 ff ff ff 	mov    rax,QWORD PTR [rbp-0xc0]
   205a0:	48 89 45 b0          	mov    QWORD PTR [rbp-0x50],rax
   205a4:	48 8b 85 08 ff ff ff 	mov    rax,QWORD PTR [rbp-0xf8]
   205ab:	48 89 4d a0          	mov    QWORD PTR [rbp-0x60],rcx
   205af:	48 89 8d 30 fc ff ff 	mov    QWORD PTR [rbp-0x3d0],rcx
   205b6:	48 8b b5 58 ff ff ff 	mov    rsi,QWORD PTR [rbp-0xa8]
   205bd:	48 89 75 98          	mov    QWORD PTR [rbp-0x68],rsi
   205c1:	48 89 b5 50 fe ff ff 	mov    QWORD PTR [rbp-0x1b0],rsi
   205c8:	e9 fc 22 00 00       	jmp    228c9 <Java_com_adjust_sdk_sig_NativeLibHelper_nOnResume@@Base-0x983da>
   205cd:	80 35 03 cd 11 00 69 	xor    BYTE PTR [rip+0x11cd03],0x69        # 13d2d7 <write@plt+0xa757>
   205d4:	80 35 fd cc 11 00 69 	xor    BYTE PTR [rip+0x11ccfd],0x69        # 13d2d8 <write@plt+0xa758>
   205db:	c6 05 a5 e9 11 00 01 	mov    BYTE PTR [rip+0x11e9a5],0x1        # 13ef87 <write@plt+0xc407>
   205e2:	8a 45 ce             	mov    al,BYTE PTR [rbp-0x32]
   205e5:	88 45 cf             	mov    BYTE PTR [rbp-0x31],al
   205e8:	48 8b 85 50 ff ff ff 	mov    rax,QWORD PTR [rbp-0xb0]
   205ef:	48 89 85 70 ff ff ff 	mov    QWORD PTR [rbp-0x90],rax
   205f6:	48 8b 85 60 ff ff ff 	mov    rax,QWORD PTR [rbp-0xa0]
   205fd:	48 89 85 78 ff ff ff 	mov    QWORD PTR [rbp-0x88],rax
   20604:	4c 89 c0             	mov    rax,r8
   20607:	4c 89 45 80          	mov    QWORD PTR [rbp-0x80],r8
   2060b:	4c 89 4d 88          	mov    QWORD PTR [rbp-0x78],r9
   2060f:	48 8b 85 48 ff ff ff 	mov    rax,QWORD PTR [rbp-0xb8]
   20616:	48 89 45 90          	mov    QWORD PTR [rbp-0x70],rax
   2061a:	48 8b 85 58 ff ff ff 	mov    rax,QWORD PTR [rbp-0xa8]
   20621:	48 89 45 98          	mov    QWORD PTR [rbp-0x68],rax
   20625:	48 8b 85 30 ff ff ff 	mov    rax,QWORD PTR [rbp-0xd0]
   2062c:	48 89 45 a0          	mov    QWORD PTR [rbp-0x60],rax
   20630:	48 8b 85 28 ff ff ff 	mov    rax,QWORD PTR [rbp-0xd8]
   20637:	48 89 45 a8          	mov    QWORD PTR [rbp-0x58],rax
   2063b:	48 8b 85 40 ff ff ff 	mov    rax,QWORD PTR [rbp-0xc0]
   20642:	48 89 45 b0          	mov    QWORD PTR [rbp-0x50],rax
   20646:	48 8b 85 08 ff ff ff 	mov    rax,QWORD PTR [rbp-0xf8]
   2064d:	48 8b 8d 10 ff ff ff 	mov    rcx,QWORD PTR [rbp-0xf0]
   20654:	48 89 4d b8          	mov    QWORD PTR [rbp-0x48],rcx
   20658:	48 8b 8d 20 ff ff ff 	mov    rcx,QWORD PTR [rbp-0xe0]
   2065f:	48 89 4d c0          	mov    QWORD PTR [rbp-0x40],rcx
   20663:	4c 8b 9d 18 ff ff ff 	mov    r11,QWORD PTR [rbp-0xe8]
   2066a:	4c 8b 95 38 ff ff ff 	mov    r10,QWORD PTR [rbp-0xc8]
   20671:	44 89 e6             	mov    esi,r12d
   20674:	48 ba ab 05 b0 c2 ba 	movabs rdx,0x8f3126bac2b005ab
   2067b:	26 31 8f 
   2067e:	e9 aa 95 ff ff       	jmp    19c2d <Java_com_adjust_sdk_sig_NativeLibHelper_nOnResume@@Base-0xa1076>
   20683:	8a 45 ce             	mov    al,BYTE PTR [rbp-0x32]
   20686:	88 45 cf             	mov    BYTE PTR [rbp-0x31],al
   20689:	48 8b 85 50 ff ff ff 	mov    rax,QWORD PTR [rbp-0xb0]
   20690:	48 89 85 70 ff ff ff 	mov    QWORD PTR [rbp-0x90],rax
   20697:	48 8b 85 60 ff ff ff 	mov    rax,QWORD PTR [rbp-0xa0]
   2069e:	48 89 85 78 ff ff ff 	mov    QWORD PTR [rbp-0x88],rax
   206a5:	4c 89 c0             	mov    rax,r8
   206a8:	4c 89 45 80          	mov    QWORD PTR [rbp-0x80],r8
   206ac:	4c 89 4d 88          	mov    QWORD PTR [rbp-0x78],r9
   206b0:	48 8b 85 90 fc ff ff 	mov    rax,QWORD PTR [rbp-0x370]
   206b7:	48 8b 8d f8 fd ff ff 	mov    rcx,QWORD PTR [rbp-0x208]
   206be:	48 8d 04 01          	lea    rax,[rcx+rax*1]
   206c2:	48 89 45 90          	mov    QWORD PTR [rbp-0x70],rax
   206c6:	48 8b 85 58 ff ff ff 	mov    rax,QWORD PTR [rbp-0xa8]
   206cd:	48 89 45 98          	mov    QWORD PTR [rbp-0x68],rax
   206d1:	48 89 55 a0          	mov    QWORD PTR [rbp-0x60],rdx
   206d5:	4c 89 5d a8          	mov    QWORD PTR [rbp-0x58],r11
   206d9:	48 8b 85 40 ff ff ff 	mov    rax,QWORD PTR [rbp-0xc0]
   206e0:	48 89 45 b0          	mov    QWORD PTR [rbp-0x50],rax
   206e4:	48 8b 85 08 ff ff ff 	mov    rax,QWORD PTR [rbp-0xf8]
   206eb:	48 8b 8d 10 ff ff ff 	mov    rcx,QWORD PTR [rbp-0xf0]
   206f2:	48 89 4d b8          	mov    QWORD PTR [rbp-0x48],rcx
   206f6:	48 8b 8d 20 ff ff ff 	mov    rcx,QWORD PTR [rbp-0xe0]
   206fd:	48 89 4d c0          	mov    QWORD PTR [rbp-0x40],rcx
   20701:	4c 8b 9d 18 ff ff ff 	mov    r11,QWORD PTR [rbp-0xe8]
   20708:	4c 8b 95 38 ff ff ff 	mov    r10,QWORD PTR [rbp-0xc8]
   2070f:	44 89 e6             	mov    esi,r12d
   20712:	48 ba 43 95 7e cf d7 	movabs rdx,0x73995fd7cf7e9543
   20719:	5f 99 73 
   2071c:	e9 0c 95 ff ff       	jmp    19c2d <Java_com_adjust_sdk_sig_NativeLibHelper_nOnResume@@Base-0xa1076>
   20721:	c6 05 5e e8 11 00 00 	mov    BYTE PTR [rip+0x11e85e],0x0        # 13ef86 <write@plt+0xc406>
   20728:	4c 8b bd f8 fe ff ff 	mov    r15,QWORD PTR [rbp-0x108]
   2072f:	4c 89 ff             	mov    rdi,r15
   20732:	4c 89 cb             	mov    rbx,r9
   20735:	e8 a1 2d 0a 00       	call   c34db <Java_com_adjust_sdk_sig_NativeLibHelper_nSign@@Base+0x7e30>
   2073a:	48 89 85 b0 fc ff ff 	mov    QWORD PTR [rbp-0x350],rax
   20741:	8a 45 ce             	mov    al,BYTE PTR [rbp-0x32]
   20744:	88 45 cf             	mov    BYTE PTR [rbp-0x31],al
   20747:	48 8b 85 50 ff ff ff 	mov    rax,QWORD PTR [rbp-0xb0]
   2074e:	48 89 85 70 ff ff ff 	mov    QWORD PTR [rbp-0x90],rax
   20755:	48 8b 85 60 ff ff ff 	mov    rax,QWORD PTR [rbp-0xa0]
   2075c:	48 89 85 78 ff ff ff 	mov    QWORD PTR [rbp-0x88],rax
   20763:	4c 89 f0             	mov    rax,r14
   20766:	4c 89 75 80          	mov    QWORD PTR [rbp-0x80],r14
   2076a:	48 89 5d 88          	mov    QWORD PTR [rbp-0x78],rbx
   2076e:	48 8b 85 48 ff ff ff 	mov    rax,QWORD PTR [rbp-0xb8]
   20775:	48 89 45 90          	mov    QWORD PTR [rbp-0x70],rax
   20779:	48 8b 85 58 ff ff ff 	mov    rax,QWORD PTR [rbp-0xa8]
   20780:	48 89 45 98          	mov    QWORD PTR [rbp-0x68],rax
   20784:	48 8b 85 30 ff ff ff 	mov    rax,QWORD PTR [rbp-0xd0]
   2078b:	48 89 45 a0          	mov    QWORD PTR [rbp-0x60],rax
   2078f:	48 8b 85 28 ff ff ff 	mov    rax,QWORD PTR [rbp-0xd8]
   20796:	48 89 45 a8          	mov    QWORD PTR [rbp-0x58],rax
   2079a:	48 8b 85 40 ff ff ff 	mov    rax,QWORD PTR [rbp-0xc0]
   207a1:	48 89 45 b0          	mov    QWORD PTR [rbp-0x50],rax
   207a5:	48 8b 85 08 ff ff ff 	mov    rax,QWORD PTR [rbp-0xf8]
   207ac:	48 8b 8d 10 ff ff ff 	mov    rcx,QWORD PTR [rbp-0xf0]
   207b3:	48 89 4d b8          	mov    QWORD PTR [rbp-0x48],rcx
   207b7:	48 8b 8d 20 ff ff ff 	mov    rcx,QWORD PTR [rbp-0xe0]
   207be:	48 89 4d c0          	mov    QWORD PTR [rbp-0x40],rcx
   207c2:	4c 8b 9d 18 ff ff ff 	mov    r11,QWORD PTR [rbp-0xe8]
   207c9:	4c 8b ad f0 fe ff ff 	mov    r13,QWORD PTR [rbp-0x110]
   207d0:	48 8b 9d 00 ff ff ff 	mov    rbx,QWORD PTR [rbp-0x100]
   207d7:	4c 8b 95 38 ff ff ff 	mov    r10,QWORD PTR [rbp-0xc8]
   207de:	8a 55 cd             	mov    dl,BYTE PTR [rbp-0x33]
   207e1:	89 d6                	mov    esi,edx
   207e3:	48 8d 15 26 b3 11 00 	lea    rdx,[rip+0x11b326]        # 13bb10 <write@plt+0x8f90>
   207ea:	48 89 95 b8 fc ff ff 	mov    QWORD PTR [rbp-0x348],rdx
   207f1:	48 ba ca 56 76 0e 45 	movabs rdx,0x3e5bb6450e7656ca
   207f8:	b6 5b 3e 
   207fb:	e9 2d 94 ff ff       	jmp    19c2d <Java_com_adjust_sdk_sig_NativeLibHelper_nOnResume@@Base-0xa1076>
   20800:	8a 45 ce             	mov    al,BYTE PTR [rbp-0x32]
   20803:	88 45 cf             	mov    BYTE PTR [rbp-0x31],al
   20806:	48 8b 85 50 ff ff ff 	mov    rax,QWORD PTR [rbp-0xb0]
   2080d:	48 89 85 70 ff ff ff 	mov    QWORD PTR [rbp-0x90],rax
   20814:	48 8b 85 60 ff ff ff 	mov    rax,QWORD PTR [rbp-0xa0]
   2081b:	48 89 85 78 ff ff ff 	mov    QWORD PTR [rbp-0x88],rax
   20822:	4c 89 c0             	mov    rax,r8
   20825:	4c 89 45 80          	mov    QWORD PTR [rbp-0x80],r8
   20829:	4c 89 4d 88          	mov    QWORD PTR [rbp-0x78],r9
   2082d:	48 8b 85 48 ff ff ff 	mov    rax,QWORD PTR [rbp-0xb8]
   20834:	48 89 45 90          	mov    QWORD PTR [rbp-0x70],rax
   20838:	48 8b 85 50 fe ff ff 	mov    rax,QWORD PTR [rbp-0x1b0]
   2083f:	48 8d 40 01          	lea    rax,[rax+0x1]
   20843:	48 89 45 98          	mov    QWORD PTR [rbp-0x68],rax
   20847:	48 8b 85 30 fc ff ff 	mov    rax,QWORD PTR [rbp-0x3d0]
   2084e:	48 8d 40 ff          	lea    rax,[rax-0x1]
   20852:	48 89 45 a0          	mov    QWORD PTR [rbp-0x60],rax
   20856:	4c 89 5d a8          	mov    QWORD PTR [rbp-0x58],r11
   2085a:	48 8b 85 40 ff ff ff 	mov    rax,QWORD PTR [rbp-0xc0]
   20861:	48 89 45 b0          	mov    QWORD PTR [rbp-0x50],rax
   20865:	48 8b 85 08 ff ff ff 	mov    rax,QWORD PTR [rbp-0xf8]
   2086c:	48 8b 8d 10 ff ff ff 	mov    rcx,QWORD PTR [rbp-0xf0]
   20873:	48 89 4d b8          	mov    QWORD PTR [rbp-0x48],rcx
   20877:	48 8b 8d 20 ff ff ff 	mov    rcx,QWORD PTR [rbp-0xe0]
   2087e:	48 89 4d c0          	mov    QWORD PTR [rbp-0x40],rcx
   20882:	4c 8b 9d 18 ff ff ff 	mov    r11,QWORD PTR [rbp-0xe8]
   20889:	4c 8b 95 38 ff ff ff 	mov    r10,QWORD PTR [rbp-0xc8]
   20890:	44 89 e6             	mov    esi,r12d
   20893:	48 ba af 6e 00 5d b2 	movabs rdx,0x68d52db25d006eaf
   2089a:	2d d5 68 
   2089d:	e9 8b 93 ff ff       	jmp    19c2d <Java_com_adjust_sdk_sig_NativeLibHelper_nOnResume@@Base-0xa1076>
   208a2:	48 ba 65 b9 94 3e 0c 	movabs rdx,0x6e3cc40c3e94b965
   208a9:	c4 3c 6e 
   208ac:	80 bd da fe ff ff 00 	cmp    BYTE PTR [rbp-0x126],0x0
   208b3:	40 8a 75 cd          	mov    sil,BYTE PTR [rbp-0x33]
   208b7:	48 8b 9d 00 ff ff ff 	mov    rbx,QWORD PTR [rbp-0x100]
   208be:	4c 8b ad f0 fe ff ff 	mov    r13,QWORD PTR [rbp-0x110]
   208c5:	4c 8b bd f8 fe ff ff 	mov    r15,QWORD PTR [rbp-0x108]
   208cc:	74 0a                	je     208d8 <Java_com_adjust_sdk_sig_NativeLibHelper_nOnResume@@Base-0x9a3cb>
   208ce:	48 ba 5f fd 73 55 3e 	movabs rdx,0x33b6223e5573fd5f
   208d5:	22 b6 33 
   208d8:	8a 45 ce             	mov    al,BYTE PTR [rbp-0x32]
   208db:	88 45 cf             	mov    BYTE PTR [rbp-0x31],al
   208de:	48 8b 85 50 ff ff ff 	mov    rax,QWORD PTR [rbp-0xb0]
   208e5:	48 89 85 70 ff ff ff 	mov    QWORD PTR [rbp-0x90],rax
   208ec:	48 8b 85 60 ff ff ff 	mov    rax,QWORD PTR [rbp-0xa0]
   208f3:	48 89 85 78 ff ff ff 	mov    QWORD PTR [rbp-0x88],rax
   208fa:	4c 89 c0             	mov    rax,r8
   208fd:	4c 89 45 80          	mov    QWORD PTR [rbp-0x80],r8
   20901:	4c 89 4d 88          	mov    QWORD PTR [rbp-0x78],r9
   20905:	48 8b 85 48 ff ff ff 	mov    rax,QWORD PTR [rbp-0xb8]
   2090c:	48 89 45 90          	mov    QWORD PTR [rbp-0x70],rax
   20910:	48 8b 85 58 ff ff ff 	mov    rax,QWORD PTR [rbp-0xa8]
   20917:	48 89 45 98          	mov    QWORD PTR [rbp-0x68],rax
   2091b:	48 8b 85 30 ff ff ff 	mov    rax,QWORD PTR [rbp-0xd0]
   20922:	48 89 45 a0          	mov    QWORD PTR [rbp-0x60],rax
   20926:	48 8b 85 28 ff ff ff 	mov    rax,QWORD PTR [rbp-0xd8]
   2092d:	48 89 45 a8          	mov    QWORD PTR [rbp-0x58],rax
   20931:	48 8b 85 40 ff ff ff 	mov    rax,QWORD PTR [rbp-0xc0]
   20938:	48 89 45 b0          	mov    QWORD PTR [rbp-0x50],rax
   2093c:	48 8b 85 08 ff ff ff 	mov    rax,QWORD PTR [rbp-0xf8]
   20943:	48 8b 8d 10 ff ff ff 	mov    rcx,QWORD PTR [rbp-0xf0]
   2094a:	48 89 4d b8          	mov    QWORD PTR [rbp-0x48],rcx
   2094e:	48 8b 8d 20 ff ff ff 	mov    rcx,QWORD PTR [rbp-0xe0]
   20955:	48 89 4d c0          	mov    QWORD PTR [rbp-0x40],rcx
   20959:	4c 8b 9d 18 ff ff ff 	mov    r11,QWORD PTR [rbp-0xe8]
   20960:	4c 8b 95 38 ff ff ff 	mov    r10,QWORD PTR [rbp-0xc8]
   20967:	4c 8b b5 58 fd ff ff 	mov    r14,QWORD PTR [rbp-0x2a8]
   2096e:	4c 89 b5 38 fd ff ff 	mov    QWORD PTR [rbp-0x2c8],r14
   20975:	e9 b3 92 ff ff       	jmp    19c2d <Java_com_adjust_sdk_sig_NativeLibHelper_nOnResume@@Base-0xa1076>
   2097a:	8a 45 ce             	mov    al,BYTE PTR [rbp-0x32]
   2097d:	88 45 cf             	mov    BYTE PTR [rbp-0x31],al
   20980:	48 8b 85 50 ff ff ff 	mov    rax,QWORD PTR [rbp-0xb0]
   20987:	48 89 85 70 ff ff ff 	mov    QWORD PTR [rbp-0x90],rax
   2098e:	48 8b 85 60 ff ff ff 	mov    rax,QWORD PTR [rbp-0xa0]
   20995:	48 89 85 78 ff ff ff 	mov    QWORD PTR [rbp-0x88],rax
   2099c:	4c 89 c0             	mov    rax,r8
   2099f:	4c 89 45 80          	mov    QWORD PTR [rbp-0x80],r8
   209a3:	4c 89 4d 88          	mov    QWORD PTR [rbp-0x78],r9
   209a7:	48 8b 85 48 ff ff ff 	mov    rax,QWORD PTR [rbp-0xb8]
   209ae:	48 89 45 90          	mov    QWORD PTR [rbp-0x70],rax
   209b2:	48 8b 85 58 ff ff ff 	mov    rax,QWORD PTR [rbp-0xa8]
   209b9:	48 89 45 98          	mov    QWORD PTR [rbp-0x68],rax
   209bd:	48 8b 85 30 ff ff ff 	mov    rax,QWORD PTR [rbp-0xd0]
   209c4:	48 89 45 a0          	mov    QWORD PTR [rbp-0x60],rax
   209c8:	48 8b 85 28 ff ff ff 	mov    rax,QWORD PTR [rbp-0xd8]
   209cf:	48 89 45 a8          	mov    QWORD PTR [rbp-0x58],rax
   209d3:	48 8b 85 40 ff ff ff 	mov    rax,QWORD PTR [rbp-0xc0]
   209da:	48 89 45 b0          	mov    QWORD PTR [rbp-0x50],rax
   209de:	48 8b 85 08 ff ff ff 	mov    rax,QWORD PTR [rbp-0xf8]
   209e5:	48 8b 8d 10 ff ff ff 	mov    rcx,QWORD PTR [rbp-0xf0]
   209ec:	48 89 4d b8          	mov    QWORD PTR [rbp-0x48],rcx
   209f0:	4c 8b bd f8 fe ff ff 	mov    r15,QWORD PTR [rbp-0x108]
   209f7:	4c 8b ad f0 fe ff ff 	mov    r13,QWORD PTR [rbp-0x110]
   209fe:	48 8b 9d 00 ff ff ff 	mov    rbx,QWORD PTR [rbp-0x100]
   20a05:	4c 8b 95 38 ff ff ff 	mov    r10,QWORD PTR [rbp-0xc8]
   20a0c:	8a 55 cd             	mov    dl,BYTE PTR [rbp-0x33]
   20a0f:	89 d6                	mov    esi,edx
   20a11:	48 8b 95 a0 fd ff ff 	mov    rdx,QWORD PTR [rbp-0x260]
   20a18:	48 89 95 18 fe ff ff 	mov    QWORD PTR [rbp-0x1e8],rdx
   20a1f:	6a 01                	push   0x1
   20a21:	41 58                	pop    r8
   20a23:	4c 89 45 c0          	mov    QWORD PTR [rbp-0x40],r8
   20a27:	4c 8b 9d 80 fd ff ff 	mov    r11,QWORD PTR [rbp-0x280]
   20a2e:	48 ba f9 ee 42 72 b3 	movabs rdx,0x7ec488b37242eef9
   20a35:	88 c4 7e 
   20a38:	e9 f0 91 ff ff       	jmp    19c2d <Java_com_adjust_sdk_sig_NativeLibHelper_nOnResume@@Base-0xa1076>
   20a3d:	0f 28 05 8c b0 11 00 	movaps xmm0,XMMWORD PTR [rip+0x11b08c]        # 13bad0 <write@plt+0x8f50>
   20a44:	0f 57 05 f5 33 fe ff 	xorps  xmm0,XMMWORD PTR [rip+0xfffffffffffe33f5]        # 3e40 <Java_com_adjust_sdk_sig_NativeLibHelper_nOnResume@@Base-0xb6e63>
   20a4b:	0f 29 05 7e b0 11 00 	movaps XMMWORD PTR [rip+0x11b07e],xmm0        # 13bad0 <write@plt+0x8f50>
   20a52:	c6 05 d4 e2 11 00 01 	mov    BYTE PTR [rip+0x11e2d4],0x1        # 13ed2d <write@plt+0xc1ad>
   20a59:	8a 45 ce             	mov    al,BYTE PTR [rbp-0x32]
   20a5c:	88 45 cf             	mov    BYTE PTR [rbp-0x31],al
   20a5f:	48 8b 85 50 ff ff ff 	mov    rax,QWORD PTR [rbp-0xb0]
   20a66:	48 89 85 70 ff ff ff 	mov    QWORD PTR [rbp-0x90],rax
   20a6d:	48 8b 85 60 ff ff ff 	mov    rax,QWORD PTR [rbp-0xa0]
   20a74:	48 89 85 78 ff ff ff 	mov    QWORD PTR [rbp-0x88],rax
   20a7b:	48 8b 85 e0 fe ff ff 	mov    rax,QWORD PTR [rbp-0x120]
   20a82:	48 89 45 80          	mov    QWORD PTR [rbp-0x80],rax
   20a86:	48 8b 85 e8 fe ff ff 	mov    rax,QWORD PTR [rbp-0x118]
   20a8d:	48 89 45 88          	mov    QWORD PTR [rbp-0x78],rax
   20a91:	48 8b 85 48 ff ff ff 	mov    rax,QWORD PTR [rbp-0xb8]
   20a98:	48 89 45 90          	mov    QWORD PTR [rbp-0x70],rax
   20a9c:	48 8b 85 58 ff ff ff 	mov    rax,QWORD PTR [rbp-0xa8]
   20aa3:	48 89 45 98          	mov    QWORD PTR [rbp-0x68],rax
   20aa7:	48 89 55 a0          	mov    QWORD PTR [rbp-0x60],rdx
   20aab:	4c 89 45 a8          	mov    QWORD PTR [rbp-0x58],r8
   20aaf:	48 89 4d b0          	mov    QWORD PTR [rbp-0x50],rcx
   20ab3:	4c 89 e0             	mov    rax,r12
   20ab6:	48 89 7d b8          	mov    QWORD PTR [rbp-0x48],rdi
   20aba:	4c 89 4d c0          	mov    QWORD PTR [rbp-0x40],r9
   20abe:	48 ba 72 44 7c ec c4 	movabs rdx,0x6f022dc4ec7c4472
   20ac5:	2d 02 6f 
   20ac8:	e9 60 91 ff ff       	jmp    19c2d <Java_com_adjust_sdk_sig_NativeLibHelper_nOnResume@@Base-0xa1076>
   20acd:	8b 85 e4 fd ff ff    	mov    eax,DWORD PTR [rbp-0x21c]
   20ad3:	c1 e0 08             	shl    eax,0x8
   20ad6:	89 85 90 fe ff ff    	mov    DWORD PTR [rbp-0x170],eax
   20adc:	8a 45 ce             	mov    al,BYTE PTR [rbp-0x32]
   20adf:	88 45 cf             	mov    BYTE PTR [rbp-0x31],al
   20ae2:	48 8b 85 50 ff ff ff 	mov    rax,QWORD PTR [rbp-0xb0]
   20ae9:	48 89 85 70 ff ff ff 	mov    QWORD PTR [rbp-0x90],rax
   20af0:	48 8b 85 60 ff ff ff 	mov    rax,QWORD PTR [rbp-0xa0]
   20af7:	48 89 85 78 ff ff ff 	mov    QWORD PTR [rbp-0x88],rax
   20afe:	4c 89 c0             	mov    rax,r8
   20b01:	4c 89 45 80          	mov    QWORD PTR [rbp-0x80],r8
   20b05:	4c 89 4d 88          	mov    QWORD PTR [rbp-0x78],r9
   20b09:	48 8b 85 48 ff ff ff 	mov    rax,QWORD PTR [rbp-0xb8]
   20b10:	48 89 45 90          	mov    QWORD PTR [rbp-0x70],rax
   20b14:	48 8b 85 58 ff ff ff 	mov    rax,QWORD PTR [rbp-0xa8]
   20b1b:	48 89 45 98          	mov    QWORD PTR [rbp-0x68],rax
   20b1f:	48 8b 85 30 ff ff ff 	mov    rax,QWORD PTR [rbp-0xd0]
   20b26:	48 89 45 a0          	mov    QWORD PTR [rbp-0x60],rax
   20b2a:	48 8b 85 28 ff ff ff 	mov    rax,QWORD PTR [rbp-0xd8]
   20b31:	48 89 45 a8          	mov    QWORD PTR [rbp-0x58],rax
   20b35:	48 8b 85 40 ff ff ff 	mov    rax,QWORD PTR [rbp-0xc0]
   20b3c:	48 89 45 b0          	mov    QWORD PTR [rbp-0x50],rax
   20b40:	48 8b 85 08 ff ff ff 	mov    rax,QWORD PTR [rbp-0xf8]
   20b47:	48 8b 8d 10 ff ff ff 	mov    rcx,QWORD PTR [rbp-0xf0]
   20b4e:	48 89 4d b8          	mov    QWORD PTR [rbp-0x48],rcx
   20b52:	48 8b 8d 20 ff ff ff 	mov    rcx,QWORD PTR [rbp-0xe0]
   20b59:	48 89 4d c0          	mov    QWORD PTR [rbp-0x40],rcx
   20b5d:	4c 8b 9d 18 ff ff ff 	mov    r11,QWORD PTR [rbp-0xe8]
   20b64:	4c 8b 95 38 ff ff ff 	mov    r10,QWORD PTR [rbp-0xc8]
   20b6b:	48 8b 95 68 fc ff ff 	mov    rdx,QWORD PTR [rbp-0x398]
   20b72:	40 8a 72 01          	mov    sil,BYTE PTR [rdx+0x1]
   20b76:	40 88 b5 dd fe ff ff 	mov    BYTE PTR [rbp-0x123],sil
   20b7d:	44 89 e6             	mov    esi,r12d
   20b80:	48 ff c2             	inc    rdx
   20b83:	e9 ef 1e 00 00       	jmp    22a77 <Java_com_adjust_sdk_sig_NativeLibHelper_nOnResume@@Base-0x9822c>
   20b88:	48 8b 85 38 fd ff ff 	mov    rax,QWORD PTR [rbp-0x2c8]
   20b8f:	48 2b 85 28 fc ff ff 	sub    rax,QWORD PTR [rbp-0x3d8]
   20b96:	48 89 85 00 fd ff ff 	mov    QWORD PTR [rbp-0x300],rax
   20b9d:	8a 45 ce             	mov    al,BYTE PTR [rbp-0x32]
   20ba0:	88 45 cf             	mov    BYTE PTR [rbp-0x31],al
   20ba3:	48 8b 85 50 ff ff ff 	mov    rax,QWORD PTR [rbp-0xb0]
   20baa:	48 89 85 70 ff ff ff 	mov    QWORD PTR [rbp-0x90],rax
   20bb1:	48 8b 85 60 ff ff ff 	mov    rax,QWORD PTR [rbp-0xa0]
   20bb8:	48 89 85 78 ff ff ff 	mov    QWORD PTR [rbp-0x88],rax
   20bbf:	4c 89 c0             	mov    rax,r8
   20bc2:	4c 89 45 80          	mov    QWORD PTR [rbp-0x80],r8
   20bc6:	4c 89 4d 88          	mov    QWORD PTR [rbp-0x78],r9
   20bca:	48 8b 85 48 ff ff ff 	mov    rax,QWORD PTR [rbp-0xb8]
   20bd1:	48 89 45 90          	mov    QWORD PTR [rbp-0x70],rax
   20bd5:	48 8b 85 58 ff ff ff 	mov    rax,QWORD PTR [rbp-0xa8]
   20bdc:	48 89 45 98          	mov    QWORD PTR [rbp-0x68],rax
   20be0:	48 8b 85 30 ff ff ff 	mov    rax,QWORD PTR [rbp-0xd0]
   20be7:	48 89 45 a0          	mov    QWORD PTR [rbp-0x60],rax
   20beb:	48 8b 85 28 ff ff ff 	mov    rax,QWORD PTR [rbp-0xd8]
   20bf2:	48 89 45 a8          	mov    QWORD PTR [rbp-0x58],rax
   20bf6:	48 8b 85 40 ff ff ff 	mov    rax,QWORD PTR [rbp-0xc0]
   20bfd:	48 89 45 b0          	mov    QWORD PTR [rbp-0x50],rax
   20c01:	48 8b 85 08 ff ff ff 	mov    rax,QWORD PTR [rbp-0xf8]
   20c08:	48 8b 8d 10 ff ff ff 	mov    rcx,QWORD PTR [rbp-0xf0]
   20c0f:	48 89 4d b8          	mov    QWORD PTR [rbp-0x48],rcx
   20c13:	48 8b 8d 20 ff ff ff 	mov    rcx,QWORD PTR [rbp-0xe0]
   20c1a:	48 89 4d c0          	mov    QWORD PTR [rbp-0x40],rcx
   20c1e:	4c 8b 9d 18 ff ff ff 	mov    r11,QWORD PTR [rbp-0xe8]
   20c25:	4c 8b 95 38 ff ff ff 	mov    r10,QWORD PTR [rbp-0xc8]
   20c2c:	44 89 e6             	mov    esi,r12d
   20c2f:	48 ba e4 ae 4c ce 55 	movabs rdx,0xd22d0855ce4caee4
   20c36:	08 2d d2 
   20c39:	e9 ef 8f ff ff       	jmp    19c2d <Java_com_adjust_sdk_sig_NativeLibHelper_nOnResume@@Base-0xa1076>
   20c3e:	0f 28 05 ab ae 11 00 	movaps xmm0,XMMWORD PTR [rip+0x11aeab]        # 13baf0 <write@plt+0x8f70>
   20c45:	0f 57 05 94 33 fe ff 	xorps  xmm0,XMMWORD PTR [rip+0xfffffffffffe3394]        # 3fe0 <Java_com_adjust_sdk_sig_NativeLibHelper_nOnResume@@Base-0xb6cc3>
   20c4c:	0f 29 05 9d ae 11 00 	movaps XMMWORD PTR [rip+0x11ae9d],xmm0        # 13baf0 <write@plt+0x8f70>
   20c53:	48 b8 19 19 19 19 19 	movabs rax,0x1919191919191919
   20c5a:	19 19 19 
   20c5d:	48 31 05 9c ae 11 00 	xor    QWORD PTR [rip+0x11ae9c],rax        # 13bb00 <write@plt+0x8f80>
   20c64:	f2 0f 10 05 9c ae 11 	movsd  xmm0,QWORD PTR [rip+0x11ae9c]        # 13bb08 <write@plt+0x8f88>
   20c6b:	00 
   20c6c:	0f 57 05 dd 2b fe ff 	xorps  xmm0,XMMWORD PTR [rip+0xfffffffffffe2bdd]        # 3850 <Java_com_adjust_sdk_sig_NativeLibHelper_nOnResume@@Base-0xb7453>
   20c73:	f3 0f 11 05 8d ae 11 	movss  DWORD PTR [rip+0x11ae8d],xmm0        # 13bb08 <write@plt+0x8f88>
   20c7a:	00 
   20c7b:	80 35 8a ae 11 00 19 	xor    BYTE PTR [rip+0x11ae8a],0x19        # 13bb0c <write@plt+0x8f8c>
   20c82:	80 35 84 ae 11 00 19 	xor    BYTE PTR [rip+0x11ae84],0x19        # 13bb0d <write@plt+0x8f8d>
   20c89:	80 35 7e ae 11 00 19 	xor    BYTE PTR [rip+0x11ae7e],0x19        # 13bb0e <write@plt+0x8f8e>
   20c90:	c6 05 9c e0 11 00 01 	mov    BYTE PTR [rip+0x11e09c],0x1        # 13ed33 <write@plt+0xc1b3>
   20c97:	8a 45 ce             	mov    al,BYTE PTR [rbp-0x32]
   20c9a:	88 45 cf             	mov    BYTE PTR [rbp-0x31],al
   20c9d:	48 8b 85 50 ff ff ff 	mov    rax,QWORD PTR [rbp-0xb0]
   20ca4:	48 89 85 70 ff ff ff 	mov    QWORD PTR [rbp-0x90],rax
   20cab:	48 8b 85 60 ff ff ff 	mov    rax,QWORD PTR [rbp-0xa0]
   20cb2:	48 89 85 78 ff ff ff 	mov    QWORD PTR [rbp-0x88],rax
   20cb9:	4c 89 c0             	mov    rax,r8
   20cbc:	4c 89 45 80          	mov    QWORD PTR [rbp-0x80],r8
   20cc0:	4c 89 4d 88          	mov    QWORD PTR [rbp-0x78],r9
   20cc4:	48 8b 85 48 ff ff ff 	mov    rax,QWORD PTR [rbp-0xb8]
   20ccb:	48 89 45 90          	mov    QWORD PTR [rbp-0x70],rax
   20ccf:	48 8b 85 58 ff ff ff 	mov    rax,QWORD PTR [rbp-0xa8]
   20cd6:	48 89 45 98          	mov    QWORD PTR [rbp-0x68],rax
   20cda:	48 89 55 a0          	mov    QWORD PTR [rbp-0x60],rdx
   20cde:	4c 89 5d a8          	mov    QWORD PTR [rbp-0x58],r11
   20ce2:	48 8b 85 40 ff ff ff 	mov    rax,QWORD PTR [rbp-0xc0]
   20ce9:	48 89 45 b0          	mov    QWORD PTR [rbp-0x50],rax
   20ced:	48 8b 85 08 ff ff ff 	mov    rax,QWORD PTR [rbp-0xf8]
   20cf4:	48 8b 8d 10 ff ff ff 	mov    rcx,QWORD PTR [rbp-0xf0]
   20cfb:	48 89 4d b8          	mov    QWORD PTR [rbp-0x48],rcx
   20cff:	48 8b 8d 20 ff ff ff 	mov    rcx,QWORD PTR [rbp-0xe0]
   20d06:	48 89 4d c0          	mov    QWORD PTR [rbp-0x40],rcx
   20d0a:	4c 8b 9d 18 ff ff ff 	mov    r11,QWORD PTR [rbp-0xe8]
   20d11:	4c 8b 95 38 ff ff ff 	mov    r10,QWORD PTR [rbp-0xc8]
   20d18:	44 89 e6             	mov    esi,r12d
   20d1b:	48 ba 4b c4 0a 99 13 	movabs rdx,0x13e17013990ac44b
   20d22:	70 e1 13 
   20d25:	e9 03 8f ff ff       	jmp    19c2d <Java_com_adjust_sdk_sig_NativeLibHelper_nOnResume@@Base-0xa1076>
   20d2a:	4c 8b a5 48 ff ff ff 	mov    r12,QWORD PTR [rbp-0xb8]
   20d31:	48 8b 85 40 fe ff ff 	mov    rax,QWORD PTR [rbp-0x1c0]
   20d38:	48 83 38 00          	cmp    QWORD PTR [rax],0x0
   20d3c:	48 ba 09 23 38 c1 b8 	movabs rdx,0x2100f9b8c1382309
   20d43:	f9 00 21 
   20d46:	40 8a 75 cd          	mov    sil,BYTE PTR [rbp-0x33]
   20d4a:	4c 8b 95 38 ff ff ff 	mov    r10,QWORD PTR [rbp-0xc8]
   20d51:	48 8b 9d 00 ff ff ff 	mov    rbx,QWORD PTR [rbp-0x100]
   20d58:	4c 8b ad f0 fe ff ff 	mov    r13,QWORD PTR [rbp-0x110]
   20d5f:	4c 8b bd f8 fe ff ff 	mov    r15,QWORD PTR [rbp-0x108]
   20d66:	4c 8b 8d 18 ff ff ff 	mov    r9,QWORD PTR [rbp-0xe8]
   20d6d:	4c 8b 85 20 ff ff ff 	mov    r8,QWORD PTR [rbp-0xe0]
   20d74:	48 8b bd 10 ff ff ff 	mov    rdi,QWORD PTR [rbp-0xf0]
   20d7b:	48 8b 8d 08 ff ff ff 	mov    rcx,QWORD PTR [rbp-0xf8]
   20d82:	48 8b 85 40 ff ff ff 	mov    rax,QWORD PTR [rbp-0xc0]
   20d89:	74 0a                	je     20d95 <Java_com_adjust_sdk_sig_NativeLibHelper_nOnResume@@Base-0x99f0e>
   20d8b:	48 ba a9 de 82 33 49 	movabs rdx,0x944c92493382dea9
   20d92:	92 4c 94 
   20d95:	4c 8b b5 70 fe ff ff 	mov    r14,QWORD PTR [rbp-0x190]
   20d9c:	49 83 66 08 00       	and    QWORD PTR [r14+0x8],0x0
   20da1:	44 8a 5d ce          	mov    r11b,BYTE PTR [rbp-0x32]
   20da5:	44 88 5d cf          	mov    BYTE PTR [rbp-0x31],r11b
   20da9:	4c 8b 9d 50 ff ff ff 	mov    r11,QWORD PTR [rbp-0xb0]
   20db0:	4c 89 9d 70 ff ff ff 	mov    QWORD PTR [rbp-0x90],r11
   20db7:	4c 8b 9d 60 ff ff ff 	mov    r11,QWORD PTR [rbp-0xa0]
   20dbe:	4c 89 9d 78 ff ff ff 	mov    QWORD PTR [rbp-0x88],r11
   20dc5:	4c 8b 9d e0 fe ff ff 	mov    r11,QWORD PTR [rbp-0x120]
   20dcc:	4c 89 5d 80          	mov    QWORD PTR [rbp-0x80],r11
   20dd0:	4c 8b 9d e8 fe ff ff 	mov    r11,QWORD PTR [rbp-0x118]
   20dd7:	4c 89 5d 88          	mov    QWORD PTR [rbp-0x78],r11
   20ddb:	4c 89 65 90          	mov    QWORD PTR [rbp-0x70],r12
   20ddf:	4c 8b 9d 58 ff ff ff 	mov    r11,QWORD PTR [rbp-0xa8]
   20de6:	4c 89 5d 98          	mov    QWORD PTR [rbp-0x68],r11
   20dea:	4c 8b 9d 30 ff ff ff 	mov    r11,QWORD PTR [rbp-0xd0]
   20df1:	4c 89 5d a0          	mov    QWORD PTR [rbp-0x60],r11
   20df5:	4c 8b 9d 28 ff ff ff 	mov    r11,QWORD PTR [rbp-0xd8]
   20dfc:	4c 89 5d a8          	mov    QWORD PTR [rbp-0x58],r11
   20e00:	48 89 45 b0          	mov    QWORD PTR [rbp-0x50],rax
   20e04:	48 89 c8             	mov    rax,rcx
   20e07:	48 89 7d b8          	mov    QWORD PTR [rbp-0x48],rdi
   20e0b:	4c 89 45 c0          	mov    QWORD PTR [rbp-0x40],r8
   20e0f:	4d 89 cb             	mov    r11,r9
   20e12:	49 83 c6 08          	add    r14,0x8
   20e16:	4c 89 b5 48 fd ff ff 	mov    QWORD PTR [rbp-0x2b8],r14
   20e1d:	e9 0b 8e ff ff       	jmp    19c2d <Java_com_adjust_sdk_sig_NativeLibHelper_nOnResume@@Base-0xa1076>
   20e22:	48 8b 85 00 fd ff ff 	mov    rax,QWORD PTR [rbp-0x300]
   20e29:	48 ff c8             	dec    rax
   20e2c:	48 89 85 58 fe ff ff 	mov    QWORD PTR [rbp-0x1a8],rax
   20e33:	48 ba 0a 06 39 4e fb 	movabs rdx,0x86d47bfb4e39060a
   20e3a:	7b d4 86 
   20e3d:	48 b8 3c 6c 44 a4 dd 	movabs rax,0x970d3edda4446c3c
   20e44:	3e 0d 97 
   20e47:	48 0f 44 d0          	cmove  rdx,rax
   20e4b:	8a 45 ce             	mov    al,BYTE PTR [rbp-0x32]
   20e4e:	88 45 cf             	mov    BYTE PTR [rbp-0x31],al
   20e51:	48 8b 85 50 ff ff ff 	mov    rax,QWORD PTR [rbp-0xb0]
   20e58:	48 89 85 70 ff ff ff 	mov    QWORD PTR [rbp-0x90],rax
   20e5f:	48 8b 85 60 ff ff ff 	mov    rax,QWORD PTR [rbp-0xa0]
   20e66:	48 89 85 78 ff ff ff 	mov    QWORD PTR [rbp-0x88],rax
   20e6d:	48 8b 85 e0 fe ff ff 	mov    rax,QWORD PTR [rbp-0x120]
   20e74:	48 89 45 80          	mov    QWORD PTR [rbp-0x80],rax
   20e78:	48 8b 85 e8 fe ff ff 	mov    rax,QWORD PTR [rbp-0x118]
   20e7f:	48 89 45 88          	mov    QWORD PTR [rbp-0x78],rax
   20e83:	48 8b 85 48 ff ff ff 	mov    rax,QWORD PTR [rbp-0xb8]
   20e8a:	48 89 45 90          	mov    QWORD PTR [rbp-0x70],rax
   20e8e:	48 8b 85 58 ff ff ff 	mov    rax,QWORD PTR [rbp-0xa8]
   20e95:	48 89 45 98          	mov    QWORD PTR [rbp-0x68],rax
   20e99:	48 8b 85 30 ff ff ff 	mov    rax,QWORD PTR [rbp-0xd0]
   20ea0:	48 89 45 a0          	mov    QWORD PTR [rbp-0x60],rax
   20ea4:	48 8b 85 28 ff ff ff 	mov    rax,QWORD PTR [rbp-0xd8]
   20eab:	48 89 45 a8          	mov    QWORD PTR [rbp-0x58],rax
   20eaf:	4c 89 65 b0          	mov    QWORD PTR [rbp-0x50],r12
   20eb3:	e9 6b 19 00 00       	jmp    22823 <Java_com_adjust_sdk_sig_NativeLibHelper_nOnResume@@Base-0x98480>
   20eb8:	8a 45 ce             	mov    al,BYTE PTR [rbp-0x32]
   20ebb:	88 45 cf             	mov    BYTE PTR [rbp-0x31],al
   20ebe:	48 8b 85 50 ff ff ff 	mov    rax,QWORD PTR [rbp-0xb0]
   20ec5:	48 89 85 70 ff ff ff 	mov    QWORD PTR [rbp-0x90],rax
   20ecc:	48 8b 85 60 ff ff ff 	mov    rax,QWORD PTR [rbp-0xa0]
   20ed3:	48 89 85 78 ff ff ff 	mov    QWORD PTR [rbp-0x88],rax
   20eda:	48 8b 85 68 fe ff ff 	mov    rax,QWORD PTR [rbp-0x198]
   20ee1:	4c 01 c8             	add    rax,r9
   20ee4:	48 89 85 40 fd ff ff 	mov    QWORD PTR [rbp-0x2c0],rax
   20eeb:	4c 89 4d 88          	mov    QWORD PTR [rbp-0x78],r9
   20eef:	48 8b 85 48 ff ff ff 	mov    rax,QWORD PTR [rbp-0xb8]
   20ef6:	48 89 45 90          	mov    QWORD PTR [rbp-0x70],rax
   20efa:	48 8b 85 58 ff ff ff 	mov    rax,QWORD PTR [rbp-0xa8]
   20f01:	48 89 45 98          	mov    QWORD PTR [rbp-0x68],rax
   20f05:	48 89 55 a0          	mov    QWORD PTR [rbp-0x60],rdx
   20f09:	4c 89 c0             	mov    rax,r8
   20f0c:	4c 89 45 80          	mov    QWORD PTR [rbp-0x80],r8
   20f10:	4c 89 85 50 fd ff ff 	mov    QWORD PTR [rbp-0x2b0],r8
   20f17:	4c 89 5d a8          	mov    QWORD PTR [rbp-0x58],r11
   20f1b:	48 8b 85 40 ff ff ff 	mov    rax,QWORD PTR [rbp-0xc0]
   20f22:	48 89 45 b0          	mov    QWORD PTR [rbp-0x50],rax
   20f26:	48 8b 85 08 ff ff ff 	mov    rax,QWORD PTR [rbp-0xf8]
   20f2d:	48 8b 8d 10 ff ff ff 	mov    rcx,QWORD PTR [rbp-0xf0]
   20f34:	48 89 4d b8          	mov    QWORD PTR [rbp-0x48],rcx
   20f38:	48 8b 8d 20 ff ff ff 	mov    rcx,QWORD PTR [rbp-0xe0]
   20f3f:	48 89 4d c0          	mov    QWORD PTR [rbp-0x40],rcx
   20f43:	4c 8b 9d 18 ff ff ff 	mov    r11,QWORD PTR [rbp-0xe8]
   20f4a:	4c 8b 95 38 ff ff ff 	mov    r10,QWORD PTR [rbp-0xc8]
   20f51:	44 89 e6             	mov    esi,r12d
   20f54:	48 8b 95 40 fc ff ff 	mov    rdx,QWORD PTR [rbp-0x3c0]
   20f5b:	48 89 95 60 fd ff ff 	mov    QWORD PTR [rbp-0x2a0],rdx
   20f62:	48 ba 7a e0 4d ab 1c 	movabs rdx,0x9aae581cab4de07a
   20f69:	58 ae 9a 
   20f6c:	e9 bc 8c ff ff       	jmp    19c2d <Java_com_adjust_sdk_sig_NativeLibHelper_nOnResume@@Base-0xa1076>
   20f71:	31 c0                	xor    eax,eax
   20f73:	b1 01                	mov    cl,0x1
   20f75:	f0 0f b0 0d 09 e0 11 	lock cmpxchg BYTE PTR [rip+0x11e009],cl        # 13ef86 <write@plt+0xc406>
   20f7c:	00 
   20f7d:	48 ba 41 bf 77 6f bd 	movabs rdx,0x6a1c41bd6f77bf41
   20f84:	41 1c 6a 
   20f87:	40 8a 75 cd          	mov    sil,BYTE PTR [rbp-0x33]
   20f8b:	4c 8b 95 38 ff ff ff 	mov    r10,QWORD PTR [rbp-0xc8]
   20f92:	48 8b 9d 00 ff ff ff 	mov    rbx,QWORD PTR [rbp-0x100]
   20f99:	4c 8b ad f0 fe ff ff 	mov    r13,QWORD PTR [rbp-0x110]
   20fa0:	4c 8b bd f8 fe ff ff 	mov    r15,QWORD PTR [rbp-0x108]
   20fa7:	4c 8b 8d 18 ff ff ff 	mov    r9,QWORD PTR [rbp-0xe8]
   20fae:	4c 8b 85 20 ff ff ff 	mov    r8,QWORD PTR [rbp-0xe0]
   20fb5:	48 8b bd 10 ff ff ff 	mov    rdi,QWORD PTR [rbp-0xf0]
   20fbc:	48 8b 8d 08 ff ff ff 	mov    rcx,QWORD PTR [rbp-0xf8]
   20fc3:	48 8b 85 40 ff ff ff 	mov    rax,QWORD PTR [rbp-0xc0]
   20fca:	0f 84 e9 17 00 00    	je     227b9 <Java_com_adjust_sdk_sig_NativeLibHelper_nOnResume@@Base-0x984ea>
   20fd0:	48 ba 40 25 82 b4 11 	movabs rdx,0xa1a30d11b4822540
   20fd7:	0d a3 a1 
   20fda:	e9 da 17 00 00       	jmp    227b9 <Java_com_adjust_sdk_sig_NativeLibHelper_nOnResume@@Base-0x984ea>
   20fdf:	48 8b 95 50 fc ff ff 	mov    rdx,QWORD PTR [rbp-0x3b0]
   20fe6:	0f b6 42 01          	movzx  eax,BYTE PTR [rdx+0x1]
   20fea:	89 85 ac fe ff ff    	mov    DWORD PTR [rbp-0x154],eax
   20ff0:	0b 85 f4 fd ff ff    	or     eax,DWORD PTR [rbp-0x20c]
   20ff6:	c1 e0 08             	shl    eax,0x8
   20ff9:	89 85 94 fe ff ff    	mov    DWORD PTR [rbp-0x16c],eax
   20fff:	8a 45 ce             	mov    al,BYTE PTR [rbp-0x32]
   21002:	88 45 cf             	mov    BYTE PTR [rbp-0x31],al
   21005:	48 8b 85 50 ff ff ff 	mov    rax,QWORD PTR [rbp-0xb0]
   2100c:	48 89 85 70 ff ff ff 	mov    QWORD PTR [rbp-0x90],rax
   21013:	48 8b 85 60 ff ff ff 	mov    rax,QWORD PTR [rbp-0xa0]
   2101a:	48 89 85 78 ff ff ff 	mov    QWORD PTR [rbp-0x88],rax
   21021:	4c 89 f0             	mov    rax,r14
   21024:	4c 89 75 80          	mov    QWORD PTR [rbp-0x80],r14
   21028:	4c 89 4d 88          	mov    QWORD PTR [rbp-0x78],r9
   2102c:	48 8b 85 48 ff ff ff 	mov    rax,QWORD PTR [rbp-0xb8]
   21033:	48 89 45 90          	mov    QWORD PTR [rbp-0x70],rax
   21037:	48 8b 85 58 ff ff ff 	mov    rax,QWORD PTR [rbp-0xa8]
   2103e:	48 89 45 98          	mov    QWORD PTR [rbp-0x68],rax
   21042:	48 8b 85 30 ff ff ff 	mov    rax,QWORD PTR [rbp-0xd0]
   21049:	48 89 45 a0          	mov    QWORD PTR [rbp-0x60],rax
   2104d:	48 8b 85 28 ff ff ff 	mov    rax,QWORD PTR [rbp-0xd8]
   21054:	48 89 45 a8          	mov    QWORD PTR [rbp-0x58],rax
   21058:	48 8b 85 40 ff ff ff 	mov    rax,QWORD PTR [rbp-0xc0]
   2105f:	48 89 45 b0          	mov    QWORD PTR [rbp-0x50],rax
   21063:	48 8b 85 08 ff ff ff 	mov    rax,QWORD PTR [rbp-0xf8]
   2106a:	48 8b 8d 10 ff ff ff 	mov    rcx,QWORD PTR [rbp-0xf0]
   21071:	48 89 4d b8          	mov    QWORD PTR [rbp-0x48],rcx
   21075:	48 8b 8d 20 ff ff ff 	mov    rcx,QWORD PTR [rbp-0xe0]
   2107c:	48 89 4d c0          	mov    QWORD PTR [rbp-0x40],rcx
   21080:	4c 8b 9d 18 ff ff ff 	mov    r11,QWORD PTR [rbp-0xe8]
   21087:	4c 8b bd f8 fe ff ff 	mov    r15,QWORD PTR [rbp-0x108]
   2108e:	4c 8b ad f0 fe ff ff 	mov    r13,QWORD PTR [rbp-0x110]
   21095:	48 8b 9d 00 ff ff ff 	mov    rbx,QWORD PTR [rbp-0x100]
   2109c:	4c 8b 95 38 ff ff ff 	mov    r10,QWORD PTR [rbp-0xc8]
   210a3:	40 8a 75 cd          	mov    sil,BYTE PTR [rbp-0x33]
   210a7:	48 ff c2             	inc    rdx
   210aa:	e9 1f 05 00 00       	jmp    215ce <Java_com_adjust_sdk_sig_NativeLibHelper_nOnResume@@Base-0x996d5>
   210af:	48 8b 85 a0 fe ff ff 	mov    rax,QWORD PTR [rbp-0x160]
   210b6:	8a 40 03             	mov    al,BYTE PTR [rax+0x3]
   210b9:	48 ba 2d 2f 9f 35 ce 	movabs rdx,0x988f0ece359f2f2d
   210c0:	0e 8f 98 
   210c3:	88 85 cf fe ff ff    	mov    BYTE PTR [rbp-0x131],al
   210c9:	84 c0                	test   al,al
   210cb:	40 8a 75 cd          	mov    sil,BYTE PTR [rbp-0x33]
   210cf:	4c 8b 95 38 ff ff ff 	mov    r10,QWORD PTR [rbp-0xc8]
   210d6:	48 8b 9d 00 ff ff ff 	mov    rbx,QWORD PTR [rbp-0x100]
   210dd:	4c 8b ad f0 fe ff ff 	mov    r13,QWORD PTR [rbp-0x110]
   210e4:	4c 8b bd f8 fe ff ff 	mov    r15,QWORD PTR [rbp-0x108]
   210eb:	4c 8b 8d 18 ff ff ff 	mov    r9,QWORD PTR [rbp-0xe8]
   210f2:	4c 8b 85 20 ff ff ff 	mov    r8,QWORD PTR [rbp-0xe0]
   210f9:	48 8b bd 10 ff ff ff 	mov    rdi,QWORD PTR [rbp-0xf0]
   21100:	48 8b 8d 08 ff ff ff 	mov    rcx,QWORD PTR [rbp-0xf8]
   21107:	48 8b 85 40 ff ff ff 	mov    rax,QWORD PTR [rbp-0xc0]
   2110e:	74 0a                	je     2111a <Java_com_adjust_sdk_sig_NativeLibHelper_nOnResume@@Base-0x99b89>
   21110:	48 ba 61 4d 39 20 29 	movabs rdx,0xfe92e12920394d61
   21117:	e1 92 fe 
   2111a:	44 8a 5d ce          	mov    r11b,BYTE PTR [rbp-0x32]
   2111e:	44 88 5d cf          	mov    BYTE PTR [rbp-0x31],r11b
   21122:	4c 8b 9d 50 ff ff ff 	mov    r11,QWORD PTR [rbp-0xb0]
   21129:	4c 89 9d 70 ff ff ff 	mov    QWORD PTR [rbp-0x90],r11
   21130:	4c 8b 9d 60 ff ff ff 	mov    r11,QWORD PTR [rbp-0xa0]
   21137:	4c 89 9d 78 ff ff ff 	mov    QWORD PTR [rbp-0x88],r11
   2113e:	4c 8b 9d e0 fe ff ff 	mov    r11,QWORD PTR [rbp-0x120]
   21145:	4c 89 5d 80          	mov    QWORD PTR [rbp-0x80],r11
   21149:	4c 8b 9d e8 fe ff ff 	mov    r11,QWORD PTR [rbp-0x118]
   21150:	4c 89 5d 88          	mov    QWORD PTR [rbp-0x78],r11
   21154:	4c 8b 9d 48 ff ff ff 	mov    r11,QWORD PTR [rbp-0xb8]
   2115b:	4c 89 5d 90          	mov    QWORD PTR [rbp-0x70],r11
   2115f:	4c 8b 9d 58 ff ff ff 	mov    r11,QWORD PTR [rbp-0xa8]
   21166:	4c 89 5d 98          	mov    QWORD PTR [rbp-0x68],r11
   2116a:	4c 8b 9d 30 ff ff ff 	mov    r11,QWORD PTR [rbp-0xd0]
   21171:	4c 89 5d a0          	mov    QWORD PTR [rbp-0x60],r11
   21175:	4c 8b 9d 28 ff ff ff 	mov    r11,QWORD PTR [rbp-0xd8]
   2117c:	4c 89 5d a8          	mov    QWORD PTR [rbp-0x58],r11
   21180:	48 89 45 b0          	mov    QWORD PTR [rbp-0x50],rax
   21184:	48 89 c8             	mov    rax,rcx
   21187:	48 89 7d b8          	mov    QWORD PTR [rbp-0x48],rdi
   2118b:	4c 89 45 c0          	mov    QWORD PTR [rbp-0x40],r8
   2118f:	4d 89 cb             	mov    r11,r9
   21192:	4c 8b b5 a0 fe ff ff 	mov    r14,QWORD PTR [rbp-0x160]
   21199:	49 83 c6 03          	add    r14,0x3
   2119d:	4c 89 b5 48 fc ff ff 	mov    QWORD PTR [rbp-0x3b8],r14
   211a4:	e9 84 8a ff ff       	jmp    19c2d <Java_com_adjust_sdk_sig_NativeLibHelper_nOnResume@@Base-0xa1076>
   211a9:	48 8b 85 50 fe ff ff 	mov    rax,QWORD PTR [rbp-0x1b0]
   211b0:	80 38 00             	cmp    BYTE PTR [rax],0x0
   211b3:	48 ba da 06 62 6c 90 	movabs rdx,0x818029906c6206da
   211ba:	29 80 81 
   211bd:	40 8a 75 cd          	mov    sil,BYTE PTR [rbp-0x33]
   211c1:	4c 8b 95 38 ff ff ff 	mov    r10,QWORD PTR [rbp-0xc8]
   211c8:	48 8b 9d 00 ff ff ff 	mov    rbx,QWORD PTR [rbp-0x100]
   211cf:	4c 8b ad f0 fe ff ff 	mov    r13,QWORD PTR [rbp-0x110]
   211d6:	4c 8b bd f8 fe ff ff 	mov    r15,QWORD PTR [rbp-0x108]
   211dd:	4c 8b 8d 18 ff ff ff 	mov    r9,QWORD PTR [rbp-0xe8]
   211e4:	4c 8b 85 20 ff ff ff 	mov    r8,QWORD PTR [rbp-0xe0]
   211eb:	48 8b bd 10 ff ff ff 	mov    rdi,QWORD PTR [rbp-0xf0]
   211f2:	48 8b 8d 08 ff ff ff 	mov    rcx,QWORD PTR [rbp-0xf8]
   211f9:	48 8b 85 40 ff ff ff 	mov    rax,QWORD PTR [rbp-0xc0]
   21200:	0f 84 b3 15 00 00    	je     227b9 <Java_com_adjust_sdk_sig_NativeLibHelper_nOnResume@@Base-0x984ea>
   21206:	48 ba 1d 25 e9 88 08 	movabs rdx,0x21baec0888e9251d
   2120d:	ec ba 21 
   21210:	e9 a4 15 00 00       	jmp    227b9 <Java_com_adjust_sdk_sig_NativeLibHelper_nOnResume@@Base-0x984ea>
   21215:	48 8b 85 a0 fe ff ff 	mov    rax,QWORD PTR [rbp-0x160]
   2121c:	8a 40 02             	mov    al,BYTE PTR [rax+0x2]
   2121f:	48 ba f5 ee 10 e3 5b 	movabs rdx,0x4c81a55be310eef5
   21226:	a5 81 4c 
   21229:	88 85 cc fe ff ff    	mov    BYTE PTR [rbp-0x134],al
   2122f:	84 c0                	test   al,al
   21231:	40 8a 75 cd          	mov    sil,BYTE PTR [rbp-0x33]
   21235:	4c 8b 95 38 ff ff ff 	mov    r10,QWORD PTR [rbp-0xc8]
   2123c:	48 8b 9d 00 ff ff ff 	mov    rbx,QWORD PTR [rbp-0x100]
   21243:	4c 8b ad f0 fe ff ff 	mov    r13,QWORD PTR [rbp-0x110]
   2124a:	4c 8b bd f8 fe ff ff 	mov    r15,QWORD PTR [rbp-0x108]
   21251:	4c 8b 9d 18 ff ff ff 	mov    r11,QWORD PTR [rbp-0xe8]
   21258:	4c 8b 85 20 ff ff ff 	mov    r8,QWORD PTR [rbp-0xe0]
   2125f:	48 8b 8d 08 ff ff ff 	mov    rcx,QWORD PTR [rbp-0xf8]
   21266:	48 8b 85 40 ff ff ff 	mov    rax,QWORD PTR [rbp-0xc0]
   2126d:	74 0a                	je     21279 <Java_com_adjust_sdk_sig_NativeLibHelper_nOnResume@@Base-0x99a2a>
   2126f:	48 ba ba c5 28 51 81 	movabs rdx,0x550006815128c5ba
   21276:	06 00 55 
   21279:	40 8a 7d ce          	mov    dil,BYTE PTR [rbp-0x32]
   2127d:	40 88 7d cf          	mov    BYTE PTR [rbp-0x31],dil
   21281:	48 8b bd 50 ff ff ff 	mov    rdi,QWORD PTR [rbp-0xb0]
   21288:	48 89 bd 70 ff ff ff 	mov    QWORD PTR [rbp-0x90],rdi
   2128f:	48 8b bd 60 ff ff ff 	mov    rdi,QWORD PTR [rbp-0xa0]
   21296:	48 89 bd 78 ff ff ff 	mov    QWORD PTR [rbp-0x88],rdi
   2129d:	48 8b bd e0 fe ff ff 	mov    rdi,QWORD PTR [rbp-0x120]
   212a4:	48 89 7d 80          	mov    QWORD PTR [rbp-0x80],rdi
   212a8:	48 8b bd e8 fe ff ff 	mov    rdi,QWORD PTR [rbp-0x118]
   212af:	48 89 7d 88          	mov    QWORD PTR [rbp-0x78],rdi
   212b3:	48 8b bd 48 ff ff ff 	mov    rdi,QWORD PTR [rbp-0xb8]
   212ba:	48 89 7d 90          	mov    QWORD PTR [rbp-0x70],rdi
   212be:	48 8b bd 58 ff ff ff 	mov    rdi,QWORD PTR [rbp-0xa8]
   212c5:	48 89 7d 98          	mov    QWORD PTR [rbp-0x68],rdi
   212c9:	48 8b bd 30 ff ff ff 	mov    rdi,QWORD PTR [rbp-0xd0]
   212d0:	48 89 7d a0          	mov    QWORD PTR [rbp-0x60],rdi
   212d4:	48 8b bd 28 ff ff ff 	mov    rdi,QWORD PTR [rbp-0xd8]
   212db:	48 89 7d a8          	mov    QWORD PTR [rbp-0x58],rdi
   212df:	48 89 45 b0          	mov    QWORD PTR [rbp-0x50],rax
   212e3:	48 89 c8             	mov    rax,rcx
   212e6:	48 8b 8d 10 ff ff ff 	mov    rcx,QWORD PTR [rbp-0xf0]
   212ed:	48 89 4d b8          	mov    QWORD PTR [rbp-0x48],rcx
   212f1:	4c 89 45 c0          	mov    QWORD PTR [rbp-0x40],r8
   212f5:	4c 8b b5 a0 fe ff ff 	mov    r14,QWORD PTR [rbp-0x160]
   212fc:	49 83 c6 02          	add    r14,0x2
   21300:	4c 89 b5 38 fc ff ff 	mov    QWORD PTR [rbp-0x3c8],r14
   21307:	e9 21 89 ff ff       	jmp    19c2d <Java_com_adjust_sdk_sig_NativeLibHelper_nOnResume@@Base-0xa1076>
   2130c:	8a 45 ce             	mov    al,BYTE PTR [rbp-0x32]
   2130f:	88 45 cf             	mov    BYTE PTR [rbp-0x31],al
   21312:	48 8b 85 50 ff ff ff 	mov    rax,QWORD PTR [rbp-0xb0]
   21319:	48 89 85 70 ff ff ff 	mov    QWORD PTR [rbp-0x90],rax
   21320:	48 8b 85 60 ff ff ff 	mov    rax,QWORD PTR [rbp-0xa0]
   21327:	48 89 85 78 ff ff ff 	mov    QWORD PTR [rbp-0x88],rax
   2132e:	4c 89 c0             	mov    rax,r8
   21331:	4c 89 45 80          	mov    QWORD PTR [rbp-0x80],r8
   21335:	4c 89 4d 88          	mov    QWORD PTR [rbp-0x78],r9
   21339:	48 8b 85 48 ff ff ff 	mov    rax,QWORD PTR [rbp-0xb8]
   21340:	48 89 45 90          	mov    QWORD PTR [rbp-0x70],rax
   21344:	48 8b 85 58 ff ff ff 	mov    rax,QWORD PTR [rbp-0xa8]
   2134b:	48 89 45 98          	mov    QWORD PTR [rbp-0x68],rax
   2134f:	48 89 4d a0          	mov    QWORD PTR [rbp-0x60],rcx
   21353:	4c 89 5d a8          	mov    QWORD PTR [rbp-0x58],r11
   21357:	48 8b 85 40 ff ff ff 	mov    rax,QWORD PTR [rbp-0xc0]
   2135e:	48 89 85 e0 fc ff ff 	mov    QWORD PTR [rbp-0x320],rax
   21365:	48 89 45 b0          	mov    QWORD PTR [rbp-0x50],rax
   21369:	48 8b 85 08 ff ff ff 	mov    rax,QWORD PTR [rbp-0xf8]
   21370:	48 89 c1             	mov    rcx,rax
   21373:	48 89 85 e8 fc ff ff 	mov    QWORD PTR [rbp-0x318],rax
   2137a:	48 8b 8d 10 ff ff ff 	mov    rcx,QWORD PTR [rbp-0xf0]
   21381:	48 89 4d b8          	mov    QWORD PTR [rbp-0x48],rcx
   21385:	48 8b 8d 20 ff ff ff 	mov    rcx,QWORD PTR [rbp-0xe0]
   2138c:	48 89 4d c0          	mov    QWORD PTR [rbp-0x40],rcx
   21390:	4c 8b 9d 18 ff ff ff 	mov    r11,QWORD PTR [rbp-0xe8]
   21397:	4c 8b 95 38 ff ff ff 	mov    r10,QWORD PTR [rbp-0xc8]
   2139e:	44 89 e6             	mov    esi,r12d
   213a1:	6a 01                	push   0x1
   213a3:	5a                   	pop    rdx
   213a4:	e9 b9 08 00 00       	jmp    21c62 <Java_com_adjust_sdk_sig_NativeLibHelper_nOnResume@@Base-0x99041>
   213a9:	48 8b 85 20 fd ff ff 	mov    rax,QWORD PTR [rbp-0x2e0]
   213b0:	8a 00                	mov    al,BYTE PTR [rax]
   213b2:	48 ba be da 80 96 f3 	movabs rdx,0x29286ef39680dabe
   213b9:	6e 28 29 
   213bc:	48 8b 8d 28 fd ff ff 	mov    rcx,QWORD PTR [rbp-0x2d8]
   213c3:	3a 01                	cmp    al,BYTE PTR [rcx]
   213c5:	40 8a 75 cd          	mov    sil,BYTE PTR [rbp-0x33]
   213c9:	4c 8b 95 38 ff ff ff 	mov    r10,QWORD PTR [rbp-0xc8]
   213d0:	48 8b 9d 00 ff ff ff 	mov    rbx,QWORD PTR [rbp-0x100]
   213d7:	4c 8b ad f0 fe ff ff 	mov    r13,QWORD PTR [rbp-0x110]
   213de:	4c 8b bd f8 fe ff ff 	mov    r15,QWORD PTR [rbp-0x108]
   213e5:	4c 8b 8d 18 ff ff ff 	mov    r9,QWORD PTR [rbp-0xe8]
   213ec:	4c 8b 85 20 ff ff ff 	mov    r8,QWORD PTR [rbp-0xe0]
   213f3:	48 8b bd 10 ff ff ff 	mov    rdi,QWORD PTR [rbp-0xf0]
   213fa:	48 8b 8d 08 ff ff ff 	mov    rcx,QWORD PTR [rbp-0xf8]
   21401:	48 8b 85 40 ff ff ff 	mov    rax,QWORD PTR [rbp-0xc0]
   21408:	0f 84 ab 13 00 00    	je     227b9 <Java_com_adjust_sdk_sig_NativeLibHelper_nOnResume@@Base-0x984ea>
   2140e:	48 ba 31 c4 bf 8b a2 	movabs rdx,0x7c0cc7a28bbfc431
   21415:	c7 0c 7c 
   21418:	e9 9c 13 00 00       	jmp    227b9 <Java_com_adjust_sdk_sig_NativeLibHelper_nOnResume@@Base-0x984ea>
   2141d:	4c 8b 9d 48 ff ff ff 	mov    r11,QWORD PTR [rbp-0xb8]
   21424:	48 ba 48 af 86 ed ea 	movabs rdx,0x1df7beaed86af48
   2142b:	7b df 01 
   2142e:	44 8b b5 94 fe ff ff 	mov    r14d,DWORD PTR [rbp-0x16c]
   21435:	44 3b b5 f0 fd ff ff 	cmp    r14d,DWORD PTR [rbp-0x210]
   2143c:	75 0a                	jne    21448 <Java_com_adjust_sdk_sig_NativeLibHelper_nOnResume@@Base-0x9985b>
   2143e:	48 ba b5 79 69 c4 df 	movabs rdx,0xde15c4dfc46979b5
   21445:	c4 15 de 
   21448:	80 bd ac fe ff ff 00 	cmp    BYTE PTR [rbp-0x154],0x0
   2144f:	48 b8 b5 79 69 c4 df 	movabs rax,0xde15c4dfc46979b5
   21456:	c4 15 de 
   21459:	48 0f 44 d0          	cmove  rdx,rax
   2145d:	8a 45 ce             	mov    al,BYTE PTR [rbp-0x32]
   21460:	88 45 cf             	mov    BYTE PTR [rbp-0x31],al
   21463:	48 8b 85 50 ff ff ff 	mov    rax,QWORD PTR [rbp-0xb0]
   2146a:	48 89 85 70 ff ff ff 	mov    QWORD PTR [rbp-0x90],rax
   21471:	48 8b 85 60 ff ff ff 	mov    rax,QWORD PTR [rbp-0xa0]
   21478:	48 89 85 78 ff ff ff 	mov    QWORD PTR [rbp-0x88],rax
   2147f:	48 8b 85 e0 fe ff ff 	mov    rax,QWORD PTR [rbp-0x120]
   21486:	48 89 45 80          	mov    QWORD PTR [rbp-0x80],rax
   2148a:	48 8b 85 e8 fe ff ff 	mov    rax,QWORD PTR [rbp-0x118]
   21491:	48 89 45 88          	mov    QWORD PTR [rbp-0x78],rax
   21495:	4c 89 5d 90          	mov    QWORD PTR [rbp-0x70],r11
   21499:	48 8b 85 58 ff ff ff 	mov    rax,QWORD PTR [rbp-0xa8]
   214a0:	48 89 45 98          	mov    QWORD PTR [rbp-0x68],rax
   214a4:	48 8b 85 30 ff ff ff 	mov    rax,QWORD PTR [rbp-0xd0]
   214ab:	48 89 45 a0          	mov    QWORD PTR [rbp-0x60],rax
   214af:	48 8b 85 28 ff ff ff 	mov    rax,QWORD PTR [rbp-0xd8]
   214b6:	48 89 45 a8          	mov    QWORD PTR [rbp-0x58],rax
   214ba:	4c 89 65 b0          	mov    QWORD PTR [rbp-0x50],r12
   214be:	48 89 c8             	mov    rax,rcx
   214c1:	48 89 7d b8          	mov    QWORD PTR [rbp-0x48],rdi
   214c5:	4c 89 45 c0          	mov    QWORD PTR [rbp-0x40],r8
   214c9:	4d 89 cb             	mov    r11,r9
   214cc:	0f 95 85 d2 fe ff ff 	setne  BYTE PTR [rbp-0x12e]
   214d3:	4c 8b a5 c0 fd ff ff 	mov    r12,QWORD PTR [rbp-0x240]
   214da:	4c 89 a5 50 fc ff ff 	mov    QWORD PTR [rbp-0x3b0],r12
   214e1:	44 89 b5 f4 fd ff ff 	mov    DWORD PTR [rbp-0x20c],r14d
   214e8:	e9 40 87 ff ff       	jmp    19c2d <Java_com_adjust_sdk_sig_NativeLibHelper_nOnResume@@Base-0xa1076>
   214ed:	8b 85 84 fe ff ff    	mov    eax,DWORD PTR [rbp-0x17c]
   214f3:	c1 e0 18             	shl    eax,0x18
   214f6:	8b 95 88 fe ff ff    	mov    edx,DWORD PTR [rbp-0x178]
   214fc:	c1 e2 10             	shl    edx,0x10
   214ff:	09 c2                	or     edx,eax
   21501:	8b b5 d8 fd ff ff    	mov    esi,DWORD PTR [rbp-0x228]
   21507:	c1 e6 08             	shl    esi,0x8
   2150a:	09 d6                	or     esi,edx
   2150c:	8b 85 dc fd ff ff    	mov    eax,DWORD PTR [rbp-0x224]
   21512:	c1 e0 10             	shl    eax,0x10
   21515:	8b 95 d4 fd ff ff    	mov    edx,DWORD PTR [rbp-0x22c]
   2151b:	c1 e2 08             	shl    edx,0x8
   2151e:	09 c2                	or     edx,eax
   21520:	48 8b 85 98 fe ff ff 	mov    rax,QWORD PTR [rbp-0x168]
   21527:	0f b6 00             	movzx  eax,BYTE PTR [rax]
   2152a:	c1 e0 18             	shl    eax,0x18
   2152d:	09 c2                	or     edx,eax
   2152f:	8a 45 ce             	mov    al,BYTE PTR [rbp-0x32]
   21532:	88 45 cf             	mov    BYTE PTR [rbp-0x31],al
   21535:	89 b5 f0 fd ff ff    	mov    DWORD PTR [rbp-0x210],esi
   2153b:	48 8b 85 50 ff ff ff 	mov    rax,QWORD PTR [rbp-0xb0]
   21542:	48 89 85 70 ff ff ff 	mov    QWORD PTR [rbp-0x90],rax
   21549:	48 8b 85 60 ff ff ff 	mov    rax,QWORD PTR [rbp-0xa0]
   21550:	48 89 85 78 ff ff ff 	mov    QWORD PTR [rbp-0x88],rax
   21557:	4c 89 c0             	mov    rax,r8
   2155a:	4c 89 45 80          	mov    QWORD PTR [rbp-0x80],r8
   2155e:	4c 89 4d 88          	mov    QWORD PTR [rbp-0x78],r9
   21562:	48 8b 85 48 ff ff ff 	mov    rax,QWORD PTR [rbp-0xb8]
   21569:	48 89 45 90          	mov    QWORD PTR [rbp-0x70],rax
   2156d:	48 8b 85 58 ff ff ff 	mov    rax,QWORD PTR [rbp-0xa8]
   21574:	48 89 45 98          	mov    QWORD PTR [rbp-0x68],rax
   21578:	48 89 4d a0          	mov    QWORD PTR [rbp-0x60],rcx
   2157c:	4c 89 5d a8          	mov    QWORD PTR [rbp-0x58],r11
   21580:	48 8b 85 40 ff ff ff 	mov    rax,QWORD PTR [rbp-0xc0]
   21587:	48 89 45 b0          	mov    QWORD PTR [rbp-0x50],rax
   2158b:	48 8b 85 08 ff ff ff 	mov    rax,QWORD PTR [rbp-0xf8]
   21592:	48 8b 8d 10 ff ff ff 	mov    rcx,QWORD PTR [rbp-0xf0]
   21599:	48 89 4d b8          	mov    QWORD PTR [rbp-0x48],rcx
   2159d:	48 8b 8d 20 ff ff ff 	mov    rcx,QWORD PTR [rbp-0xe0]
   215a4:	48 89 4d c0          	mov    QWORD PTR [rbp-0x40],rcx
   215a8:	4c 8b 9d 18 ff ff ff 	mov    r11,QWORD PTR [rbp-0xe8]
   215af:	89 95 94 fe ff ff    	mov    DWORD PTR [rbp-0x16c],edx
   215b5:	4c 8b 95 38 ff ff ff 	mov    r10,QWORD PTR [rbp-0xc8]
   215bc:	44 89 e6             	mov    esi,r12d
   215bf:	b2 01                	mov    dl,0x1
   215c1:	89 95 ac fe ff ff    	mov    DWORD PTR [rbp-0x154],edx
   215c7:	48 8b 95 38 fc ff ff 	mov    rdx,QWORD PTR [rbp-0x3c8]
   215ce:	48 89 95 c0 fd ff ff 	mov    QWORD PTR [rbp-0x240],rdx
   215d5:	48 ba 72 70 99 84 23 	movabs rdx,0x1c53132384997072
   215dc:	13 53 1c 
   215df:	e9 49 86 ff ff       	jmp    19c2d <Java_com_adjust_sdk_sig_NativeLibHelper_nOnResume@@Base-0xa1076>
   215e4:	48 8b 85 88 fc ff ff 	mov    rax,QWORD PTR [rbp-0x378]
   215eb:	c6 00 00             	mov    BYTE PTR [rax],0x0
   215ee:	8a 45 ce             	mov    al,BYTE PTR [rbp-0x32]
   215f1:	88 45 cf             	mov    BYTE PTR [rbp-0x31],al
   215f4:	48 8b 85 50 ff ff ff 	mov    rax,QWORD PTR [rbp-0xb0]
   215fb:	48 89 85 70 ff ff ff 	mov    QWORD PTR [rbp-0x90],rax
   21602:	48 8b 85 60 ff ff ff 	mov    rax,QWORD PTR [rbp-0xa0]
   21609:	48 89 85 78 ff ff ff 	mov    QWORD PTR [rbp-0x88],rax
   21610:	48 8b 85 e0 fe ff ff 	mov    rax,QWORD PTR [rbp-0x120]
   21617:	48 89 45 80          	mov    QWORD PTR [rbp-0x80],rax
   2161b:	48 8b 85 e8 fe ff ff 	mov    rax,QWORD PTR [rbp-0x118]
   21622:	48 89 45 88          	mov    QWORD PTR [rbp-0x78],rax
   21626:	48 8b 85 48 ff ff ff 	mov    rax,QWORD PTR [rbp-0xb8]
   2162d:	48 89 45 90          	mov    QWORD PTR [rbp-0x70],rax
   21631:	48 8b 85 58 ff ff ff 	mov    rax,QWORD PTR [rbp-0xa8]
   21638:	48 89 45 98          	mov    QWORD PTR [rbp-0x68],rax
   2163c:	48 8b 85 30 ff ff ff 	mov    rax,QWORD PTR [rbp-0xd0]
   21643:	48 89 45 a0          	mov    QWORD PTR [rbp-0x60],rax
   21647:	48 8b 85 28 ff ff ff 	mov    rax,QWORD PTR [rbp-0xd8]
   2164e:	48 89 45 a8          	mov    QWORD PTR [rbp-0x58],rax
   21652:	4c 89 65 b0          	mov    QWORD PTR [rbp-0x50],r12
   21656:	48 89 c8             	mov    rax,rcx
   21659:	48 89 7d b8          	mov    QWORD PTR [rbp-0x48],rdi
   2165d:	4c 89 45 c0          	mov    QWORD PTR [rbp-0x40],r8
   21661:	4d 89 cb             	mov    r11,r9
   21664:	48 8b 95 58 fe ff ff 	mov    rdx,QWORD PTR [rbp-0x1a8]
   2166b:	48 89 95 00 fd ff ff 	mov    QWORD PTR [rbp-0x300],rdx
   21672:	48 ba e4 ae 4c ce 55 	movabs rdx,0xd22d0855ce4caee4
   21679:	08 2d d2 
   2167c:	e9 ac 85 ff ff       	jmp    19c2d <Java_com_adjust_sdk_sig_NativeLibHelper_nOnResume@@Base-0xa1076>
   21681:	8a 45 ce             	mov    al,BYTE PTR [rbp-0x32]
   21684:	88 45 cf             	mov    BYTE PTR [rbp-0x31],al
   21687:	48 8b 85 50 ff ff ff 	mov    rax,QWORD PTR [rbp-0xb0]
   2168e:	48 89 85 70 ff ff ff 	mov    QWORD PTR [rbp-0x90],rax
   21695:	48 8b 85 60 ff ff ff 	mov    rax,QWORD PTR [rbp-0xa0]
   2169c:	48 89 85 78 ff ff ff 	mov    QWORD PTR [rbp-0x88],rax
   216a3:	4c 89 c0             	mov    rax,r8
   216a6:	4c 89 45 80          	mov    QWORD PTR [rbp-0x80],r8
   216aa:	4c 89 4d 88          	mov    QWORD PTR [rbp-0x78],r9
   216ae:	48 8b 85 48 ff ff ff 	mov    rax,QWORD PTR [rbp-0xb8]
   216b5:	48 89 45 90          	mov    QWORD PTR [rbp-0x70],rax
   216b9:	48 8b 85 58 ff ff ff 	mov    rax,QWORD PTR [rbp-0xa8]
   216c0:	48 89 45 98          	mov    QWORD PTR [rbp-0x68],rax
   216c4:	48 8b 85 30 ff ff ff 	mov    rax,QWORD PTR [rbp-0xd0]
   216cb:	48 89 45 a0          	mov    QWORD PTR [rbp-0x60],rax
   216cf:	48 8b 85 28 ff ff ff 	mov    rax,QWORD PTR [rbp-0xd8]
   216d6:	48 89 45 a8          	mov    QWORD PTR [rbp-0x58],rax
   216da:	48 8b 85 40 ff ff ff 	mov    rax,QWORD PTR [rbp-0xc0]
   216e1:	48 89 45 b0          	mov    QWORD PTR [rbp-0x50],rax
   216e5:	48 8b 85 08 ff ff ff 	mov    rax,QWORD PTR [rbp-0xf8]
   216ec:	48 8b 8d 10 ff ff ff 	mov    rcx,QWORD PTR [rbp-0xf0]
   216f3:	48 89 4d b8          	mov    QWORD PTR [rbp-0x48],rcx
   216f7:	48 8b 8d 20 ff ff ff 	mov    rcx,QWORD PTR [rbp-0xe0]
   216fe:	48 89 4d c0          	mov    QWORD PTR [rbp-0x40],rcx
   21702:	4c 8b 9d 18 ff ff ff 	mov    r11,QWORD PTR [rbp-0xe8]
   21709:	4c 8b bd f8 fe ff ff 	mov    r15,QWORD PTR [rbp-0x108]
   21710:	4c 8b ad f0 fe ff ff 	mov    r13,QWORD PTR [rbp-0x110]
   21717:	48 8b 9d 00 ff ff ff 	mov    rbx,QWORD PTR [rbp-0x100]
   2171e:	4c 8b 95 38 ff ff ff 	mov    r10,QWORD PTR [rbp-0xc8]
   21725:	8a 55 cd             	mov    dl,BYTE PTR [rbp-0x33]
   21728:	89 d6                	mov    esi,edx
   2172a:	48 8b 95 70 fc ff ff 	mov    rdx,QWORD PTR [rbp-0x390]
   21731:	48 ff ca             	dec    rdx
   21734:	48 89 95 90 fd ff ff 	mov    QWORD PTR [rbp-0x270],rdx
   2173b:	48 8b 95 20 fd ff ff 	mov    rdx,QWORD PTR [rbp-0x2e0]
   21742:	48 ff c2             	inc    rdx
   21745:	48 89 95 98 fd ff ff 	mov    QWORD PTR [rbp-0x268],rdx
   2174c:	48 8b 95 28 fd ff ff 	mov    rdx,QWORD PTR [rbp-0x2d8]
   21753:	48 ff c2             	inc    rdx
   21756:	48 89 95 88 fd ff ff 	mov    QWORD PTR [rbp-0x278],rdx
   2175d:	48 ba 2b dc fc d1 73 	movabs rdx,0xadb4c673d1fcdc2b
   21764:	c6 b4 ad 
   21767:	e9 c1 84 ff ff       	jmp    19c2d <Java_com_adjust_sdk_sig_NativeLibHelper_nOnResume@@Base-0xa1076>
   2176c:	48 8d 05 a0 a3 11 00 	lea    rax,[rip+0x11a3a0]        # 13bb13 <write@plt+0x8f93>
   21773:	48 8b 9d 00 ff ff ff 	mov    rbx,QWORD PTR [rbp-0x100]
   2177a:	48 39 c3             	cmp    rbx,rax
   2177d:	48 ba 3a 64 6a c7 0f 	movabs rdx,0x63e9f80fc76a643a
   21784:	f8 e9 63 
   21787:	48 b8 4a a5 a6 a9 75 	movabs rax,0x93f94775a9a6a54a
   2178e:	47 f9 93 
   21791:	48 0f 44 d0          	cmove  rdx,rax
   21795:	8a 45 ce             	mov    al,BYTE PTR [rbp-0x32]
   21798:	88 45 cf             	mov    BYTE PTR [rbp-0x31],al
   2179b:	48 8b 85 50 ff ff ff 	mov    rax,QWORD PTR [rbp-0xb0]
   217a2:	48 89 85 70 ff ff ff 	mov    QWORD PTR [rbp-0x90],rax
   217a9:	48 8b 85 60 ff ff ff 	mov    rax,QWORD PTR [rbp-0xa0]
   217b0:	48 89 85 78 ff ff ff 	mov    QWORD PTR [rbp-0x88],rax
   217b7:	48 89 c8             	mov    rax,rcx
   217ba:	48 89 4d 80          	mov    QWORD PTR [rbp-0x80],rcx
   217be:	4c 89 4d 88          	mov    QWORD PTR [rbp-0x78],r9
   217c2:	48 8b 85 48 ff ff ff 	mov    rax,QWORD PTR [rbp-0xb8]
   217c9:	48 89 45 90          	mov    QWORD PTR [rbp-0x70],rax
   217cd:	48 8b 85 58 ff ff ff 	mov    rax,QWORD PTR [rbp-0xa8]
   217d4:	48 89 45 98          	mov    QWORD PTR [rbp-0x68],rax
   217d8:	48 8b 85 30 ff ff ff 	mov    rax,QWORD PTR [rbp-0xd0]
   217df:	48 89 45 a0          	mov    QWORD PTR [rbp-0x60],rax
   217e3:	48 8b 85 28 ff ff ff 	mov    rax,QWORD PTR [rbp-0xd8]
   217ea:	48 89 45 a8          	mov    QWORD PTR [rbp-0x58],rax
   217ee:	48 8b 85 40 ff ff ff 	mov    rax,QWORD PTR [rbp-0xc0]
   217f5:	48 89 45 b0          	mov    QWORD PTR [rbp-0x50],rax
   217f9:	48 8b 85 08 ff ff ff 	mov    rax,QWORD PTR [rbp-0xf8]
   21800:	48 8b 8d 10 ff ff ff 	mov    rcx,QWORD PTR [rbp-0xf0]
   21807:	48 89 4d b8          	mov    QWORD PTR [rbp-0x48],rcx
   2180b:	48 8b 8d 20 ff ff ff 	mov    rcx,QWORD PTR [rbp-0xe0]
   21812:	48 89 4d c0          	mov    QWORD PTR [rbp-0x40],rcx
   21816:	4c 8b 9d 18 ff ff ff 	mov    r11,QWORD PTR [rbp-0xe8]
   2181d:	4c 8b bd f8 fe ff ff 	mov    r15,QWORD PTR [rbp-0x108]
   21824:	4c 8b ad f0 fe ff ff 	mov    r13,QWORD PTR [rbp-0x110]
   2182b:	e9 78 ea ff ff       	jmp    202a8 <Java_com_adjust_sdk_sig_NativeLibHelper_nOnResume@@Base-0x9a9fb>
   21830:	8a 45 ce             	mov    al,BYTE PTR [rbp-0x32]
   21833:	88 45 cf             	mov    BYTE PTR [rbp-0x31],al
   21836:	48 8b 85 50 ff ff ff 	mov    rax,QWORD PTR [rbp-0xb0]
   2183d:	48 89 85 70 ff ff ff 	mov    QWORD PTR [rbp-0x90],rax
   21844:	48 8b 85 60 ff ff ff 	mov    rax,QWORD PTR [rbp-0xa0]
   2184b:	48 89 85 78 ff ff ff 	mov    QWORD PTR [rbp-0x88],rax
   21852:	4c 89 75 80          	mov    QWORD PTR [rbp-0x80],r14
   21856:	4c 89 4d 88          	mov    QWORD PTR [rbp-0x78],r9
   2185a:	48 8b 85 48 ff ff ff 	mov    rax,QWORD PTR [rbp-0xb8]
   21861:	48 89 45 90          	mov    QWORD PTR [rbp-0x70],rax
   21865:	48 8b 85 58 ff ff ff 	mov    rax,QWORD PTR [rbp-0xa8]
   2186c:	48 89 45 98          	mov    QWORD PTR [rbp-0x68],rax
   21870:	48 8b 85 30 ff ff ff 	mov    rax,QWORD PTR [rbp-0xd0]
   21877:	48 89 45 a0          	mov    QWORD PTR [rbp-0x60],rax
   2187b:	48 8b 85 28 ff ff ff 	mov    rax,QWORD PTR [rbp-0xd8]
   21882:	48 89 45 a8          	mov    QWORD PTR [rbp-0x58],rax
   21886:	48 8b 85 40 ff ff ff 	mov    rax,QWORD PTR [rbp-0xc0]
   2188d:	48 89 45 b0          	mov    QWORD PTR [rbp-0x50],rax
   21891:	48 8b 85 08 ff ff ff 	mov    rax,QWORD PTR [rbp-0xf8]
   21898:	48 8b 8d 10 ff ff ff 	mov    rcx,QWORD PTR [rbp-0xf0]
   2189f:	48 89 4d b8          	mov    QWORD PTR [rbp-0x48],rcx
   218a3:	48 8b 8d 20 ff ff ff 	mov    rcx,QWORD PTR [rbp-0xe0]
   218aa:	48 89 4d c0          	mov    QWORD PTR [rbp-0x40],rcx
   218ae:	4c 8b 9d 18 ff ff ff 	mov    r11,QWORD PTR [rbp-0xe8]
   218b5:	4c 8b bd f8 fe ff ff 	mov    r15,QWORD PTR [rbp-0x108]
   218bc:	4c 8b ad f0 fe ff ff 	mov    r13,QWORD PTR [rbp-0x110]
   218c3:	48 8b 9d 00 ff ff ff 	mov    rbx,QWORD PTR [rbp-0x100]
   218ca:	4c 8b 95 38 ff ff ff 	mov    r10,QWORD PTR [rbp-0xc8]
   218d1:	8a 55 cd             	mov    dl,BYTE PTR [rbp-0x33]
   218d4:	89 d6                	mov    esi,edx
   218d6:	48 8b 95 38 fe ff ff 	mov    rdx,QWORD PTR [rbp-0x1c8]
   218dd:	48 ff c2             	inc    rdx
   218e0:	48 89 95 08 fd ff ff 	mov    QWORD PTR [rbp-0x2f8],rdx
   218e7:	48 ba 73 ca 09 20 fe 	movabs rdx,0x7bded1fe2009ca73
   218ee:	d1 de 7b 
   218f1:	e9 37 83 ff ff       	jmp    19c2d <Java_com_adjust_sdk_sig_NativeLibHelper_nOnResume@@Base-0xa1076>
   218f6:	48 8b 85 b0 fe ff ff 	mov    rax,QWORD PTR [rbp-0x150]
   218fd:	48 8b 8d 58 fe ff ff 	mov    rcx,QWORD PTR [rbp-0x1a8]
   21904:	80 3c 08 2f          	cmp    BYTE PTR [rax+rcx*1],0x2f
   21908:	48 ba 1d 1b 8c 0c b6 	movabs rdx,0xd8d214b60c8c1b1d
   2190f:	14 d2 d8 
   21912:	40 8a 75 cd          	mov    sil,BYTE PTR [rbp-0x33]
   21916:	4c 8b 95 38 ff ff ff 	mov    r10,QWORD PTR [rbp-0xc8]
   2191d:	48 8b 9d 00 ff ff ff 	mov    rbx,QWORD PTR [rbp-0x100]
   21924:	4c 8b ad f0 fe ff ff 	mov    r13,QWORD PTR [rbp-0x110]
   2192b:	4c 8b bd f8 fe ff ff 	mov    r15,QWORD PTR [rbp-0x108]
   21932:	4c 8b 8d 18 ff ff ff 	mov    r9,QWORD PTR [rbp-0xe8]
   21939:	4c 8b 85 20 ff ff ff 	mov    r8,QWORD PTR [rbp-0xe0]
   21940:	48 8b bd 10 ff ff ff 	mov    rdi,QWORD PTR [rbp-0xf0]
   21947:	48 8b 8d 08 ff ff ff 	mov    rcx,QWORD PTR [rbp-0xf8]
   2194e:	48 8b 85 40 ff ff ff 	mov    rax,QWORD PTR [rbp-0xc0]
   21955:	74 0a                	je     21961 <Java_com_adjust_sdk_sig_NativeLibHelper_nOnResume@@Base-0x99342>
   21957:	48 ba 34 4e 4f bf 57 	movabs rdx,0x4775c857bf4f4e34
   2195e:	c8 75 47 
   21961:	44 8a 5d ce          	mov    r11b,BYTE PTR [rbp-0x32]
   21965:	44 88 5d cf          	mov    BYTE PTR [rbp-0x31],r11b
   21969:	4c 8b 9d 50 ff ff ff 	mov    r11,QWORD PTR [rbp-0xb0]
   21970:	4c 89 9d 70 ff ff ff 	mov    QWORD PTR [rbp-0x90],r11
   21977:	4c 8b 9d 60 ff ff ff 	mov    r11,QWORD PTR [rbp-0xa0]
   2197e:	4c 89 9d 78 ff ff ff 	mov    QWORD PTR [rbp-0x88],r11
   21985:	4c 8b 9d e0 fe ff ff 	mov    r11,QWORD PTR [rbp-0x120]
   2198c:	4c 89 5d 80          	mov    QWORD PTR [rbp-0x80],r11
   21990:	4c 8b 9d e8 fe ff ff 	mov    r11,QWORD PTR [rbp-0x118]
   21997:	4c 89 5d 88          	mov    QWORD PTR [rbp-0x78],r11
   2199b:	4c 8b 9d 48 ff ff ff 	mov    r11,QWORD PTR [rbp-0xb8]
   219a2:	4c 89 5d 90          	mov    QWORD PTR [rbp-0x70],r11
   219a6:	4c 8b 9d 58 ff ff ff 	mov    r11,QWORD PTR [rbp-0xa8]
   219ad:	4c 89 5d 98          	mov    QWORD PTR [rbp-0x68],r11
   219b1:	4c 8b 9d 30 ff ff ff 	mov    r11,QWORD PTR [rbp-0xd0]
   219b8:	4c 89 5d a0          	mov    QWORD PTR [rbp-0x60],r11
   219bc:	4c 8b 9d 28 ff ff ff 	mov    r11,QWORD PTR [rbp-0xd8]
   219c3:	4c 89 5d a8          	mov    QWORD PTR [rbp-0x58],r11
   219c7:	48 89 45 b0          	mov    QWORD PTR [rbp-0x50],rax
   219cb:	48 89 c8             	mov    rax,rcx
   219ce:	48 89 7d b8          	mov    QWORD PTR [rbp-0x48],rdi
   219d2:	4c 89 45 c0          	mov    QWORD PTR [rbp-0x40],r8
   219d6:	4d 89 cb             	mov    r11,r9
   219d9:	4c 8b b5 b0 fe ff ff 	mov    r14,QWORD PTR [rbp-0x150]
   219e0:	4c 8b a5 58 fe ff ff 	mov    r12,QWORD PTR [rbp-0x1a8]
   219e7:	4d 01 e6             	add    r14,r12
   219ea:	4c 89 b5 88 fc ff ff 	mov    QWORD PTR [rbp-0x378],r14
   219f1:	e9 37 82 ff ff       	jmp    19c2d <Java_com_adjust_sdk_sig_NativeLibHelper_nOnResume@@Base-0xa1076>
   219f6:	48 8b 85 b8 fe ff ff 	mov    rax,QWORD PTR [rbp-0x148]
   219fd:	80 78 04 00          	cmp    BYTE PTR [rax+0x4],0x0
   21a01:	48 ba 0b 0e 5b 1f b7 	movabs rdx,0xc158b7b71f5b0e0b
   21a08:	b7 58 c1 
   21a0b:	74 0a                	je     21a17 <Java_com_adjust_sdk_sig_NativeLibHelper_nOnResume@@Base-0x9928c>
   21a0d:	48 ba 46 eb 53 bf 65 	movabs rdx,0x77f78c65bf53eb46
   21a14:	8c f7 77 
   21a17:	8a 45 ce             	mov    al,BYTE PTR [rbp-0x32]
   21a1a:	88 45 cf             	mov    BYTE PTR [rbp-0x31],al
   21a1d:	48 8b 85 50 ff ff ff 	mov    rax,QWORD PTR [rbp-0xb0]
   21a24:	48 89 85 70 ff ff ff 	mov    QWORD PTR [rbp-0x90],rax
   21a2b:	48 8b 85 60 ff ff ff 	mov    rax,QWORD PTR [rbp-0xa0]
   21a32:	48 89 85 78 ff ff ff 	mov    QWORD PTR [rbp-0x88],rax
   21a39:	48 8b 85 e0 fe ff ff 	mov    rax,QWORD PTR [rbp-0x120]
   21a40:	48 89 45 80          	mov    QWORD PTR [rbp-0x80],rax
   21a44:	48 8b 85 e8 fe ff ff 	mov    rax,QWORD PTR [rbp-0x118]
   21a4b:	48 89 45 88          	mov    QWORD PTR [rbp-0x78],rax
   21a4f:	48 8b 85 48 ff ff ff 	mov    rax,QWORD PTR [rbp-0xb8]
   21a56:	48 89 45 90          	mov    QWORD PTR [rbp-0x70],rax
   21a5a:	48 8b 85 58 ff ff ff 	mov    rax,QWORD PTR [rbp-0xa8]
   21a61:	48 89 45 98          	mov    QWORD PTR [rbp-0x68],rax
   21a65:	48 8b 85 30 ff ff ff 	mov    rax,QWORD PTR [rbp-0xd0]
   21a6c:	48 89 45 a0          	mov    QWORD PTR [rbp-0x60],rax
   21a70:	48 8b 85 28 ff ff ff 	mov    rax,QWORD PTR [rbp-0xd8]
   21a77:	48 89 45 a8          	mov    QWORD PTR [rbp-0x58],rax
   21a7b:	48 8b 85 40 ff ff ff 	mov    rax,QWORD PTR [rbp-0xc0]
   21a82:	48 89 45 b0          	mov    QWORD PTR [rbp-0x50],rax
   21a86:	4c 89 e0             	mov    rax,r12
   21a89:	e9 98 0d 00 00       	jmp    22826 <Java_com_adjust_sdk_sig_NativeLibHelper_nOnResume@@Base-0x9847d>
   21a8e:	f6 85 cd fe ff ff 01 	test   BYTE PTR [rbp-0x133],0x1
   21a95:	b8 00 00 00 00       	mov    eax,0x0
   21a9a:	48 0f 45 85 a0 fe ff 	cmovne rax,QWORD PTR [rbp-0x160]
   21aa1:	ff 
   21aa2:	48 89 85 98 fe ff ff 	mov    QWORD PTR [rbp-0x168],rax
   21aa9:	48 ba 0f a3 47 35 f3 	movabs rdx,0xb29c9df33547a30f
   21ab0:	9d 9c b2 
   21ab3:	48 b8 5b 19 4d cb de 	movabs rax,0xdf9b1decb4d195b
   21aba:	b1 f9 0d 
   21abd:	48 0f 45 d0          	cmovne rdx,rax
   21ac1:	8a 45 ce             	mov    al,BYTE PTR [rbp-0x32]
   21ac4:	88 45 cf             	mov    BYTE PTR [rbp-0x31],al
   21ac7:	48 8b 85 50 ff ff ff 	mov    rax,QWORD PTR [rbp-0xb0]
   21ace:	48 89 85 70 ff ff ff 	mov    QWORD PTR [rbp-0x90],rax
   21ad5:	48 8b 85 60 ff ff ff 	mov    rax,QWORD PTR [rbp-0xa0]
   21adc:	48 89 85 78 ff ff ff 	mov    QWORD PTR [rbp-0x88],rax
   21ae3:	4c 89 c0             	mov    rax,r8
   21ae6:	4c 89 45 80          	mov    QWORD PTR [rbp-0x80],r8
   21aea:	e9 98 0d 00 00       	jmp    22887 <Java_com_adjust_sdk_sig_NativeLibHelper_nOnResume@@Base-0x9841c>
   21aef:	8b 85 e0 fd ff ff    	mov    eax,DWORD PTR [rbp-0x220]
   21af5:	c1 e0 08             	shl    eax,0x8
   21af8:	0f b7 c0             	movzx  eax,ax
   21afb:	89 85 8c fe ff ff    	mov    DWORD PTR [rbp-0x174],eax
   21b01:	8a 45 ce             	mov    al,BYTE PTR [rbp-0x32]
   21b04:	88 45 cf             	mov    BYTE PTR [rbp-0x31],al
   21b07:	48 8b 85 50 ff ff ff 	mov    rax,QWORD PTR [rbp-0xb0]
   21b0e:	48 89 85 70 ff ff ff 	mov    QWORD PTR [rbp-0x90],rax
   21b15:	48 8b 85 60 ff ff ff 	mov    rax,QWORD PTR [rbp-0xa0]
   21b1c:	48 89 85 78 ff ff ff 	mov    QWORD PTR [rbp-0x88],rax
   21b23:	4c 89 f0             	mov    rax,r14
   21b26:	4c 89 75 80          	mov    QWORD PTR [rbp-0x80],r14
   21b2a:	4c 89 4d 88          	mov    QWORD PTR [rbp-0x78],r9
   21b2e:	48 8b 85 48 ff ff ff 	mov    rax,QWORD PTR [rbp-0xb8]
   21b35:	48 89 45 90          	mov    QWORD PTR [rbp-0x70],rax
   21b39:	48 8b 85 58 ff ff ff 	mov    rax,QWORD PTR [rbp-0xa8]
   21b40:	48 89 45 98          	mov    QWORD PTR [rbp-0x68],rax
   21b44:	48 8b 85 30 ff ff ff 	mov    rax,QWORD PTR [rbp-0xd0]
   21b4b:	48 89 45 a0          	mov    QWORD PTR [rbp-0x60],rax
   21b4f:	48 8b 85 28 ff ff ff 	mov    rax,QWORD PTR [rbp-0xd8]
   21b56:	48 89 45 a8          	mov    QWORD PTR [rbp-0x58],rax
   21b5a:	48 8b 85 40 ff ff ff 	mov    rax,QWORD PTR [rbp-0xc0]
   21b61:	48 89 45 b0          	mov    QWORD PTR [rbp-0x50],rax
   21b65:	48 8b 85 08 ff ff ff 	mov    rax,QWORD PTR [rbp-0xf8]
   21b6c:	48 8b 8d 10 ff ff ff 	mov    rcx,QWORD PTR [rbp-0xf0]
   21b73:	48 89 4d b8          	mov    QWORD PTR [rbp-0x48],rcx
   21b77:	48 8b 8d 20 ff ff ff 	mov    rcx,QWORD PTR [rbp-0xe0]
   21b7e:	48 89 4d c0          	mov    QWORD PTR [rbp-0x40],rcx
   21b82:	4c 8b 9d 18 ff ff ff 	mov    r11,QWORD PTR [rbp-0xe8]
   21b89:	4c 8b bd f8 fe ff ff 	mov    r15,QWORD PTR [rbp-0x108]
   21b90:	4c 8b ad f0 fe ff ff 	mov    r13,QWORD PTR [rbp-0x110]
   21b97:	48 8b 9d 00 ff ff ff 	mov    rbx,QWORD PTR [rbp-0x100]
   21b9e:	4c 8b 95 38 ff ff ff 	mov    r10,QWORD PTR [rbp-0xc8]
   21ba5:	48 8b 95 58 fc ff ff 	mov    rdx,QWORD PTR [rbp-0x3a8]
   21bac:	40 8a 72 02          	mov    sil,BYTE PTR [rdx+0x2]
   21bb0:	40 88 b5 db fe ff ff 	mov    BYTE PTR [rbp-0x125],sil
   21bb7:	40 8a 75 cd          	mov    sil,BYTE PTR [rbp-0x33]
   21bbb:	48 ff c2             	inc    rdx
   21bbe:	48 89 95 b0 fd ff ff 	mov    QWORD PTR [rbp-0x250],rdx
   21bc5:	48 ba c0 25 03 0f ff 	movabs rdx,0x76af6eff0f0325c0
   21bcc:	6e af 76 
   21bcf:	e9 59 80 ff ff       	jmp    19c2d <Java_com_adjust_sdk_sig_NativeLibHelper_nOnResume@@Base-0xa1076>
   21bd4:	8a 45 ce             	mov    al,BYTE PTR [rbp-0x32]
   21bd7:	88 45 cf             	mov    BYTE PTR [rbp-0x31],al
   21bda:	48 8b 85 50 ff ff ff 	mov    rax,QWORD PTR [rbp-0xb0]
   21be1:	48 89 85 70 ff ff ff 	mov    QWORD PTR [rbp-0x90],rax
   21be8:	48 8b 85 60 ff ff ff 	mov    rax,QWORD PTR [rbp-0xa0]
   21bef:	48 89 85 78 ff ff ff 	mov    QWORD PTR [rbp-0x88],rax
   21bf6:	4c 89 f0             	mov    rax,r14
   21bf9:	4c 89 75 80          	mov    QWORD PTR [rbp-0x80],r14
   21bfd:	4c 89 4d 88          	mov    QWORD PTR [rbp-0x78],r9
   21c01:	48 8b 85 48 ff ff ff 	mov    rax,QWORD PTR [rbp-0xb8]
   21c08:	48 89 45 90          	mov    QWORD PTR [rbp-0x70],rax
   21c0c:	48 8b 85 58 ff ff ff 	mov    rax,QWORD PTR [rbp-0xa8]
   21c13:	48 89 45 98          	mov    QWORD PTR [rbp-0x68],rax
   21c17:	48 89 4d a0          	mov    QWORD PTR [rbp-0x60],rcx
   21c1b:	4c 89 5d a8          	mov    QWORD PTR [rbp-0x58],r11
   21c1f:	48 8b 85 40 ff ff ff 	mov    rax,QWORD PTR [rbp-0xc0]
   21c26:	48 89 45 b0          	mov    QWORD PTR [rbp-0x50],rax
   21c2a:	48 8b 85 08 ff ff ff 	mov    rax,QWORD PTR [rbp-0xf8]
   21c31:	48 8b 8d 10 ff ff ff 	mov    rcx,QWORD PTR [rbp-0xf0]
   21c38:	48 89 4d b8          	mov    QWORD PTR [rbp-0x48],rcx
   21c3c:	48 8b 8d 20 ff ff ff 	mov    rcx,QWORD PTR [rbp-0xe0]
   21c43:	48 89 4d c0          	mov    QWORD PTR [rbp-0x40],rcx
   21c47:	4c 8b 9d 18 ff ff ff 	mov    r11,QWORD PTR [rbp-0xe8]
   21c4e:	4c 8b 95 38 ff ff ff 	mov    r10,QWORD PTR [rbp-0xc8]
   21c55:	44 89 e6             	mov    esi,r12d
   21c58:	48 8b 95 48 fe ff ff 	mov    rdx,QWORD PTR [rbp-0x1b8]
   21c5f:	48 ff c2             	inc    rdx
   21c62:	48 89 95 78 fd ff ff 	mov    QWORD PTR [rbp-0x288],rdx
   21c69:	48 ba fa 4e 00 7d e8 	movabs rdx,0x7fed88e87d004efa
   21c70:	88 ed 7f 
   21c73:	e9 b5 7f ff ff       	jmp    19c2d <Java_com_adjust_sdk_sig_NativeLibHelper_nOnResume@@Base-0xa1076>
   21c78:	48 8b 95 c0 fe ff ff 	mov    rdx,QWORD PTR [rbp-0x140]
   21c7f:	48 89 d0             	mov    rax,rdx
   21c82:	48 83 c8 3f          	or     rax,0x3f
   21c86:	48 89 85 90 fc ff ff 	mov    QWORD PTR [rbp-0x370],rax
   21c8d:	8a 45 ce             	mov    al,BYTE PTR [rbp-0x32]
   21c90:	88 45 cf             	mov    BYTE PTR [rbp-0x31],al
   21c93:	48 8b 85 50 ff ff ff 	mov    rax,QWORD PTR [rbp-0xb0]
   21c9a:	48 89 85 70 ff ff ff 	mov    QWORD PTR [rbp-0x90],rax
   21ca1:	48 8b 85 60 ff ff ff 	mov    rax,QWORD PTR [rbp-0xa0]
   21ca8:	48 89 85 78 ff ff ff 	mov    QWORD PTR [rbp-0x88],rax
   21caf:	4c 89 f0             	mov    rax,r14
   21cb2:	4c 89 75 80          	mov    QWORD PTR [rbp-0x80],r14
   21cb6:	4c 89 4d 88          	mov    QWORD PTR [rbp-0x78],r9
   21cba:	48 8b 85 48 ff ff ff 	mov    rax,QWORD PTR [rbp-0xb8]
   21cc1:	48 89 45 90          	mov    QWORD PTR [rbp-0x70],rax
   21cc5:	48 8b 85 58 ff ff ff 	mov    rax,QWORD PTR [rbp-0xa8]
   21ccc:	48 89 45 98          	mov    QWORD PTR [rbp-0x68],rax
   21cd0:	48 8b 85 30 ff ff ff 	mov    rax,QWORD PTR [rbp-0xd0]
   21cd7:	48 89 45 a0          	mov    QWORD PTR [rbp-0x60],rax
   21cdb:	48 8b 85 28 ff ff ff 	mov    rax,QWORD PTR [rbp-0xd8]
   21ce2:	48 89 45 a8          	mov    QWORD PTR [rbp-0x58],rax
   21ce6:	48 8b 85 40 ff ff ff 	mov    rax,QWORD PTR [rbp-0xc0]
   21ced:	48 89 45 b0          	mov    QWORD PTR [rbp-0x50],rax
   21cf1:	48 8b 85 08 ff ff ff 	mov    rax,QWORD PTR [rbp-0xf8]
   21cf8:	48 8b 8d 10 ff ff ff 	mov    rcx,QWORD PTR [rbp-0xf0]
   21cff:	48 89 4d b8          	mov    QWORD PTR [rbp-0x48],rcx
   21d03:	48 8b 8d 20 ff ff ff 	mov    rcx,QWORD PTR [rbp-0xe0]
   21d0a:	48 89 4d c0          	mov    QWORD PTR [rbp-0x40],rcx
   21d0e:	4c 8b 9d 18 ff ff ff 	mov    r11,QWORD PTR [rbp-0xe8]
   21d15:	4c 8b bd f8 fe ff ff 	mov    r15,QWORD PTR [rbp-0x108]
   21d1c:	4c 8b ad f0 fe ff ff 	mov    r13,QWORD PTR [rbp-0x110]
   21d23:	48 8b 9d 00 ff ff ff 	mov    rbx,QWORD PTR [rbp-0x100]
   21d2a:	4c 8b 95 38 ff ff ff 	mov    r10,QWORD PTR [rbp-0xc8]
   21d31:	40 8a 75 cd          	mov    sil,BYTE PTR [rbp-0x33]
   21d35:	48 8d 52 ff          	lea    rdx,[rdx-0x1]
   21d39:	48 89 95 78 fc ff ff 	mov    QWORD PTR [rbp-0x388],rdx
   21d40:	48 8b 95 98 fe ff ff 	mov    rdx,QWORD PTR [rbp-0x168]
   21d47:	48 89 95 40 fd ff ff 	mov    QWORD PTR [rbp-0x2c0],rdx
   21d4e:	41 be 00 00 00 00    	mov    r14d,0x0
   21d54:	4c 89 b5 50 fd ff ff 	mov    QWORD PTR [rbp-0x2b0],r14
   21d5b:	48 89 95 60 fd ff ff 	mov    QWORD PTR [rbp-0x2a0],rdx
   21d62:	48 8b 95 10 fd ff ff 	mov    rdx,QWORD PTR [rbp-0x2f0]
   21d69:	48 89 95 f8 fb ff ff 	mov    QWORD PTR [rbp-0x408],rdx
   21d70:	48 8b 95 18 fd ff ff 	mov    rdx,QWORD PTR [rbp-0x2e8]
   21d77:	48 89 95 00 fc ff ff 	mov    QWORD PTR [rbp-0x400],rdx
   21d7e:	48 ba 7a e0 4d ab 1c 	movabs rdx,0x9aae581cab4de07a
   21d85:	58 ae 9a 
   21d88:	e9 a0 7e ff ff       	jmp    19c2d <Java_com_adjust_sdk_sig_NativeLibHelper_nOnResume@@Base-0xa1076>
   21d8d:	31 c0                	xor    eax,eax
   21d8f:	b1 01                	mov    cl,0x1
   21d91:	f0 0f b0 0d 9b cf 11 	lock cmpxchg BYTE PTR [rip+0x11cf9b],cl        # 13ed34 <write@plt+0xc1b4>
   21d98:	00 
   21d99:	48 ba dc 00 41 ae 4e 	movabs rdx,0x120aca4eae4100dc
   21da0:	ca 0a 12 
   21da3:	0f 84 b5 0a 00 00    	je     2285e <Java_com_adjust_sdk_sig_NativeLibHelper_nOnResume@@Base-0x98445>
   21da9:	48 ba 71 bf 2f a8 22 	movabs rdx,0xfaaa7722a82fbf71
   21db0:	77 aa fa 
   21db3:	e9 a6 0a 00 00       	jmp    2285e <Java_com_adjust_sdk_sig_NativeLibHelper_nOnResume@@Base-0x98445>
   21db8:	48 8b 85 b0 fe ff ff 	mov    rax,QWORD PTR [rbp-0x150]
   21dbf:	80 38 00             	cmp    BYTE PTR [rax],0x0
   21dc2:	48 ba 63 f8 f3 51 53 	movabs rdx,0xdf39805351f3f863
   21dc9:	80 39 df 
   21dcc:	0f 84 8c 0a 00 00    	je     2285e <Java_com_adjust_sdk_sig_NativeLibHelper_nOnResume@@Base-0x98445>
   21dd2:	48 ba 9e cc 65 19 d2 	movabs rdx,0x71080ed21965cc9e
   21dd9:	0e 08 71 
   21ddc:	e9 7d 0a 00 00       	jmp    2285e <Java_com_adjust_sdk_sig_NativeLibHelper_nOnResume@@Base-0x98445>
   21de1:	80 3d 4b cf 11 00 00 	cmp    BYTE PTR [rip+0x11cf4b],0x0        # 13ed33 <write@plt+0xc1b3>
   21de8:	48 ba 99 4f cd 98 01 	movabs rdx,0x71ec920198cd4f99
   21def:	92 ec 71 
   21df2:	75 0a                	jne    21dfe <Java_com_adjust_sdk_sig_NativeLibHelper_nOnResume@@Base-0x98ea5>
   21df4:	48 ba 52 a3 f6 b1 c9 	movabs rdx,0x253b8dc9b1f6a352
   21dfb:	8d 3b 25 
   21dfe:	8a 45 ce             	mov    al,BYTE PTR [rbp-0x32]
   21e01:	88 45 cf             	mov    BYTE PTR [rbp-0x31],al
   21e04:	48 8b 85 50 ff ff ff 	mov    rax,QWORD PTR [rbp-0xb0]
   21e0b:	48 89 85 70 ff ff ff 	mov    QWORD PTR [rbp-0x90],rax
   21e12:	48 8b 85 60 ff ff ff 	mov    rax,QWORD PTR [rbp-0xa0]
   21e19:	48 89 85 78 ff ff ff 	mov    QWORD PTR [rbp-0x88],rax
   21e20:	4c 89 f0             	mov    rax,r14
   21e23:	4c 89 75 80          	mov    QWORD PTR [rbp-0x80],r14
   21e27:	e9 5b 0a 00 00       	jmp    22887 <Java_com_adjust_sdk_sig_NativeLibHelper_nOnResume@@Base-0x9841c>
   21e2c:	8a 45 ce             	mov    al,BYTE PTR [rbp-0x32]
   21e2f:	88 45 cf             	mov    BYTE PTR [rbp-0x31],al
   21e32:	48 8b 85 50 ff ff ff 	mov    rax,QWORD PTR [rbp-0xb0]
   21e39:	48 89 85 70 ff ff ff 	mov    QWORD PTR [rbp-0x90],rax
   21e40:	48 8b 85 60 ff ff ff 	mov    rax,QWORD PTR [rbp-0xa0]
   21e47:	48 89 85 78 ff ff ff 	mov    QWORD PTR [rbp-0x88],rax
   21e4e:	48 89 f8             	mov    rax,rdi
   21e51:	48 89 7d 80          	mov    QWORD PTR [rbp-0x80],rdi
   21e55:	4c 89 4d 88          	mov    QWORD PTR [rbp-0x78],r9
   21e59:	48 8b 85 48 ff ff ff 	mov    rax,QWORD PTR [rbp-0xb8]
   21e60:	48 89 45 90          	mov    QWORD PTR [rbp-0x70],rax
   21e64:	48 8b 85 58 ff ff ff 	mov    rax,QWORD PTR [rbp-0xa8]
   21e6b:	48 89 45 98          	mov    QWORD PTR [rbp-0x68],rax
   21e6f:	48 89 4d a0          	mov    QWORD PTR [rbp-0x60],rcx
   21e73:	4c 89 5d a8          	mov    QWORD PTR [rbp-0x58],r11
   21e77:	48 8b 85 40 ff ff ff 	mov    rax,QWORD PTR [rbp-0xc0]
   21e7e:	48 89 45 b0          	mov    QWORD PTR [rbp-0x50],rax
   21e82:	48 8b 85 08 ff ff ff 	mov    rax,QWORD PTR [rbp-0xf8]
   21e89:	48 8b 8d 10 ff ff ff 	mov    rcx,QWORD PTR [rbp-0xf0]
   21e90:	48 89 4d b8          	mov    QWORD PTR [rbp-0x48],rcx
   21e94:	48 8b 8d 20 ff ff ff 	mov    rcx,QWORD PTR [rbp-0xe0]
   21e9b:	48 89 4d c0          	mov    QWORD PTR [rbp-0x40],rcx
   21e9f:	4c 8b 9d 18 ff ff ff 	mov    r11,QWORD PTR [rbp-0xe8]
   21ea6:	49 8d 55 01          	lea    rdx,[r13+0x1]
   21eaa:	48 89 95 b0 fc ff ff 	mov    QWORD PTR [rbp-0x350],rdx
   21eb1:	48 8d 53 01          	lea    rdx,[rbx+0x1]
   21eb5:	48 89 95 b8 fc ff ff 	mov    QWORD PTR [rbp-0x348],rdx
   21ebc:	4c 8b 95 38 ff ff ff 	mov    r10,QWORD PTR [rbp-0xc8]
   21ec3:	44 89 e6             	mov    esi,r12d
   21ec6:	48 ba ca 56 76 0e 45 	movabs rdx,0x3e5bb6450e7656ca
   21ecd:	b6 5b 3e 
   21ed0:	e9 58 7d ff ff       	jmp    19c2d <Java_com_adjust_sdk_sig_NativeLibHelper_nOnResume@@Base-0xa1076>
   21ed5:	48 8b b5 50 ff ff ff 	mov    rsi,QWORD PTR [rbp-0xb0]
   21edc:	48 85 f6             	test   rsi,rsi
   21edf:	48 ba df 22 97 63 cc 	movabs rdx,0x6a4893cc639722df
   21ee6:	93 48 6a 
   21ee9:	48 b8 35 65 fd 23 0a 	movabs rax,0x2c55ab0a23fd6535
   21ef0:	ab 55 2c 
   21ef3:	48 0f 44 d0          	cmove  rdx,rax
   21ef7:	8a 45 ce             	mov    al,BYTE PTR [rbp-0x32]
   21efa:	88 45 cf             	mov    BYTE PTR [rbp-0x31],al
   21efd:	48 8b 85 60 ff ff ff 	mov    rax,QWORD PTR [rbp-0xa0]
   21f04:	48 89 85 78 ff ff ff 	mov    QWORD PTR [rbp-0x88],rax
   21f0b:	4c 89 f0             	mov    rax,r14
   21f0e:	4c 89 75 80          	mov    QWORD PTR [rbp-0x80],r14
   21f12:	4c 89 4d 88          	mov    QWORD PTR [rbp-0x78],r9
   21f16:	48 8b 85 48 ff ff ff 	mov    rax,QWORD PTR [rbp-0xb8]
   21f1d:	48 89 45 90          	mov    QWORD PTR [rbp-0x70],rax
   21f21:	48 8b 85 58 ff ff ff 	mov    rax,QWORD PTR [rbp-0xa8]
   21f28:	48 89 45 98          	mov    QWORD PTR [rbp-0x68],rax
   21f2c:	48 89 4d a0          	mov    QWORD PTR [rbp-0x60],rcx
   21f30:	4c 89 5d a8          	mov    QWORD PTR [rbp-0x58],r11
   21f34:	48 8b 85 40 ff ff ff 	mov    rax,QWORD PTR [rbp-0xc0]
   21f3b:	48 89 45 b0          	mov    QWORD PTR [rbp-0x50],rax
   21f3f:	48 8b 85 08 ff ff ff 	mov    rax,QWORD PTR [rbp-0xf8]
   21f46:	48 8b 8d 10 ff ff ff 	mov    rcx,QWORD PTR [rbp-0xf0]
   21f4d:	48 89 4d b8          	mov    QWORD PTR [rbp-0x48],rcx
   21f51:	48 8b 8d 20 ff ff ff 	mov    rcx,QWORD PTR [rbp-0xe0]
   21f58:	48 89 4d c0          	mov    QWORD PTR [rbp-0x40],rcx
   21f5c:	4c 8b 9d 18 ff ff ff 	mov    r11,QWORD PTR [rbp-0xe8]
   21f63:	48 89 b5 70 ff ff ff 	mov    QWORD PTR [rbp-0x90],rsi
   21f6a:	48 89 b5 28 fe ff ff 	mov    QWORD PTR [rbp-0x1d8],rsi
   21f71:	e9 70 09 00 00       	jmp    228e6 <Java_com_adjust_sdk_sig_NativeLibHelper_nOnResume@@Base-0x983bd>
   21f76:	8a 45 ce             	mov    al,BYTE PTR [rbp-0x32]
   21f79:	88 45 cf             	mov    BYTE PTR [rbp-0x31],al
   21f7c:	48 8b 85 50 ff ff ff 	mov    rax,QWORD PTR [rbp-0xb0]
   21f83:	48 89 85 70 ff ff ff 	mov    QWORD PTR [rbp-0x90],rax
   21f8a:	48 8b 85 60 ff ff ff 	mov    rax,QWORD PTR [rbp-0xa0]
   21f91:	48 89 85 78 ff ff ff 	mov    QWORD PTR [rbp-0x88],rax
   21f98:	48 8b 85 e0 fe ff ff 	mov    rax,QWORD PTR [rbp-0x120]
   21f9f:	48 89 45 80          	mov    QWORD PTR [rbp-0x80],rax
   21fa3:	48 8b 85 e8 fe ff ff 	mov    rax,QWORD PTR [rbp-0x118]
   21faa:	48 89 45 88          	mov    QWORD PTR [rbp-0x78],rax
   21fae:	48 8b 85 48 ff ff ff 	mov    rax,QWORD PTR [rbp-0xb8]
   21fb5:	48 89 45 90          	mov    QWORD PTR [rbp-0x70],rax
   21fb9:	48 8b 85 58 ff ff ff 	mov    rax,QWORD PTR [rbp-0xa8]
   21fc0:	48 89 45 98          	mov    QWORD PTR [rbp-0x68],rax
   21fc4:	48 8b 85 30 ff ff ff 	mov    rax,QWORD PTR [rbp-0xd0]
   21fcb:	48 89 45 a0          	mov    QWORD PTR [rbp-0x60],rax
   21fcf:	48 8b 85 28 ff ff ff 	mov    rax,QWORD PTR [rbp-0xd8]
   21fd6:	48 89 45 a8          	mov    QWORD PTR [rbp-0x58],rax
   21fda:	4c 89 65 b0          	mov    QWORD PTR [rbp-0x50],r12
   21fde:	48 89 c8             	mov    rax,rcx
   21fe1:	48 89 7d b8          	mov    QWORD PTR [rbp-0x48],rdi
   21fe5:	4c 89 45 c0          	mov    QWORD PTR [rbp-0x40],r8
   21fe9:	89 d6                	mov    esi,edx
   21feb:	48 8d 15 e5 b2 11 00 	lea    rdx,[rip+0x11b2e5]        # 13d2d7 <write@plt+0xa757>
   21ff2:	48 89 95 a0 fc ff ff 	mov    QWORD PTR [rbp-0x360],rdx
   21ff9:	48 ba a2 e9 b3 d3 65 	movabs rdx,0xf742be65d3b3e9a2
   22000:	be 42 f7 
   22003:	e9 25 7c ff ff       	jmp    19c2d <Java_com_adjust_sdk_sig_NativeLibHelper_nOnResume@@Base-0xa1076>
   22008:	4c 8b 9d 48 ff ff ff 	mov    r11,QWORD PTR [rbp-0xb8]
   2200f:	8a 8d dd fe ff ff    	mov    cl,BYTE PTR [rbp-0x123]
   22015:	0f b6 c1             	movzx  eax,cl
   22018:	0b 85 90 fe ff ff    	or     eax,DWORD PTR [rbp-0x170]
   2201e:	48 ba 73 e4 15 57 21 	movabs rdx,0x520ea6215715e473
   22025:	a6 0e 52 
   22028:	89 85 e4 fd ff ff    	mov    DWORD PTR [rbp-0x21c],eax
   2202e:	3b 85 e8 fd ff ff    	cmp    eax,DWORD PTR [rbp-0x218]
   22034:	40 8a 75 cd          	mov    sil,BYTE PTR [rbp-0x33]
   22038:	4c 8b 95 38 ff ff ff 	mov    r10,QWORD PTR [rbp-0xc8]
   2203f:	48 8b 9d 00 ff ff ff 	mov    rbx,QWORD PTR [rbp-0x100]
   22046:	4c 8b ad f0 fe ff ff 	mov    r13,QWORD PTR [rbp-0x110]
   2204d:	4c 8b bd f8 fe ff ff 	mov    r15,QWORD PTR [rbp-0x108]
   22054:	4c 8b 8d 18 ff ff ff 	mov    r9,QWORD PTR [rbp-0xe8]
   2205b:	4c 8b 85 20 ff ff ff 	mov    r8,QWORD PTR [rbp-0xe0]
   22062:	48 8b bd 10 ff ff ff 	mov    rdi,QWORD PTR [rbp-0xf0]
   22069:	4c 8b b5 08 ff ff ff 	mov    r14,QWORD PTR [rbp-0xf8]
   22070:	4c 8b a5 40 ff ff ff 	mov    r12,QWORD PTR [rbp-0xc0]
   22077:	75 0a                	jne    22083 <Java_com_adjust_sdk_sig_NativeLibHelper_nOnResume@@Base-0x98c20>
   22079:	48 ba d3 f2 f7 e0 7d 	movabs rdx,0xe61e847de0f7f2d3
   22080:	84 1e e6 
   22083:	84 c9                	test   cl,cl
   22085:	48 b8 d3 f2 f7 e0 7d 	movabs rax,0xe61e847de0f7f2d3
   2208c:	84 1e e6 
   2208f:	48 0f 44 d0          	cmove  rdx,rax
   22093:	8a 45 ce             	mov    al,BYTE PTR [rbp-0x32]
   22096:	88 45 cf             	mov    BYTE PTR [rbp-0x31],al
   22099:	48 8b 85 50 ff ff ff 	mov    rax,QWORD PTR [rbp-0xb0]
   220a0:	48 89 85 70 ff ff ff 	mov    QWORD PTR [rbp-0x90],rax
   220a7:	48 8b 85 60 ff ff ff 	mov    rax,QWORD PTR [rbp-0xa0]
   220ae:	48 89 85 78 ff ff ff 	mov    QWORD PTR [rbp-0x88],rax
   220b5:	48 8b 85 e0 fe ff ff 	mov    rax,QWORD PTR [rbp-0x120]
   220bc:	48 89 45 80          	mov    QWORD PTR [rbp-0x80],rax
   220c0:	48 8b 85 e8 fe ff ff 	mov    rax,QWORD PTR [rbp-0x118]
   220c7:	48 89 45 88          	mov    QWORD PTR [rbp-0x78],rax
   220cb:	4c 89 5d 90          	mov    QWORD PTR [rbp-0x70],r11
   220cf:	48 8b 85 58 ff ff ff 	mov    rax,QWORD PTR [rbp-0xa8]
   220d6:	48 89 45 98          	mov    QWORD PTR [rbp-0x68],rax
   220da:	48 8b 85 30 ff ff ff 	mov    rax,QWORD PTR [rbp-0xd0]
   220e1:	48 89 45 a0          	mov    QWORD PTR [rbp-0x60],rax
   220e5:	48 8b 85 28 ff ff ff 	mov    rax,QWORD PTR [rbp-0xd8]
   220ec:	48 89 45 a8          	mov    QWORD PTR [rbp-0x58],rax
   220f0:	4c 89 65 b0          	mov    QWORD PTR [rbp-0x50],r12
   220f4:	4c 89 f0             	mov    rax,r14
   220f7:	48 89 7d b8          	mov    QWORD PTR [rbp-0x48],rdi
   220fb:	4c 89 45 c0          	mov    QWORD PTR [rbp-0x40],r8
   220ff:	4d 89 cb             	mov    r11,r9
   22102:	0f 95 85 d4 fe ff ff 	setne  BYTE PTR [rbp-0x12c]
   22109:	4c 8b b5 b8 fd ff ff 	mov    r14,QWORD PTR [rbp-0x248]
   22110:	4c 89 b5 68 fc ff ff 	mov    QWORD PTR [rbp-0x398],r14
   22117:	e9 11 7b ff ff       	jmp    19c2d <Java_com_adjust_sdk_sig_NativeLibHelper_nOnResume@@Base-0xa1076>
   2211c:	48 8b 85 c0 fe ff ff 	mov    rax,QWORD PTR [rbp-0x140]
   22123:	48 8b 95 10 fc ff ff 	mov    rdx,QWORD PTR [rbp-0x3f0]
   2212a:	48 29 d0             	sub    rax,rdx
   2212d:	48 89 85 18 fd ff ff 	mov    QWORD PTR [rbp-0x2e8],rax
   22134:	8a 45 ce             	mov    al,BYTE PTR [rbp-0x32]
   22137:	88 45 cf             	mov    BYTE PTR [rbp-0x31],al
   2213a:	48 8b 85 50 ff ff ff 	mov    rax,QWORD PTR [rbp-0xb0]
   22141:	48 89 85 70 ff ff ff 	mov    QWORD PTR [rbp-0x90],rax
   22148:	48 8b 85 60 ff ff ff 	mov    rax,QWORD PTR [rbp-0xa0]
   2214f:	48 89 85 78 ff ff ff 	mov    QWORD PTR [rbp-0x88],rax
   22156:	4c 89 f0             	mov    rax,r14
   22159:	4c 89 75 80          	mov    QWORD PTR [rbp-0x80],r14
   2215d:	4c 89 4d 88          	mov    QWORD PTR [rbp-0x78],r9
   22161:	48 8b 85 48 ff ff ff 	mov    rax,QWORD PTR [rbp-0xb8]
   22168:	48 89 45 90          	mov    QWORD PTR [rbp-0x70],rax
   2216c:	48 8b 85 58 ff ff ff 	mov    rax,QWORD PTR [rbp-0xa8]
   22173:	48 89 45 98          	mov    QWORD PTR [rbp-0x68],rax
   22177:	48 8b 85 30 ff ff ff 	mov    rax,QWORD PTR [rbp-0xd0]
   2217e:	48 89 45 a0          	mov    QWORD PTR [rbp-0x60],rax
   22182:	48 8b 85 28 ff ff ff 	mov    rax,QWORD PTR [rbp-0xd8]
   22189:	48 89 45 a8          	mov    QWORD PTR [rbp-0x58],rax
   2218d:	48 8b 85 40 ff ff ff 	mov    rax,QWORD PTR [rbp-0xc0]
   22194:	48 89 45 b0          	mov    QWORD PTR [rbp-0x50],rax
   22198:	48 8b 85 08 ff ff ff 	mov    rax,QWORD PTR [rbp-0xf8]
   2219f:	48 8b 8d 10 ff ff ff 	mov    rcx,QWORD PTR [rbp-0xf0]
   221a6:	48 89 4d b8          	mov    QWORD PTR [rbp-0x48],rcx
   221aa:	48 8b 8d 20 ff ff ff 	mov    rcx,QWORD PTR [rbp-0xe0]
   221b1:	48 89 4d c0          	mov    QWORD PTR [rbp-0x40],rcx
   221b5:	4c 8b 9d 18 ff ff ff 	mov    r11,QWORD PTR [rbp-0xe8]
   221bc:	4c 8b 95 38 ff ff ff 	mov    r10,QWORD PTR [rbp-0xc8]
   221c3:	44 89 e6             	mov    esi,r12d
   221c6:	48 89 95 10 fd ff ff 	mov    QWORD PTR [rbp-0x2f0],rdx
   221cd:	48 ba 20 00 88 a4 ce 	movabs rdx,0x183b0ecea4880020
   221d4:	0e 3b 18 
   221d7:	e9 51 7a ff ff       	jmp    19c2d <Java_com_adjust_sdk_sig_NativeLibHelper_nOnResume@@Base-0xa1076>
   221dc:	48 8b bd 08 fe ff ff 	mov    rdi,QWORD PTR [rbp-0x1f8]
   221e3:	48 2b bd 18 fe ff ff 	sub    rdi,QWORD PTR [rbp-0x1e8]
   221ea:	8a 45 ce             	mov    al,BYTE PTR [rbp-0x32]
   221ed:	88 45 cf             	mov    BYTE PTR [rbp-0x31],al
   221f0:	48 8b 85 50 ff ff ff 	mov    rax,QWORD PTR [rbp-0xb0]
   221f7:	48 89 85 70 ff ff ff 	mov    QWORD PTR [rbp-0x90],rax
   221fe:	48 8b 85 60 ff ff ff 	mov    rax,QWORD PTR [rbp-0xa0]
   22205:	48 89 85 78 ff ff ff 	mov    QWORD PTR [rbp-0x88],rax
   2220c:	4c 89 c0             	mov    rax,r8
   2220f:	4c 89 45 80          	mov    QWORD PTR [rbp-0x80],r8
   22213:	4c 89 4d 88          	mov    QWORD PTR [rbp-0x78],r9
   22217:	48 8b 85 48 ff ff ff 	mov    rax,QWORD PTR [rbp-0xb8]
   2221e:	48 89 45 90          	mov    QWORD PTR [rbp-0x70],rax
   22222:	48 8b 85 58 ff ff ff 	mov    rax,QWORD PTR [rbp-0xa8]
   22229:	48 89 45 98          	mov    QWORD PTR [rbp-0x68],rax
   2222d:	48 8b 85 30 ff ff ff 	mov    rax,QWORD PTR [rbp-0xd0]
   22234:	48 89 45 a0          	mov    QWORD PTR [rbp-0x60],rax
   22238:	48 8b 85 28 ff ff ff 	mov    rax,QWORD PTR [rbp-0xd8]
   2223f:	48 89 45 a8          	mov    QWORD PTR [rbp-0x58],rax
   22243:	48 8b 85 40 ff ff ff 	mov    rax,QWORD PTR [rbp-0xc0]
   2224a:	48 89 45 b0          	mov    QWORD PTR [rbp-0x50],rax
   2224e:	48 8b 85 08 ff ff ff 	mov    rax,QWORD PTR [rbp-0xf8]
   22255:	48 89 7d b8          	mov    QWORD PTR [rbp-0x48],rdi
   22259:	48 8b 8d 20 ff ff ff 	mov    rcx,QWORD PTR [rbp-0xe0]
   22260:	48 89 4d c0          	mov    QWORD PTR [rbp-0x40],rcx
   22264:	4c 8b 9d 18 ff ff ff 	mov    r11,QWORD PTR [rbp-0xe8]
   2226b:	4c 8b bd f8 fe ff ff 	mov    r15,QWORD PTR [rbp-0x108]
   22272:	4c 8b ad f0 fe ff ff 	mov    r13,QWORD PTR [rbp-0x110]
   22279:	48 8b 9d 00 ff ff ff 	mov    rbx,QWORD PTR [rbp-0x100]
   22280:	4c 8b 95 38 ff ff ff 	mov    r10,QWORD PTR [rbp-0xc8]
   22287:	8a 55 cd             	mov    dl,BYTE PTR [rbp-0x33]
   2228a:	89 d6                	mov    esi,edx
   2228c:	48 ba db be 77 62 ce 	movabs rdx,0xfb0b6cce6277bedb
   22293:	6c 0b fb 
   22296:	e9 92 79 ff ff       	jmp    19c2d <Java_com_adjust_sdk_sig_NativeLibHelper_nOnResume@@Base-0xa1076>
   2229b:	8a 45 ce             	mov    al,BYTE PTR [rbp-0x32]
   2229e:	88 45 cf             	mov    BYTE PTR [rbp-0x31],al
   222a1:	48 8b 85 50 ff ff ff 	mov    rax,QWORD PTR [rbp-0xb0]
   222a8:	48 89 85 70 ff ff ff 	mov    QWORD PTR [rbp-0x90],rax
   222af:	48 8b 85 60 ff ff ff 	mov    rax,QWORD PTR [rbp-0xa0]
   222b6:	48 89 85 78 ff ff ff 	mov    QWORD PTR [rbp-0x88],rax
   222bd:	4c 89 c0             	mov    rax,r8
   222c0:	4c 89 45 80          	mov    QWORD PTR [rbp-0x80],r8
   222c4:	4c 89 4d 88          	mov    QWORD PTR [rbp-0x78],r9
   222c8:	48 8b 85 48 ff ff ff 	mov    rax,QWORD PTR [rbp-0xb8]
   222cf:	48 89 45 90          	mov    QWORD PTR [rbp-0x70],rax
   222d3:	48 8b 85 58 ff ff ff 	mov    rax,QWORD PTR [rbp-0xa8]
   222da:	48 89 45 98          	mov    QWORD PTR [rbp-0x68],rax
   222de:	48 89 4d a0          	mov    QWORD PTR [rbp-0x60],rcx
   222e2:	4c 89 5d a8          	mov    QWORD PTR [rbp-0x58],r11
   222e6:	48 8b 85 40 ff ff ff 	mov    rax,QWORD PTR [rbp-0xc0]
   222ed:	48 89 45 b0          	mov    QWORD PTR [rbp-0x50],rax
   222f1:	48 8b 85 08 ff ff ff 	mov    rax,QWORD PTR [rbp-0xf8]
   222f8:	48 8b 8d 10 ff ff ff 	mov    rcx,QWORD PTR [rbp-0xf0]
   222ff:	48 89 4d b8          	mov    QWORD PTR [rbp-0x48],rcx
   22303:	48 8b 8d 20 ff ff ff 	mov    rcx,QWORD PTR [rbp-0xe0]
   2230a:	48 89 4d c0          	mov    QWORD PTR [rbp-0x40],rcx
   2230e:	4c 8b 9d 18 ff ff ff 	mov    r11,QWORD PTR [rbp-0xe8]
   22315:	4c 8b 95 38 ff ff ff 	mov    r10,QWORD PTR [rbp-0xc8]
   2231c:	44 89 e6             	mov    esi,r12d
   2231f:	48 8b 95 60 fe ff ff 	mov    rdx,QWORD PTR [rbp-0x1a0]
   22326:	48 ff c2             	inc    rdx
   22329:	48 89 95 a8 fd ff ff 	mov    QWORD PTR [rbp-0x258],rdx
   22330:	48 ba bb ec 6f 4e 0c 	movabs rdx,0x5617630c4e6fecbb
   22337:	63 17 56 
   2233a:	e9 ee 78 ff ff       	jmp    19c2d <Java_com_adjust_sdk_sig_NativeLibHelper_nOnResume@@Base-0xa1076>
   2233f:	48 8b 95 78 fe ff ff 	mov    rdx,QWORD PTR [rbp-0x188]
   22346:	8d 42 a5             	lea    eax,[rdx-0x5b]
   22349:	89 d1                	mov    ecx,edx
   2234b:	83 c9 20             	or     ecx,0x20
   2234e:	83 f8 e6             	cmp    eax,0xffffffe6
   22351:	0f 42 ca             	cmovb  ecx,edx
   22354:	0f b6 85 df fe ff ff 	movzx  eax,BYTE PTR [rbp-0x121]
   2235b:	8d 50 a5             	lea    edx,[rax-0x5b]
   2235e:	89 c6                	mov    esi,eax
   22360:	83 ce 20             	or     esi,0x20
   22363:	83 fa e6             	cmp    edx,0xffffffe6
   22366:	0f 42 f0             	cmovb  esi,eax
   22369:	48 ba 80 f6 3a 89 2c 	movabs rdx,0x945c642c893af680
   22370:	64 5c 94 
   22373:	39 f1                	cmp    ecx,esi
   22375:	40 8a 75 cd          	mov    sil,BYTE PTR [rbp-0x33]
   22379:	4c 8b 95 38 ff ff ff 	mov    r10,QWORD PTR [rbp-0xc8]
   22380:	48 8b 9d 00 ff ff ff 	mov    rbx,QWORD PTR [rbp-0x100]
   22387:	4c 8b ad f0 fe ff ff 	mov    r13,QWORD PTR [rbp-0x110]
   2238e:	4c 8b bd f8 fe ff ff 	mov    r15,QWORD PTR [rbp-0x108]
   22395:	4c 8b 8d 18 ff ff ff 	mov    r9,QWORD PTR [rbp-0xe8]
   2239c:	4c 8b 85 20 ff ff ff 	mov    r8,QWORD PTR [rbp-0xe0]
   223a3:	48 8b bd 10 ff ff ff 	mov    rdi,QWORD PTR [rbp-0xf0]
   223aa:	48 8b 8d 08 ff ff ff 	mov    rcx,QWORD PTR [rbp-0xf8]
   223b1:	48 8b 85 40 ff ff ff 	mov    rax,QWORD PTR [rbp-0xc0]
   223b8:	0f 84 fb 03 00 00    	je     227b9 <Java_com_adjust_sdk_sig_NativeLibHelper_nOnResume@@Base-0x984ea>
   223be:	48 ba 17 2c 41 ba 3a 	movabs rdx,0x726f033aba412c17
   223c5:	03 6f 72 
   223c8:	e9 ec 03 00 00       	jmp    227b9 <Java_com_adjust_sdk_sig_NativeLibHelper_nOnResume@@Base-0x984ea>
   223cd:	c6 05 60 c9 11 00 00 	mov    BYTE PTR [rip+0x11c960],0x0        # 13ed34 <write@plt+0xc1b4>
   223d4:	41 0f b6 45 00       	movzx  eax,BYTE PTR [r13+0x0]
   223d9:	48 ba f0 2b ca 01 f8 	movabs rdx,0xdfa2a8f801ca2bf0
   223e0:	a8 a2 df 
   223e3:	48 89 85 78 fe ff ff 	mov    QWORD PTR [rbp-0x188],rax
   223ea:	85 c0                	test   eax,eax
   223ec:	74 0a                	je     223f8 <Java_com_adjust_sdk_sig_NativeLibHelper_nOnResume@@Base-0x988ab>
   223ee:	48 ba 22 17 c1 80 81 	movabs rdx,0xfc35fb8180c11722
   223f5:	fb 35 fc 
   223f8:	8a 45 ce             	mov    al,BYTE PTR [rbp-0x32]
   223fb:	88 45 cf             	mov    BYTE PTR [rbp-0x31],al
   223fe:	48 8b 85 50 ff ff ff 	mov    rax,QWORD PTR [rbp-0xb0]
   22405:	48 89 85 70 ff ff ff 	mov    QWORD PTR [rbp-0x90],rax
   2240c:	48 8b 85 60 ff ff ff 	mov    rax,QWORD PTR [rbp-0xa0]
   22413:	48 89 85 78 ff ff ff 	mov    QWORD PTR [rbp-0x88],rax
   2241a:	48 89 f8             	mov    rax,rdi
   2241d:	48 89 7d 80          	mov    QWORD PTR [rbp-0x80],rdi
   22421:	4c 89 4d 88          	mov    QWORD PTR [rbp-0x78],r9
   22425:	48 8b 85 48 ff ff ff 	mov    rax,QWORD PTR [rbp-0xb8]
   2242c:	48 89 45 90          	mov    QWORD PTR [rbp-0x70],rax
   22430:	48 8b 85 58 ff ff ff 	mov    rax,QWORD PTR [rbp-0xa8]
   22437:	48 89 45 98          	mov    QWORD PTR [rbp-0x68],rax
   2243b:	48 8b 85 30 ff ff ff 	mov    rax,QWORD PTR [rbp-0xd0]
   22442:	48 89 45 a0          	mov    QWORD PTR [rbp-0x60],rax
   22446:	48 8b 85 28 ff ff ff 	mov    rax,QWORD PTR [rbp-0xd8]
   2244d:	48 89 45 a8          	mov    QWORD PTR [rbp-0x58],rax
   22451:	48 8b 85 40 ff ff ff 	mov    rax,QWORD PTR [rbp-0xc0]
   22458:	48 89 45 b0          	mov    QWORD PTR [rbp-0x50],rax
   2245c:	48 8b 85 08 ff ff ff 	mov    rax,QWORD PTR [rbp-0xf8]
   22463:	48 8b 8d 10 ff ff ff 	mov    rcx,QWORD PTR [rbp-0xf0]
   2246a:	48 89 4d b8          	mov    QWORD PTR [rbp-0x48],rcx
   2246e:	48 8b 8d 20 ff ff ff 	mov    rcx,QWORD PTR [rbp-0xe0]
   22475:	48 89 4d c0          	mov    QWORD PTR [rbp-0x40],rcx
   22479:	4c 8b 9d 18 ff ff ff 	mov    r11,QWORD PTR [rbp-0xe8]
   22480:	40 8a 33             	mov    sil,BYTE PTR [rbx]
   22483:	40 88 b5 df fe ff ff 	mov    BYTE PTR [rbp-0x121],sil
   2248a:	e9 57 04 00 00       	jmp    228e6 <Java_com_adjust_sdk_sig_NativeLibHelper_nOnResume@@Base-0x983bd>
   2248f:	4c 8b b5 60 ff ff ff 	mov    r14,QWORD PTR [rbp-0xa0]
   22496:	4c 3b b5 30 fe ff ff 	cmp    r14,QWORD PTR [rbp-0x1d0]
   2249d:	48 ba bd 33 18 43 3c 	movabs rdx,0x8900b73c431833bd
   224a4:	b7 00 89 
   224a7:	48 b8 b2 4c a3 3f 21 	movabs rax,0xe658ee213fa34cb2
   224ae:	ee 58 e6 
   224b1:	48 0f 47 d0          	cmova  rdx,rax
   224b5:	8a 45 ce             	mov    al,BYTE PTR [rbp-0x32]
   224b8:	88 45 cf             	mov    BYTE PTR [rbp-0x31],al
   224bb:	48 8b 85 50 ff ff ff 	mov    rax,QWORD PTR [rbp-0xb0]
   224c2:	48 89 85 70 ff ff ff 	mov    QWORD PTR [rbp-0x90],rax
   224c9:	48 8b 85 e0 fe ff ff 	mov    rax,QWORD PTR [rbp-0x120]
   224d0:	48 89 45 80          	mov    QWORD PTR [rbp-0x80],rax
   224d4:	48 8b 85 e8 fe ff ff 	mov    rax,QWORD PTR [rbp-0x118]
   224db:	48 89 45 88          	mov    QWORD PTR [rbp-0x78],rax
   224df:	48 8b 85 48 ff ff ff 	mov    rax,QWORD PTR [rbp-0xb8]
   224e6:	48 89 45 90          	mov    QWORD PTR [rbp-0x70],rax
   224ea:	48 8b 85 58 ff ff ff 	mov    rax,QWORD PTR [rbp-0xa8]
   224f1:	48 89 45 98          	mov    QWORD PTR [rbp-0x68],rax
   224f5:	48 8b 85 30 ff ff ff 	mov    rax,QWORD PTR [rbp-0xd0]
   224fc:	48 89 45 a0          	mov    QWORD PTR [rbp-0x60],rax
   22500:	48 8b 85 28 ff ff ff 	mov    rax,QWORD PTR [rbp-0xd8]
   22507:	48 89 45 a8          	mov    QWORD PTR [rbp-0x58],rax
   2250b:	4c 89 65 b0          	mov    QWORD PTR [rbp-0x50],r12
   2250f:	48 89 c8             	mov    rax,rcx
   22512:	48 89 7d b8          	mov    QWORD PTR [rbp-0x48],rdi
   22516:	4c 89 45 c0          	mov    QWORD PTR [rbp-0x40],r8
   2251a:	4d 89 cb             	mov    r11,r9
   2251d:	4c 89 b5 78 ff ff ff 	mov    QWORD PTR [rbp-0x88],r14
   22524:	4c 89 b5 60 fc ff ff 	mov    QWORD PTR [rbp-0x3a0],r14
   2252b:	e9 fd 76 ff ff       	jmp    19c2d <Java_com_adjust_sdk_sig_NativeLibHelper_nOnResume@@Base-0xa1076>
   22530:	48 8b 85 b8 fe ff ff 	mov    rax,QWORD PTR [rbp-0x148]
   22537:	8a 40 02             	mov    al,BYTE PTR [rax+0x2]
   2253a:	48 ba 9d 0f 45 29 85 	movabs rdx,0x766c658529450f9d
   22541:	65 6c 76 
   22544:	88 85 cb fe ff ff    	mov    BYTE PTR [rbp-0x135],al
   2254a:	84 c0                	test   al,al
   2254c:	74 0a                	je     22558 <Java_com_adjust_sdk_sig_NativeLibHelper_nOnResume@@Base-0x9874b>
   2254e:	48 ba 82 8d 0c a7 ea 	movabs rdx,0x43c03deaa70c8d82
   22555:	3d c0 43 
   22558:	8a 45 ce             	mov    al,BYTE PTR [rbp-0x32]
   2255b:	88 45 cf             	mov    BYTE PTR [rbp-0x31],al
   2255e:	48 8b 85 50 ff ff ff 	mov    rax,QWORD PTR [rbp-0xb0]
   22565:	48 89 85 70 ff ff ff 	mov    QWORD PTR [rbp-0x90],rax
   2256c:	48 8b 85 60 ff ff ff 	mov    rax,QWORD PTR [rbp-0xa0]
   22573:	48 89 85 78 ff ff ff 	mov    QWORD PTR [rbp-0x88],rax
   2257a:	48 8b 85 e0 fe ff ff 	mov    rax,QWORD PTR [rbp-0x120]
   22581:	48 89 45 80          	mov    QWORD PTR [rbp-0x80],rax
   22585:	48 8b 85 e8 fe ff ff 	mov    rax,QWORD PTR [rbp-0x118]
   2258c:	48 89 45 88          	mov    QWORD PTR [rbp-0x78],rax
   22590:	48 8b 85 48 ff ff ff 	mov    rax,QWORD PTR [rbp-0xb8]
   22597:	48 89 45 90          	mov    QWORD PTR [rbp-0x70],rax
   2259b:	48 8b 85 58 ff ff ff 	mov    rax,QWORD PTR [rbp-0xa8]
   225a2:	48 89 45 98          	mov    QWORD PTR [rbp-0x68],rax
   225a6:	48 8b 85 30 ff ff ff 	mov    rax,QWORD PTR [rbp-0xd0]
   225ad:	48 89 45 a0          	mov    QWORD PTR [rbp-0x60],rax
   225b1:	48 8b 85 28 ff ff ff 	mov    rax,QWORD PTR [rbp-0xd8]
   225b8:	48 89 45 a8          	mov    QWORD PTR [rbp-0x58],rax
   225bc:	4c 89 65 b0          	mov    QWORD PTR [rbp-0x50],r12
   225c0:	48 89 c8             	mov    rax,rcx
   225c3:	48 89 7d b8          	mov    QWORD PTR [rbp-0x48],rdi
   225c7:	4c 89 45 c0          	mov    QWORD PTR [rbp-0x40],r8
   225cb:	e9 5d 76 ff ff       	jmp    19c2d <Java_com_adjust_sdk_sig_NativeLibHelper_nOnResume@@Base-0xa1076>
   225d0:	8a 45 ce             	mov    al,BYTE PTR [rbp-0x32]
   225d3:	88 45 cf             	mov    BYTE PTR [rbp-0x31],al
   225d6:	48 8b 85 50 ff ff ff 	mov    rax,QWORD PTR [rbp-0xb0]
   225dd:	48 89 85 70 ff ff ff 	mov    QWORD PTR [rbp-0x90],rax
   225e4:	48 8b 85 60 ff ff ff 	mov    rax,QWORD PTR [rbp-0xa0]
   225eb:	48 89 85 78 ff ff ff 	mov    QWORD PTR [rbp-0x88],rax
   225f2:	48 89 f8             	mov    rax,rdi
   225f5:	48 89 7d 80          	mov    QWORD PTR [rbp-0x80],rdi
   225f9:	4c 89 4d 88          	mov    QWORD PTR [rbp-0x78],r9
   225fd:	48 8b 85 48 ff ff ff 	mov    rax,QWORD PTR [rbp-0xb8]
   22604:	48 89 45 90          	mov    QWORD PTR [rbp-0x70],rax
   22608:	48 8b 85 58 ff ff ff 	mov    rax,QWORD PTR [rbp-0xa8]
   2260f:	48 89 45 98          	mov    QWORD PTR [rbp-0x68],rax
   22613:	48 8b 85 30 ff ff ff 	mov    rax,QWORD PTR [rbp-0xd0]
   2261a:	48 89 45 a0          	mov    QWORD PTR [rbp-0x60],rax
   2261e:	48 8b 85 28 ff ff ff 	mov    rax,QWORD PTR [rbp-0xd8]
   22625:	48 89 45 a8          	mov    QWORD PTR [rbp-0x58],rax
   22629:	48 8b 85 40 ff ff ff 	mov    rax,QWORD PTR [rbp-0xc0]
   22630:	48 89 45 b0          	mov    QWORD PTR [rbp-0x50],rax
   22634:	48 8b 85 08 ff ff ff 	mov    rax,QWORD PTR [rbp-0xf8]
   2263b:	48 8b 8d 10 ff ff ff 	mov    rcx,QWORD PTR [rbp-0xf0]
   22642:	48 89 4d b8          	mov    QWORD PTR [rbp-0x48],rcx
   22646:	48 8b 8d 20 ff ff ff 	mov    rcx,QWORD PTR [rbp-0xe0]
   2264d:	48 89 4d c0          	mov    QWORD PTR [rbp-0x40],rcx
   22651:	4c 8b 9d 18 ff ff ff 	mov    r11,QWORD PTR [rbp-0xe8]
   22658:	4c 8b bd f8 fe ff ff 	mov    r15,QWORD PTR [rbp-0x108]
   2265f:	4c 8b ad f0 fe ff ff 	mov    r13,QWORD PTR [rbp-0x110]
   22666:	48 8b 9d 00 ff ff ff 	mov    rbx,QWORD PTR [rbp-0x100]
   2266d:	4c 8b 95 38 ff ff ff 	mov    r10,QWORD PTR [rbp-0xc8]
   22674:	8a 55 cd             	mov    dl,BYTE PTR [rbp-0x33]
   22677:	89 d6                	mov    esi,edx
   22679:	31 d2                	xor    edx,edx
   2267b:	48 89 95 80 fd ff ff 	mov    QWORD PTR [rbp-0x280],rdx
   22682:	6a ff                	push   0xffffffffffffffff
   22684:	5a                   	pop    rdx
   22685:	48 89 95 a0 fd ff ff 	mov    QWORD PTR [rbp-0x260],rdx
   2268c:	48 ba 18 b7 2a 7a 9a 	movabs rdx,0x61fe569a7a2ab718
   22693:	56 fe 61 
   22696:	e9 92 75 ff ff       	jmp    19c2d <Java_com_adjust_sdk_sig_NativeLibHelper_nOnResume@@Base-0xa1076>
   2269b:	8a 45 ce             	mov    al,BYTE PTR [rbp-0x32]
   2269e:	88 45 cf             	mov    BYTE PTR [rbp-0x31],al
   226a1:	48 8b 85 50 ff ff ff 	mov    rax,QWORD PTR [rbp-0xb0]
   226a8:	48 89 85 70 ff ff ff 	mov    QWORD PTR [rbp-0x90],rax
   226af:	48 8b 85 60 ff ff ff 	mov    rax,QWORD PTR [rbp-0xa0]
   226b6:	48 89 85 78 ff ff ff 	mov    QWORD PTR [rbp-0x88],rax
   226bd:	48 8b 85 48 ff ff ff 	mov    rax,QWORD PTR [rbp-0xb8]
   226c4:	48 89 45 90          	mov    QWORD PTR [rbp-0x70],rax
   226c8:	48 8b 85 58 ff ff ff 	mov    rax,QWORD PTR [rbp-0xa8]
   226cf:	48 89 45 98          	mov    QWORD PTR [rbp-0x68],rax
   226d3:	48 8b 85 30 ff ff ff 	mov    rax,QWORD PTR [rbp-0xd0]
   226da:	48 89 45 a0          	mov    QWORD PTR [rbp-0x60],rax
   226de:	48 8b 85 28 ff ff ff 	mov    rax,QWORD PTR [rbp-0xd8]
   226e5:	48 89 45 a8          	mov    QWORD PTR [rbp-0x58],rax
   226e9:	48 8b 85 40 ff ff ff 	mov    rax,QWORD PTR [rbp-0xc0]
   226f0:	48 89 45 b0          	mov    QWORD PTR [rbp-0x50],rax
   226f4:	48 8b 85 08 ff ff ff 	mov    rax,QWORD PTR [rbp-0xf8]
   226fb:	48 8b 8d 10 ff ff ff 	mov    rcx,QWORD PTR [rbp-0xf0]
   22702:	48 89 4d b8          	mov    QWORD PTR [rbp-0x48],rcx
   22706:	48 8b 8d 20 ff ff ff 	mov    rcx,QWORD PTR [rbp-0xe0]
   2270d:	48 89 4d c0          	mov    QWORD PTR [rbp-0x40],rcx
   22711:	4c 8b 9d 18 ff ff ff 	mov    r11,QWORD PTR [rbp-0xe8]
   22718:	4c 8b bd f8 fe ff ff 	mov    r15,QWORD PTR [rbp-0x108]
   2271f:	4c 8b ad f0 fe ff ff 	mov    r13,QWORD PTR [rbp-0x110]
   22726:	48 8b 9d 00 ff ff ff 	mov    rbx,QWORD PTR [rbp-0x100]
   2272d:	4c 8b 95 38 ff ff ff 	mov    r10,QWORD PTR [rbp-0xc8]
   22734:	8a 55 cd             	mov    dl,BYTE PTR [rbp-0x33]
   22737:	89 d6                	mov    esi,edx
   22739:	31 d2                	xor    edx,edx
   2273b:	48 89 55 80          	mov    QWORD PTR [rbp-0x80],rdx
   2273f:	48 8b 95 c0 fe ff ff 	mov    rdx,QWORD PTR [rbp-0x140]
   22746:	48 89 55 88          	mov    QWORD PTR [rbp-0x78],rdx
   2274a:	48 ba 3a 4b eb 22 9e 	movabs rdx,0x1f0a569e22eb4b3a
   22751:	56 0a 1f 
   22754:	e9 d4 74 ff ff       	jmp    19c2d <Java_com_adjust_sdk_sig_NativeLibHelper_nOnResume@@Base-0xa1076>
   22759:	80 3d cd c5 11 00 00 	cmp    BYTE PTR [rip+0x11c5cd],0x0        # 13ed2d <write@plt+0xc1ad>
   22760:	48 ba 82 be ba 17 48 	movabs rdx,0xf446564817babe82
   22767:	56 46 f4 
   2276a:	40 8a 75 cd          	mov    sil,BYTE PTR [rbp-0x33]
   2276e:	4c 8b 95 38 ff ff ff 	mov    r10,QWORD PTR [rbp-0xc8]
   22775:	48 8b 9d 00 ff ff ff 	mov    rbx,QWORD PTR [rbp-0x100]
   2277c:	4c 8b ad f0 fe ff ff 	mov    r13,QWORD PTR [rbp-0x110]
   22783:	4c 8b bd f8 fe ff ff 	mov    r15,QWORD PTR [rbp-0x108]
   2278a:	4c 8b 8d 18 ff ff ff 	mov    r9,QWORD PTR [rbp-0xe8]
   22791:	4c 8b 85 20 ff ff ff 	mov    r8,QWORD PTR [rbp-0xe0]
   22798:	48 8b bd 10 ff ff ff 	mov    rdi,QWORD PTR [rbp-0xf0]
   2279f:	48 8b 8d 08 ff ff ff 	mov    rcx,QWORD PTR [rbp-0xf8]
   227a6:	48 8b 85 40 ff ff ff 	mov    rax,QWORD PTR [rbp-0xc0]
   227ad:	75 0a                	jne    227b9 <Java_com_adjust_sdk_sig_NativeLibHelper_nOnResume@@Base-0x984ea>
   227af:	48 ba 67 ac 6e 50 cf 	movabs rdx,0x282e2cf506eac67
   227b6:	e2 82 02 
   227b9:	44 8a 5d ce          	mov    r11b,BYTE PTR [rbp-0x32]
   227bd:	44 88 5d cf          	mov    BYTE PTR [rbp-0x31],r11b
   227c1:	4c 8b 9d 50 ff ff ff 	mov    r11,QWORD PTR [rbp-0xb0]
   227c8:	4c 89 9d 70 ff ff ff 	mov    QWORD PTR [rbp-0x90],r11
   227cf:	4c 8b 9d 60 ff ff ff 	mov    r11,QWORD PTR [rbp-0xa0]
   227d6:	4c 89 9d 78 ff ff ff 	mov    QWORD PTR [rbp-0x88],r11
   227dd:	4c 8b 9d e0 fe ff ff 	mov    r11,QWORD PTR [rbp-0x120]
   227e4:	4c 89 5d 80          	mov    QWORD PTR [rbp-0x80],r11
   227e8:	4c 8b 9d e8 fe ff ff 	mov    r11,QWORD PTR [rbp-0x118]
   227ef:	4c 89 5d 88          	mov    QWORD PTR [rbp-0x78],r11
   227f3:	4c 8b 9d 48 ff ff ff 	mov    r11,QWORD PTR [rbp-0xb8]
   227fa:	4c 89 5d 90          	mov    QWORD PTR [rbp-0x70],r11
   227fe:	4c 8b 9d 58 ff ff ff 	mov    r11,QWORD PTR [rbp-0xa8]
   22805:	4c 89 5d 98          	mov    QWORD PTR [rbp-0x68],r11
   22809:	4c 8b 9d 30 ff ff ff 	mov    r11,QWORD PTR [rbp-0xd0]
   22810:	4c 89 5d a0          	mov    QWORD PTR [rbp-0x60],r11
   22814:	4c 8b 9d 28 ff ff ff 	mov    r11,QWORD PTR [rbp-0xd8]
   2281b:	4c 89 5d a8          	mov    QWORD PTR [rbp-0x58],r11
   2281f:	48 89 45 b0          	mov    QWORD PTR [rbp-0x50],rax
   22823:	48 89 c8             	mov    rax,rcx
   22826:	48 89 7d b8          	mov    QWORD PTR [rbp-0x48],rdi
   2282a:	4c 89 45 c0          	mov    QWORD PTR [rbp-0x40],r8
   2282e:	4d 89 cb             	mov    r11,r9
   22831:	e9 f7 73 ff ff       	jmp    19c2d <Java_com_adjust_sdk_sig_NativeLibHelper_nOnResume@@Base-0xa1076>
   22836:	48 8b 85 98 fe ff ff 	mov    rax,QWORD PTR [rbp-0x168]
   2283d:	48 8b 8d c0 fe ff ff 	mov    rcx,QWORD PTR [rbp-0x140]
   22844:	80 3c 08 00          	cmp    BYTE PTR [rax+rcx*1],0x0
   22848:	48 ba b3 7b 64 c7 99 	movabs rdx,0x1e4c6299c7647bb3
   2284f:	62 4c 1e 
   22852:	74 0a                	je     2285e <Java_com_adjust_sdk_sig_NativeLibHelper_nOnResume@@Base-0x98445>
   22854:	48 ba 08 2e 3d 1e 2d 	movabs rdx,0x62db2a2d1e3d2e08
   2285b:	2a db 62 
   2285e:	8a 45 ce             	mov    al,BYTE PTR [rbp-0x32]
   22861:	88 45 cf             	mov    BYTE PTR [rbp-0x31],al
   22864:	48 8b 85 50 ff ff ff 	mov    rax,QWORD PTR [rbp-0xb0]
   2286b:	48 89 85 70 ff ff ff 	mov    QWORD PTR [rbp-0x90],rax
   22872:	48 8b 85 60 ff ff ff 	mov    rax,QWORD PTR [rbp-0xa0]
   22879:	48 89 85 78 ff ff ff 	mov    QWORD PTR [rbp-0x88],rax
   22880:	48 89 f8             	mov    rax,rdi
   22883:	48 89 7d 80          	mov    QWORD PTR [rbp-0x80],rdi
   22887:	4c 89 4d 88          	mov    QWORD PTR [rbp-0x78],r9
   2288b:	48 8b 85 48 ff ff ff 	mov    rax,QWORD PTR [rbp-0xb8]
   22892:	48 89 45 90          	mov    QWORD PTR [rbp-0x70],rax
   22896:	48 8b 85 58 ff ff ff 	mov    rax,QWORD PTR [rbp-0xa8]
   2289d:	48 89 45 98          	mov    QWORD PTR [rbp-0x68],rax
   228a1:	48 8b 85 30 ff ff ff 	mov    rax,QWORD PTR [rbp-0xd0]
   228a8:	48 89 45 a0          	mov    QWORD PTR [rbp-0x60],rax
   228ac:	48 8b 85 28 ff ff ff 	mov    rax,QWORD PTR [rbp-0xd8]
   228b3:	48 89 45 a8          	mov    QWORD PTR [rbp-0x58],rax
   228b7:	48 8b 85 40 ff ff ff 	mov    rax,QWORD PTR [rbp-0xc0]
   228be:	48 89 45 b0          	mov    QWORD PTR [rbp-0x50],rax
   228c2:	48 8b 85 08 ff ff ff 	mov    rax,QWORD PTR [rbp-0xf8]
   228c9:	48 8b 8d 10 ff ff ff 	mov    rcx,QWORD PTR [rbp-0xf0]
   228d0:	48 89 4d b8          	mov    QWORD PTR [rbp-0x48],rcx
   228d4:	48 8b 8d 20 ff ff ff 	mov    rcx,QWORD PTR [rbp-0xe0]
   228db:	48 89 4d c0          	mov    QWORD PTR [rbp-0x40],rcx
   228df:	4c 8b 9d 18 ff ff ff 	mov    r11,QWORD PTR [rbp-0xe8]
   228e6:	4c 8b 95 38 ff ff ff 	mov    r10,QWORD PTR [rbp-0xc8]
   228ed:	44 89 e6             	mov    esi,r12d
   228f0:	e9 38 73 ff ff       	jmp    19c2d <Java_com_adjust_sdk_sig_NativeLibHelper_nOnResume@@Base-0xa1076>
   228f5:	48 8b 85 50 fe ff ff 	mov    rax,QWORD PTR [rbp-0x1b0]
   228fc:	48 2b 85 80 fc ff ff 	sub    rax,QWORD PTR [rbp-0x380]
   22903:	48 3b 85 c0 fe ff ff 	cmp    rax,QWORD PTR [rbp-0x140]
   2290a:	48 ba b5 50 23 a4 b8 	movabs rdx,0x18914bb8a42350b5
   22911:	4b 91 18 
   22914:	48 b8 f5 a9 02 47 52 	movabs rax,0xff9efe524702a9f5
   2291b:	fe 9e ff 
   2291e:	48 0f 4c d0          	cmovl  rdx,rax
   22922:	44 88 55 cf          	mov    BYTE PTR [rbp-0x31],r10b
   22926:	4c 89 bd 70 ff ff ff 	mov    QWORD PTR [rbp-0x90],r15
   2292d:	4c 89 ad 78 ff ff ff 	mov    QWORD PTR [rbp-0x88],r13
   22934:	48 89 7d 80          	mov    QWORD PTR [rbp-0x80],rdi
   22938:	4c 89 4d 88          	mov    QWORD PTR [rbp-0x78],r9
   2293c:	4c 89 45 90          	mov    QWORD PTR [rbp-0x70],r8
   22940:	4c 89 75 98          	mov    QWORD PTR [rbp-0x68],r14
   22944:	4c 89 5d a0          	mov    QWORD PTR [rbp-0x60],r11
   22948:	48 89 5d a8          	mov    QWORD PTR [rbp-0x58],rbx
   2294c:	4c 89 65 b0          	mov    QWORD PTR [rbp-0x50],r12
   22950:	48 89 c8             	mov    rax,rcx
   22953:	48 8b 8d 10 ff ff ff 	mov    rcx,QWORD PTR [rbp-0xf0]
   2295a:	48 89 4d b8          	mov    QWORD PTR [rbp-0x48],rcx
   2295e:	48 8b 8d 20 ff ff ff 	mov    rcx,QWORD PTR [rbp-0xe0]
   22965:	48 89 4d c0          	mov    QWORD PTR [rbp-0x40],rcx
   22969:	4c 8b 9d 18 ff ff ff 	mov    r11,QWORD PTR [rbp-0xe8]
   22970:	4c 8b bd f8 fe ff ff 	mov    r15,QWORD PTR [rbp-0x108]
   22977:	4c 8b ad f0 fe ff ff 	mov    r13,QWORD PTR [rbp-0x110]
   2297e:	48 8b 9d 00 ff ff ff 	mov    rbx,QWORD PTR [rbp-0x100]
   22985:	4c 8b 95 38 ff ff ff 	mov    r10,QWORD PTR [rbp-0xc8]
   2298c:	e9 9c 72 ff ff       	jmp    19c2d <Java_com_adjust_sdk_sig_NativeLibHelper_nOnResume@@Base-0xa1076>
   22991:	c1 e2 18             	shl    edx,0x18
   22994:	c1 e6 10             	shl    esi,0x10
   22997:	09 d6                	or     esi,edx
   22999:	41 c1 e2 08          	shl    r10d,0x8
   2299d:	41 09 f2             	or     r10d,esi
   229a0:	0f b6 85 ce fe ff ff 	movzx  eax,BYTE PTR [rbp-0x132]
   229a7:	44 09 d0             	or     eax,r10d
   229aa:	89 85 e8 fd ff ff    	mov    DWORD PTR [rbp-0x218],eax
   229b0:	41 c1 e6 10          	shl    r14d,0x10
   229b4:	41 c1 e0 08          	shl    r8d,0x8
   229b8:	45 09 f0             	or     r8d,r14d
   229bb:	48 8b 85 98 fe ff ff 	mov    rax,QWORD PTR [rbp-0x168]
   229c2:	0f b6 00             	movzx  eax,BYTE PTR [rax]
   229c5:	c1 e0 18             	shl    eax,0x18
   229c8:	41 09 c0             	or     r8d,eax
   229cb:	8a 45 ce             	mov    al,BYTE PTR [rbp-0x32]
   229ce:	88 45 cf             	mov    BYTE PTR [rbp-0x31],al
   229d1:	48 8b 85 50 ff ff ff 	mov    rax,QWORD PTR [rbp-0xb0]
   229d8:	48 89 85 70 ff ff ff 	mov    QWORD PTR [rbp-0x90],rax
   229df:	48 8b 85 60 ff ff ff 	mov    rax,QWORD PTR [rbp-0xa0]
   229e6:	48 89 85 78 ff ff ff 	mov    QWORD PTR [rbp-0x88],rax
   229ed:	48 89 f8             	mov    rax,rdi
   229f0:	48 89 7d 80          	mov    QWORD PTR [rbp-0x80],rdi
   229f4:	4c 89 4d 88          	mov    QWORD PTR [rbp-0x78],r9
   229f8:	48 8b 85 48 ff ff ff 	mov    rax,QWORD PTR [rbp-0xb8]
   229ff:	48 89 45 90          	mov    QWORD PTR [rbp-0x70],rax
   22a03:	48 8b 85 58 ff ff ff 	mov    rax,QWORD PTR [rbp-0xa8]
   22a0a:	48 89 45 98          	mov    QWORD PTR [rbp-0x68],rax
   22a0e:	48 8b 85 30 ff ff ff 	mov    rax,QWORD PTR [rbp-0xd0]
   22a15:	48 89 45 a0          	mov    QWORD PTR [rbp-0x60],rax
   22a19:	48 8b 85 28 ff ff ff 	mov    rax,QWORD PTR [rbp-0xd8]
   22a20:	48 89 45 a8          	mov    QWORD PTR [rbp-0x58],rax
   22a24:	48 8b 85 40 ff ff ff 	mov    rax,QWORD PTR [rbp-0xc0]
   22a2b:	48 89 45 b0          	mov    QWORD PTR [rbp-0x50],rax
   22a2f:	48 8b 85 08 ff ff ff 	mov    rax,QWORD PTR [rbp-0xf8]
   22a36:	48 8b 8d 10 ff ff ff 	mov    rcx,QWORD PTR [rbp-0xf0]
   22a3d:	48 89 4d b8          	mov    QWORD PTR [rbp-0x48],rcx
   22a41:	48 8b 8d 20 ff ff ff 	mov    rcx,QWORD PTR [rbp-0xe0]
   22a48:	48 89 4d c0          	mov    QWORD PTR [rbp-0x40],rcx
   22a4c:	4c 8b 9d 18 ff ff ff 	mov    r11,QWORD PTR [rbp-0xe8]
   22a53:	44 89 85 90 fe ff ff 	mov    DWORD PTR [rbp-0x170],r8d
   22a5a:	4c 8b 95 38 ff ff ff 	mov    r10,QWORD PTR [rbp-0xc8]
   22a61:	44 89 e6             	mov    esi,r12d
   22a64:	8a 95 cf fe ff ff    	mov    dl,BYTE PTR [rbp-0x131]
   22a6a:	88 95 dd fe ff ff    	mov    BYTE PTR [rbp-0x123],dl
   22a70:	48 8b 95 48 fc ff ff 	mov    rdx,QWORD PTR [rbp-0x3b8]
   22a77:	48 89 95 b8 fd ff ff 	mov    QWORD PTR [rbp-0x248],rdx
   22a7e:	48 ba 96 41 42 b6 b3 	movabs rdx,0x9e0132b3b6424196
   22a85:	32 01 9e 
   22a88:	e9 a0 71 ff ff       	jmp    19c2d <Java_com_adjust_sdk_sig_NativeLibHelper_nOnResume@@Base-0xa1076>
   22a8d:	4c 8b 8d 40 fe ff ff 	mov    r9,QWORD PTR [rbp-0x1c0]
   22a94:	49 8b 41 08          	mov    rax,QWORD PTR [r9+0x8]
   22a98:	4d 89 de             	mov    r14,r11
   22a9b:	49 89 d3             	mov    r11,rdx
   22a9e:	48 8b 95 70 fe ff ff 	mov    rdx,QWORD PTR [rbp-0x190]
   22aa5:	48 89 10             	mov    QWORD PTR [rax],rdx
   22aa8:	48 8b 85 48 fd ff ff 	mov    rax,QWORD PTR [rbp-0x2b8]
   22aaf:	49 89 41 08          	mov    QWORD PTR [r9+0x8],rax
   22ab3:	8a 45 ce             	mov    al,BYTE PTR [rbp-0x32]
   22ab6:	88 45 cf             	mov    BYTE PTR [rbp-0x31],al
   22ab9:	48 8b 85 50 ff ff ff 	mov    rax,QWORD PTR [rbp-0xb0]
   22ac0:	48 89 85 70 ff ff ff 	mov    QWORD PTR [rbp-0x90],rax
   22ac7:	48 8b 85 60 ff ff ff 	mov    rax,QWORD PTR [rbp-0xa0]
   22ace:	48 89 85 78 ff ff ff 	mov    QWORD PTR [rbp-0x88],rax
   22ad5:	48 8b 85 e0 fe ff ff 	mov    rax,QWORD PTR [rbp-0x120]
   22adc:	48 89 45 80          	mov    QWORD PTR [rbp-0x80],rax
   22ae0:	48 8b 85 e8 fe ff ff 	mov    rax,QWORD PTR [rbp-0x118]
   22ae7:	48 89 45 88          	mov    QWORD PTR [rbp-0x78],rax
   22aeb:	48 8b 85 48 ff ff ff 	mov    rax,QWORD PTR [rbp-0xb8]
   22af2:	48 89 45 90          	mov    QWORD PTR [rbp-0x70],rax
   22af6:	48 8b 85 58 ff ff ff 	mov    rax,QWORD PTR [rbp-0xa8]
   22afd:	48 89 45 98          	mov    QWORD PTR [rbp-0x68],rax
   22b01:	4c 89 5d a0          	mov    QWORD PTR [rbp-0x60],r11
   22b05:	4c 89 75 a8          	mov    QWORD PTR [rbp-0x58],r14
   22b09:	48 8b 85 40 ff ff ff 	mov    rax,QWORD PTR [rbp-0xc0]
   22b10:	48 89 45 b0          	mov    QWORD PTR [rbp-0x50],rax
   22b14:	4c 89 e0             	mov    rax,r12
   22b17:	48 89 7d b8          	mov    QWORD PTR [rbp-0x48],rdi
   22b1b:	4c 89 45 c0          	mov    QWORD PTR [rbp-0x40],r8
   22b1f:	49 89 cb             	mov    r11,rcx
   22b22:	48 ba 5c 36 e2 b2 0f 	movabs rdx,0xcf84e40fb2e2365c
   22b29:	e4 84 cf 
   22b2c:	e9 fc 70 ff ff       	jmp    19c2d <Java_com_adjust_sdk_sig_NativeLibHelper_nOnResume@@Base-0xa1076>
   22b31:	64 48 8b 04 25 28 00 	mov    rax,QWORD PTR fs:0x28
   22b38:	00 00 
   22b3a:	48 3b 45 d0          	cmp    rax,QWORD PTR [rbp-0x30]
   22b3e:	75 0f                	jne    22b4f <Java_com_adjust_sdk_sig_NativeLibHelper_nOnResume@@Base-0x98154>
   22b40:	48 8d 65 d8          	lea    rsp,[rbp-0x28]
   22b44:	5b                   	pop    rbx
   22b45:	41 5c                	pop    r12
   22b47:	41 5d                	pop    r13
   22b49:	41 5e                	pop    r14
   22b4b:	41 5f                	pop    r15
   22b4d:	5d                   	pop    rbp
   22b4e:	c3                   	ret
   22b4f:	e8 cc fc 10 00       	call   132820 <__stack_chk_fail@plt>
