   19bdf: 55                           	pushq	%rbp
   19be0: 48 89 e5                     	movq	%rsp, %rbp
   19be3: 41 57                        	pushq	%r15
   19be5: 41 56                        	pushq	%r14
   19be7: 41 55                        	pushq	%r13
   19be9: 41 54                        	pushq	%r12
   19beb: 53                           	pushq	%rbx
   19bec: 48 81 ec e8 03 00 00         	subq	$0x3e8, %rsp            # imm = 0x3E8
   19bf3: 48 89 95 40 fe ff ff         	movq	%rdx, -0x1c0(%rbp)
   19bfa: 48 89 b5 b8 fe ff ff         	movq	%rsi, -0x148(%rbp)
   19c01: 48 89 bd c8 fd ff ff         	movq	%rdi, -0x238(%rbp)
   19c08: 64 48 8b 04 25 28 00 00 00   	movq	%fs:0x28, %rax
   19c11: 48 89 45 d0                  	movq	%rax, -0x30(%rbp)
   19c15: 48 ba 2c 74 6e 7a 89 e0 a9 73	movabsq	$0x73a9e0897a6e742c, %rdx # imm = 0x73A9E0897A6E742C
   19c1f: 44 89 95 ac fe ff ff         	movl	%r10d, -0x154(%rbp)
   19c26: 4c 89 95 78 fe ff ff         	movq	%r10, -0x188(%rbp)
   19c2d: 4c 89 95 38 ff ff ff         	movq	%r10, -0xc8(%rbp)
   19c34: 48 89 9d 00 ff ff ff         	movq	%rbx, -0x100(%rbp)
   19c3b: 4c 89 ad f0 fe ff ff         	movq	%r13, -0x110(%rbp)
   19c42: 4c 89 bd f8 fe ff ff         	movq	%r15, -0x108(%rbp)
   19c49: 4c 89 9d 18 ff ff ff         	movq	%r11, -0xe8(%rbp)
   19c50: 48 8b 4d c0                  	movq	-0x40(%rbp), %rcx
   19c54: 48 89 8d 20 ff ff ff         	movq	%rcx, -0xe0(%rbp)
   19c5b: 48 8b 4d b8                  	movq	-0x48(%rbp), %rcx
   19c5f: 48 89 8d 10 ff ff ff         	movq	%rcx, -0xf0(%rbp)
   19c66: 48 89 c1                     	movq	%rax, %rcx
   19c69: 4c 8b 65 b0                  	movq	-0x50(%rbp), %r12
   19c6d: 48 8b 5d a8                  	movq	-0x58(%rbp), %rbx
   19c71: 4c 8b 5d a0                  	movq	-0x60(%rbp), %r11
   19c75: 4c 8b 75 98                  	movq	-0x68(%rbp), %r14
   19c79: 4c 8b 45 90                  	movq	-0x70(%rbp), %r8
   19c7d: 4c 8b 4d 88                  	movq	-0x78(%rbp), %r9
   19c81: 48 8b 7d 80                  	movq	-0x80(%rbp), %rdi
   19c85: 4c 8b ad 78 ff ff ff         	movq	-0x88(%rbp), %r13
   19c8c: 4c 8b bd 70 ff ff ff         	movq	-0x90(%rbp), %r15
   19c93: 44 8a 55 cf                  	movb	-0x31(%rbp), %r10b
   19c97: 48 b8 da 06 62 6c 90 29 80 81	movabsq	$-0x7e7fd66f939df926, %rax # imm = 0x818029906C6206DA
   19ca1: 48 89 95 68 ff ff ff         	movq	%rdx, -0x98(%rbp)
   19ca8: 48 39 c2                     	cmpq	%rax, %rdx
   19cab: 0f 84 44 8c 00 00            	je	0x228f5 <.text+0x14175>
   19cb1: 44 88 55 ce                  	movb	%r10b, -0x32(%rbp)
   19cb5: 44 88 55 cf                  	movb	%r10b, -0x31(%rbp)
   19cb9: 40 88 75 cd                  	movb	%sil, -0x33(%rbp)
   19cbd: 4c 89 bd 50 ff ff ff         	movq	%r15, -0xb0(%rbp)
   19cc4: 4c 89 bd 70 ff ff ff         	movq	%r15, -0x90(%rbp)
   19ccb: 4c 89 ad 60 ff ff ff         	movq	%r13, -0xa0(%rbp)
   19cd2: 4c 89 ad 78 ff ff ff         	movq	%r13, -0x88(%rbp)
   19cd9: 48 89 f8                     	movq	%rdi, %rax
   19cdc: 48 89 7d 80                  	movq	%rdi, -0x80(%rbp)
   19ce0: 4c 89 4d 88                  	movq	%r9, -0x78(%rbp)
   19ce4: 4c 89 45 90                  	movq	%r8, -0x70(%rbp)
   19ce8: 4c 89 b5 58 ff ff ff         	movq	%r14, -0xa8(%rbp)
   19cef: 4c 89 75 98                  	movq	%r14, -0x68(%rbp)
   19cf3: 4c 89 9d 30 ff ff ff         	movq	%r11, -0xd0(%rbp)
   19cfa: 4c 89 5d a0                  	movq	%r11, -0x60(%rbp)
   19cfe: 48 89 9d 28 ff ff ff         	movq	%rbx, -0xd8(%rbp)
   19d05: 48 89 5d a8                  	movq	%rbx, -0x58(%rbp)
   19d09: 4c 89 a5 40 ff ff ff         	movq	%r12, -0xc0(%rbp)
   19d10: 4c 89 65 b0                  	movq	%r12, -0x50(%rbp)
   19d14: 48 89 8d 08 ff ff ff         	movq	%rcx, -0xf8(%rbp)
   19d1b: 48 89 c8                     	movq	%rcx, %rax
   19d1e: 48 8b 8d 10 ff ff ff         	movq	-0xf0(%rbp), %rcx
   19d25: 48 89 4d b8                  	movq	%rcx, -0x48(%rbp)
   19d29: 48 8b 8d 20 ff ff ff         	movq	-0xe0(%rbp), %rcx
   19d30: 48 89 4d c0                  	movq	%rcx, -0x40(%rbp)
   19d34: 4c 8b 9d 18 ff ff ff         	movq	-0xe8(%rbp), %r11
   19d3b: 4c 8b bd f8 fe ff ff         	movq	-0x108(%rbp), %r15
   19d42: 4c 8b ad f0 fe ff ff         	movq	-0x110(%rbp), %r13
   19d49: 48 8b 9d 00 ff ff ff         	movq	-0x100(%rbp), %rbx
   19d50: 4c 8b 95 38 ff ff ff         	movq	-0xc8(%rbp), %r10
   19d57: 48 ba bc 5b fe 7c ef 40 e4 be	movabsq	$-0x411bbf108301a444, %rdx # imm = 0xBEE440EF7CFE5BBC
   19d61: 49 bc 6d bd a5 e5 0c 97 89 86	movabsq	$-0x797668f31a5a4293, %r12 # imm = 0x8689970CE5A5BD6D
   19d6b: 4c 39 a5 68 ff ff ff         	cmpq	%r12, -0x98(%rbp)
   19d72: 4c 89 85 48 ff ff ff         	movq	%r8, -0xb8(%rbp)
   19d79: 0f 84 ae fe ff ff            	je	0x19c2d <.text+0xb4ad>
   19d7f: 49 89 fe                     	movq	%rdi, %r14
   19d82: 48 b8 0a 06 39 4e fb 7b d4 86	movabsq	$-0x792b8404b1c6f9f6, %rax # imm = 0x86D47BFB4E39060A
   19d8c: 48 39 85 68 ff ff ff         	cmpq	%rax, -0x98(%rbp)
   19d93: 4c 89 8d e8 fe ff ff         	movq	%r9, -0x118(%rbp)
   19d9a: 48 89 bd e0 fe ff ff         	movq	%rdi, -0x120(%rbp)
   19da1: 0f 84 4f 7b 00 00            	je	0x218f6 <.text+0x13176>
   19da7: 8a 45 ce                     	movb	-0x32(%rbp), %al
   19daa: 88 45 cf                     	movb	%al, -0x31(%rbp)
   19dad: 8a 45 cd                     	movb	-0x33(%rbp), %al
   19db0: 89 c6                        	movl	%eax, %esi
   19db2: 48 8b 85 50 ff ff ff         	movq	-0xb0(%rbp), %rax
   19db9: 48 89 85 70 ff ff ff         	movq	%rax, -0x90(%rbp)
   19dc0: 48 8b 85 60 ff ff ff         	movq	-0xa0(%rbp), %rax
   19dc7: 48 89 85 78 ff ff ff         	movq	%rax, -0x88(%rbp)
   19dce: 4c 89 f0                     	movq	%r14, %rax
   19dd1: 4c 89 75 80                  	movq	%r14, -0x80(%rbp)
   19dd5: 4c 89 4d 88                  	movq	%r9, -0x78(%rbp)
   19dd9: 48 8b 85 48 ff ff ff         	movq	-0xb8(%rbp), %rax
   19de0: 48 89 45 90                  	movq	%rax, -0x70(%rbp)
   19de4: 48 8b 85 58 ff ff ff         	movq	-0xa8(%rbp), %rax
   19deb: 48 89 45 98                  	movq	%rax, -0x68(%rbp)
   19def: 48 8b 85 30 ff ff ff         	movq	-0xd0(%rbp), %rax
   19df6: 48 89 45 a0                  	movq	%rax, -0x60(%rbp)
   19dfa: 48 8b 85 28 ff ff ff         	movq	-0xd8(%rbp), %rax
   19e01: 48 89 45 a8                  	movq	%rax, -0x58(%rbp)
   19e05: 48 8b 85 40 ff ff ff         	movq	-0xc0(%rbp), %rax
   19e0c: 48 89 45 b0                  	movq	%rax, -0x50(%rbp)
   19e10: 48 8b 85 08 ff ff ff         	movq	-0xf8(%rbp), %rax
   19e17: 48 8b 8d 10 ff ff ff         	movq	-0xf0(%rbp), %rcx
   19e1e: 48 89 4d b8                  	movq	%rcx, -0x48(%rbp)
   19e22: 48 8b 8d 20 ff ff ff         	movq	-0xe0(%rbp), %rcx
   19e29: 48 89 4d c0                  	movq	%rcx, -0x40(%rbp)
   19e2d: 4c 8b 9d 18 ff ff ff         	movq	-0xe8(%rbp), %r11
   19e34: 4c 8b bd f8 fe ff ff         	movq	-0x108(%rbp), %r15
   19e3b: 4c 8b ad f0 fe ff ff         	movq	-0x110(%rbp), %r13
   19e42: 48 8b 9d 00 ff ff ff         	movq	-0x100(%rbp), %rbx
   19e49: 4c 8b 95 38 ff ff ff         	movq	-0xc8(%rbp), %r10
   19e50: 49 bc bd 33 18 43 3c b7 00 89	movabsq	$-0x76ff48c3bce7cc43, %r12 # imm = 0x8900B73C431833BD
   19e5a: 4c 39 a5 68 ff ff ff         	cmpq	%r12, -0x98(%rbp)
   19e61: 0f 84 c6 fd ff ff            	je	0x19c2d <.text+0xb4ad>
   19e67: 48 b8 ab 05 b0 c2 ba 26 31 8f	movabsq	$-0x70ced9453d4ffa55, %rax # imm = 0x8F3126BAC2B005AB
   19e71: 48 39 85 68 ff ff ff         	cmpq	%rax, -0x98(%rbp)
   19e78: 0f 84 a3 68 00 00            	je	0x20721 <.text+0x11fa1>
   19e7e: 8a 45 ce                     	movb	-0x32(%rbp), %al
   19e81: 88 45 cf                     	movb	%al, -0x31(%rbp)
   19e84: 8a 45 cd                     	movb	-0x33(%rbp), %al
   19e87: 89 c6                        	movl	%eax, %esi
   19e89: 48 8b 85 50 ff ff ff         	movq	-0xb0(%rbp), %rax
   19e90: 48 89 85 70 ff ff ff         	movq	%rax, -0x90(%rbp)
   19e97: 48 8b 85 60 ff ff ff         	movq	-0xa0(%rbp), %rax
   19e9e: 48 89 85 78 ff ff ff         	movq	%rax, -0x88(%rbp)
   19ea5: 4c 89 f0                     	movq	%r14, %rax
   19ea8: 4c 89 75 80                  	movq	%r14, -0x80(%rbp)
   19eac: 4c 89 4d 88                  	movq	%r9, -0x78(%rbp)
   19eb0: 48 8b 85 48 ff ff ff         	movq	-0xb8(%rbp), %rax
   19eb7: 48 89 45 90                  	movq	%rax, -0x70(%rbp)
   19ebb: 48 8b 85 58 ff ff ff         	movq	-0xa8(%rbp), %rax
   19ec2: 48 89 45 98                  	movq	%rax, -0x68(%rbp)
   19ec6: 48 8b 85 30 ff ff ff         	movq	-0xd0(%rbp), %rax
   19ecd: 48 89 45 a0                  	movq	%rax, -0x60(%rbp)
   19ed1: 48 8b 85 28 ff ff ff         	movq	-0xd8(%rbp), %rax
   19ed8: 48 89 45 a8                  	movq	%rax, -0x58(%rbp)
   19edc: 48 8b 85 40 ff ff ff         	movq	-0xc0(%rbp), %rax
   19ee3: 48 89 45 b0                  	movq	%rax, -0x50(%rbp)
   19ee7: 48 8b 85 08 ff ff ff         	movq	-0xf8(%rbp), %rax
   19eee: 48 8b 8d 10 ff ff ff         	movq	-0xf0(%rbp), %rcx
   19ef5: 48 89 4d b8                  	movq	%rcx, -0x48(%rbp)
   19ef9: 48 8b 8d 20 ff ff ff         	movq	-0xe0(%rbp), %rcx
   19f00: 48 89 4d c0                  	movq	%rcx, -0x40(%rbp)
   19f04: 4c 8b 9d 18 ff ff ff         	movq	-0xe8(%rbp), %r11
   19f0b: 4c 8b bd f8 fe ff ff         	movq	-0x108(%rbp), %r15
   19f12: 4c 8b ad f0 fe ff ff         	movq	-0x110(%rbp), %r13
   19f19: 48 8b 9d 00 ff ff ff         	movq	-0x100(%rbp), %rbx
   19f20: 4c 8b 95 38 ff ff ff         	movq	-0xc8(%rbp), %r10
   19f27: 48 ba 77 9e 41 4a d8 61 80 1f	movabsq	$0x1f8061d84a419e77, %rdx # imm = 0x1F8061D84A419E77
   19f31: 49 bc c4 a9 c2 35 35 12 74 90	movabsq	$-0x6f8bedcaca3d563c, %r12 # imm = 0x9074123535C2A9C4
   19f3b: 4c 39 a5 68 ff ff ff         	cmpq	%r12, -0x98(%rbp)
   19f42: 0f 84 e5 fc ff ff            	je	0x19c2d <.text+0xb4ad>
   19f48: 48 b8 63 67 77 38 87 a0 2d 93	movabsq	$-0x6cd25f78c788989d, %rax # imm = 0x932DA08738776763
   19f52: 48 39 85 68 ff ff ff         	cmpq	%rax, -0x98(%rbp)
   19f59: 0f 84 90 7b 00 00            	je	0x21aef <.text+0x1336f>
   19f5f: 48 b8 4a a5 a6 a9 75 47 f9 93	movabsq	$-0x6c06b88a56595ab6, %rax # imm = 0x93F94775A9A6A54A
   19f69: 48 39 85 68 ff ff ff         	cmpq	%rax, -0x98(%rbp)
   19f70: 40 8a 75 cd                  	movb	-0x33(%rbp), %sil
   19f74: 4c 8b 95 38 ff ff ff         	movq	-0xc8(%rbp), %r10
   19f7b: 48 8b 9d 00 ff ff ff         	movq	-0x100(%rbp), %rbx
   19f82: 4c 8b ad f0 fe ff ff         	movq	-0x110(%rbp), %r13
   19f89: 4c 8b bd f8 fe ff ff         	movq	-0x108(%rbp), %r15
   19f90: 48 8b 8d 18 ff ff ff         	movq	-0xe8(%rbp), %rcx
   19f97: 4c 8b 85 20 ff ff ff         	movq	-0xe0(%rbp), %r8
   19f9e: 48 8b bd 10 ff ff ff         	movq	-0xf0(%rbp), %rdi
   19fa5: 4c 8b a5 08 ff ff ff         	movq	-0xf8(%rbp), %r12
   19fac: 4c 8b 9d 28 ff ff ff         	movq	-0xd8(%rbp), %r11
   19fb3: 48 8b 95 30 ff ff ff         	movq	-0xd0(%rbp), %rdx
   19fba: 0f 84 ce 41 00 00            	je	0x1e18e <.text+0xfa0e>
   19fc0: 48 b8 a9 de 82 33 49 92 4c 94	movabsq	$-0x6bb36db6cc7d2157, %rax # imm = 0x944C92493382DEA9
   19fca: 48 39 85 68 ff ff ff         	cmpq	%rax, -0x98(%rbp)
   19fd1: 0f 84 b6 8a 00 00            	je	0x22a8d <.text+0x1430d>
   19fd7: 8a 45 ce                     	movb	-0x32(%rbp), %al
   19fda: 88 45 cf                     	movb	%al, -0x31(%rbp)
   19fdd: 48 8b 85 50 ff ff ff         	movq	-0xb0(%rbp), %rax
   19fe4: 48 89 85 70 ff ff ff         	movq	%rax, -0x90(%rbp)
   19feb: 48 8b 85 60 ff ff ff         	movq	-0xa0(%rbp), %rax
   19ff2: 48 89 85 78 ff ff ff         	movq	%rax, -0x88(%rbp)
   19ff9: 4c 8b b5 e0 fe ff ff         	movq	-0x120(%rbp), %r14
   1a000: 4c 89 f0                     	movq	%r14, %rax
   1a003: 4c 89 75 80                  	movq	%r14, -0x80(%rbp)
   1a007: 4c 8b 8d e8 fe ff ff         	movq	-0x118(%rbp), %r9
   1a00e: 4c 89 4d 88                  	movq	%r9, -0x78(%rbp)
   1a012: 48 8b 85 48 ff ff ff         	movq	-0xb8(%rbp), %rax
   1a019: 48 89 45 90                  	movq	%rax, -0x70(%rbp)
   1a01d: 48 8b 85 58 ff ff ff         	movq	-0xa8(%rbp), %rax
   1a024: 48 89 45 98                  	movq	%rax, -0x68(%rbp)
   1a028: 48 89 55 a0                  	movq	%rdx, -0x60(%rbp)
   1a02c: 4c 89 5d a8                  	movq	%r11, -0x58(%rbp)
   1a030: 48 8b 85 40 ff ff ff         	movq	-0xc0(%rbp), %rax
   1a037: 48 89 45 b0                  	movq	%rax, -0x50(%rbp)
   1a03b: 4c 89 e0                     	movq	%r12, %rax
   1a03e: 48 89 7d b8                  	movq	%rdi, -0x48(%rbp)
   1a042: 4c 89 45 c0                  	movq	%r8, -0x40(%rbp)
   1a046: 49 89 cb                     	movq	%rcx, %r11
   1a049: 48 ba 05 65 a2 6c 26 52 de c4	movabsq	$-0x3b21add9935d9afb, %rdx # imm = 0xC4DE52266CA26505
   1a053: 49 bc 80 f6 3a 89 2c 64 5c 94	movabsq	$-0x6ba39bd376c50980, %r12 # imm = 0x945C642C893AF680
   1a05d: 4c 39 a5 68 ff ff ff         	cmpq	%r12, -0x98(%rbp)
   1a064: 0f 84 c3 fb ff ff            	je	0x19c2d <.text+0xb4ad>
   1a06a: 4c 89 f7                     	movq	%r14, %rdi
   1a06d: 48 b8 2a 04 4d af c1 b6 ee 96	movabsq	$-0x6911493e50b2fbd6, %rax # imm = 0x96EEB6C1AF4D042A
   1a077: 48 39 85 68 ff ff ff         	cmpq	%rax, -0x98(%rbp)
   1a07e: 0f 84 45 40 00 00            	je	0x1e0c9 <.text+0xf949>
   1a084: 8a 45 ce                     	movb	-0x32(%rbp), %al
   1a087: 88 45 cf                     	movb	%al, -0x31(%rbp)
   1a08a: 8a 45 cd                     	movb	-0x33(%rbp), %al
   1a08d: 89 c6                        	movl	%eax, %esi
   1a08f: 48 8b 85 50 ff ff ff         	movq	-0xb0(%rbp), %rax
   1a096: 48 89 85 70 ff ff ff         	movq	%rax, -0x90(%rbp)
   1a09d: 48 8b 85 60 ff ff ff         	movq	-0xa0(%rbp), %rax
   1a0a4: 48 89 85 78 ff ff ff         	movq	%rax, -0x88(%rbp)
   1a0ab: 48 89 f8                     	movq	%rdi, %rax
   1a0ae: 48 89 7d 80                  	movq	%rdi, -0x80(%rbp)
   1a0b2: 4c 89 4d 88                  	movq	%r9, -0x78(%rbp)
   1a0b6: 48 8b 85 48 ff ff ff         	movq	-0xb8(%rbp), %rax
   1a0bd: 48 89 45 90                  	movq	%rax, -0x70(%rbp)
   1a0c1: 48 8b 85 58 ff ff ff         	movq	-0xa8(%rbp), %rax
   1a0c8: 48 89 45 98                  	movq	%rax, -0x68(%rbp)
   1a0cc: 48 8b 85 30 ff ff ff         	movq	-0xd0(%rbp), %rax
   1a0d3: 48 89 45 a0                  	movq	%rax, -0x60(%rbp)
   1a0d7: 48 8b 85 28 ff ff ff         	movq	-0xd8(%rbp), %rax
   1a0de: 48 89 45 a8                  	movq	%rax, -0x58(%rbp)
   1a0e2: 48 8b 85 40 ff ff ff         	movq	-0xc0(%rbp), %rax
   1a0e9: 48 89 45 b0                  	movq	%rax, -0x50(%rbp)
   1a0ed: 48 8b 85 08 ff ff ff         	movq	-0xf8(%rbp), %rax
   1a0f4: 48 8b 8d 10 ff ff ff         	movq	-0xf0(%rbp), %rcx
   1a0fb: 48 89 4d b8                  	movq	%rcx, -0x48(%rbp)
   1a0ff: 48 8b 8d 20 ff ff ff         	movq	-0xe0(%rbp), %rcx
   1a106: 48 89 4d c0                  	movq	%rcx, -0x40(%rbp)
   1a10a: 4c 8b 9d 18 ff ff ff         	movq	-0xe8(%rbp), %r11
   1a111: 4c 8b bd f8 fe ff ff         	movq	-0x108(%rbp), %r15
   1a118: 4c 8b ad f0 fe ff ff         	movq	-0x110(%rbp), %r13
   1a11f: 48 8b 9d 00 ff ff ff         	movq	-0x100(%rbp), %rbx
   1a126: 4c 8b 95 38 ff ff ff         	movq	-0xc8(%rbp), %r10
   1a12d: 48 ba 50 bc 28 be a9 40 a1 3b	movabsq	$0x3ba140a9be28bc50, %rdx # imm = 0x3BA140A9BE28BC50
   1a137: 49 bc 0c 0e 28 d1 5a 5a fb 96	movabsq	$-0x6904a5a52ed7f1f4, %r12 # imm = 0x96FB5A5AD1280E0C
   1a141: 4c 39 a5 68 ff ff ff         	cmpq	%r12, -0x98(%rbp)
   1a148: 0f 84 df fa ff ff            	je	0x19c2d <.text+0xb4ad>
   1a14e: 8a 45 ce                     	movb	-0x32(%rbp), %al
   1a151: 88 45 cf                     	movb	%al, -0x31(%rbp)
   1a154: 8a 45 cd                     	movb	-0x33(%rbp), %al
   1a157: 89 c6                        	movl	%eax, %esi
   1a159: 48 8b 85 50 ff ff ff         	movq	-0xb0(%rbp), %rax
   1a160: 48 89 85 70 ff ff ff         	movq	%rax, -0x90(%rbp)
   1a167: 48 8b 85 60 ff ff ff         	movq	-0xa0(%rbp), %rax
   1a16e: 48 89 85 78 ff ff ff         	movq	%rax, -0x88(%rbp)
   1a175: 48 89 f8                     	movq	%rdi, %rax
   1a178: 48 89 7d 80                  	movq	%rdi, -0x80(%rbp)
   1a17c: 4c 89 4d 88                  	movq	%r9, -0x78(%rbp)
   1a180: 48 8b 85 48 ff ff ff         	movq	-0xb8(%rbp), %rax
   1a187: 48 89 45 90                  	movq	%rax, -0x70(%rbp)
   1a18b: 48 8b 85 58 ff ff ff         	movq	-0xa8(%rbp), %rax
   1a192: 48 89 45 98                  	movq	%rax, -0x68(%rbp)
   1a196: 48 8b 85 30 ff ff ff         	movq	-0xd0(%rbp), %rax
   1a19d: 48 89 45 a0                  	movq	%rax, -0x60(%rbp)
   1a1a1: 48 8b 85 28 ff ff ff         	movq	-0xd8(%rbp), %rax
   1a1a8: 48 89 45 a8                  	movq	%rax, -0x58(%rbp)
   1a1ac: 48 8b 85 40 ff ff ff         	movq	-0xc0(%rbp), %rax
   1a1b3: 48 89 45 b0                  	movq	%rax, -0x50(%rbp)
   1a1b7: 48 8b 85 08 ff ff ff         	movq	-0xf8(%rbp), %rax
   1a1be: 48 8b 8d 10 ff ff ff         	movq	-0xf0(%rbp), %rcx
   1a1c5: 48 89 4d b8                  	movq	%rcx, -0x48(%rbp)
   1a1c9: 48 8b 8d 20 ff ff ff         	movq	-0xe0(%rbp), %rcx
   1a1d0: 48 89 4d c0                  	movq	%rcx, -0x40(%rbp)
   1a1d4: 4c 8b 9d 18 ff ff ff         	movq	-0xe8(%rbp), %r11
   1a1db: 4c 8b bd f8 fe ff ff         	movq	-0x108(%rbp), %r15
   1a1e2: 4c 8b ad f0 fe ff ff         	movq	-0x110(%rbp), %r13
   1a1e9: 48 8b 9d 00 ff ff ff         	movq	-0x100(%rbp), %rbx
   1a1f0: 4c 8b 95 38 ff ff ff         	movq	-0xc8(%rbp), %r10
   1a1f7: 48 ba a4 46 b5 a0 ef 63 4a 2d	movabsq	$0x2d4a63efa0b546a4, %rdx # imm = 0x2D4A63EFA0B546A4
   1a201: 49 bc 3c 6c 44 a4 dd 3e 0d 97	movabsq	$-0x68f2c1225bbb93c4, %r12 # imm = 0x970D3EDDA4446C3C
   1a20b: 4c 39 a5 68 ff ff ff         	cmpq	%r12, -0x98(%rbp)
   1a212: 0f 84 15 fa ff ff            	je	0x19c2d <.text+0xb4ad>
   1a218: 8a 45 ce                     	movb	-0x32(%rbp), %al
   1a21b: 88 45 cf                     	movb	%al, -0x31(%rbp)
   1a21e: 8a 45 cd                     	movb	-0x33(%rbp), %al
   1a221: 89 c6                        	movl	%eax, %esi
   1a223: 48 8b 85 50 ff ff ff         	movq	-0xb0(%rbp), %rax
   1a22a: 48 89 85 70 ff ff ff         	movq	%rax, -0x90(%rbp)
   1a231: 48 8b 85 60 ff ff ff         	movq	-0xa0(%rbp), %rax
   1a238: 48 89 85 78 ff ff ff         	movq	%rax, -0x88(%rbp)
   1a23f: 48 89 f8                     	movq	%rdi, %rax
   1a242: 48 89 7d 80                  	movq	%rdi, -0x80(%rbp)
   1a246: 4c 89 4d 88                  	movq	%r9, -0x78(%rbp)
   1a24a: 48 8b 85 48 ff ff ff         	movq	-0xb8(%rbp), %rax
   1a251: 48 89 45 90                  	movq	%rax, -0x70(%rbp)
   1a255: 48 8b 85 58 ff ff ff         	movq	-0xa8(%rbp), %rax
   1a25c: 48 89 45 98                  	movq	%rax, -0x68(%rbp)
   1a260: 48 8b 85 30 ff ff ff         	movq	-0xd0(%rbp), %rax
   1a267: 48 89 45 a0                  	movq	%rax, -0x60(%rbp)
   1a26b: 48 8b 85 28 ff ff ff         	movq	-0xd8(%rbp), %rax
   1a272: 48 89 45 a8                  	movq	%rax, -0x58(%rbp)
   1a276: 48 8b 85 40 ff ff ff         	movq	-0xc0(%rbp), %rax
   1a27d: 48 89 45 b0                  	movq	%rax, -0x50(%rbp)
   1a281: 48 8b 85 08 ff ff ff         	movq	-0xf8(%rbp), %rax
   1a288: 48 8b 8d 10 ff ff ff         	movq	-0xf0(%rbp), %rcx
   1a28f: 48 89 4d b8                  	movq	%rcx, -0x48(%rbp)
   1a293: 48 8b 8d 20 ff ff ff         	movq	-0xe0(%rbp), %rcx
   1a29a: 48 89 4d c0                  	movq	%rcx, -0x40(%rbp)
   1a29e: 4c 8b 9d 18 ff ff ff         	movq	-0xe8(%rbp), %r11
   1a2a5: 4c 8b bd f8 fe ff ff         	movq	-0x108(%rbp), %r15
   1a2ac: 4c 8b ad f0 fe ff ff         	movq	-0x110(%rbp), %r13
   1a2b3: 48 8b 9d 00 ff ff ff         	movq	-0x100(%rbp), %rbx
   1a2ba: 4c 8b 95 38 ff ff ff         	movq	-0xc8(%rbp), %r10
   1a2c1: 48 ba 05 65 a2 6c 26 52 de c4	movabsq	$-0x3b21add9935d9afb, %rdx # imm = 0xC4DE52266CA26505
   1a2cb: 49 bc fa 23 c2 bd 44 7c 2d 97	movabsq	$-0x68d283bb423ddc06, %r12 # imm = 0x972D7C44BDC223FA
   1a2d5: 4c 39 a5 68 ff ff ff         	cmpq	%r12, -0x98(%rbp)
   1a2dc: 0f 84 4b f9 ff ff            	je	0x19c2d <.text+0xb4ad>
   1a2e2: 8a 45 ce                     	movb	-0x32(%rbp), %al
   1a2e5: 88 45 cf                     	movb	%al, -0x31(%rbp)
   1a2e8: 8a 45 cd                     	movb	-0x33(%rbp), %al
   1a2eb: 89 c6                        	movl	%eax, %esi
   1a2ed: 48 8b 85 50 ff ff ff         	movq	-0xb0(%rbp), %rax
   1a2f4: 48 89 85 70 ff ff ff         	movq	%rax, -0x90(%rbp)
   1a2fb: 48 8b 85 60 ff ff ff         	movq	-0xa0(%rbp), %rax
   1a302: 48 89 85 78 ff ff ff         	movq	%rax, -0x88(%rbp)
   1a309: 48 89 f8                     	movq	%rdi, %rax
   1a30c: 48 89 7d 80                  	movq	%rdi, -0x80(%rbp)
   1a310: 4c 89 4d 88                  	movq	%r9, -0x78(%rbp)
   1a314: 48 8b 85 48 ff ff ff         	movq	-0xb8(%rbp), %rax
   1a31b: 48 89 45 90                  	movq	%rax, -0x70(%rbp)
   1a31f: 48 8b 85 f8 fd ff ff         	movq	-0x208(%rbp), %rax
   1a326: 48 89 45 98                  	movq	%rax, -0x68(%rbp)
   1a32a: 48 8b 85 90 fc ff ff         	movq	-0x370(%rbp), %rax
   1a331: 48 89 45 a0                  	movq	%rax, -0x60(%rbp)
   1a335: 48 8b 85 28 ff ff ff         	movq	-0xd8(%rbp), %rax
   1a33c: 48 89 45 a8                  	movq	%rax, -0x58(%rbp)
   1a340: 48 8b 85 40 ff ff ff         	movq	-0xc0(%rbp), %rax
   1a347: 48 89 45 b0                  	movq	%rax, -0x50(%rbp)
   1a34b: 48 8b 85 08 ff ff ff         	movq	-0xf8(%rbp), %rax
   1a352: 48 8b 8d 10 ff ff ff         	movq	-0xf0(%rbp), %rcx
   1a359: 48 89 4d b8                  	movq	%rcx, -0x48(%rbp)
   1a35d: 48 8b 8d 20 ff ff ff         	movq	-0xe0(%rbp), %rcx
   1a364: 48 89 4d c0                  	movq	%rcx, -0x40(%rbp)
   1a368: 4c 8b 9d 18 ff ff ff         	movq	-0xe8(%rbp), %r11
   1a36f: 4c 8b bd f8 fe ff ff         	movq	-0x108(%rbp), %r15
   1a376: 4c 8b ad f0 fe ff ff         	movq	-0x110(%rbp), %r13
   1a37d: 48 8b 9d 00 ff ff ff         	movq	-0x100(%rbp), %rbx
   1a384: 4c 8b 95 38 ff ff ff         	movq	-0xc8(%rbp), %r10
   1a38b: 48 ba af 6e 00 5d b2 2d d5 68	movabsq	$0x68d52db25d006eaf, %rdx # imm = 0x68D52DB25D006EAF
   1a395: 49 bc 4f 08 c4 71 79 0f 45 97	movabsq	$-0x68baf0868e3bf7b1, %r12 # imm = 0x97450F7971C4084F
   1a39f: 4c 39 a5 68 ff ff ff         	cmpq	%r12, -0x98(%rbp)
   1a3a6: 0f 84 81 f8 ff ff            	je	0x19c2d <.text+0xb4ad>
   1a3ac: 48 b8 69 d5 1f 12 bf d9 8e 98	movabsq	$-0x67712640ede02a97, %rax # imm = 0x988ED9BF121FD569
   1a3b6: 48 39 85 68 ff ff ff         	cmpq	%rax, -0x98(%rbp)
   1a3bd: 0f 84 96 83 00 00            	je	0x22759 <.text+0x13fd9>
   1a3c3: 8a 45 ce                     	movb	-0x32(%rbp), %al
   1a3c6: 88 45 cf                     	movb	%al, -0x31(%rbp)
   1a3c9: 8a 45 cd                     	movb	-0x33(%rbp), %al
   1a3cc: 89 c6                        	movl	%eax, %esi
   1a3ce: 48 8b 85 50 ff ff ff         	movq	-0xb0(%rbp), %rax
   1a3d5: 48 89 85 70 ff ff ff         	movq	%rax, -0x90(%rbp)
   1a3dc: 48 8b 85 60 ff ff ff         	movq	-0xa0(%rbp), %rax
   1a3e3: 48 89 85 78 ff ff ff         	movq	%rax, -0x88(%rbp)
   1a3ea: 48 89 f8                     	movq	%rdi, %rax
   1a3ed: 48 89 7d 80                  	movq	%rdi, -0x80(%rbp)
   1a3f1: 4c 89 4d 88                  	movq	%r9, -0x78(%rbp)
   1a3f5: 48 8b 85 48 ff ff ff         	movq	-0xb8(%rbp), %rax
   1a3fc: 48 89 45 90                  	movq	%rax, -0x70(%rbp)
   1a400: 48 8b 85 58 ff ff ff         	movq	-0xa8(%rbp), %rax
   1a407: 48 89 45 98                  	movq	%rax, -0x68(%rbp)
   1a40b: 48 8b 85 30 ff ff ff         	movq	-0xd0(%rbp), %rax
   1a412: 48 89 45 a0                  	movq	%rax, -0x60(%rbp)
   1a416: 48 8b 85 28 ff ff ff         	movq	-0xd8(%rbp), %rax
   1a41d: 48 89 45 a8                  	movq	%rax, -0x58(%rbp)
   1a421: 48 8b 85 40 ff ff ff         	movq	-0xc0(%rbp), %rax
   1a428: 48 89 45 b0                  	movq	%rax, -0x50(%rbp)
   1a42c: 48 8b 85 08 ff ff ff         	movq	-0xf8(%rbp), %rax
   1a433: 48 8b 8d 10 ff ff ff         	movq	-0xf0(%rbp), %rcx
   1a43a: 48 89 4d b8                  	movq	%rcx, -0x48(%rbp)
   1a43e: 48 8b 8d 20 ff ff ff         	movq	-0xe0(%rbp), %rcx
   1a445: 48 89 4d c0                  	movq	%rcx, -0x40(%rbp)
   1a449: 4c 8b 9d 18 ff ff ff         	movq	-0xe8(%rbp), %r11
   1a450: 4c 8b bd f8 fe ff ff         	movq	-0x108(%rbp), %r15
   1a457: 4c 8b ad f0 fe ff ff         	movq	-0x110(%rbp), %r13
   1a45e: 48 8b 9d 00 ff ff ff         	movq	-0x100(%rbp), %rbx
   1a465: 4c 8b 95 38 ff ff ff         	movq	-0xc8(%rbp), %r10
   1a46c: 48 ba 01 e1 5e 0e ec c6 64 38	movabsq	$0x3864c6ec0e5ee101, %rdx # imm = 0x3864C6EC0E5EE101
   1a476: 49 bc 2d 2f 9f 35 ce 0e 8f 98	movabsq	$-0x6770f131ca60d0d3, %r12 # imm = 0x988F0ECE359F2F2D
   1a480: 4c 39 a5 68 ff ff ff         	cmpq	%r12, -0x98(%rbp)
   1a487: 0f 84 a0 f7 ff ff            	je	0x19c2d <.text+0xb4ad>
   1a48d: 48 b8 7a e0 4d ab 1c 58 ae 9a	movabsq	$-0x6551a7e354b21f86, %rax # imm = 0x9AAE581CAB4DE07A
   1a497: 48 39 85 68 ff ff ff         	cmpq	%rax, -0x98(%rbp)
   1a49e: 0f 84 01 47 00 00            	je	0x1eba5 <.text+0x10425>
   1a4a4: 8a 45 ce                     	movb	-0x32(%rbp), %al
   1a4a7: 88 45 cf                     	movb	%al, -0x31(%rbp)
   1a4aa: 8a 45 cd                     	movb	-0x33(%rbp), %al
   1a4ad: 89 c6                        	movl	%eax, %esi
   1a4af: 48 8b 85 50 ff ff ff         	movq	-0xb0(%rbp), %rax
   1a4b6: 48 89 85 70 ff ff ff         	movq	%rax, -0x90(%rbp)
   1a4bd: 48 8b 85 f0 fb ff ff         	movq	-0x410(%rbp), %rax
   1a4c4: 48 89 85 78 ff ff ff         	movq	%rax, -0x88(%rbp)
   1a4cb: 48 89 f8                     	movq	%rdi, %rax
   1a4ce: 48 89 7d 80                  	movq	%rdi, -0x80(%rbp)
   1a4d2: 4c 89 4d 88                  	movq	%r9, -0x78(%rbp)
   1a4d6: 48 8b 85 48 ff ff ff         	movq	-0xb8(%rbp), %rax
   1a4dd: 48 89 45 90                  	movq	%rax, -0x70(%rbp)
   1a4e1: 48 8b 85 58 ff ff ff         	movq	-0xa8(%rbp), %rax
   1a4e8: 48 89 45 98                  	movq	%rax, -0x68(%rbp)
   1a4ec: 48 8b 85 30 ff ff ff         	movq	-0xd0(%rbp), %rax
   1a4f3: 48 89 45 a0                  	movq	%rax, -0x60(%rbp)
   1a4f7: 48 8b 85 28 ff ff ff         	movq	-0xd8(%rbp), %rax
   1a4fe: 48 89 45 a8                  	movq	%rax, -0x58(%rbp)
   1a502: 48 8b 85 40 ff ff ff         	movq	-0xc0(%rbp), %rax
   1a509: 48 89 45 b0                  	movq	%rax, -0x50(%rbp)
   1a50d: 48 8b 85 08 ff ff ff         	movq	-0xf8(%rbp), %rax
   1a514: 48 8b 8d 10 ff ff ff         	movq	-0xf0(%rbp), %rcx
   1a51b: 48 89 4d b8                  	movq	%rcx, -0x48(%rbp)
   1a51f: 48 8b 8d 20 ff ff ff         	movq	-0xe0(%rbp), %rcx
   1a526: 48 89 4d c0                  	movq	%rcx, -0x40(%rbp)
   1a52a: 4c 8b 9d 18 ff ff ff         	movq	-0xe8(%rbp), %r11
   1a531: 4c 8b bd f8 fe ff ff         	movq	-0x108(%rbp), %r15
   1a538: 4c 8b ad f0 fe ff ff         	movq	-0x110(%rbp), %r13
   1a53f: 48 8b 9d 00 ff ff ff         	movq	-0x100(%rbp), %rbx
   1a546: 4c 8b 95 38 ff ff ff         	movq	-0xc8(%rbp), %r10
   1a54d: 48 ba 6e a0 2e a8 8f 86 79 d0	movabsq	$-0x2f86797057d15f92, %rdx # imm = 0xD079868FA82EA06E
   1a557: 49 bc 6b 6b 81 6b 0e 25 3f 9c	movabsq	$-0x63c0daf1947e9495, %r12 # imm = 0x9C3F250E6B816B6B
   1a561: 4c 39 a5 68 ff ff ff         	cmpq	%r12, -0x98(%rbp)
   1a568: 0f 84 bf f6 ff ff            	je	0x19c2d <.text+0xb4ad>
   1a56e: 48 b8 96 41 42 b6 b3 32 01 9e	movabsq	$-0x61fecd4c49bdbe6a, %rax # imm = 0x9E0132B3B6424196
   1a578: 48 39 85 68 ff ff ff         	cmpq	%rax, -0x98(%rbp)
   1a57f: 0f 84 83 7a 00 00            	je	0x22008 <.text+0x13888>
   1a585: 8a 45 ce                     	movb	-0x32(%rbp), %al
   1a588: 88 45 cf                     	movb	%al, -0x31(%rbp)
   1a58b: 8a 45 cd                     	movb	-0x33(%rbp), %al
   1a58e: 89 c6                        	movl	%eax, %esi
   1a590: 48 8b 85 50 ff ff ff         	movq	-0xb0(%rbp), %rax
   1a597: 48 89 85 70 ff ff ff         	movq	%rax, -0x90(%rbp)
   1a59e: 48 8b 85 60 ff ff ff         	movq	-0xa0(%rbp), %rax
   1a5a5: 48 89 85 78 ff ff ff         	movq	%rax, -0x88(%rbp)
   1a5ac: 48 89 f8                     	movq	%rdi, %rax
   1a5af: 48 89 7d 80                  	movq	%rdi, -0x80(%rbp)
   1a5b3: 4c 89 4d 88                  	movq	%r9, -0x78(%rbp)
   1a5b7: 48 8b 85 48 ff ff ff         	movq	-0xb8(%rbp), %rax
   1a5be: 48 89 45 90                  	movq	%rax, -0x70(%rbp)
   1a5c2: 48 8b 85 58 ff ff ff         	movq	-0xa8(%rbp), %rax
   1a5c9: 48 89 45 98                  	movq	%rax, -0x68(%rbp)
   1a5cd: 48 8b 85 30 ff ff ff         	movq	-0xd0(%rbp), %rax
   1a5d4: 48 89 45 a0                  	movq	%rax, -0x60(%rbp)
   1a5d8: 48 8b 85 28 ff ff ff         	movq	-0xd8(%rbp), %rax
   1a5df: 48 89 45 a8                  	movq	%rax, -0x58(%rbp)
   1a5e3: 48 8b 85 40 ff ff ff         	movq	-0xc0(%rbp), %rax
   1a5ea: 48 89 45 b0                  	movq	%rax, -0x50(%rbp)
   1a5ee: 48 8b 85 08 ff ff ff         	movq	-0xf8(%rbp), %rax
   1a5f5: 48 8b 8d 10 ff ff ff         	movq	-0xf0(%rbp), %rcx
   1a5fc: 48 89 4d b8                  	movq	%rcx, -0x48(%rbp)
   1a600: 48 8b 8d 20 ff ff ff         	movq	-0xe0(%rbp), %rcx
   1a607: 48 89 4d c0                  	movq	%rcx, -0x40(%rbp)
   1a60b: 4c 8b 9d 18 ff ff ff         	movq	-0xe8(%rbp), %r11
   1a612: 4c 8b bd f8 fe ff ff         	movq	-0x108(%rbp), %r15
   1a619: 4c 8b ad f0 fe ff ff         	movq	-0x110(%rbp), %r13
   1a620: 48 8b 9d 00 ff ff ff         	movq	-0x100(%rbp), %rbx
   1a627: 4c 8b 95 38 ff ff ff         	movq	-0xc8(%rbp), %r10
   1a62e: 48 ba ac 98 db cb 66 19 b3 48	movabsq	$0x48b31966cbdb98ac, %rdx # imm = 0x48B31966CBDB98AC
   1a638: 49 bc 40 25 82 b4 11 0d a3 a1	movabsq	$-0x5e5cf2ee4b7ddac0, %r12 # imm = 0xA1A30D11B4822540
   1a642: 4c 39 a5 68 ff ff ff         	cmpq	%r12, -0x98(%rbp)
   1a649: 0f 84 de f5 ff ff            	je	0x19c2d <.text+0xb4ad>
   1a64f: 48 b8 73 0f c8 e7 d3 c0 f8 a4	movabsq	$-0x5b073f2c1837f08d, %rax # imm = 0xA4F8C0D3E7C80F73
   1a659: 48 39 85 68 ff ff ff         	cmpq	%rax, -0x98(%rbp)
   1a660: 0f 84 dc 40 00 00            	je	0x1e742 <.text+0xffc2>
   1a666: 8a 45 ce                     	movb	-0x32(%rbp), %al
   1a669: 88 45 cf                     	movb	%al, -0x31(%rbp)
   1a66c: 8a 45 cd                     	movb	-0x33(%rbp), %al
   1a66f: 89 c6                        	movl	%eax, %esi
   1a671: 48 8b 85 50 ff ff ff         	movq	-0xb0(%rbp), %rax
   1a678: 48 89 85 70 ff ff ff         	movq	%rax, -0x90(%rbp)
   1a67f: 48 8b 85 60 ff ff ff         	movq	-0xa0(%rbp), %rax
   1a686: 48 89 85 78 ff ff ff         	movq	%rax, -0x88(%rbp)
   1a68d: 48 89 f8                     	movq	%rdi, %rax
   1a690: 48 89 7d 80                  	movq	%rdi, -0x80(%rbp)
   1a694: 4c 89 4d 88                  	movq	%r9, -0x78(%rbp)
   1a698: 48 8b 85 48 ff ff ff         	movq	-0xb8(%rbp), %rax
   1a69f: 48 89 45 90                  	movq	%rax, -0x70(%rbp)
   1a6a3: 48 8b 85 58 ff ff ff         	movq	-0xa8(%rbp), %rax
   1a6aa: 48 89 45 98                  	movq	%rax, -0x68(%rbp)
   1a6ae: 48 8b 85 30 ff ff ff         	movq	-0xd0(%rbp), %rax
   1a6b5: 48 89 45 a0                  	movq	%rax, -0x60(%rbp)
   1a6b9: 48 8b 85 28 ff ff ff         	movq	-0xd8(%rbp), %rax
   1a6c0: 48 89 45 a8                  	movq	%rax, -0x58(%rbp)
   1a6c4: 48 8b 85 40 ff ff ff         	movq	-0xc0(%rbp), %rax
   1a6cb: 48 89 45 b0                  	movq	%rax, -0x50(%rbp)
   1a6cf: 48 8b 85 08 ff ff ff         	movq	-0xf8(%rbp), %rax
   1a6d6: 48 8b 8d 10 ff ff ff         	movq	-0xf0(%rbp), %rcx
   1a6dd: 48 89 4d b8                  	movq	%rcx, -0x48(%rbp)
   1a6e1: 48 8b 8d 20 ff ff ff         	movq	-0xe0(%rbp), %rcx
   1a6e8: 48 89 4d c0                  	movq	%rcx, -0x40(%rbp)
   1a6ec: 4c 8b 9d 18 ff ff ff         	movq	-0xe8(%rbp), %r11
   1a6f3: 4c 8b bd f8 fe ff ff         	movq	-0x108(%rbp), %r15
   1a6fa: 4c 8b ad f0 fe ff ff         	movq	-0x110(%rbp), %r13
   1a701: 48 8b 9d 00 ff ff ff         	movq	-0x100(%rbp), %rbx
   1a708: 4c 8b 95 98 fc ff ff         	movq	-0x368(%rbp), %r10
   1a70f: 48 ba 76 17 cc a4 a4 5f a3 dc	movabsq	$-0x235ca05b5b33e88a, %rdx # imm = 0xDCA35FA4A4CC1776
   1a719: 49 bc ad 7a c8 9a 0f 6f 5a a7	movabsq	$-0x58a590f065378553, %r12 # imm = 0xA75A6F0F9AC87AAD
   1a723: 4c 39 a5 68 ff ff ff         	cmpq	%r12, -0x98(%rbp)
   1a72a: 0f 84 fd f4 ff ff            	je	0x19c2d <.text+0xb4ad>
   1a730: 48 b8 a9 42 e3 52 be b9 10 a9	movabsq	$-0x56ef4641ad1cbd57, %rax # imm = 0xA910B9BE52E342A9
   1a73a: 48 39 85 68 ff ff ff         	cmpq	%rax, -0x98(%rbp)
   1a741: 0f 84 e3 65 00 00            	je	0x20d2a <.text+0x125aa>
   1a747: 8a 45 ce                     	movb	-0x32(%rbp), %al
   1a74a: 88 45 cf                     	movb	%al, -0x31(%rbp)
   1a74d: 8a 45 cd                     	movb	-0x33(%rbp), %al
   1a750: 89 c6                        	movl	%eax, %esi
   1a752: 48 8b 85 50 ff ff ff         	movq	-0xb0(%rbp), %rax
   1a759: 48 89 85 70 ff ff ff         	movq	%rax, -0x90(%rbp)
   1a760: 48 8b 85 60 ff ff ff         	movq	-0xa0(%rbp), %rax
   1a767: 48 89 85 78 ff ff ff         	movq	%rax, -0x88(%rbp)
   1a76e: 48 89 f8                     	movq	%rdi, %rax
   1a771: 48 89 7d 80                  	movq	%rdi, -0x80(%rbp)
   1a775: 4c 89 4d 88                  	movq	%r9, -0x78(%rbp)
   1a779: 48 8b 85 f8 fd ff ff         	movq	-0x208(%rbp), %rax
   1a780: 48 89 45 90                  	movq	%rax, -0x70(%rbp)
   1a784: 48 8b 85 58 ff ff ff         	movq	-0xa8(%rbp), %rax
   1a78b: 48 89 45 98                  	movq	%rax, -0x68(%rbp)
   1a78f: 48 8b 85 30 ff ff ff         	movq	-0xd0(%rbp), %rax
   1a796: 48 89 45 a0                  	movq	%rax, -0x60(%rbp)
   1a79a: 48 8b 85 28 ff ff ff         	movq	-0xd8(%rbp), %rax
   1a7a1: 48 89 45 a8                  	movq	%rax, -0x58(%rbp)
   1a7a5: 48 8b 85 40 ff ff ff         	movq	-0xc0(%rbp), %rax
   1a7ac: 48 89 45 b0                  	movq	%rax, -0x50(%rbp)
   1a7b0: 48 8b 85 08 ff ff ff         	movq	-0xf8(%rbp), %rax
   1a7b7: 48 8b 8d 10 ff ff ff         	movq	-0xf0(%rbp), %rcx
   1a7be: 48 89 4d b8                  	movq	%rcx, -0x48(%rbp)
   1a7c2: 48 8b 8d 20 ff ff ff         	movq	-0xe0(%rbp), %rcx
   1a7c9: 48 89 4d c0                  	movq	%rcx, -0x40(%rbp)
   1a7cd: 4c 8b 9d 18 ff ff ff         	movq	-0xe8(%rbp), %r11
   1a7d4: 4c 8b bd f8 fe ff ff         	movq	-0x108(%rbp), %r15
   1a7db: 4c 8b ad f0 fe ff ff         	movq	-0x110(%rbp), %r13
   1a7e2: 48 8b 9d 00 ff ff ff         	movq	-0x100(%rbp), %rbx
   1a7e9: 4c 8b 95 38 ff ff ff         	movq	-0xc8(%rbp), %r10
   1a7f0: 48 ba 43 95 7e cf d7 5f 99 73	movabsq	$0x73995fd7cf7e9543, %rdx # imm = 0x73995FD7CF7E9543
   1a7fa: 49 bc b6 c9 4c 73 9f c4 a8 aa	movabsq	$-0x55573b608cb3364a, %r12 # imm = 0xAAA8C49F734CC9B6
   1a804: 4c 39 a5 68 ff ff ff         	cmpq	%r12, -0x98(%rbp)
   1a80b: 0f 84 1c f4 ff ff            	je	0x19c2d <.text+0xb4ad>
   1a811: 48 b8 d5 b4 95 59 ca a0 2a ac	movabsq	$-0x53d55f35a66a4b2b, %rax # imm = 0xAC2AA0CA5995B4D5
   1a81b: 48 39 85 68 ff ff ff         	cmpq	%rax, -0x98(%rbp)
   1a822: 0f 84 a8 7d 00 00            	je	0x225d0 <.text+0x13e50>
   1a828: 48 b8 2b dc fc d1 73 c6 b4 ad	movabsq	$-0x524b398c2e0323d5, %rax # imm = 0xADB4C673D1FCDC2B
   1a832: 48 39 85 68 ff ff ff         	cmpq	%rax, -0x98(%rbp)
   1a839: 40 8a 75 cd                  	movb	-0x33(%rbp), %sil
   1a83d: 4c 8b 95 38 ff ff ff         	movq	-0xc8(%rbp), %r10
   1a844: 48 8b 9d 00 ff ff ff         	movq	-0x100(%rbp), %rbx
   1a84b: 4c 8b ad f0 fe ff ff         	movq	-0x110(%rbp), %r13
   1a852: 4c 8b bd f8 fe ff ff         	movq	-0x108(%rbp), %r15
   1a859: 4c 8b 8d 18 ff ff ff         	movq	-0xe8(%rbp), %r9
   1a860: 4c 8b 85 20 ff ff ff         	movq	-0xe0(%rbp), %r8
   1a867: 48 8b bd 10 ff ff ff         	movq	-0xf0(%rbp), %rdi
   1a86e: 48 8b 8d 08 ff ff ff         	movq	-0xf8(%rbp), %rcx
   1a875: 48 8b 85 40 ff ff ff         	movq	-0xc0(%rbp), %rax
   1a87c: 4c 8b 9d 28 ff ff ff         	movq	-0xd8(%rbp), %r11
   1a883: 0f 84 d8 34 00 00            	je	0x1dd61 <.text+0xf5e1>
   1a889: 8a 55 ce                     	movb	-0x32(%rbp), %dl
   1a88c: 88 55 cf                     	movb	%dl, -0x31(%rbp)
   1a88f: 48 8b 95 50 ff ff ff         	movq	-0xb0(%rbp), %rdx
   1a896: 48 89 95 70 ff ff ff         	movq	%rdx, -0x90(%rbp)
   1a89d: 48 8b 95 60 ff ff ff         	movq	-0xa0(%rbp), %rdx
   1a8a4: 48 89 95 78 ff ff ff         	movq	%rdx, -0x88(%rbp)
   1a8ab: 4c 8b b5 e0 fe ff ff         	movq	-0x120(%rbp), %r14
   1a8b2: 4c 89 f2                     	movq	%r14, %rdx
   1a8b5: 4c 89 75 80                  	movq	%r14, -0x80(%rbp)
   1a8b9: 4c 8b a5 e8 fe ff ff         	movq	-0x118(%rbp), %r12
   1a8c0: 4c 89 65 88                  	movq	%r12, -0x78(%rbp)
   1a8c4: 48 8b 95 48 ff ff ff         	movq	-0xb8(%rbp), %rdx
   1a8cb: 48 89 55 90                  	movq	%rdx, -0x70(%rbp)
   1a8cf: 48 8b 95 58 ff ff ff         	movq	-0xa8(%rbp), %rdx
   1a8d6: 48 89 55 98                  	movq	%rdx, -0x68(%rbp)
   1a8da: 48 8b 95 30 ff ff ff         	movq	-0xd0(%rbp), %rdx
   1a8e1: 48 89 55 a0                  	movq	%rdx, -0x60(%rbp)
   1a8e5: 4c 89 5d a8                  	movq	%r11, -0x58(%rbp)
   1a8e9: 48 89 45 b0                  	movq	%rax, -0x50(%rbp)
   1a8ed: 48 89 c8                     	movq	%rcx, %rax
   1a8f0: 48 89 7d b8                  	movq	%rdi, -0x48(%rbp)
   1a8f4: 4c 89 45 c0                  	movq	%r8, -0x40(%rbp)
   1a8f8: 4d 89 cb                     	movq	%r9, %r11
   1a8fb: 4c 89 e1                     	movq	%r12, %rcx
   1a8fe: 48 ba d5 d8 9d e5 4f 83 2c d0	movabsq	$-0x2fd37cb01a62272b, %rdx # imm = 0xD02C834FE59DD8D5
   1a908: 49 bc 65 31 3f dd 90 20 05 af	movabsq	$-0x50fadf6f22c0ce9b, %r12 # imm = 0xAF052090DD3F3165
   1a912: 4c 39 a5 68 ff ff ff         	cmpq	%r12, -0x98(%rbp)
   1a919: 0f 84 0e f3 ff ff            	je	0x19c2d <.text+0xb4ad>
   1a91f: 48 b8 27 0a 70 dd 00 53 18 af	movabsq	$-0x50e7acff228ff5d9, %rax # imm = 0xAF185300DD700A27
   1a929: 48 39 85 68 ff ff ff         	cmpq	%rax, -0x98(%rbp)
   1a930: 0f 84 b4 3d 00 00            	je	0x1e6ea <.text+0xff6a>
   1a936: 48 b8 d3 f7 5b 43 e3 71 bb b0	movabsq	$-0x4f448e1cbca4082d, %rax # imm = 0xB0BB71E3435BF7D3
   1a940: 48 39 85 68 ff ff ff         	cmpq	%rax, -0x98(%rbp)
   1a947: 40 8a 75 cd                  	movb	-0x33(%rbp), %sil
   1a94b: 4c 8b 95 38 ff ff ff         	movq	-0xc8(%rbp), %r10
   1a952: 48 8b 9d 00 ff ff ff         	movq	-0x100(%rbp), %rbx
   1a959: 4c 8b ad f0 fe ff ff         	movq	-0x110(%rbp), %r13
   1a960: 4c 8b bd f8 fe ff ff         	movq	-0x108(%rbp), %r15
   1a967: 4c 8b 9d 18 ff ff ff         	movq	-0xe8(%rbp), %r11
   1a96e: 4c 8b 85 20 ff ff ff         	movq	-0xe0(%rbp), %r8
   1a975: 48 8b bd 10 ff ff ff         	movq	-0xf0(%rbp), %rdi
   1a97c: 48 8b 8d 08 ff ff ff         	movq	-0xf8(%rbp), %rcx
   1a983: 4c 8b a5 40 ff ff ff         	movq	-0xc0(%rbp), %r12
   1a98a: 0f 84 a0 7b 00 00            	je	0x22530 <.text+0x13db0>
   1a990: 8a 45 ce                     	movb	-0x32(%rbp), %al
   1a993: 88 45 cf                     	movb	%al, -0x31(%rbp)
   1a996: 48 8b 85 50 ff ff ff         	movq	-0xb0(%rbp), %rax
   1a99d: 48 89 85 70 ff ff ff         	movq	%rax, -0x90(%rbp)
   1a9a4: 48 8b 85 60 ff ff ff         	movq	-0xa0(%rbp), %rax
   1a9ab: 48 89 85 78 ff ff ff         	movq	%rax, -0x88(%rbp)
   1a9b2: 48 8b 85 e0 fe ff ff         	movq	-0x120(%rbp), %rax
   1a9b9: 48 89 45 80                  	movq	%rax, -0x80(%rbp)
   1a9bd: 48 8b 85 e8 fe ff ff         	movq	-0x118(%rbp), %rax
   1a9c4: 48 89 45 88                  	movq	%rax, -0x78(%rbp)
   1a9c8: 48 8b 85 48 ff ff ff         	movq	-0xb8(%rbp), %rax
   1a9cf: 48 89 45 90                  	movq	%rax, -0x70(%rbp)
   1a9d3: 48 8b 85 58 ff ff ff         	movq	-0xa8(%rbp), %rax
   1a9da: 48 89 45 98                  	movq	%rax, -0x68(%rbp)
   1a9de: 48 8b 85 30 ff ff ff         	movq	-0xd0(%rbp), %rax
   1a9e5: 48 89 45 a0                  	movq	%rax, -0x60(%rbp)
   1a9e9: 48 8b 85 28 ff ff ff         	movq	-0xd8(%rbp), %rax
   1a9f0: 48 89 45 a8                  	movq	%rax, -0x58(%rbp)
   1a9f4: 4c 89 65 b0                  	movq	%r12, -0x50(%rbp)
   1a9f8: 48 89 c8                     	movq	%rcx, %rax
   1a9fb: 48 89 7d b8                  	movq	%rdi, -0x48(%rbp)
   1a9ff: 4c 89 45 c0                  	movq	%r8, -0x40(%rbp)
   1aa03: 48 ba 01 e1 5e 0e ec c6 64 38	movabsq	$0x3864c6ec0e5ee101, %rdx # imm = 0x3864C6EC0E5EE101
   1aa0d: 49 bc 0f a3 47 35 f3 9d 9c b2	movabsq	$-0x4d63620ccab85cf1, %r12 # imm = 0xB29C9DF33547A30F
   1aa17: 4c 39 a5 68 ff ff ff         	cmpq	%r12, -0x98(%rbp)
   1aa1e: 0f 84 09 f2 ff ff            	je	0x19c2d <.text+0xb4ad>
   1aa24: 48 b8 7d 36 6e 44 08 21 d2 b2	movabsq	$-0x4d2ddef7bb91c983, %rax # imm = 0xB2D22108446E367D
   1aa2e: 48 39 85 68 ff ff ff         	cmpq	%rax, -0x98(%rbp)
   1aa35: 0f 84 04 79 00 00            	je	0x2233f <.text+0x13bbf>
   1aa3b: 48 b8 5b 1b a8 e1 5c b0 4b b5	movabsq	$-0x4ab44fa31e57e4a5, %rax # imm = 0xB54BB05CE1A81B5B
   1aa45: 48 39 85 68 ff ff ff         	cmpq	%rax, -0x98(%rbp)
   1aa4c: 8a 55 cd                     	movb	-0x33(%rbp), %dl
   1aa4f: 4c 8b 95 38 ff ff ff         	movq	-0xc8(%rbp), %r10
   1aa56: 48 8b 9d 00 ff ff ff         	movq	-0x100(%rbp), %rbx
   1aa5d: 4c 8b ad f0 fe ff ff         	movq	-0x110(%rbp), %r13
   1aa64: 4c 8b bd f8 fe ff ff         	movq	-0x108(%rbp), %r15
   1aa6b: 4c 8b 8d 18 ff ff ff         	movq	-0xe8(%rbp), %r9
   1aa72: 4c 8b 85 20 ff ff ff         	movq	-0xe0(%rbp), %r8
   1aa79: 48 8b bd 10 ff ff ff         	movq	-0xf0(%rbp), %rdi
   1aa80: 48 8b 8d 08 ff ff ff         	movq	-0xf8(%rbp), %rcx
   1aa87: 48 8b 85 40 ff ff ff         	movq	-0xc0(%rbp), %rax
   1aa8e: 0f 84 e4 4f 00 00            	je	0x1fa78 <.text+0x112f8>
   1aa94: 40 8a 75 ce                  	movb	-0x32(%rbp), %sil
   1aa98: 40 88 75 cf                  	movb	%sil, -0x31(%rbp)
   1aa9c: 89 d6                        	movl	%edx, %esi
   1aa9e: 48 8b 95 50 ff ff ff         	movq	-0xb0(%rbp), %rdx
   1aaa5: 48 89 95 70 ff ff ff         	movq	%rdx, -0x90(%rbp)
   1aaac: 48 8b 95 60 ff ff ff         	movq	-0xa0(%rbp), %rdx
   1aab3: 48 89 95 78 ff ff ff         	movq	%rdx, -0x88(%rbp)
   1aaba: 4c 8b 9d e0 fe ff ff         	movq	-0x120(%rbp), %r11
   1aac1: 4c 89 da                     	movq	%r11, %rdx
   1aac4: 4c 89 5d 80                  	movq	%r11, -0x80(%rbp)
   1aac8: 4c 8b a5 e8 fe ff ff         	movq	-0x118(%rbp), %r12
   1aacf: 4c 89 65 88                  	movq	%r12, -0x78(%rbp)
   1aad3: 48 8b 95 48 ff ff ff         	movq	-0xb8(%rbp), %rdx
   1aada: 48 89 55 90                  	movq	%rdx, -0x70(%rbp)
   1aade: 48 8b 95 58 ff ff ff         	movq	-0xa8(%rbp), %rdx
   1aae5: 48 89 55 98                  	movq	%rdx, -0x68(%rbp)
   1aae9: 48 8b 95 30 ff ff ff         	movq	-0xd0(%rbp), %rdx
   1aaf0: 48 89 55 a0                  	movq	%rdx, -0x60(%rbp)
   1aaf4: 48 8b 95 28 ff ff ff         	movq	-0xd8(%rbp), %rdx
   1aafb: 48 89 55 a8                  	movq	%rdx, -0x58(%rbp)
   1aaff: 48 89 45 b0                  	movq	%rax, -0x50(%rbp)
   1ab03: 48 89 c8                     	movq	%rcx, %rax
   1ab06: 48 89 7d b8                  	movq	%rdi, -0x48(%rbp)
   1ab0a: 4c 89 45 c0                  	movq	%r8, -0x40(%rbp)
   1ab0e: 4c 89 df                     	movq	%r11, %rdi
   1ab11: 4d 89 cb                     	movq	%r9, %r11
   1ab14: 4d 89 e1                     	movq	%r12, %r9
   1ab17: 48 ba 62 b7 3f a4 74 ef fe c1	movabsq	$-0x3e01108b5bc0489e, %rdx # imm = 0xC1FEEF74A43FB762
   1ab21: 49 bc ca 09 51 68 46 89 2f b8	movabsq	$-0x47d076b997aef636, %r12 # imm = 0xB82F8946685109CA
   1ab2b: 4c 39 a5 68 ff ff ff         	cmpq	%r12, -0x98(%rbp)
   1ab32: 0f 84 f5 f0 ff ff            	je	0x19c2d <.text+0xb4ad>
   1ab38: 48 b8 72 62 d1 0f 5e e5 1c bc	movabsq	$-0x43e31aa1f02e9d8e, %rax # imm = 0xBC1CE55E0FD16272
   1ab42: 48 39 85 68 ff ff ff         	cmpq	%rax, -0x98(%rbp)
   1ab49: 0f 84 4c 7b 00 00            	je	0x2269b <.text+0x13f1b>
   1ab4f: 48 b8 2d af f8 2b 27 64 d1 bc	movabsq	$-0x432e9bd8d40750d3, %rax # imm = 0xBCD164272BF8AF2D
   1ab59: 48 39 85 68 ff ff ff         	cmpq	%rax, -0x98(%rbp)
   1ab60: 44 8a 65 cd                  	movb	-0x33(%rbp), %r12b
   1ab64: 48 8b 9d 00 ff ff ff         	movq	-0x100(%rbp), %rbx
   1ab6b: 4c 8b ad f0 fe ff ff         	movq	-0x110(%rbp), %r13
   1ab72: 4c 8b bd f8 fe ff ff         	movq	-0x108(%rbp), %r15
   1ab79: 0f 84 1a 35 00 00            	je	0x1e099 <.text+0xf919>
   1ab7f: 48 b8 c4 4d 71 da bc c9 1e be	movabsq	$-0x41e13643258eb23c, %rax # imm = 0xBE1EC9BCDA714DC4
   1ab89: 48 39 85 68 ff ff ff         	cmpq	%rax, -0x98(%rbp)
   1ab90: 0f 84 f7 71 00 00            	je	0x21d8d <.text+0x1360d>
   1ab96: 48 b8 bc 5b fe 7c ef 40 e4 be	movabsq	$-0x411bbf108301a444, %rax # imm = 0xBEE440EF7CFE5BBC
   1aba0: 48 39 85 68 ff ff ff         	cmpq	%rax, -0x98(%rbp)
   1aba7: 0f 84 0b 72 00 00            	je	0x21db8 <.text+0x13638>
   1abad: 48 b8 c0 72 a3 8b 1a 2c 22 c0	movabsq	$-0x3fddd3e5745c8d40, %rax # imm = 0xC0222C1A8BA372C0
   1abb7: 48 39 85 68 ff ff ff         	cmpq	%rax, -0x98(%rbp)
   1abbe: 0f 84 72 7c 00 00            	je	0x22836 <.text+0x140b6>
   1abc4: 0f b6 95 de fe ff ff         	movzbl	-0x122(%rbp), %edx
   1abcb: 0f b6 b5 ca fe ff ff         	movzbl	-0x136(%rbp), %esi
   1abd2: 44 0f b6 95 cb fe ff ff      	movzbl	-0x135(%rbp), %r10d
   1abda: 44 0f b6 b5 d9 fe ff ff      	movzbl	-0x127(%rbp), %r14d
   1abe2: 44 0f b6 85 cc fe ff ff      	movzbl	-0x134(%rbp), %r8d
   1abea: 48 b8 0b 0e 5b 1f b7 b7 58 c1	movabsq	$-0x3ea74848e0a4f1f5, %rax # imm = 0xC158B7B71F5B0E0B
   1abf4: 48 39 85 68 ff ff ff         	cmpq	%rax, -0x98(%rbp)
   1abfb: 0f 84 90 7d 00 00            	je	0x22991 <.text+0x14211>
   1ac01: 48 b8 62 b7 3f a4 74 ef fe c1	movabsq	$-0x3e01108b5bc0489e, %rax # imm = 0xC1FEEF74A43FB762
   1ac0b: 48 39 85 68 ff ff ff         	cmpq	%rax, -0x98(%rbp)
   1ac12: 4c 8b 9d 28 ff ff ff         	movq	-0xd8(%rbp), %r11
   1ac19: 48 8b 8d 30 ff ff ff         	movq	-0xd0(%rbp), %rcx
   1ac20: 0f 84 a7 77 00 00            	je	0x223cd <.text+0x13c4d>
   1ac26: 48 b8 62 b1 21 17 8e 4a 0a c3	movabsq	$-0x3cf5b571e8de4e9e, %rax # imm = 0xC30A4A8E1721B162
   1ac30: 48 39 85 68 ff ff ff         	cmpq	%rax, -0x98(%rbp)
   1ac37: 0f 84 d1 35 00 00            	je	0x1e20e <.text+0xfa8e>
   1ac3d: 48 b8 05 65 a2 6c 26 52 de c4	movabsq	$-0x3b21add9935d9afb, %rax # imm = 0xC4DE52266CA26505
   1ac47: 48 39 85 68 ff ff ff         	cmpq	%rax, -0x98(%rbp)
   1ac4e: 0f 84 d8 71 00 00            	je	0x21e2c <.text+0x136ac>
   1ac54: 44 89 b5 dc fd ff ff         	movl	%r14d, -0x224(%rbp)
   1ac5b: 44 89 95 d8 fd ff ff         	movl	%r10d, -0x228(%rbp)
   1ac62: 44 89 85 d4 fd ff ff         	movl	%r8d, -0x22c(%rbp)
   1ac69: 89 b5 88 fe ff ff            	movl	%esi, -0x178(%rbp)
   1ac6f: 89 95 84 fe ff ff            	movl	%edx, -0x17c(%rbp)
   1ac75: 8a 45 ce                     	movb	-0x32(%rbp), %al
   1ac78: 88 45 cf                     	movb	%al, -0x31(%rbp)
   1ac7b: 44 89 e6                     	movl	%r12d, %esi
   1ac7e: 48 8b 85 50 ff ff ff         	movq	-0xb0(%rbp), %rax
   1ac85: 48 89 85 70 ff ff ff         	movq	%rax, -0x90(%rbp)
   1ac8c: 48 8b 85 60 ff ff ff         	movq	-0xa0(%rbp), %rax
   1ac93: 48 89 85 78 ff ff ff         	movq	%rax, -0x88(%rbp)
   1ac9a: 48 89 f8                     	movq	%rdi, %rax
   1ac9d: 48 89 7d 80                  	movq	%rdi, -0x80(%rbp)
   1aca1: 4c 89 4d 88                  	movq	%r9, -0x78(%rbp)
   1aca5: 48 8b 85 48 ff ff ff         	movq	-0xb8(%rbp), %rax
   1acac: 48 89 45 90                  	movq	%rax, -0x70(%rbp)
   1acb0: 48 8b 85 58 ff ff ff         	movq	-0xa8(%rbp), %rax
   1acb7: 48 89 45 98                  	movq	%rax, -0x68(%rbp)
   1acbb: 48 89 4d a0                  	movq	%rcx, -0x60(%rbp)
   1acbf: 4c 89 5d a8                  	movq	%r11, -0x58(%rbp)
   1acc3: 48 8b 85 40 ff ff ff         	movq	-0xc0(%rbp), %rax
   1acca: 48 89 45 b0                  	movq	%rax, -0x50(%rbp)
   1acce: 48 8b 85 08 ff ff ff         	movq	-0xf8(%rbp), %rax
   1acd5: 48 8b 8d 10 ff ff ff         	movq	-0xf0(%rbp), %rcx
   1acdc: 48 89 4d b8                  	movq	%rcx, -0x48(%rbp)
   1ace0: 48 8b 8d 20 ff ff ff         	movq	-0xe0(%rbp), %rcx
   1ace7: 48 89 4d c0                  	movq	%rcx, -0x40(%rbp)
   1aceb: 4c 8b 9d 18 ff ff ff         	movq	-0xe8(%rbp), %r11
   1acf2: 4c 8b 95 b0 fe ff ff         	movq	-0x150(%rbp), %r10
   1acf9: 48 ba 76 17 cc a4 a4 5f a3 dc	movabsq	$-0x235ca05b5b33e88a, %rdx # imm = 0xDCA35FA4A4CC1776
   1ad03: 49 bc fd ec 04 1c 83 a3 e7 c8	movabsq	$-0x37185c7ce3fb1303, %r12 # imm = 0xC8E7A3831C04ECFD
   1ad0d: 4c 39 a5 68 ff ff ff         	cmpq	%r12, -0x98(%rbp)
   1ad14: 0f 84 13 ef ff ff            	je	0x19c2d <.text+0xb4ad>
   1ad1a: 48 b8 f6 22 77 8d 3d 5f a4 ca	movabsq	$-0x355ba0c27288dd0a, %rax # imm = 0xCAA45F3D8D7722F6
   1ad24: 48 39 85 68 ff ff ff         	cmpq	%rax, -0x98(%rbp)
   1ad2b: 0f 84 e6 47 00 00            	je	0x1f517 <.text+0x10d97>
   1ad31: 48 b8 d5 03 5a 7c 82 4f eb cb	movabsq	$-0x3414b07d83a5fc2b, %rax # imm = 0xCBEB4F827C5A03D5
   1ad3b: 48 39 85 68 ff ff ff         	cmpq	%rax, -0x98(%rbp)
   1ad42: 8a 55 cd                     	movb	-0x33(%rbp), %dl
   1ad45: 4c 8b 95 38 ff ff ff         	movq	-0xc8(%rbp), %r10
   1ad4c: 48 8b 9d 00 ff ff ff         	movq	-0x100(%rbp), %rbx
   1ad53: 4c 8b ad f0 fe ff ff         	movq	-0x110(%rbp), %r13
   1ad5a: 4c 8b bd f8 fe ff ff         	movq	-0x108(%rbp), %r15
   1ad61: 4c 8b 9d 18 ff ff ff         	movq	-0xe8(%rbp), %r11
   1ad68: 4c 8b 85 20 ff ff ff         	movq	-0xe0(%rbp), %r8
   1ad6f: 48 8b bd 10 ff ff ff         	movq	-0xf0(%rbp), %rdi
   1ad76: 48 8b 8d 08 ff ff ff         	movq	-0xf8(%rbp), %rcx
   1ad7d: 48 8b 85 40 ff ff ff         	movq	-0xc0(%rbp), %rax
   1ad84: 0f 84 1c 3f 00 00            	je	0x1eca6 <.text+0x10526>
   1ad8a: 40 8a 75 ce                  	movb	-0x32(%rbp), %sil
   1ad8e: 40 88 75 cf                  	movb	%sil, -0x31(%rbp)
   1ad92: 89 d6                        	movl	%edx, %esi
   1ad94: 48 8b 95 50 ff ff ff         	movq	-0xb0(%rbp), %rdx
   1ad9b: 48 89 95 70 ff ff ff         	movq	%rdx, -0x90(%rbp)
   1ada2: 48 8b 95 60 ff ff ff         	movq	-0xa0(%rbp), %rdx
   1ada9: 48 89 95 78 ff ff ff         	movq	%rdx, -0x88(%rbp)
   1adb0: 48 8b 95 e0 fe ff ff         	movq	-0x120(%rbp), %rdx
   1adb7: 48 89 55 80                  	movq	%rdx, -0x80(%rbp)
   1adbb: 48 8b 95 e8 fe ff ff         	movq	-0x118(%rbp), %rdx
   1adc2: 48 89 55 88                  	movq	%rdx, -0x78(%rbp)
   1adc6: 48 8b 95 48 ff ff ff         	movq	-0xb8(%rbp), %rdx
   1adcd: 48 89 55 90                  	movq	%rdx, -0x70(%rbp)
   1add1: 48 8b 95 58 ff ff ff         	movq	-0xa8(%rbp), %rdx
   1add8: 48 89 55 98                  	movq	%rdx, -0x68(%rbp)
   1addc: 48 8b 95 30 ff ff ff         	movq	-0xd0(%rbp), %rdx
   1ade3: 48 89 55 a0                  	movq	%rdx, -0x60(%rbp)
   1ade7: 48 8b 95 28 ff ff ff         	movq	-0xd8(%rbp), %rdx
   1adee: 48 89 55 a8                  	movq	%rdx, -0x58(%rbp)
   1adf2: 48 89 45 b0                  	movq	%rax, -0x50(%rbp)
   1adf6: 48 89 c8                     	movq	%rcx, %rax
   1adf9: 48 89 7d b8                  	movq	%rdi, -0x48(%rbp)
   1adfd: 4c 89 45 c0                  	movq	%r8, -0x40(%rbp)
   1ae01: 48 ba 01 e1 5e 0e ec c6 64 38	movabsq	$0x3864c6ec0e5ee101, %rdx # imm = 0x3864C6EC0E5EE101
   1ae0b: 49 bc 5e 9e 7a 1f fe 1f c8 cd	movabsq	$-0x3237e001e08561a2, %r12 # imm = 0xCDC81FFE1F7A9E5E
   1ae15: 4c 39 a5 68 ff ff ff         	cmpq	%r12, -0x98(%rbp)
   1ae1c: 0f 84 0b ee ff ff            	je	0x19c2d <.text+0xb4ad>
   1ae22: 48 b8 5c 36 e2 b2 0f e4 84 cf	movabsq	$-0x307b1bf04d1dc9a4, %rax # imm = 0xCF84E40FB2E2365C
   1ae2c: 48 39 85 68 ff ff ff         	cmpq	%rax, -0x98(%rbp)
   1ae33: 0f 84 e8 2f 00 00            	je	0x1de21 <.text+0xf6a1>
   1ae39: 48 b8 d5 d8 9d e5 4f 83 2c d0	movabsq	$-0x2fd37cb01a62272b, %rax # imm = 0xD02C834FE59DD8D5
   1ae43: 48 39 85 68 ff ff ff         	cmpq	%rax, -0x98(%rbp)
   1ae4a: 40 8a 75 cd                  	movb	-0x33(%rbp), %sil
   1ae4e: 4c 8b 95 38 ff ff ff         	movq	-0xc8(%rbp), %r10
   1ae55: 48 8b 9d 00 ff ff ff         	movq	-0x100(%rbp), %rbx
   1ae5c: 4c 8b ad f0 fe ff ff         	movq	-0x110(%rbp), %r13
   1ae63: 4c 8b bd f8 fe ff ff         	movq	-0x108(%rbp), %r15
   1ae6a: 4c 8b 8d 18 ff ff ff         	movq	-0xe8(%rbp), %r9
   1ae71: 4c 8b 85 20 ff ff ff         	movq	-0xe0(%rbp), %r8
   1ae78: 48 8b bd 10 ff ff ff         	movq	-0xf0(%rbp), %rdi
   1ae7f: 48 8b 8d 08 ff ff ff         	movq	-0xf8(%rbp), %rcx
   1ae86: 4c 8b a5 40 ff ff ff         	movq	-0xc0(%rbp), %r12
   1ae8d: 0f 84 e8 3b 00 00            	je	0x1ea7b <.text+0x102fb>
   1ae93: 48 b8 6e a0 2e a8 8f 86 79 d0	movabsq	$-0x2f86797057d15f92, %rax # imm = 0xD079868FA82EA06E
   1ae9d: 48 39 85 68 ff ff ff         	cmpq	%rax, -0x98(%rbp)
   1aea4: 0f 84 e5 75 00 00            	je	0x2248f <.text+0x13d0f>
   1aeaa: 48 b8 e4 ae 4c ce 55 08 2d d2	movabsq	$-0x2dd2f7aa31b3511c, %rax # imm = 0xD22D0855CE4CAEE4
   1aeb4: 48 39 85 68 ff ff ff         	cmpq	%rax, -0x98(%rbp)
   1aebb: 0f 84 61 5f 00 00            	je	0x20e22 <.text+0x126a2>
   1aec1: 48 b8 42 ba 0a 7b 0c 43 74 d5	movabsq	$-0x2a8bbcf384f545be, %rax # imm = 0xD574430C7B0ABA42
   1aecb: 48 39 85 68 ff ff ff         	cmpq	%rax, -0x98(%rbp)
   1aed2: 0f 84 e0 53 00 00            	je	0x202b8 <.text+0x11b38>
   1aed8: 48 b8 1d 1b 8c 0c b6 14 d2 d8	movabsq	$-0x272deb49f373e4e3, %rax # imm = 0xD8D214B60C8C1B1D
   1aee2: 48 39 85 68 ff ff ff         	cmpq	%rax, -0x98(%rbp)
   1aee9: 0f 84 f5 66 00 00            	je	0x215e4 <.text+0x12e64>
   1aeef: 8a 45 ce                     	movb	-0x32(%rbp), %al
   1aef2: 88 45 cf                     	movb	%al, -0x31(%rbp)
   1aef5: 48 8b 85 50 ff ff ff         	movq	-0xb0(%rbp), %rax
   1aefc: 48 89 85 70 ff ff ff         	movq	%rax, -0x90(%rbp)
   1af03: 48 8b 85 60 ff ff ff         	movq	-0xa0(%rbp), %rax
   1af0a: 48 89 85 78 ff ff ff         	movq	%rax, -0x88(%rbp)
   1af11: 4c 8b 9d e0 fe ff ff         	movq	-0x120(%rbp), %r11
   1af18: 4c 89 d8                     	movq	%r11, %rax
   1af1b: 4c 89 5d 80                  	movq	%r11, -0x80(%rbp)
   1af1f: 48 8b 95 e8 fe ff ff         	movq	-0x118(%rbp), %rdx
   1af26: 48 89 55 88                  	movq	%rdx, -0x78(%rbp)
   1af2a: 48 8b 85 48 ff ff ff         	movq	-0xb8(%rbp), %rax
   1af31: 48 89 45 90                  	movq	%rax, -0x70(%rbp)
   1af35: 48 8b 85 58 ff ff ff         	movq	-0xa8(%rbp), %rax
   1af3c: 48 89 45 98                  	movq	%rax, -0x68(%rbp)
   1af40: 48 8b 85 30 ff ff ff         	movq	-0xd0(%rbp), %rax
   1af47: 48 89 45 a0                  	movq	%rax, -0x60(%rbp)
   1af4b: 48 8b 85 28 ff ff ff         	movq	-0xd8(%rbp), %rax
   1af52: 48 89 45 a8                  	movq	%rax, -0x58(%rbp)
   1af56: 4c 89 65 b0                  	movq	%r12, -0x50(%rbp)
   1af5a: 48 89 c8                     	movq	%rcx, %rax
   1af5d: 48 89 7d b8                  	movq	%rdi, -0x48(%rbp)
   1af61: 4c 89 45 c0                  	movq	%r8, -0x40(%rbp)
   1af65: 4d 89 d8                     	movq	%r11, %r8
   1af68: 4d 89 cb                     	movq	%r9, %r11
   1af6b: 49 89 d1                     	movq	%rdx, %r9
   1af6e: 48 ba 2a 04 4d af c1 b6 ee 96	movabsq	$-0x6911493e50b2fbd6, %rdx # imm = 0x96EEB6C1AF4D042A
   1af78: 49 bc 01 3f 6c d3 c8 51 e5 d8	movabsq	$-0x271aae372c93c0ff, %r12 # imm = 0xD8E551C8D36C3F01
   1af82: 4c 39 a5 68 ff ff ff         	cmpq	%r12, -0x98(%rbp)
   1af89: 0f 84 9e ec ff ff            	je	0x19c2d <.text+0xb4ad>
   1af8f: 8a 45 ce                     	movb	-0x32(%rbp), %al
   1af92: 88 45 cf                     	movb	%al, -0x31(%rbp)
   1af95: 8a 45 cd                     	movb	-0x33(%rbp), %al
   1af98: 89 c6                        	movl	%eax, %esi
   1af9a: 48 8b 85 50 ff ff ff         	movq	-0xb0(%rbp), %rax
   1afa1: 48 89 85 70 ff ff ff         	movq	%rax, -0x90(%rbp)
   1afa8: 48 8b 85 60 ff ff ff         	movq	-0xa0(%rbp), %rax
   1afaf: 48 89 85 78 ff ff ff         	movq	%rax, -0x88(%rbp)
   1afb6: 4c 89 c0                     	movq	%r8, %rax
   1afb9: 4c 89 45 80                  	movq	%r8, -0x80(%rbp)
   1afbd: 4c 89 4d 88                  	movq	%r9, -0x78(%rbp)
   1afc1: 48 8b 85 48 ff ff ff         	movq	-0xb8(%rbp), %rax
   1afc8: 48 89 45 90                  	movq	%rax, -0x70(%rbp)
   1afcc: 48 8b 85 58 ff ff ff         	movq	-0xa8(%rbp), %rax
   1afd3: 48 89 45 98                  	movq	%rax, -0x68(%rbp)
   1afd7: 48 8b 85 30 ff ff ff         	movq	-0xd0(%rbp), %rax
   1afde: 48 89 45 a0                  	movq	%rax, -0x60(%rbp)
   1afe2: 48 8b 85 28 ff ff ff         	movq	-0xd8(%rbp), %rax
   1afe9: 48 89 45 a8                  	movq	%rax, -0x58(%rbp)
   1afed: 48 89 45 b0                  	movq	%rax, -0x50(%rbp)
   1aff1: 48 8b 85 00 fe ff ff         	movq	-0x200(%rbp), %rax
   1aff8: 48 8b 8d 10 ff ff ff         	movq	-0xf0(%rbp), %rcx
   1afff: 48 89 4d b8                  	movq	%rcx, -0x48(%rbp)
   1b003: 48 8b 8d 20 ff ff ff         	movq	-0xe0(%rbp), %rcx
   1b00a: 48 89 4d c0                  	movq	%rcx, -0x40(%rbp)
   1b00e: 4c 8b 9d 18 ff ff ff         	movq	-0xe8(%rbp), %r11
   1b015: 4c 8b bd f8 fe ff ff         	movq	-0x108(%rbp), %r15
   1b01c: 4c 8b ad f0 fe ff ff         	movq	-0x110(%rbp), %r13
   1b023: 48 8b 9d 00 ff ff ff         	movq	-0x100(%rbp), %rbx
   1b02a: 4c 8b 95 38 ff ff ff         	movq	-0xc8(%rbp), %r10
   1b031: 48 ba a0 68 b2 a8 5c 97 fd 36	movabsq	$0x36fd975ca8b268a0, %rdx # imm = 0x36FD975CA8B268A0
   1b03b: 49 bc f7 61 c1 f1 5c 28 2d d9	movabsq	$-0x26d2d7a30e3e9e09, %r12 # imm = 0xD92D285CF1C161F7
   1b045: 4c 39 a5 68 ff ff ff         	cmpq	%r12, -0x98(%rbp)
   1b04c: 0f 84 db eb ff ff            	je	0x19c2d <.text+0xb4ad>
   1b052: 48 b8 08 94 e5 f3 11 ac 3e d9	movabsq	$-0x26c153ee0c1a6bf8, %rax # imm = 0xD93EAC11F3E59408
   1b05c: 48 39 85 68 ff ff ff         	cmpq	%rax, -0x98(%rbp)
   1b063: 0f 84 73 71 00 00            	je	0x221dc <.text+0x13a5c>
   1b069: 48 b8 cd 43 77 1e d1 f2 af d9	movabsq	$-0x26500d2ee188bc33, %rax # imm = 0xD9AFF2D11E7743CD
   1b073: 48 39 85 68 ff ff ff         	cmpq	%rax, -0x98(%rbp)
   1b07a: 44 8a 65 cd                  	movb	-0x33(%rbp), %r12b
   1b07e: 48 8b 9d 00 ff ff ff         	movq	-0x100(%rbp), %rbx
   1b085: 4c 8b ad f0 fe ff ff         	movq	-0x110(%rbp), %r13
   1b08c: 4c 8b bd f8 fe ff ff         	movq	-0x108(%rbp), %r15
   1b093: 4c 8b 9d 28 ff ff ff         	movq	-0xd8(%rbp), %r11
   1b09a: 48 8b 8d 30 ff ff ff         	movq	-0xd0(%rbp), %rcx
   1b0a1: 0f 84 f4 71 00 00            	je	0x2229b <.text+0x13b1b>
   1b0a7: 48 b8 76 17 cc a4 a4 5f a3 dc	movabsq	$-0x235ca05b5b33e88a, %rax # imm = 0xDCA35FA4A4CC1776
   1b0b1: 48 39 85 68 ff ff ff         	cmpq	%rax, -0x98(%rbp)
   1b0b8: 0f 84 ae 33 00 00            	je	0x1e46c <.text+0xfcec>
   1b0be: 8a 45 ce                     	movb	-0x32(%rbp), %al
   1b0c1: 88 45 cf                     	movb	%al, -0x31(%rbp)
   1b0c4: 44 89 e6                     	movl	%r12d, %esi
   1b0c7: 48 8b 85 50 ff ff ff         	movq	-0xb0(%rbp), %rax
   1b0ce: 48 89 85 70 ff ff ff         	movq	%rax, -0x90(%rbp)
   1b0d5: 48 8b 85 60 ff ff ff         	movq	-0xa0(%rbp), %rax
   1b0dc: 48 89 85 78 ff ff ff         	movq	%rax, -0x88(%rbp)
   1b0e3: 4c 89 c0                     	movq	%r8, %rax
   1b0e6: 4c 89 45 80                  	movq	%r8, -0x80(%rbp)
   1b0ea: 4c 89 4d 88                  	movq	%r9, -0x78(%rbp)
   1b0ee: 48 8b 85 48 ff ff ff         	movq	-0xb8(%rbp), %rax
   1b0f5: 48 89 45 90                  	movq	%rax, -0x70(%rbp)
   1b0f9: 48 8b 85 58 ff ff ff         	movq	-0xa8(%rbp), %rax
   1b100: 48 89 45 98                  	movq	%rax, -0x68(%rbp)
   1b104: 48 89 4d a0                  	movq	%rcx, -0x60(%rbp)
   1b108: 4c 89 5d a8                  	movq	%r11, -0x58(%rbp)
   1b10c: 48 8b 85 40 ff ff ff         	movq	-0xc0(%rbp), %rax
   1b113: 48 89 45 b0                  	movq	%rax, -0x50(%rbp)
   1b117: 48 8b 85 08 ff ff ff         	movq	-0xf8(%rbp), %rax
   1b11e: 48 8b 8d 10 ff ff ff         	movq	-0xf0(%rbp), %rcx
   1b125: 48 89 4d b8                  	movq	%rcx, -0x48(%rbp)
   1b129: 48 8b 8d 20 ff ff ff         	movq	-0xe0(%rbp), %rcx
   1b130: 48 89 4d c0                  	movq	%rcx, -0x40(%rbp)
   1b134: 4c 8b 9d 18 ff ff ff         	movq	-0xe8(%rbp), %r11
   1b13b: 4c 8b 95 38 ff ff ff         	movq	-0xc8(%rbp), %r10
   1b142: 48 ba 01 e1 5e 0e ec c6 64 38	movabsq	$0x3864c6ec0e5ee101, %rdx # imm = 0x3864C6EC0E5EE101
   1b14c: 49 bc 79 31 77 ac f9 1f 2b dd	movabsq	$-0x22d4e0065388ce87, %r12 # imm = 0xDD2B1FF9AC773179
   1b156: 4c 39 a5 68 ff ff ff         	cmpq	%r12, -0x98(%rbp)
   1b15d: 0f 84 ca ea ff ff            	je	0x19c2d <.text+0xb4ad>
   1b163: 48 b8 b5 79 69 c4 df c4 15 de	movabsq	$-0x21ea3b203b96864b, %rax # imm = 0xDE15C4DFC46979B5
   1b16d: 48 39 85 68 ff ff ff         	cmpq	%rax, -0x98(%rbp)
   1b174: 0f 84 cb 41 00 00            	je	0x1f345 <.text+0x10bc5>
   1b17a: 48 b8 63 f8 f3 51 53 80 39 df	movabsq	$-0x20c67facae0c079d, %rax # imm = 0xDF39805351F3F863
   1b184: 48 39 85 68 ff ff ff         	cmpq	%rax, -0x98(%rbp)
   1b18b: 8a 55 cd                     	movb	-0x33(%rbp), %dl
   1b18e: 4c 8b 95 38 ff ff ff         	movq	-0xc8(%rbp), %r10
   1b195: 48 8b 9d 00 ff ff ff         	movq	-0x100(%rbp), %rbx
   1b19c: 4c 8b ad f0 fe ff ff         	movq	-0x110(%rbp), %r13
   1b1a3: 4c 8b bd f8 fe ff ff         	movq	-0x108(%rbp), %r15
   1b1aa: 4c 8b 9d 18 ff ff ff         	movq	-0xe8(%rbp), %r11
   1b1b1: 4c 8b 85 20 ff ff ff         	movq	-0xe0(%rbp), %r8
   1b1b8: 48 8b bd 10 ff ff ff         	movq	-0xf0(%rbp), %rdi
   1b1bf: 48 8b 8d 08 ff ff ff         	movq	-0xf8(%rbp), %rcx
   1b1c6: 4c 8b a5 40 ff ff ff         	movq	-0xc0(%rbp), %r12
   1b1cd: 0f 84 a3 6d 00 00            	je	0x21f76 <.text+0x137f6>
   1b1d3: 8a 85 df fe ff ff            	movb	-0x121(%rbp), %al
   1b1d9: 88 45 cf                     	movb	%al, -0x31(%rbp)
   1b1dc: 89 d6                        	movl	%edx, %esi
   1b1de: 48 8b 85 50 ff ff ff         	movq	-0xb0(%rbp), %rax
   1b1e5: 48 89 85 70 ff ff ff         	movq	%rax, -0x90(%rbp)
   1b1ec: 48 8b 85 60 ff ff ff         	movq	-0xa0(%rbp), %rax
   1b1f3: 48 89 85 78 ff ff ff         	movq	%rax, -0x88(%rbp)
   1b1fa: 4c 8b b5 e0 fe ff ff         	movq	-0x120(%rbp), %r14
   1b201: 4c 89 f0                     	movq	%r14, %rax
   1b204: 4c 89 75 80                  	movq	%r14, -0x80(%rbp)
   1b208: 48 8b 95 e8 fe ff ff         	movq	-0x118(%rbp), %rdx
   1b20f: 48 89 55 88                  	movq	%rdx, -0x78(%rbp)
   1b213: 48 8b 85 48 ff ff ff         	movq	-0xb8(%rbp), %rax
   1b21a: 48 89 45 90                  	movq	%rax, -0x70(%rbp)
   1b21e: 48 8b 85 58 ff ff ff         	movq	-0xa8(%rbp), %rax
   1b225: 48 89 45 98                  	movq	%rax, -0x68(%rbp)
   1b229: 48 8b 85 30 ff ff ff         	movq	-0xd0(%rbp), %rax
   1b230: 48 89 45 a0                  	movq	%rax, -0x60(%rbp)
   1b234: 48 8b 85 28 ff ff ff         	movq	-0xd8(%rbp), %rax
   1b23b: 48 89 45 a8                  	movq	%rax, -0x58(%rbp)
   1b23f: 4c 89 65 b0                  	movq	%r12, -0x50(%rbp)
   1b243: 48 89 c8                     	movq	%rcx, %rax
   1b246: 48 89 7d b8                  	movq	%rdi, -0x48(%rbp)
   1b24a: 4c 89 45 c0                  	movq	%r8, -0x40(%rbp)
   1b24e: 49 89 d1                     	movq	%rdx, %r9
   1b251: 48 ba d8 ef 61 2a b6 72 3f 52	movabsq	$0x523f72b62a61efd8, %rdx # imm = 0x523F72B62A61EFD8
   1b25b: 49 bc f0 2b ca 01 f8 a8 a2 df	movabsq	$-0x205d5707fe35d410, %r12 # imm = 0xDFA2A8F801CA2BF0
   1b265: 4c 39 a5 68 ff ff ff         	cmpq	%r12, -0x98(%rbp)
   1b26c: 0f 84 bb e9 ff ff            	je	0x19c2d <.text+0xb4ad>
   1b272: 48 b8 c3 0a 29 23 44 94 7a e2	movabsq	$-0x1d856bbbdcd6f53d, %rax # imm = 0xE27A944423290AC3
   1b27c: 48 39 85 68 ff ff ff         	cmpq	%rax, -0x98(%rbp)
   1b283: 0f 84 a7 65 00 00            	je	0x21830 <.text+0x130b0>
   1b289: 48 b8 fa b1 98 15 30 41 c0 e2	movabsq	$-0x1d3fbecfea674e06, %rax # imm = 0xE2C041301598B1FA
   1b293: 48 39 85 68 ff ff ff         	cmpq	%rax, -0x98(%rbp)
   1b29a: 44 8a 65 cd                  	movb	-0x33(%rbp), %r12b
   1b29e: 48 8b 9d 00 ff ff ff         	movq	-0x100(%rbp), %rbx
   1b2a5: 4c 8b ad f0 fe ff ff         	movq	-0x110(%rbp), %r13
   1b2ac: 4c 8b bd f8 fe ff ff         	movq	-0x108(%rbp), %r15
   1b2b3: 4c 8b 9d 28 ff ff ff         	movq	-0xd8(%rbp), %r11
   1b2ba: 48 8b 8d 30 ff ff ff         	movq	-0xd0(%rbp), %rcx
   1b2c1: 0f 84 bc 30 00 00            	je	0x1e383 <.text+0xfc03>
   1b2c7: 48 b8 16 c5 ef 5c c2 cc b0 e4	movabsq	$-0x1b4f333da3103aea, %rax # imm = 0xE4B0CCC25CEFC516
   1b2d1: 48 39 85 68 ff ff ff         	cmpq	%rax, -0x98(%rbp)
   1b2d8: 0f 84 e0 35 00 00            	je	0x1e8be <.text+0x1013e>
   1b2de: 8a 45 ce                     	movb	-0x32(%rbp), %al
   1b2e1: 88 45 cf                     	movb	%al, -0x31(%rbp)
   1b2e4: 44 89 e6                     	movl	%r12d, %esi
   1b2e7: 48 8b 85 50 ff ff ff         	movq	-0xb0(%rbp), %rax
   1b2ee: 48 89 85 70 ff ff ff         	movq	%rax, -0x90(%rbp)
   1b2f5: 48 8b 85 60 ff ff ff         	movq	-0xa0(%rbp), %rax
   1b2fc: 48 89 85 78 ff ff ff         	movq	%rax, -0x88(%rbp)
   1b303: 4c 89 f0                     	movq	%r14, %rax
   1b306: 4c 89 75 80                  	movq	%r14, -0x80(%rbp)
   1b30a: 4c 89 4d 88                  	movq	%r9, -0x78(%rbp)
   1b30e: 48 8b 85 48 ff ff ff         	movq	-0xb8(%rbp), %rax
   1b315: 48 89 45 90                  	movq	%rax, -0x70(%rbp)
   1b319: 48 8b 85 58 ff ff ff         	movq	-0xa8(%rbp), %rax
   1b320: 48 89 45 98                  	movq	%rax, -0x68(%rbp)
   1b324: 48 89 4d a0                  	movq	%rcx, -0x60(%rbp)
   1b328: 4c 89 5d a8                  	movq	%r11, -0x58(%rbp)
   1b32c: 48 8b 85 40 ff ff ff         	movq	-0xc0(%rbp), %rax
   1b333: 48 89 45 b0                  	movq	%rax, -0x50(%rbp)
   1b337: 48 8b 85 08 ff ff ff         	movq	-0xf8(%rbp), %rax
   1b33e: 48 8b 8d 10 ff ff ff         	movq	-0xf0(%rbp), %rcx
   1b345: 48 89 4d b8                  	movq	%rcx, -0x48(%rbp)
   1b349: 48 8b 8d 20 ff ff ff         	movq	-0xe0(%rbp), %rcx
   1b350: 48 89 4d c0                  	movq	%rcx, -0x40(%rbp)
   1b354: 4c 8b 9d 18 ff ff ff         	movq	-0xe8(%rbp), %r11
   1b35b: 4c 8b 95 38 ff ff ff         	movq	-0xc8(%rbp), %r10
   1b362: 48 ba bc 5b fe 7c ef 40 e4 be	movabsq	$-0x411bbf108301a444, %rdx # imm = 0xBEE440EF7CFE5BBC
   1b36c: 49 bc d3 ac dc d1 78 c0 13 e5	movabsq	$-0x1aec3f872e23532d, %r12 # imm = 0xE513C078D1DCACD3
   1b376: 4c 39 a5 68 ff ff ff         	cmpq	%r12, -0x98(%rbp)
   1b37d: 0f 84 aa e8 ff ff            	je	0x19c2d <.text+0xb4ad>
   1b383: 48 b8 d4 2e b2 59 e8 5f c1 e5	movabsq	$-0x1a3ea017a64dd12c, %rax # imm = 0xE5C15FE859B22ED4
   1b38d: 48 39 85 68 ff ff ff         	cmpq	%rax, -0x98(%rbp)
   1b394: 0f 84 4b 45 00 00            	je	0x1f8e5 <.text+0x11165>
   1b39a: 48 b8 d3 f2 f7 e0 7d 84 1e e6	movabsq	$-0x19e17b821f080d2d, %rax # imm = 0xE61E847DE0F7F2D3
   1b3a4: 48 39 85 68 ff ff ff         	cmpq	%rax, -0x98(%rbp)
   1b3ab: 40 8a 75 cd                  	movb	-0x33(%rbp), %sil
   1b3af: 4c 8b 95 38 ff ff ff         	movq	-0xc8(%rbp), %r10
   1b3b6: 48 8b 9d 00 ff ff ff         	movq	-0x100(%rbp), %rbx
   1b3bd: 4c 8b ad f0 fe ff ff         	movq	-0x110(%rbp), %r13
   1b3c4: 4c 8b bd f8 fe ff ff         	movq	-0x108(%rbp), %r15
   1b3cb: 4c 8b 8d 18 ff ff ff         	movq	-0xe8(%rbp), %r9
   1b3d2: 4c 8b 85 20 ff ff ff         	movq	-0xe0(%rbp), %r8
   1b3d9: 48 8b bd 10 ff ff ff         	movq	-0xf0(%rbp), %rdi
   1b3e0: 0f 84 e5 42 00 00            	je	0x1f6cb <.text+0x10f4b>
   1b3e6: 48 b8 b2 4c a3 3f 21 ee 58 e6	movabsq	$-0x19a711dec05cb34e, %rax # imm = 0xE658EE213FA34CB2
   1b3f0: 48 39 85 68 ff ff ff         	cmpq	%rax, -0x98(%rbp)
   1b3f7: 4c 8b a5 08 ff ff ff         	movq	-0xf8(%rbp), %r12
   1b3fe: 0f 84 98 2a 00 00            	je	0x1de9c <.text+0xf71c>
   1b404: 8a 45 ce                     	movb	-0x32(%rbp), %al
   1b407: 88 45 cf                     	movb	%al, -0x31(%rbp)
   1b40a: 48 8b 85 50 ff ff ff         	movq	-0xb0(%rbp), %rax
   1b411: 48 89 85 70 ff ff ff         	movq	%rax, -0x90(%rbp)
   1b418: 48 8b 85 60 ff ff ff         	movq	-0xa0(%rbp), %rax
   1b41f: 48 89 85 78 ff ff ff         	movq	%rax, -0x88(%rbp)
   1b426: 48 8b 95 e0 fe ff ff         	movq	-0x120(%rbp), %rdx
   1b42d: 48 89 d0                     	movq	%rdx, %rax
   1b430: 48 89 55 80                  	movq	%rdx, -0x80(%rbp)
   1b434: 48 8b 8d e8 fe ff ff         	movq	-0x118(%rbp), %rcx
   1b43b: 48 89 4d 88                  	movq	%rcx, -0x78(%rbp)
   1b43f: 48 8b 85 48 ff ff ff         	movq	-0xb8(%rbp), %rax
   1b446: 48 89 45 90                  	movq	%rax, -0x70(%rbp)
   1b44a: 48 8b 85 58 ff ff ff         	movq	-0xa8(%rbp), %rax
   1b451: 48 89 45 98                  	movq	%rax, -0x68(%rbp)
   1b455: 48 8b 85 30 ff ff ff         	movq	-0xd0(%rbp), %rax
   1b45c: 48 89 45 a0                  	movq	%rax, -0x60(%rbp)
   1b460: 48 8b 85 28 ff ff ff         	movq	-0xd8(%rbp), %rax
   1b467: 48 89 45 a8                  	movq	%rax, -0x58(%rbp)
   1b46b: 48 8b 85 40 ff ff ff         	movq	-0xc0(%rbp), %rax
   1b472: 48 89 45 b0                  	movq	%rax, -0x50(%rbp)
   1b476: 4c 89 e0                     	movq	%r12, %rax
   1b479: 48 89 7d b8                  	movq	%rdi, -0x48(%rbp)
   1b47d: 4c 89 45 c0                  	movq	%r8, -0x40(%rbp)
   1b481: 48 89 d7                     	movq	%rdx, %rdi
   1b484: 4d 89 cb                     	movq	%r9, %r11
   1b487: 48 ba 01 e1 5e 0e ec c6 64 38	movabsq	$0x3864c6ec0e5ee101, %rdx # imm = 0x3864C6EC0E5EE101
   1b491: 49 bc b9 14 99 92 75 05 3a e7	movabsq	$-0x18c5fa8a6d66eb47, %r12 # imm = 0xE73A0575929914B9
   1b49b: 4c 39 a5 68 ff ff ff         	cmpq	%r12, -0x98(%rbp)
   1b4a2: 0f 84 85 e7 ff ff            	je	0x19c2d <.text+0xb4ad>
   1b4a8: 48 b8 f3 0d 4e 47 de 66 58 e7	movabsq	$-0x18a79921b8b1f20d, %rax # imm = 0xE75866DE474E0DF3
   1b4b2: 48 39 85 68 ff ff ff         	cmpq	%rax, -0x98(%rbp)
   1b4b9: 0f 84 9e 2a 00 00            	je	0x1df5d <.text+0xf7dd>
   1b4bf: 49 89 c9                     	movq	%rcx, %r9
   1b4c2: 8a 45 ce                     	movb	-0x32(%rbp), %al
   1b4c5: 88 45 cf                     	movb	%al, -0x31(%rbp)
   1b4c8: 8a 45 cd                     	movb	-0x33(%rbp), %al
   1b4cb: 89 c6                        	movl	%eax, %esi
   1b4cd: 48 8b 85 50 ff ff ff         	movq	-0xb0(%rbp), %rax
   1b4d4: 48 89 85 70 ff ff ff         	movq	%rax, -0x90(%rbp)
   1b4db: 48 8b 85 60 ff ff ff         	movq	-0xa0(%rbp), %rax
   1b4e2: 48 89 85 78 ff ff ff         	movq	%rax, -0x88(%rbp)
   1b4e9: 48 89 f8                     	movq	%rdi, %rax
   1b4ec: 48 89 7d 80                  	movq	%rdi, -0x80(%rbp)
   1b4f0: 48 89 4d 88                  	movq	%rcx, -0x78(%rbp)
   1b4f4: 48 8b 85 48 ff ff ff         	movq	-0xb8(%rbp), %rax
   1b4fb: 48 89 45 90                  	movq	%rax, -0x70(%rbp)
   1b4ff: 48 8b 85 58 ff ff ff         	movq	-0xa8(%rbp), %rax
   1b506: 48 89 45 98                  	movq	%rax, -0x68(%rbp)
   1b50a: 48 8b 85 30 ff ff ff         	movq	-0xd0(%rbp), %rax
   1b511: 48 89 45 a0                  	movq	%rax, -0x60(%rbp)
   1b515: 4c 8b 9d 48 fe ff ff         	movq	-0x1b8(%rbp), %r11
   1b51c: 4c 89 5d a8                  	movq	%r11, -0x58(%rbp)
   1b520: 48 8b 85 40 ff ff ff         	movq	-0xc0(%rbp), %rax
   1b527: 48 89 45 b0                  	movq	%rax, -0x50(%rbp)
   1b52b: 48 8b 85 08 ff ff ff         	movq	-0xf8(%rbp), %rax
   1b532: 48 8b 8d 10 ff ff ff         	movq	-0xf0(%rbp), %rcx
   1b539: 48 89 4d b8                  	movq	%rcx, -0x48(%rbp)
   1b53d: 48 8b 8d 20 ff ff ff         	movq	-0xe0(%rbp), %rcx
   1b544: 48 89 4d c0                  	movq	%rcx, -0x40(%rbp)
   1b548: 4c 8b 9d 18 ff ff ff         	movq	-0xe8(%rbp), %r11
   1b54f: 4c 8b bd f8 fe ff ff         	movq	-0x108(%rbp), %r15
   1b556: 4c 8b ad f0 fe ff ff         	movq	-0x110(%rbp), %r13
   1b55d: 48 8b 9d 00 ff ff ff         	movq	-0x100(%rbp), %rbx
   1b564: 4c 8b 95 38 ff ff ff         	movq	-0xc8(%rbp), %r10
   1b56b: 48 ba f7 61 c1 f1 5c 28 2d d9	movabsq	$-0x26d2d7a30e3e9e09, %rdx # imm = 0xD92D285CF1C161F7
   1b575: 49 bc ee 54 af 91 bd 01 41 e8	movabsq	$-0x17befe426e50ab12, %r12 # imm = 0xE84101BD91AF54EE
   1b57f: 4c 39 a5 68 ff ff ff         	cmpq	%r12, -0x98(%rbp)
   1b586: 0f 84 a1 e6 ff ff            	je	0x19c2d <.text+0xb4ad>
   1b58c: 48 b8 1c 04 e4 d0 02 24 ca ea	movabsq	$-0x1535dbfd2f1bfbe4, %rax # imm = 0xEACA2402D0E4041C
   1b596: 48 39 85 68 ff ff ff         	cmpq	%rax, -0x98(%rbp)
   1b59d: 0f 84 9f 3c 00 00            	je	0x1f242 <.text+0x10ac2>
   1b5a3: 8a 45 ce                     	movb	-0x32(%rbp), %al
   1b5a6: 88 45 cf                     	movb	%al, -0x31(%rbp)
   1b5a9: 8a 45 cd                     	movb	-0x33(%rbp), %al
   1b5ac: 89 c6                        	movl	%eax, %esi
   1b5ae: 48 8b 85 50 ff ff ff         	movq	-0xb0(%rbp), %rax
   1b5b5: 48 89 85 70 ff ff ff         	movq	%rax, -0x90(%rbp)
   1b5bc: 48 8b 85 60 ff ff ff         	movq	-0xa0(%rbp), %rax
   1b5c3: 48 89 85 78 ff ff ff         	movq	%rax, -0x88(%rbp)
   1b5ca: 48 8b 85 00 fc ff ff         	movq	-0x400(%rbp), %rax
   1b5d1: 48 89 45 80                  	movq	%rax, -0x80(%rbp)
   1b5d5: 48 8b 85 f8 fb ff ff         	movq	-0x408(%rbp), %rax
   1b5dc: 48 89 45 88                  	movq	%rax, -0x78(%rbp)
   1b5e0: 48 8b 85 48 ff ff ff         	movq	-0xb8(%rbp), %rax
   1b5e7: 48 89 45 90                  	movq	%rax, -0x70(%rbp)
   1b5eb: 48 8b 85 58 ff ff ff         	movq	-0xa8(%rbp), %rax
   1b5f2: 48 89 45 98                  	movq	%rax, -0x68(%rbp)
   1b5f6: 48 8b 85 30 ff ff ff         	movq	-0xd0(%rbp), %rax
   1b5fd: 48 89 45 a0                  	movq	%rax, -0x60(%rbp)
   1b601: 48 8b 85 28 ff ff ff         	movq	-0xd8(%rbp), %rax
   1b608: 48 89 45 a8                  	movq	%rax, -0x58(%rbp)
   1b60c: 48 8b 85 40 ff ff ff         	movq	-0xc0(%rbp), %rax
   1b613: 48 89 45 b0                  	movq	%rax, -0x50(%rbp)
   1b617: 48 8b 85 08 ff ff ff         	movq	-0xf8(%rbp), %rax
   1b61e: 48 8b 8d 10 ff ff ff         	movq	-0xf0(%rbp), %rcx
   1b625: 48 89 4d b8                  	movq	%rcx, -0x48(%rbp)
   1b629: 48 8b 8d 20 ff ff ff         	movq	-0xe0(%rbp), %rcx
   1b630: 48 89 4d c0                  	movq	%rcx, -0x40(%rbp)
   1b634: 4c 8b 9d 18 ff ff ff         	movq	-0xe8(%rbp), %r11
   1b63b: 4c 8b bd f8 fe ff ff         	movq	-0x108(%rbp), %r15
   1b642: 4c 8b ad f0 fe ff ff         	movq	-0x110(%rbp), %r13
   1b649: 48 8b 9d 00 ff ff ff         	movq	-0x100(%rbp), %rbx
   1b650: 4c 8b 95 38 ff ff ff         	movq	-0xc8(%rbp), %r10
   1b657: 48 ba 3a 4b eb 22 9e 56 0a 1f	movabsq	$0x1f0a569e22eb4b3a, %rdx # imm = 0x1F0A569E22EB4B3A
   1b661: 49 bc a3 4e 31 e2 8a 62 51 f1	movabsq	$-0xeae9d751dceb15d, %r12 # imm = 0xF151628AE2314EA3
   1b66b: 4c 39 a5 68 ff ff ff         	cmpq	%r12, -0x98(%rbp)
   1b672: 0f 84 b5 e5 ff ff            	je	0x19c2d <.text+0xb4ad>
   1b678: 8a 45 ce                     	movb	-0x32(%rbp), %al
   1b67b: 88 45 cf                     	movb	%al, -0x31(%rbp)
   1b67e: 8a 45 cd                     	movb	-0x33(%rbp), %al
   1b681: 89 c6                        	movl	%eax, %esi
   1b683: 48 8b 85 50 ff ff ff         	movq	-0xb0(%rbp), %rax
   1b68a: 48 89 85 70 ff ff ff         	movq	%rax, -0x90(%rbp)
   1b691: 48 8b 85 60 ff ff ff         	movq	-0xa0(%rbp), %rax
   1b698: 48 89 85 78 ff ff ff         	movq	%rax, -0x88(%rbp)
   1b69f: 48 89 f8                     	movq	%rdi, %rax
   1b6a2: 48 89 7d 80                  	movq	%rdi, -0x80(%rbp)
   1b6a6: 4c 89 4d 88                  	movq	%r9, -0x78(%rbp)
   1b6aa: 48 8b 85 48 ff ff ff         	movq	-0xb8(%rbp), %rax
   1b6b1: 48 89 45 90                  	movq	%rax, -0x70(%rbp)
   1b6b5: 48 8b 85 58 ff ff ff         	movq	-0xa8(%rbp), %rax
   1b6bc: 48 89 45 98                  	movq	%rax, -0x68(%rbp)
   1b6c0: 48 8b 85 30 ff ff ff         	movq	-0xd0(%rbp), %rax
   1b6c7: 48 89 45 a0                  	movq	%rax, -0x60(%rbp)
   1b6cb: 48 8b 85 28 ff ff ff         	movq	-0xd8(%rbp), %rax
   1b6d2: 48 89 45 a8                  	movq	%rax, -0x58(%rbp)
   1b6d6: 48 8b 85 40 ff ff ff         	movq	-0xc0(%rbp), %rax
   1b6dd: 48 89 45 b0                  	movq	%rax, -0x50(%rbp)
   1b6e1: 48 8b 85 08 ff ff ff         	movq	-0xf8(%rbp), %rax
   1b6e8: 48 8b 8d 10 ff ff ff         	movq	-0xf0(%rbp), %rcx
   1b6ef: 48 89 4d b8                  	movq	%rcx, -0x48(%rbp)
   1b6f3: 48 8b 8d 20 ff ff ff         	movq	-0xe0(%rbp), %rcx
   1b6fa: 48 89 4d c0                  	movq	%rcx, -0x40(%rbp)
   1b6fe: 4c 8b 9d 18 ff ff ff         	movq	-0xe8(%rbp), %r11
   1b705: 4c 8b bd f8 fe ff ff         	movq	-0x108(%rbp), %r15
   1b70c: 4c 8b ad f0 fe ff ff         	movq	-0x110(%rbp), %r13
   1b713: 48 8b 9d 00 ff ff ff         	movq	-0x100(%rbp), %rbx
   1b71a: 4c 8b 95 38 ff ff ff         	movq	-0xc8(%rbp), %r10
   1b721: 48 ba de a6 c1 dc 00 48 02 36	movabsq	$0x36024800dcc1a6de, %rdx # imm = 0x36024800DCC1A6DE
   1b72b: 49 bc 82 be ba 17 48 56 46 f4	movabsq	$-0xbb9a9b7e845417e, %r12 # imm = 0xF446564817BABE82
   1b735: 4c 39 a5 68 ff ff ff         	cmpq	%r12, -0x98(%rbp)
   1b73c: 0f 84 eb e4 ff ff            	je	0x19c2d <.text+0xb4ad>
   1b742: 8a 45 ce                     	movb	-0x32(%rbp), %al
   1b745: 88 45 cf                     	movb	%al, -0x31(%rbp)
   1b748: 8a 45 cd                     	movb	-0x33(%rbp), %al
   1b74b: 89 c6                        	movl	%eax, %esi
   1b74d: 48 8b 85 50 ff ff ff         	movq	-0xb0(%rbp), %rax
   1b754: 48 89 85 70 ff ff ff         	movq	%rax, -0x90(%rbp)
   1b75b: 48 8b 85 60 ff ff ff         	movq	-0xa0(%rbp), %rax
   1b762: 48 89 85 78 ff ff ff         	movq	%rax, -0x88(%rbp)
   1b769: 48 89 f8                     	movq	%rdi, %rax
   1b76c: 48 89 7d 80                  	movq	%rdi, -0x80(%rbp)
   1b770: 4c 89 4d 88                  	movq	%r9, -0x78(%rbp)
   1b774: 48 8b 85 48 ff ff ff         	movq	-0xb8(%rbp), %rax
   1b77b: 48 89 45 90                  	movq	%rax, -0x70(%rbp)
   1b77f: 48 8b 85 58 ff ff ff         	movq	-0xa8(%rbp), %rax
   1b786: 48 89 45 98                  	movq	%rax, -0x68(%rbp)
   1b78a: 48 8b 85 30 ff ff ff         	movq	-0xd0(%rbp), %rax
   1b791: 48 89 45 a0                  	movq	%rax, -0x60(%rbp)
   1b795: 48 8b 85 28 ff ff ff         	movq	-0xd8(%rbp), %rax
   1b79c: 48 89 45 a8                  	movq	%rax, -0x58(%rbp)
   1b7a0: 48 8b 85 40 ff ff ff         	movq	-0xc0(%rbp), %rax
   1b7a7: 48 89 45 b0                  	movq	%rax, -0x50(%rbp)
   1b7ab: 48 8b 85 08 ff ff ff         	movq	-0xf8(%rbp), %rax
   1b7b2: 48 8b 8d 10 ff ff ff         	movq	-0xf0(%rbp), %rcx
   1b7b9: 48 89 4d b8                  	movq	%rcx, -0x48(%rbp)
   1b7bd: 48 8b 8d 20 ff ff ff         	movq	-0xe0(%rbp), %rcx
   1b7c4: 48 89 4d c0                  	movq	%rcx, -0x40(%rbp)
   1b7c8: 4c 8b 9d 18 ff ff ff         	movq	-0xe8(%rbp), %r11
   1b7cf: 4c 8b bd a0 fc ff ff         	movq	-0x360(%rbp), %r15
   1b7d6: 4c 8b ad f0 fe ff ff         	movq	-0x110(%rbp), %r13
   1b7dd: 48 8b 9d 00 ff ff ff         	movq	-0x100(%rbp), %rbx
   1b7e4: 4c 8b 95 38 ff ff ff         	movq	-0xc8(%rbp), %r10
   1b7eb: 48 ba ac 98 db cb 66 19 b3 48	movabsq	$0x48b31966cbdb98ac, %rdx # imm = 0x48B31966CBDB98AC
   1b7f5: 49 bc a2 e9 b3 d3 65 be 42 f7	movabsq	$-0x8bd419a2c4c165e, %r12 # imm = 0xF742BE65D3B3E9A2
   1b7ff: 4c 39 a5 68 ff ff ff         	cmpq	%r12, -0x98(%rbp)
   1b806: 0f 84 21 e4 ff ff            	je	0x19c2d <.text+0xb4ad>
   1b80c: 8a 45 ce                     	movb	-0x32(%rbp), %al
   1b80f: 88 45 cf                     	movb	%al, -0x31(%rbp)
   1b812: 8a 45 cd                     	movb	-0x33(%rbp), %al
   1b815: 89 c6                        	movl	%eax, %esi
   1b817: 48 8b 85 50 ff ff ff         	movq	-0xb0(%rbp), %rax
   1b81e: 48 89 85 70 ff ff ff         	movq	%rax, -0x90(%rbp)
   1b825: 48 8b 85 60 ff ff ff         	movq	-0xa0(%rbp), %rax
   1b82c: 48 89 85 78 ff ff ff         	movq	%rax, -0x88(%rbp)
   1b833: 48 89 f8                     	movq	%rdi, %rax
   1b836: 48 89 7d 80                  	movq	%rdi, -0x80(%rbp)
   1b83a: 4c 89 4d 88                  	movq	%r9, -0x78(%rbp)
   1b83e: 48 8b 85 48 ff ff ff         	movq	-0xb8(%rbp), %rax
   1b845: 48 89 45 90                  	movq	%rax, -0x70(%rbp)
   1b849: 48 8b 85 58 ff ff ff         	movq	-0xa8(%rbp), %rax
   1b850: 48 89 45 98                  	movq	%rax, -0x68(%rbp)
   1b854: 48 8b 85 30 ff ff ff         	movq	-0xd0(%rbp), %rax
   1b85b: 48 89 45 a0                  	movq	%rax, -0x60(%rbp)
   1b85f: 48 8b 85 28 ff ff ff         	movq	-0xd8(%rbp), %rax
   1b866: 48 89 45 a8                  	movq	%rax, -0x58(%rbp)
   1b86a: 48 8b 85 40 ff ff ff         	movq	-0xc0(%rbp), %rax
   1b871: 48 89 45 b0                  	movq	%rax, -0x50(%rbp)
   1b875: 48 8b 85 08 ff ff ff         	movq	-0xf8(%rbp), %rax
   1b87c: 48 8b 8d 10 ff ff ff         	movq	-0xf0(%rbp), %rcx
   1b883: 48 89 4d b8                  	movq	%rcx, -0x48(%rbp)
   1b887: 48 8b 8d 20 ff ff ff         	movq	-0xe0(%rbp), %rcx
   1b88e: 48 89 4d c0                  	movq	%rcx, -0x40(%rbp)
   1b892: 4c 8b 9d 18 ff ff ff         	movq	-0xe8(%rbp), %r11
   1b899: 4c 8b bd f8 fe ff ff         	movq	-0x108(%rbp), %r15
   1b8a0: 4c 8b ad f0 fe ff ff         	movq	-0x110(%rbp), %r13
   1b8a7: 48 8b 9d 00 ff ff ff         	movq	-0x100(%rbp), %rbx
   1b8ae: 4c 8b 95 38 ff ff ff         	movq	-0xc8(%rbp), %r10
   1b8b5: 48 ba 01 e1 5e 0e ec c6 64 38	movabsq	$0x3864c6ec0e5ee101, %rdx # imm = 0x3864C6EC0E5EE101
   1b8bf: 49 bc 9d 41 b3 b6 a8 67 71 fa	movabsq	$-0x58e9857494cbe63, %r12 # imm = 0xFA7167A8B6B3419D
   1b8c9: 4c 39 a5 68 ff ff ff         	cmpq	%r12, -0x98(%rbp)
   1b8d0: 0f 84 57 e3 ff ff            	je	0x19c2d <.text+0xb4ad>
   1b8d6: 8a 45 ce                     	movb	-0x32(%rbp), %al
   1b8d9: 88 45 cf                     	movb	%al, -0x31(%rbp)
   1b8dc: 8a 45 cd                     	movb	-0x33(%rbp), %al
   1b8df: 89 c6                        	movl	%eax, %esi
   1b8e1: 48 8b 85 50 ff ff ff         	movq	-0xb0(%rbp), %rax
   1b8e8: 48 89 85 70 ff ff ff         	movq	%rax, -0x90(%rbp)
   1b8ef: 48 8b 85 60 ff ff ff         	movq	-0xa0(%rbp), %rax
   1b8f6: 48 89 85 78 ff ff ff         	movq	%rax, -0x88(%rbp)
   1b8fd: 48 89 f8                     	movq	%rdi, %rax
   1b900: 48 89 7d 80                  	movq	%rdi, -0x80(%rbp)
   1b904: 4c 89 4d 88                  	movq	%r9, -0x78(%rbp)
   1b908: 48 8b 85 48 ff ff ff         	movq	-0xb8(%rbp), %rax
   1b90f: 48 89 45 90                  	movq	%rax, -0x70(%rbp)
   1b913: 48 8b 85 58 ff ff ff         	movq	-0xa8(%rbp), %rax
   1b91a: 48 89 45 98                  	movq	%rax, -0x68(%rbp)
   1b91e: 48 8b 85 30 ff ff ff         	movq	-0xd0(%rbp), %rax
   1b925: 48 89 45 a0                  	movq	%rax, -0x60(%rbp)
   1b929: 48 8b 85 28 ff ff ff         	movq	-0xd8(%rbp), %rax
   1b930: 48 89 45 a8                  	movq	%rax, -0x58(%rbp)
   1b934: 48 8b 85 40 ff ff ff         	movq	-0xc0(%rbp), %rax
   1b93b: 48 89 45 b0                  	movq	%rax, -0x50(%rbp)
   1b93f: 48 8b 85 08 ff ff ff         	movq	-0xf8(%rbp), %rax
   1b946: 48 8b 8d 10 ff ff ff         	movq	-0xf0(%rbp), %rcx
   1b94d: 48 89 4d b8                  	movq	%rcx, -0x48(%rbp)
   1b951: 48 8b 8d 20 ff ff ff         	movq	-0xe0(%rbp), %rcx
   1b958: 48 89 4d c0                  	movq	%rcx, -0x40(%rbp)
   1b95c: 4c 8b 9d 18 ff ff ff         	movq	-0xe8(%rbp), %r11
   1b963: 4c 8b bd f8 fe ff ff         	movq	-0x108(%rbp), %r15
   1b96a: 4c 8b ad f0 fe ff ff         	movq	-0x110(%rbp), %r13
   1b971: 48 8b 9d 00 ff ff ff         	movq	-0x100(%rbp), %rbx
   1b978: 4c 8b 95 38 ff ff ff         	movq	-0xc8(%rbp), %r10
   1b97f: 48 ba c4 4d 71 da bc c9 1e be	movabsq	$-0x41e13643258eb23c, %rdx # imm = 0xBE1EC9BCDA714DC4
   1b989: 49 bc 71 bf 2f a8 22 77 aa fa	movabsq	$-0x55588dd57d0408f, %r12 # imm = 0xFAAA7722A82FBF71
   1b993: 4c 39 a5 68 ff ff ff         	cmpq	%r12, -0x98(%rbp)
   1b99a: 0f 84 8d e2 ff ff            	je	0x19c2d <.text+0xb4ad>
   1b9a0: 8a 45 ce                     	movb	-0x32(%rbp), %al
   1b9a3: 88 45 cf                     	movb	%al, -0x31(%rbp)
   1b9a6: 8a 45 cd                     	movb	-0x33(%rbp), %al
   1b9a9: 89 c6                        	movl	%eax, %esi
   1b9ab: 48 8b 85 50 ff ff ff         	movq	-0xb0(%rbp), %rax
   1b9b2: 48 89 85 70 ff ff ff         	movq	%rax, -0x90(%rbp)
   1b9b9: 48 8b 85 60 ff ff ff         	movq	-0xa0(%rbp), %rax
   1b9c0: 48 89 85 78 ff ff ff         	movq	%rax, -0x88(%rbp)
   1b9c7: 48 89 f8                     	movq	%rdi, %rax
   1b9ca: 48 89 7d 80                  	movq	%rdi, -0x80(%rbp)
   1b9ce: 4c 89 4d 88                  	movq	%r9, -0x78(%rbp)
   1b9d2: 48 8b 85 48 ff ff ff         	movq	-0xb8(%rbp), %rax
   1b9d9: 48 89 45 90                  	movq	%rax, -0x70(%rbp)
   1b9dd: 48 8b 85 58 ff ff ff         	movq	-0xa8(%rbp), %rax
   1b9e4: 48 89 45 98                  	movq	%rax, -0x68(%rbp)
   1b9e8: 48 8b 85 30 ff ff ff         	movq	-0xd0(%rbp), %rax
   1b9ef: 48 89 45 a0                  	movq	%rax, -0x60(%rbp)
   1b9f3: 48 8b 85 28 ff ff ff         	movq	-0xd8(%rbp), %rax
   1b9fa: 48 89 45 a8                  	movq	%rax, -0x58(%rbp)
   1b9fe: 48 8b 85 40 ff ff ff         	movq	-0xc0(%rbp), %rax
   1ba05: 48 89 45 b0                  	movq	%rax, -0x50(%rbp)
   1ba09: 48 8b 85 08 ff ff ff         	movq	-0xf8(%rbp), %rax
   1ba10: 4c 8b 85 10 ff ff ff         	movq	-0xf0(%rbp), %r8
   1ba17: 4c 89 45 b8                  	movq	%r8, -0x48(%rbp)
   1ba1b: 4c 89 45 c0                  	movq	%r8, -0x40(%rbp)
   1ba1f: 48 8b 8d e0 fe ff ff         	movq	-0x120(%rbp), %rcx
   1ba26: 4c 8b 9d 08 fe ff ff         	movq	-0x1f8(%rbp), %r11
   1ba2d: 4c 8b 8d e8 fe ff ff         	movq	-0x118(%rbp), %r9
   1ba34: 4c 8b bd f8 fe ff ff         	movq	-0x108(%rbp), %r15
   1ba3b: 4c 8b ad f0 fe ff ff         	movq	-0x110(%rbp), %r13
   1ba42: 48 8b 9d 00 ff ff ff         	movq	-0x100(%rbp), %rbx
   1ba49: 4c 8b 95 38 ff ff ff         	movq	-0xc8(%rbp), %r10
   1ba50: 48 ba f9 ee 42 72 b3 88 c4 7e	movabsq	$0x7ec488b37242eef9, %rdx # imm = 0x7EC488B37242EEF9
   1ba5a: 49 bc db be 77 62 ce 6c 0b fb	movabsq	$-0x4f493319d884125, %r12 # imm = 0xFB0B6CCE6277BEDB
   1ba64: 4c 39 a5 68 ff ff ff         	cmpq	%r12, -0x98(%rbp)
   1ba6b: 0f 84 bc e1 ff ff            	je	0x19c2d <.text+0xb4ad>
   1ba71: 48 b8 22 17 c1 80 81 fb 35 fc	movabsq	$-0x3ca047e7f3ee8de, %rax # imm = 0xFC35FB8180C11722
   1ba7b: 48 39 85 68 ff ff ff         	cmpq	%rax, -0x98(%rbp)
   1ba82: 0f 84 e4 5c 00 00            	je	0x2176c <.text+0x12fec>
   1ba88: 8a 45 ce                     	movb	-0x32(%rbp), %al
   1ba8b: 88 45 cf                     	movb	%al, -0x31(%rbp)
   1ba8e: 8a 45 cd                     	movb	-0x33(%rbp), %al
   1ba91: 89 c6                        	movl	%eax, %esi
   1ba93: 48 8b 85 50 ff ff ff         	movq	-0xb0(%rbp), %rax
   1ba9a: 48 89 85 70 ff ff ff         	movq	%rax, -0x90(%rbp)
   1baa1: 48 8b 85 60 ff ff ff         	movq	-0xa0(%rbp), %rax
   1baa8: 48 89 85 78 ff ff ff         	movq	%rax, -0x88(%rbp)
   1baaf: 48 89 c8                     	movq	%rcx, %rax
   1bab2: 48 89 4d 80                  	movq	%rcx, -0x80(%rbp)
   1bab6: 4c 89 4d 88                  	movq	%r9, -0x78(%rbp)
   1baba: 48 8b 85 48 ff ff ff         	movq	-0xb8(%rbp), %rax
   1bac1: 48 89 45 90                  	movq	%rax, -0x70(%rbp)
   1bac5: 48 8b 85 58 ff ff ff         	movq	-0xa8(%rbp), %rax
   1bacc: 48 89 45 98                  	movq	%rax, -0x68(%rbp)
   1bad0: 48 8b 85 30 ff ff ff         	movq	-0xd0(%rbp), %rax
   1bad7: 48 89 45 a0                  	movq	%rax, -0x60(%rbp)
   1badb: 48 8b 85 28 ff ff ff         	movq	-0xd8(%rbp), %rax
   1bae2: 48 89 45 a8                  	movq	%rax, -0x58(%rbp)
   1bae6: 48 8b 85 40 ff ff ff         	movq	-0xc0(%rbp), %rax
   1baed: 48 89 45 b0                  	movq	%rax, -0x50(%rbp)
   1baf1: 48 8b 85 08 ff ff ff         	movq	-0xf8(%rbp), %rax
   1baf8: 48 8b 95 10 ff ff ff         	movq	-0xf0(%rbp), %rdx
   1baff: 48 89 55 b8                  	movq	%rdx, -0x48(%rbp)
   1bb03: 48 8b 95 20 ff ff ff         	movq	-0xe0(%rbp), %rdx
   1bb0a: 48 89 55 c0                  	movq	%rdx, -0x40(%rbp)
   1bb0e: 4c 8b 9d 18 ff ff ff         	movq	-0xe8(%rbp), %r11
   1bb15: 4c 8b bd f8 fe ff ff         	movq	-0x108(%rbp), %r15
   1bb1c: 4c 8b ad f0 fe ff ff         	movq	-0x110(%rbp), %r13
   1bb23: 48 8b 9d 00 ff ff ff         	movq	-0x100(%rbp), %rbx
   1bb2a: 4c 8b 95 38 ff ff ff         	movq	-0xc8(%rbp), %r10
   1bb31: 48 ba bc 5b fe 7c ef 40 e4 be	movabsq	$-0x411bbf108301a444, %rdx # imm = 0xBEE440EF7CFE5BBC
   1bb3b: 49 bc 4b 83 08 9e 65 09 cf fd	movabsq	$-0x230f69a61f77cb5, %r12 # imm = 0xFDCF09659E08834B
   1bb45: 4c 39 a5 68 ff ff ff         	cmpq	%r12, -0x98(%rbp)
   1bb4c: 0f 84 db e0 ff ff            	je	0x19c2d <.text+0xb4ad>
   1bb52: 48 b8 d5 30 ad 4a 81 ea d8 fd	movabsq	$-0x227157eb552cf2b, %rax # imm = 0xFDD8EA814AAD30D5
   1bb5c: 48 39 85 68 ff ff ff         	cmpq	%rax, -0x98(%rbp)
   1bb63: 0f 84 67 24 00 00            	je	0x1dfd0 <.text+0xf850>
   1bb69: 48 b8 0c 78 9f fd 30 11 fd fd	movabsq	$-0x202eecf026087f4, %rax # imm = 0xFDFD1130FD9F780C
   1bb73: 48 39 85 68 ff ff ff         	cmpq	%rax, -0x98(%rbp)
   1bb7a: 40 8a 75 cd                  	movb	-0x33(%rbp), %sil
   1bb7e: 4c 8b 95 38 ff ff ff         	movq	-0xc8(%rbp), %r10
   1bb85: 48 8b 9d 00 ff ff ff         	movq	-0x100(%rbp), %rbx
   1bb8c: 4c 8b ad f0 fe ff ff         	movq	-0x110(%rbp), %r13
   1bb93: 4c 8b bd f8 fe ff ff         	movq	-0x108(%rbp), %r15
   1bb9a: 4c 8b 8d 18 ff ff ff         	movq	-0xe8(%rbp), %r9
   1bba1: 4c 8b 85 20 ff ff ff         	movq	-0xe0(%rbp), %r8
   1bba8: 48 8b bd 10 ff ff ff         	movq	-0xf0(%rbp), %rdi
   1bbaf: 4c 8b a5 08 ff ff ff         	movq	-0xf8(%rbp), %r12
   1bbb6: 4c 8b 9d 28 ff ff ff         	movq	-0xd8(%rbp), %r11
   1bbbd: 48 8b 95 30 ff ff ff         	movq	-0xd0(%rbp), %rdx
   1bbc4: 0f 84 31 2e 00 00            	je	0x1e9fb <.text+0x1027b>
   1bbca: 48 b8 61 4d 39 20 29 e1 92 fe	movabsq	$-0x16d1ed6dfc6b29f, %rax # imm = 0xFE92E12920394D61
   1bbd4: 48 39 85 68 ff ff ff         	cmpq	%rax, -0x98(%rbp)
   1bbdb: 0f 84 15 5e 00 00            	je	0x219f6 <.text+0x13276>
   1bbe1: 48 b8 b7 2e be da de c6 84 ff	movabsq	$-0x7b39212541d149, %rax # imm = 0xFF84C6DEDABE2EB7
   1bbeb: 48 39 85 68 ff ff ff         	cmpq	%rax, -0x98(%rbp)
   1bbf2: 0f 84 e5 2d 00 00            	je	0x1e9dd <.text+0x1025d>
   1bbf8: 8a 45 ce                     	movb	-0x32(%rbp), %al
   1bbfb: 88 45 cf                     	movb	%al, -0x31(%rbp)
   1bbfe: 48 8b 85 50 ff ff ff         	movq	-0xb0(%rbp), %rax
   1bc05: 48 89 85 70 ff ff ff         	movq	%rax, -0x90(%rbp)
   1bc0c: 48 8b 85 60 ff ff ff         	movq	-0xa0(%rbp), %rax
   1bc13: 48 89 85 78 ff ff ff         	movq	%rax, -0x88(%rbp)
   1bc1a: 4c 8b b5 e0 fe ff ff         	movq	-0x120(%rbp), %r14
   1bc21: 4c 89 f0                     	movq	%r14, %rax
   1bc24: 4c 89 75 80                  	movq	%r14, -0x80(%rbp)
   1bc28: 48 8b 8d e8 fe ff ff         	movq	-0x118(%rbp), %rcx
   1bc2f: 48 89 4d 88                  	movq	%rcx, -0x78(%rbp)
   1bc33: 48 8b 85 48 ff ff ff         	movq	-0xb8(%rbp), %rax
   1bc3a: 48 89 45 90                  	movq	%rax, -0x70(%rbp)
   1bc3e: 48 8b 85 58 ff ff ff         	movq	-0xa8(%rbp), %rax
   1bc45: 48 89 45 98                  	movq	%rax, -0x68(%rbp)
   1bc49: 48 89 55 a0                  	movq	%rdx, -0x60(%rbp)
   1bc4d: 4c 89 5d a8                  	movq	%r11, -0x58(%rbp)
   1bc51: 48 8b 85 40 ff ff ff         	movq	-0xc0(%rbp), %rax
   1bc58: 48 89 45 b0                  	movq	%rax, -0x50(%rbp)
   1bc5c: 4c 89 e0                     	movq	%r12, %rax
   1bc5f: 48 89 7d b8                  	movq	%rdi, -0x48(%rbp)
   1bc63: 4c 89 45 c0                  	movq	%r8, -0x40(%rbp)
   1bc67: 4d 89 cb                     	movq	%r9, %r11
   1bc6a: 48 ba b9 14 99 92 75 05 3a e7	movabsq	$-0x18c5fa8a6d66eb47, %rdx # imm = 0xE73A0575929914B9
   1bc74: 49 bc f5 a9 02 47 52 fe 9e ff	movabsq	$-0x6101adb8fd560b, %r12 # imm = 0xFF9EFE524702A9F5
   1bc7e: 4c 39 a5 68 ff ff ff         	cmpq	%r12, -0x98(%rbp)
   1bc85: 0f 84 a2 df ff ff            	je	0x19c2d <.text+0xb4ad>
   1bc8b: 49 89 c9                     	movq	%rcx, %r9
   1bc8e: 48 b8 48 af 86 ed ea 7b df 01	movabsq	$0x1df7beaed86af48, %rax # imm = 0x1DF7BEAED86AF48
   1bc98: 48 39 85 68 ff ff ff         	cmpq	%rax, -0x98(%rbp)
   1bc9f: 0f 84 3a 53 00 00            	je	0x20fdf <.text+0x1285f>
   1bca5: 8a 45 ce                     	movb	-0x32(%rbp), %al
   1bca8: 88 45 cf                     	movb	%al, -0x31(%rbp)
   1bcab: 8a 45 cd                     	movb	-0x33(%rbp), %al
   1bcae: 89 c6                        	movl	%eax, %esi
   1bcb0: 48 8b 85 08 fc ff ff         	movq	-0x3f8(%rbp), %rax
   1bcb7: 48 89 85 70 ff ff ff         	movq	%rax, -0x90(%rbp)
   1bcbe: 48 8b 85 60 ff ff ff         	movq	-0xa0(%rbp), %rax
   1bcc5: 48 89 85 78 ff ff ff         	movq	%rax, -0x88(%rbp)
   1bccc: 4c 89 f0                     	movq	%r14, %rax
   1bccf: 4c 89 75 80                  	movq	%r14, -0x80(%rbp)
   1bcd3: 4c 89 4d 88                  	movq	%r9, -0x78(%rbp)
   1bcd7: 48 8b 85 48 ff ff ff         	movq	-0xb8(%rbp), %rax
   1bcde: 48 89 45 90                  	movq	%rax, -0x70(%rbp)
   1bce2: 48 8b 85 58 ff ff ff         	movq	-0xa8(%rbp), %rax
   1bce9: 48 89 45 98                  	movq	%rax, -0x68(%rbp)
   1bced: 48 8b 85 30 ff ff ff         	movq	-0xd0(%rbp), %rax
   1bcf4: 48 89 45 a0                  	movq	%rax, -0x60(%rbp)
   1bcf8: 48 8b 85 28 ff ff ff         	movq	-0xd8(%rbp), %rax
   1bcff: 48 89 45 a8                  	movq	%rax, -0x58(%rbp)
   1bd03: 48 8b 85 40 ff ff ff         	movq	-0xc0(%rbp), %rax
   1bd0a: 48 89 45 b0                  	movq	%rax, -0x50(%rbp)
   1bd0e: 48 8b 85 08 ff ff ff         	movq	-0xf8(%rbp), %rax
   1bd15: 48 8b 8d 10 ff ff ff         	movq	-0xf0(%rbp), %rcx
   1bd1c: 48 89 4d b8                  	movq	%rcx, -0x48(%rbp)
   1bd20: 48 8b 8d 20 ff ff ff         	movq	-0xe0(%rbp), %rcx
   1bd27: 48 89 4d c0                  	movq	%rcx, -0x40(%rbp)
   1bd2b: 4c 8b 9d 18 ff ff ff         	movq	-0xe8(%rbp), %r11
   1bd32: 4c 8b bd f8 fe ff ff         	movq	-0x108(%rbp), %r15
   1bd39: 4c 8b ad f0 fe ff ff         	movq	-0x110(%rbp), %r13
   1bd40: 48 8b 9d 00 ff ff ff         	movq	-0x100(%rbp), %rbx
   1bd47: 4c 8b 95 38 ff ff ff         	movq	-0xc8(%rbp), %r10
   1bd4e: 48 ba 34 b6 9f 4a c7 b9 1b 08	movabsq	$0x81bb9c74a9fb634, %rdx # imm = 0x81BB9C74A9FB634
   1bd58: 49 bc 9e 5c af ee 7b d8 16 02	movabsq	$0x216d87beeaf5c9e, %r12 # imm = 0x216D87BEEAF5C9E
   1bd62: 4c 39 a5 68 ff ff ff         	cmpq	%r12, -0x98(%rbp)
   1bd69: 0f 84 be de ff ff            	je	0x19c2d <.text+0xb4ad>
   1bd6f: 48 b8 67 ac 6e 50 cf e2 82 02	movabsq	$0x282e2cf506eac67, %rax # imm = 0x282E2CF506EAC67
   1bd79: 48 39 85 68 ff ff ff         	cmpq	%rax, -0x98(%rbp)
   1bd80: 0f 84 29 25 00 00            	je	0x1e2af <.text+0xfb2f>
   1bd86: 48 b8 34 b6 9f 4a c7 b9 1b 08	movabsq	$0x81bb9c74a9fb634, %rax # imm = 0x81BB9C74A9FB634
   1bd90: 48 39 85 68 ff ff ff         	cmpq	%rax, -0x98(%rbp)
   1bd97: 44 8a 65 cd                  	movb	-0x33(%rbp), %r12b
   1bd9b: 48 8b 9d 00 ff ff ff         	movq	-0x100(%rbp), %rbx
   1bda2: 4c 8b ad f0 fe ff ff         	movq	-0x110(%rbp), %r13
   1bda9: 4c 8b bd f8 fe ff ff         	movq	-0x108(%rbp), %r15
   1bdb0: 4c 8b 9d 28 ff ff ff         	movq	-0xd8(%rbp), %r11
   1bdb7: 48 8b 8d 30 ff ff ff         	movq	-0xd0(%rbp), %rcx
   1bdbe: 0f 84 11 61 00 00            	je	0x21ed5 <.text+0x13755>
   1bdc4: 48 b8 ec ae b0 db 62 22 af 09	movabsq	$0x9af2262dbb0aeec, %rax # imm = 0x9AF2262DBB0AEEC
   1bdce: 48 39 85 68 ff ff ff         	cmpq	%rax, -0x98(%rbp)
   1bdd5: 0f 84 f9 5d 00 00            	je	0x21bd4 <.text+0x13454>
   1bddb: 8a 45 ce                     	movb	-0x32(%rbp), %al
   1bdde: 88 45 cf                     	movb	%al, -0x31(%rbp)
   1bde1: 44 89 e6                     	movl	%r12d, %esi
   1bde4: 48 8b 85 50 ff ff ff         	movq	-0xb0(%rbp), %rax
   1bdeb: 48 89 85 70 ff ff ff         	movq	%rax, -0x90(%rbp)
   1bdf2: 48 8b 85 60 ff ff ff         	movq	-0xa0(%rbp), %rax
   1bdf9: 48 89 85 78 ff ff ff         	movq	%rax, -0x88(%rbp)
   1be00: 4c 89 f0                     	movq	%r14, %rax
   1be03: 4c 89 75 80                  	movq	%r14, -0x80(%rbp)
   1be07: 4c 89 4d 88                  	movq	%r9, -0x78(%rbp)
   1be0b: 48 8b 85 48 ff ff ff         	movq	-0xb8(%rbp), %rax
   1be12: 48 89 45 90                  	movq	%rax, -0x70(%rbp)
   1be16: 48 8b 85 58 ff ff ff         	movq	-0xa8(%rbp), %rax
   1be1d: 48 89 45 98                  	movq	%rax, -0x68(%rbp)
   1be21: 48 89 4d a0                  	movq	%rcx, -0x60(%rbp)
   1be25: 4c 89 5d a8                  	movq	%r11, -0x58(%rbp)
   1be29: 48 8b 85 40 ff ff ff         	movq	-0xc0(%rbp), %rax
   1be30: 48 89 45 b0                  	movq	%rax, -0x50(%rbp)
   1be34: 48 8b 85 08 ff ff ff         	movq	-0xf8(%rbp), %rax
   1be3b: 48 8b 8d 10 ff ff ff         	movq	-0xf0(%rbp), %rcx
   1be42: 48 89 4d b8                  	movq	%rcx, -0x48(%rbp)
   1be46: 48 8b 8d 20 ff ff ff         	movq	-0xe0(%rbp), %rcx
   1be4d: 48 89 4d c0                  	movq	%rcx, -0x40(%rbp)
   1be51: 4c 8b 9d 18 ff ff ff         	movq	-0xe8(%rbp), %r11
   1be58: 4c 8b 95 38 ff ff ff         	movq	-0xc8(%rbp), %r10
   1be5f: 48 ba 16 c5 ef 5c c2 cc b0 e4	movabsq	$-0x1b4f333da3103aea, %rdx # imm = 0xE4B0CCC25CEFC516
   1be69: 49 bc bf ef f1 d0 8e 1f 50 0c	movabsq	$0xc501f8ed0f1efbf, %r12 # imm = 0xC501F8ED0F1EFBF
   1be73: 4c 39 a5 68 ff ff ff         	cmpq	%r12, -0x98(%rbp)
   1be7a: 0f 84 ad dd ff ff            	je	0x19c2d <.text+0xb4ad>
   1be80: 48 b8 5b 19 4d cb de b1 f9 0d	movabsq	$0xdf9b1decb4d195b, %rax # imm = 0xDF9B1DECB4D195B
   1be8a: 48 39 85 68 ff ff ff         	cmpq	%rax, -0x98(%rbp)
   1be91: 0f 84 75 27 00 00            	je	0x1e60c <.text+0xfe8c>
   1be97: 8a 45 ce                     	movb	-0x32(%rbp), %al
   1be9a: 88 45 cf                     	movb	%al, -0x31(%rbp)
   1be9d: 8a 45 cd                     	movb	-0x33(%rbp), %al
   1bea0: 89 c6                        	movl	%eax, %esi
   1bea2: 48 8b 85 50 ff ff ff         	movq	-0xb0(%rbp), %rax
   1bea9: 48 89 85 70 ff ff ff         	movq	%rax, -0x90(%rbp)
   1beb0: 48 8b 85 60 ff ff ff         	movq	-0xa0(%rbp), %rax
   1beb7: 48 89 85 78 ff ff ff         	movq	%rax, -0x88(%rbp)
   1bebe: 4c 89 f0                     	movq	%r14, %rax
   1bec1: 4c 89 75 80                  	movq	%r14, -0x80(%rbp)
   1bec5: 4c 89 4d 88                  	movq	%r9, -0x78(%rbp)
   1bec9: 48 8b 85 48 ff ff ff         	movq	-0xb8(%rbp), %rax
   1bed0: 48 89 45 90                  	movq	%rax, -0x70(%rbp)
   1bed4: 48 8b 85 58 ff ff ff         	movq	-0xa8(%rbp), %rax
   1bedb: 48 89 45 98                  	movq	%rax, -0x68(%rbp)
   1bedf: 48 8b 85 30 ff ff ff         	movq	-0xd0(%rbp), %rax
   1bee6: 48 89 45 a0                  	movq	%rax, -0x60(%rbp)
   1beea: 48 8b 85 28 ff ff ff         	movq	-0xd8(%rbp), %rax
   1bef1: 48 89 45 a8                  	movq	%rax, -0x58(%rbp)
   1bef5: 48 8b 85 40 ff ff ff         	movq	-0xc0(%rbp), %rax
   1befc: 48 89 45 b0                  	movq	%rax, -0x50(%rbp)
   1bf00: 48 8b 85 08 ff ff ff         	movq	-0xf8(%rbp), %rax
   1bf07: 48 8b 8d 10 ff ff ff         	movq	-0xf0(%rbp), %rcx
   1bf0e: 48 89 4d b8                  	movq	%rcx, -0x48(%rbp)
   1bf12: 48 8b 8d 20 ff ff ff         	movq	-0xe0(%rbp), %rcx
   1bf19: 48 89 4d c0                  	movq	%rcx, -0x40(%rbp)
   1bf1d: 4c 8b 9d 18 ff ff ff         	movq	-0xe8(%rbp), %r11
   1bf24: 4c 8b bd f8 fe ff ff         	movq	-0x108(%rbp), %r15
   1bf2b: 4c 8b ad f0 fe ff ff         	movq	-0x110(%rbp), %r13
   1bf32: 48 8b 9d 00 ff ff ff         	movq	-0x100(%rbp), %rbx
   1bf39: 4c 8b 95 38 ff ff ff         	movq	-0xc8(%rbp), %r10
   1bf40: 48 ba 77 9e 41 4a d8 61 80 1f	movabsq	$0x1f8061d84a419e77, %rdx # imm = 0x1F8061D84A419E77
   1bf4a: 49 bc 62 05 9d 9e 2a 32 d7 0e	movabsq	$0xed7322a9e9d0562, %r12 # imm = 0xED7322A9E9D0562
   1bf54: 4c 39 a5 68 ff ff ff         	cmpq	%r12, -0x98(%rbp)
   1bf5b: 0f 84 cc dc ff ff            	je	0x19c2d <.text+0xb4ad>
   1bf61: 48 b8 64 ea 2a 3d ba 31 ad 10	movabsq	$0x10ad31ba3d2aea64, %rax # imm = 0x10AD31BA3D2AEA64
   1bf6b: 48 39 85 68 ff ff ff         	cmpq	%rax, -0x98(%rbp)
   1bf72: 0f 84 97 2e 00 00            	je	0x1ee0f <.text+0x1068f>
   1bf78: 48 b8 04 3c 23 00 d6 21 d6 10	movabsq	$0x10d621d600233c04, %rax # imm = 0x10D621D600233C04
   1bf82: 48 39 85 68 ff ff ff         	cmpq	%rax, -0x98(%rbp)
   1bf89: 44 8a 65 cd                  	movb	-0x33(%rbp), %r12b
   1bf8d: 48 8b 9d 00 ff ff ff         	movq	-0x100(%rbp), %rbx
   1bf94: 4c 8b ad f0 fe ff ff         	movq	-0x110(%rbp), %r13
   1bf9b: 4c 8b bd f8 fe ff ff         	movq	-0x108(%rbp), %r15
   1bfa2: 0f 84 74 61 00 00            	je	0x2211c <.text+0x1399c>
   1bfa8: 48 b8 f2 a0 a6 1d 3d 70 e5 10	movabsq	$0x10e5703d1da6a0f2, %rax # imm = 0x10E5703D1DA6A0F2
   1bfb2: 48 39 85 68 ff ff ff         	cmpq	%rax, -0x98(%rbp)
   1bfb9: 0f 84 22 5e 00 00            	je	0x21de1 <.text+0x13661>
   1bfbf: 48 b8 dc 00 41 ae 4e ca 0a 12	movabsq	$0x120aca4eae4100dc, %rax # imm = 0x120ACA4EAE4100DC
   1bfc9: 48 39 85 68 ff ff ff         	cmpq	%rax, -0x98(%rbp)
   1bfd0: 0f 84 39 30 00 00            	je	0x1f00f <.text+0x1088f>
   1bfd6: 48 b8 4b c4 0a 99 13 70 e1 13	movabsq	$0x13e17013990ac44b, %rax # imm = 0x13E17013990AC44B
   1bfe0: 48 39 85 68 ff ff ff         	cmpq	%rax, -0x98(%rbp)
   1bfe7: 0f 84 48 3e 00 00            	je	0x1fe35 <.text+0x116b5>
   1bfed: 44 88 65 cf                  	movb	%r12b, -0x31(%rbp)
   1bff1: 44 89 e6                     	movl	%r12d, %esi
   1bff4: 48 8b 85 50 ff ff ff         	movq	-0xb0(%rbp), %rax
   1bffb: 48 89 85 70 ff ff ff         	movq	%rax, -0x90(%rbp)
   1c002: 48 8b 85 60 ff ff ff         	movq	-0xa0(%rbp), %rax
   1c009: 48 89 85 78 ff ff ff         	movq	%rax, -0x88(%rbp)
   1c010: 4c 89 f0                     	movq	%r14, %rax
   1c013: 4c 89 75 80                  	movq	%r14, -0x80(%rbp)
   1c017: 4c 89 4d 88                  	movq	%r9, -0x78(%rbp)
   1c01b: 48 8b 85 48 ff ff ff         	movq	-0xb8(%rbp), %rax
   1c022: 48 89 45 90                  	movq	%rax, -0x70(%rbp)
   1c026: 48 8b 85 58 ff ff ff         	movq	-0xa8(%rbp), %rax
   1c02d: 48 89 45 98                  	movq	%rax, -0x68(%rbp)
   1c031: 48 8b 85 30 ff ff ff         	movq	-0xd0(%rbp), %rax
   1c038: 48 89 45 a0                  	movq	%rax, -0x60(%rbp)
   1c03c: 48 8b 85 28 ff ff ff         	movq	-0xd8(%rbp), %rax
   1c043: 48 89 45 a8                  	movq	%rax, -0x58(%rbp)
   1c047: 48 8b 85 40 ff ff ff         	movq	-0xc0(%rbp), %rax
   1c04e: 48 89 45 b0                  	movq	%rax, -0x50(%rbp)
   1c052: 48 8b 85 08 ff ff ff         	movq	-0xf8(%rbp), %rax
   1c059: 48 8b 8d 10 ff ff ff         	movq	-0xf0(%rbp), %rcx
   1c060: 48 89 4d b8                  	movq	%rcx, -0x48(%rbp)
   1c064: 48 8b 8d 20 ff ff ff         	movq	-0xe0(%rbp), %rcx
   1c06b: 48 89 4d c0                  	movq	%rcx, -0x40(%rbp)
   1c06f: 4c 8b 9d 18 ff ff ff         	movq	-0xe8(%rbp), %r11
   1c076: 4c 8b 95 38 ff ff ff         	movq	-0xc8(%rbp), %r10
   1c07d: 48 ba d8 ef 61 2a b6 72 3f 52	movabsq	$0x523f72b62a61efd8, %rdx # imm = 0x523F72B62A61EFD8
   1c087: 49 bc 08 bf 53 4c b3 ef 7d 17	movabsq	$0x177defb34c53bf08, %r12 # imm = 0x177DEFB34C53BF08
   1c091: 4c 39 a5 68 ff ff ff         	cmpq	%r12, -0x98(%rbp)
   1c098: 0f 84 8f db ff ff            	je	0x19c2d <.text+0xb4ad>
   1c09e: 48 b8 20 00 88 a4 ce 0e 3b 18	movabsq	$0x183b0ecea4880020, %rax # imm = 0x183B0ECEA4880020
   1c0a8: 48 39 85 68 ff ff ff         	cmpq	%rax, -0x98(%rbp)
   1c0af: 0f 84 c3 5b 00 00            	je	0x21c78 <.text+0x134f8>
   1c0b5: 8a 45 ce                     	movb	-0x32(%rbp), %al
   1c0b8: 88 45 cf                     	movb	%al, -0x31(%rbp)
   1c0bb: 8a 45 cd                     	movb	-0x33(%rbp), %al
   1c0be: 89 c6                        	movl	%eax, %esi
   1c0c0: 48 8b 85 50 ff ff ff         	movq	-0xb0(%rbp), %rax
   1c0c7: 48 89 85 70 ff ff ff         	movq	%rax, -0x90(%rbp)
   1c0ce: 48 8b 85 60 ff ff ff         	movq	-0xa0(%rbp), %rax
   1c0d5: 48 89 85 78 ff ff ff         	movq	%rax, -0x88(%rbp)
   1c0dc: 4c 89 f0                     	movq	%r14, %rax
   1c0df: 4c 89 75 80                  	movq	%r14, -0x80(%rbp)
   1c0e3: 4c 89 4d 88                  	movq	%r9, -0x78(%rbp)
   1c0e7: 48 8b 85 50 fe ff ff         	movq	-0x1b0(%rbp), %rax
   1c0ee: 48 89 45 90                  	movq	%rax, -0x70(%rbp)
   1c0f2: 48 8b 85 58 ff ff ff         	movq	-0xa8(%rbp), %rax
   1c0f9: 48 89 45 98                  	movq	%rax, -0x68(%rbp)
   1c0fd: 48 8b 85 30 ff ff ff         	movq	-0xd0(%rbp), %rax
   1c104: 48 89 45 a0                  	movq	%rax, -0x60(%rbp)
   1c108: 48 8b 85 28 ff ff ff         	movq	-0xd8(%rbp), %rax
   1c10f: 48 89 45 a8                  	movq	%rax, -0x58(%rbp)
   1c113: 48 8b 85 40 ff ff ff         	movq	-0xc0(%rbp), %rax
   1c11a: 48 89 45 b0                  	movq	%rax, -0x50(%rbp)
   1c11e: 48 8b 85 08 ff ff ff         	movq	-0xf8(%rbp), %rax
   1c125: 48 8b 8d 10 ff ff ff         	movq	-0xf0(%rbp), %rcx
   1c12c: 48 89 4d b8                  	movq	%rcx, -0x48(%rbp)
   1c130: 48 8b 8d 20 ff ff ff         	movq	-0xe0(%rbp), %rcx
   1c137: 48 89 4d c0                  	movq	%rcx, -0x40(%rbp)
   1c13b: 4c 8b 9d 18 ff ff ff         	movq	-0xe8(%rbp), %r11
   1c142: 4c 8b bd f8 fe ff ff         	movq	-0x108(%rbp), %r15
   1c149: 4c 8b ad f0 fe ff ff         	movq	-0x110(%rbp), %r13
   1c150: 48 8b 9d 00 ff ff ff         	movq	-0x100(%rbp), %rbx
   1c157: 4c 8b 95 38 ff ff ff         	movq	-0xc8(%rbp), %r10
   1c15e: 48 ba 43 95 7e cf d7 5f 99 73	movabsq	$0x73995fd7cf7e9543, %rdx # imm = 0x73995FD7CF7E9543
   1c168: 49 bc b5 50 23 a4 b8 4b 91 18	movabsq	$0x18914bb8a42350b5, %r12 # imm = 0x18914BB8A42350B5
   1c172: 4c 39 a5 68 ff ff ff         	cmpq	%r12, -0x98(%rbp)
   1c179: 0f 84 ae da ff ff            	je	0x19c2d <.text+0xb4ad>
   1c17f: 48 b8 e3 9e 1b f8 fd be d2 1b	movabsq	$0x1bd2befdf81b9ee3, %rax # imm = 0x1BD2BEFDF81B9EE3
   1c189: 48 39 85 68 ff ff ff         	cmpq	%rax, -0x98(%rbp)
   1c190: 0f 84 19 4f 00 00            	je	0x210af <.text+0x1292f>
   1c196: 48 b8 72 70 99 84 23 13 53 1c	movabsq	$0x1c53132384997072, %rax # imm = 0x1C53132384997072
   1c1a0: 48 39 85 68 ff ff ff         	cmpq	%rax, -0x98(%rbp)
   1c1a7: 40 8a 75 cd                  	movb	-0x33(%rbp), %sil
   1c1ab: 4c 8b 95 38 ff ff ff         	movq	-0xc8(%rbp), %r10
   1c1b2: 48 8b 9d 00 ff ff ff         	movq	-0x100(%rbp), %rbx
   1c1b9: 4c 8b ad f0 fe ff ff         	movq	-0x110(%rbp), %r13
   1c1c0: 4c 8b bd f8 fe ff ff         	movq	-0x108(%rbp), %r15
   1c1c7: 4c 8b 8d 18 ff ff ff         	movq	-0xe8(%rbp), %r9
   1c1ce: 4c 8b 85 20 ff ff ff         	movq	-0xe0(%rbp), %r8
   1c1d5: 48 8b bd 10 ff ff ff         	movq	-0xf0(%rbp), %rdi
   1c1dc: 48 8b 8d 08 ff ff ff         	movq	-0xf8(%rbp), %rcx
   1c1e3: 4c 8b a5 40 ff ff ff         	movq	-0xc0(%rbp), %r12
   1c1ea: 0f 84 2d 52 00 00            	je	0x2141d <.text+0x12c9d>
   1c1f0: 8a 45 ce                     	movb	-0x32(%rbp), %al
   1c1f3: 88 45 cf                     	movb	%al, -0x31(%rbp)
   1c1f6: 48 8b 85 50 ff ff ff         	movq	-0xb0(%rbp), %rax
   1c1fd: 48 89 85 70 ff ff ff         	movq	%rax, -0x90(%rbp)
   1c204: 48 8b 85 60 ff ff ff         	movq	-0xa0(%rbp), %rax
   1c20b: 48 89 85 78 ff ff ff         	movq	%rax, -0x88(%rbp)
   1c212: 4c 8b 9d e0 fe ff ff         	movq	-0x120(%rbp), %r11
   1c219: 4c 89 d8                     	movq	%r11, %rax
   1c21c: 4c 89 5d 80                  	movq	%r11, -0x80(%rbp)
   1c220: 48 8b 95 e8 fe ff ff         	movq	-0x118(%rbp), %rdx
   1c227: 48 89 55 88                  	movq	%rdx, -0x78(%rbp)
   1c22b: 48 8b 85 48 ff ff ff         	movq	-0xb8(%rbp), %rax
   1c232: 48 89 45 90                  	movq	%rax, -0x70(%rbp)
   1c236: 48 8b 85 58 ff ff ff         	movq	-0xa8(%rbp), %rax
   1c23d: 48 89 45 98                  	movq	%rax, -0x68(%rbp)
   1c241: 48 8b 85 30 ff ff ff         	movq	-0xd0(%rbp), %rax
   1c248: 48 89 45 a0                  	movq	%rax, -0x60(%rbp)
   1c24c: 48 8b 85 28 ff ff ff         	movq	-0xd8(%rbp), %rax
   1c253: 48 89 45 a8                  	movq	%rax, -0x58(%rbp)
   1c257: 4c 89 65 b0                  	movq	%r12, -0x50(%rbp)
   1c25b: 48 89 c8                     	movq	%rcx, %rax
   1c25e: 48 89 7d b8                  	movq	%rdi, -0x48(%rbp)
   1c262: 4c 89 45 c0                  	movq	%r8, -0x40(%rbp)
   1c266: 4d 89 d8                     	movq	%r11, %r8
   1c269: 4d 89 cb                     	movq	%r9, %r11
   1c26c: 49 89 d1                     	movq	%rdx, %r9
   1c26f: 48 ba b9 14 99 92 75 05 3a e7	movabsq	$-0x18c5fa8a6d66eb47, %rdx # imm = 0xE73A0575929914B9
   1c279: 49 bc b3 7b 64 c7 99 62 4c 1e	movabsq	$0x1e4c6299c7647bb3, %r12 # imm = 0x1E4C6299C7647BB3
   1c283: 4c 39 a5 68 ff ff ff         	cmpq	%r12, -0x98(%rbp)
   1c28a: 0f 84 9d d9 ff ff            	je	0x19c2d <.text+0xb4ad>
   1c290: 48 b8 b6 4f 0c 15 e8 63 79 1e	movabsq	$0x1e7963e8150c4fb6, %rax # imm = 0x1E7963E8150C4FB6
   1c29a: 48 39 85 68 ff ff ff         	cmpq	%rax, -0x98(%rbp)
   1c2a1: 0f 84 ab 22 00 00            	je	0x1e552 <.text+0xfdd2>
   1c2a7: 48 b8 3a 4b eb 22 9e 56 0a 1f	movabsq	$0x1f0a569e22eb4b3a, %rax # imm = 0x1F0A569E22EB4B3A
   1c2b1: 48 39 85 68 ff ff ff         	cmpq	%rax, -0x98(%rbp)
   1c2b8: 44 8a 65 cd                  	movb	-0x33(%rbp), %r12b
   1c2bc: 48 8b 9d 00 ff ff ff         	movq	-0x100(%rbp), %rbx
   1c2c3: 4c 8b ad f0 fe ff ff         	movq	-0x110(%rbp), %r13
   1c2ca: 4c 8b bd f8 fe ff ff         	movq	-0x108(%rbp), %r15
   1c2d1: 4c 8b 9d 28 ff ff ff         	movq	-0xd8(%rbp), %r11
   1c2d8: 48 8b 95 30 ff ff ff         	movq	-0xd0(%rbp), %rdx
   1c2df: 0f 84 d3 4b 00 00            	je	0x20eb8 <.text+0x12738>
   1c2e5: 48 b8 77 9e 41 4a d8 61 80 1f	movabsq	$0x1f8061d84a419e77, %rax # imm = 0x1F8061D84A419E77
   1c2ef: 48 39 85 68 ff ff ff         	cmpq	%rax, -0x98(%rbp)
   1c2f6: 0f 84 d0 20 00 00            	je	0x1e3cc <.text+0xfc4c>
   1c2fc: 48 b8 9c 11 e5 14 71 4b 2d 20	movabsq	$0x202d4b7114e5119c, %rax # imm = 0x202D4B7114E5119C
   1c306: 48 39 85 68 ff ff ff         	cmpq	%rax, -0x98(%rbp)
   1c30d: 0f 84 6d 23 00 00            	je	0x1e680 <.text+0xff00>
   1c313: 48 b8 09 23 38 c1 b8 f9 00 21	movabsq	$0x2100f9b8c1382309, %rax # imm = 0x2100F9B8C1382309
   1c31d: 48 39 85 68 ff ff ff         	cmpq	%rax, -0x98(%rbp)
   1c324: 0f 84 69 2e 00 00            	je	0x1f193 <.text+0x10a13>
   1c32a: 48 b8 1d 25 e9 88 08 ec ba 21	movabsq	$0x21baec0888e9251d, %rax # imm = 0x21BAEC0888E9251D
   1c334: 48 39 85 68 ff ff ff         	cmpq	%rax, -0x98(%rbp)
   1c33b: 0f 84 bf 44 00 00            	je	0x20800 <.text+0x12080>
   1c341: 48 b8 52 a3 f6 b1 c9 8d 3b 25	movabsq	$0x253b8dc9b1f6a352, %rax # imm = 0x253B8DC9B1F6A352
   1c34b: 48 39 85 68 ff ff ff         	cmpq	%rax, -0x98(%rbp)
   1c352: 0f 84 e6 48 00 00            	je	0x20c3e <.text+0x124be>
   1c358: 48 b8 ee fa 59 de bd 5c ac 26	movabsq	$0x26ac5cbdde59faee, %rax # imm = 0x26AC5CBDDE59FAEE
   1c362: 48 39 85 68 ff ff ff         	cmpq	%rax, -0x98(%rbp)
   1c369: 0f 84 7e 41 00 00            	je	0x204ed <.text+0x11d6d>
   1c36f: 8a 45 ce                     	movb	-0x32(%rbp), %al
   1c372: 88 45 cf                     	movb	%al, -0x31(%rbp)
   1c375: 44 89 e6                     	movl	%r12d, %esi
   1c378: 48 8b 85 50 ff ff ff         	movq	-0xb0(%rbp), %rax
   1c37f: 48 89 85 70 ff ff ff         	movq	%rax, -0x90(%rbp)
   1c386: 48 8b 85 60 ff ff ff         	movq	-0xa0(%rbp), %rax
   1c38d: 48 89 85 78 ff ff ff         	movq	%rax, -0x88(%rbp)
   1c394: 4c 89 c0                     	movq	%r8, %rax
   1c397: 4c 89 45 80                  	movq	%r8, -0x80(%rbp)
   1c39b: 4c 89 4d 88                  	movq	%r9, -0x78(%rbp)
   1c39f: 48 8b 85 48 ff ff ff         	movq	-0xb8(%rbp), %rax
   1c3a6: 48 89 45 90                  	movq	%rax, -0x70(%rbp)
   1c3aa: 48 8b 85 58 ff ff ff         	movq	-0xa8(%rbp), %rax
   1c3b1: 48 89 45 98                  	movq	%rax, -0x68(%rbp)
   1c3b5: 48 89 55 a0                  	movq	%rdx, -0x60(%rbp)
   1c3b9: 4c 89 5d a8                  	movq	%r11, -0x58(%rbp)
   1c3bd: 48 8b 85 40 ff ff ff         	movq	-0xc0(%rbp), %rax
   1c3c4: 48 89 45 b0                  	movq	%rax, -0x50(%rbp)
   1c3c8: 48 8b 85 08 ff ff ff         	movq	-0xf8(%rbp), %rax
   1c3cf: 48 8b 8d 10 ff ff ff         	movq	-0xf0(%rbp), %rcx
   1c3d6: 48 89 4d b8                  	movq	%rcx, -0x48(%rbp)
   1c3da: 48 8b 8d 20 ff ff ff         	movq	-0xe0(%rbp), %rcx
   1c3e1: 48 89 4d c0                  	movq	%rcx, -0x40(%rbp)
   1c3e5: 4c 8b 9d 18 ff ff ff         	movq	-0xe8(%rbp), %r11
   1c3ec: 4c 8b 95 38 ff ff ff         	movq	-0xc8(%rbp), %r10
   1c3f3: 48 ba fa b1 98 15 30 41 c0 e2	movabsq	$-0x1d3fbecfea674e06, %rdx # imm = 0xE2C041301598B1FA
   1c3fd: 49 bc a3 84 6c 40 6d b0 73 27	movabsq	$0x2773b06d406c84a3, %r12 # imm = 0x2773B06D406C84A3
   1c407: 4c 39 a5 68 ff ff ff         	cmpq	%r12, -0x98(%rbp)
   1c40e: 0f 84 19 d8 ff ff            	je	0x19c2d <.text+0xb4ad>
   1c414: 48 b8 be da 80 96 f3 6e 28 29	movabsq	$0x29286ef39680dabe, %rax # imm = 0x29286EF39680DABE
   1c41e: 48 39 85 68 ff ff ff         	cmpq	%rax, -0x98(%rbp)
   1c425: 0f 84 56 52 00 00            	je	0x21681 <.text+0x12f01>
   1c42b: 48 b8 96 b1 3e ba c2 75 d0 29	movabsq	$0x29d075c2ba3eb196, %rax # imm = 0x29D075C2BA3EB196
   1c435: 48 39 85 68 ff ff ff         	cmpq	%rax, -0x98(%rbp)
   1c43c: 44 8a 65 cd                  	movb	-0x33(%rbp), %r12b
   1c440: 48 8b 9d 00 ff ff ff         	movq	-0x100(%rbp), %rbx
   1c447: 4c 8b ad f0 fe ff ff         	movq	-0x110(%rbp), %r13
   1c44e: 4c 8b bd f8 fe ff ff         	movq	-0x108(%rbp), %r15
   1c455: 0f 84 33 56 00 00            	je	0x21a8e <.text+0x1330e>
   1c45b: 48 b8 66 d9 14 87 7a 8b 6f 2b	movabsq	$0x2b6f8b7a8714d966, %rax # imm = 0x2B6F8B7A8714D966
   1c465: 48 39 85 68 ff ff ff         	cmpq	%rax, -0x98(%rbp)
   1c46c: 0f 84 42 22 00 00            	je	0x1e6b4 <.text+0xff34>
   1c472: 8a 45 ce                     	movb	-0x32(%rbp), %al
   1c475: 88 45 cf                     	movb	%al, -0x31(%rbp)
   1c478: 44 89 e6                     	movl	%r12d, %esi
   1c47b: 48 8b 85 50 ff ff ff         	movq	-0xb0(%rbp), %rax
   1c482: 48 89 85 70 ff ff ff         	movq	%rax, -0x90(%rbp)
   1c489: 48 8b 85 60 ff ff ff         	movq	-0xa0(%rbp), %rax
   1c490: 48 89 85 78 ff ff ff         	movq	%rax, -0x88(%rbp)
   1c497: 4c 89 c0                     	movq	%r8, %rax
   1c49a: 4c 89 45 80                  	movq	%r8, -0x80(%rbp)
   1c49e: 4c 89 4d 88                  	movq	%r9, -0x78(%rbp)
   1c4a2: 48 8b 85 48 ff ff ff         	movq	-0xb8(%rbp), %rax
   1c4a9: 48 89 45 90                  	movq	%rax, -0x70(%rbp)
   1c4ad: 48 8b 85 58 ff ff ff         	movq	-0xa8(%rbp), %rax
   1c4b4: 48 89 45 98                  	movq	%rax, -0x68(%rbp)
   1c4b8: 48 8b 85 30 ff ff ff         	movq	-0xd0(%rbp), %rax
   1c4bf: 48 89 45 a0                  	movq	%rax, -0x60(%rbp)
   1c4c3: 48 8b 85 28 ff ff ff         	movq	-0xd8(%rbp), %rax
   1c4ca: 48 89 45 a8                  	movq	%rax, -0x58(%rbp)
   1c4ce: 48 8b 85 40 ff ff ff         	movq	-0xc0(%rbp), %rax
   1c4d5: 48 89 45 b0                  	movq	%rax, -0x50(%rbp)
   1c4d9: 48 8b 85 08 ff ff ff         	movq	-0xf8(%rbp), %rax
   1c4e0: 48 8b 8d 10 ff ff ff         	movq	-0xf0(%rbp), %rcx
   1c4e7: 48 89 4d b8                  	movq	%rcx, -0x48(%rbp)
   1c4eb: 48 8b 8d 20 ff ff ff         	movq	-0xe0(%rbp), %rcx
   1c4f2: 48 89 4d c0                  	movq	%rcx, -0x40(%rbp)
   1c4f6: 4c 8b 9d 18 ff ff ff         	movq	-0xe8(%rbp), %r11
   1c4fd: 4c 8b 95 38 ff ff ff         	movq	-0xc8(%rbp), %r10
   1c504: 48 ba 5b 1b a8 e1 5c b0 4b b5	movabsq	$-0x4ab44fa31e57e4a5, %rdx # imm = 0xB54BB05CE1A81B5B
   1c50e: 49 bc 35 65 fd 23 0a ab 55 2c	movabsq	$0x2c55ab0a23fd6535, %r12 # imm = 0x2C55AB0A23FD6535
   1c518: 4c 39 a5 68 ff ff ff         	cmpq	%r12, -0x98(%rbp)
   1c51f: 0f 84 08 d7 ff ff            	je	0x19c2d <.text+0xb4ad>
   1c525: 8a 45 ce                     	movb	-0x32(%rbp), %al
   1c528: 88 45 cf                     	movb	%al, -0x31(%rbp)
   1c52b: 8a 45 cd                     	movb	-0x33(%rbp), %al
   1c52e: 89 c6                        	movl	%eax, %esi
   1c530: 48 8b 85 58 fe ff ff         	movq	-0x1a8(%rbp), %rax
   1c537: 48 89 85 70 ff ff ff         	movq	%rax, -0x90(%rbp)
   1c53e: 48 8b 85 60 ff ff ff         	movq	-0xa0(%rbp), %rax
   1c545: 48 89 85 78 ff ff ff         	movq	%rax, -0x88(%rbp)
   1c54c: 4c 89 c0                     	movq	%r8, %rax
   1c54f: 4c 89 45 80                  	movq	%r8, -0x80(%rbp)
   1c553: 4c 89 4d 88                  	movq	%r9, -0x78(%rbp)
   1c557: 48 8b 85 48 ff ff ff         	movq	-0xb8(%rbp), %rax
   1c55e: 48 89 45 90                  	movq	%rax, -0x70(%rbp)
   1c562: 48 8b 85 58 ff ff ff         	movq	-0xa8(%rbp), %rax
   1c569: 48 89 45 98                  	movq	%rax, -0x68(%rbp)
   1c56d: 48 8b 85 30 ff ff ff         	movq	-0xd0(%rbp), %rax
   1c574: 48 89 45 a0                  	movq	%rax, -0x60(%rbp)
   1c578: 48 8b 85 28 ff ff ff         	movq	-0xd8(%rbp), %rax
   1c57f: 48 89 45 a8                  	movq	%rax, -0x58(%rbp)
   1c583: 48 8b 85 40 ff ff ff         	movq	-0xc0(%rbp), %rax
   1c58a: 48 89 45 b0                  	movq	%rax, -0x50(%rbp)
   1c58e: 48 8b 85 08 ff ff ff         	movq	-0xf8(%rbp), %rax
   1c595: 48 8b 8d 10 ff ff ff         	movq	-0xf0(%rbp), %rcx
   1c59c: 48 89 4d b8                  	movq	%rcx, -0x48(%rbp)
   1c5a0: 48 8b 8d 20 ff ff ff         	movq	-0xe0(%rbp), %rcx
   1c5a7: 48 89 4d c0                  	movq	%rcx, -0x40(%rbp)
   1c5ab: 4c 8b 9d 18 ff ff ff         	movq	-0xe8(%rbp), %r11
   1c5b2: 4c 8b bd f8 fe ff ff         	movq	-0x108(%rbp), %r15
   1c5b9: 4c 8b ad f0 fe ff ff         	movq	-0x110(%rbp), %r13
   1c5c0: 48 8b 9d 00 ff ff ff         	movq	-0x100(%rbp), %rbx
   1c5c7: 4c 8b 95 38 ff ff ff         	movq	-0xc8(%rbp), %r10
   1c5ce: 48 ba 34 b6 9f 4a c7 b9 1b 08	movabsq	$0x81bb9c74a9fb634, %rdx # imm = 0x81BB9C74A9FB634
   1c5d8: 49 bc a4 46 b5 a0 ef 63 4a 2d	movabsq	$0x2d4a63efa0b546a4, %r12 # imm = 0x2D4A63EFA0B546A4
   1c5e2: 4c 39 a5 68 ff ff ff         	cmpq	%r12, -0x98(%rbp)
   1c5e9: 0f 84 3e d6 ff ff            	je	0x19c2d <.text+0xb4ad>
   1c5ef: 8a 45 ce                     	movb	-0x32(%rbp), %al
   1c5f2: 88 45 cf                     	movb	%al, -0x31(%rbp)
   1c5f5: 8a 45 cd                     	movb	-0x33(%rbp), %al
   1c5f8: 89 c6                        	movl	%eax, %esi
   1c5fa: 48 8b 85 50 ff ff ff         	movq	-0xb0(%rbp), %rax
   1c601: 48 89 85 70 ff ff ff         	movq	%rax, -0x90(%rbp)
   1c608: 48 8b 85 a8 fc ff ff         	movq	-0x358(%rbp), %rax
   1c60f: 48 89 85 78 ff ff ff         	movq	%rax, -0x88(%rbp)
   1c616: 4c 89 c0                     	movq	%r8, %rax
   1c619: 4c 89 45 80                  	movq	%r8, -0x80(%rbp)
   1c61d: 4c 89 4d 88                  	movq	%r9, -0x78(%rbp)
   1c621: 48 8b 85 48 ff ff ff         	movq	-0xb8(%rbp), %rax
   1c628: 48 89 45 90                  	movq	%rax, -0x70(%rbp)
   1c62c: 48 8b 85 58 ff ff ff         	movq	-0xa8(%rbp), %rax
   1c633: 48 89 45 98                  	movq	%rax, -0x68(%rbp)
   1c637: 48 8b 85 30 ff ff ff         	movq	-0xd0(%rbp), %rax
   1c63e: 48 89 45 a0                  	movq	%rax, -0x60(%rbp)
   1c642: 48 8b 85 28 ff ff ff         	movq	-0xd8(%rbp), %rax
   1c649: 48 89 45 a8                  	movq	%rax, -0x58(%rbp)
   1c64d: 48 8b 85 40 ff ff ff         	movq	-0xc0(%rbp), %rax
   1c654: 48 89 45 b0                  	movq	%rax, -0x50(%rbp)
   1c658: 48 8b 85 08 ff ff ff         	movq	-0xf8(%rbp), %rax
   1c65f: 48 8b 8d 10 ff ff ff         	movq	-0xf0(%rbp), %rcx
   1c666: 48 89 4d b8                  	movq	%rcx, -0x48(%rbp)
   1c66a: 48 8b 8d 20 ff ff ff         	movq	-0xe0(%rbp), %rcx
   1c671: 48 89 4d c0                  	movq	%rcx, -0x40(%rbp)
   1c675: 4c 8b 9d 18 ff ff ff         	movq	-0xe8(%rbp), %r11
   1c67c: 4c 8b bd f8 fe ff ff         	movq	-0x108(%rbp), %r15
   1c683: 4c 8b ad f0 fe ff ff         	movq	-0x110(%rbp), %r13
   1c68a: 48 8b 9d 00 ff ff ff         	movq	-0x100(%rbp), %rbx
   1c691: 4c 8b 95 38 ff ff ff         	movq	-0xc8(%rbp), %r10
   1c698: 48 ba 6e a0 2e a8 8f 86 79 d0	movabsq	$-0x2f86797057d15f92, %rdx # imm = 0xD079868FA82EA06E
   1c6a2: 49 bc 11 bf 9a c2 6a fb c2 2d	movabsq	$0x2dc2fb6ac29abf11, %r12 # imm = 0x2DC2FB6AC29ABF11
   1c6ac: 4c 39 a5 68 ff ff ff         	cmpq	%r12, -0x98(%rbp)
   1c6b3: 0f 84 74 d5 ff ff            	je	0x19c2d <.text+0xb4ad>
   1c6b9: 48 b8 f8 fc 34 b4 fd 9e 49 30	movabsq	$0x30499efdb434fcf8, %rax # imm = 0x30499EFDB434FCF8
   1c6c3: 48 39 85 68 ff ff ff         	cmpq	%rax, -0x98(%rbp)
   1c6ca: 0f 84 9d 36 00 00            	je	0x1fd6d <.text+0x115ed>
   1c6d0: 48 b8 0a 30 93 f3 ce 4e 71 31	movabsq	$0x31714ecef393300a, %rax # imm = 0x31714ECEF393300A
   1c6da: 48 39 85 68 ff ff ff         	cmpq	%rax, -0x98(%rbp)
   1c6e1: 44 8a 65 cd                  	movb	-0x33(%rbp), %r12b
   1c6e5: 48 8b 9d 00 ff ff ff         	movq	-0x100(%rbp), %rbx
   1c6ec: 4c 8b ad f0 fe ff ff         	movq	-0x110(%rbp), %r13
   1c6f3: 4c 8b bd f8 fe ff ff         	movq	-0x108(%rbp), %r15
   1c6fa: 0f 84 15 21 00 00            	je	0x1e815 <.text+0x10095>
   1c700: 48 b8 fc e8 ca 90 f4 dd a5 33	movabsq	$0x33a5ddf490cae8fc, %rax # imm = 0x33A5DDF490CAE8FC
   1c70a: 48 39 85 68 ff ff ff         	cmpq	%rax, -0x98(%rbp)
   1c711: 4c 8b 9d 28 ff ff ff         	movq	-0xd8(%rbp), %r11
   1c718: 48 8b 8d 30 ff ff ff         	movq	-0xd0(%rbp), %rcx
   1c71f: 0f 84 c8 4d 00 00            	je	0x214ed <.text+0x12d6d>
   1c725: 48 b8 5f fd 73 55 3e 22 b6 33	movabsq	$0x33b6223e5573fd5f, %rax # imm = 0x33B6223E5573FD5F
   1c72f: 48 39 85 68 ff ff ff         	cmpq	%rax, -0x98(%rbp)
   1c736: 0f 84 cb 23 00 00            	je	0x1eb07 <.text+0x10387>
   1c73c: 48 b8 2a 48 2d 2e be 00 f0 34	movabsq	$0x34f000be2e2d482a, %rax # imm = 0x34F000BE2E2D482A
   1c746: 48 39 85 68 ff ff ff         	cmpq	%rax, -0x98(%rbp)
   1c74d: 0f 84 3d 31 00 00            	je	0x1f890 <.text+0x11110>
   1c753: 48 b8 de a6 c1 dc 00 48 02 36	movabsq	$0x36024800dcc1a6de, %rax # imm = 0x36024800DCC1A6DE
   1c75d: 48 39 85 68 ff ff ff         	cmpq	%rax, -0x98(%rbp)
   1c764: 0f 84 8d 39 00 00            	je	0x200f7 <.text+0x11977>
   1c76a: 48 b8 a0 68 b2 a8 5c 97 fd 36	movabsq	$0x36fd975ca8b268a0, %rax # imm = 0x36FD975CA8B268A0
   1c774: 48 39 85 68 ff ff ff         	cmpq	%rax, -0x98(%rbp)
   1c77b: 0f 84 8b 4b 00 00            	je	0x2130c <.text+0x12b8c>
   1c781: 8a 45 ce                     	movb	-0x32(%rbp), %al
   1c784: 88 45 cf                     	movb	%al, -0x31(%rbp)
   1c787: 44 89 e6                     	movl	%r12d, %esi
   1c78a: 48 8b 85 50 ff ff ff         	movq	-0xb0(%rbp), %rax
   1c791: 48 89 85 70 ff ff ff         	movq	%rax, -0x90(%rbp)
   1c798: 48 8b 85 60 ff ff ff         	movq	-0xa0(%rbp), %rax
   1c79f: 48 89 85 78 ff ff ff         	movq	%rax, -0x88(%rbp)
   1c7a6: 4c 89 c0                     	movq	%r8, %rax
   1c7a9: 4c 89 45 80                  	movq	%r8, -0x80(%rbp)
   1c7ad: 4c 89 4d 88                  	movq	%r9, -0x78(%rbp)
   1c7b1: 48 8b 85 48 ff ff ff         	movq	-0xb8(%rbp), %rax
   1c7b8: 48 89 45 90                  	movq	%rax, -0x70(%rbp)
   1c7bc: 48 8b 85 58 ff ff ff         	movq	-0xa8(%rbp), %rax
   1c7c3: 48 89 45 98                  	movq	%rax, -0x68(%rbp)
   1c7c7: 48 89 4d a0                  	movq	%rcx, -0x60(%rbp)
   1c7cb: 4c 89 5d a8                  	movq	%r11, -0x58(%rbp)
   1c7cf: 48 8b 85 40 ff ff ff         	movq	-0xc0(%rbp), %rax
   1c7d6: 48 89 45 b0                  	movq	%rax, -0x50(%rbp)
   1c7da: 48 8b 85 08 ff ff ff         	movq	-0xf8(%rbp), %rax
   1c7e1: 48 8b 8d 10 ff ff ff         	movq	-0xf0(%rbp), %rcx
   1c7e8: 48 89 4d b8                  	movq	%rcx, -0x48(%rbp)
   1c7ec: 48 8b 8d 20 ff ff ff         	movq	-0xe0(%rbp), %rcx
   1c7f3: 48 89 4d c0                  	movq	%rcx, -0x40(%rbp)
   1c7f7: 4c 8b 9d 18 ff ff ff         	movq	-0xe8(%rbp), %r11
   1c7fe: 4c 8b 95 38 ff ff ff         	movq	-0xc8(%rbp), %r10
   1c805: 48 ba c9 fa 9c 1b 2d 13 4c 65	movabsq	$0x654c132d1b9cfac9, %rdx # imm = 0x654C132D1B9CFAC9
   1c80f: 49 bc 01 e1 5e 0e ec c6 64 38	movabsq	$0x3864c6ec0e5ee101, %r12 # imm = 0x3864C6EC0E5EE101
   1c819: 4c 39 a5 68 ff ff ff         	cmpq	%r12, -0x98(%rbp)
   1c820: 0f 84 07 d4 ff ff            	je	0x19c2d <.text+0xb4ad>
   1c826: 48 b8 50 bc 28 be a9 40 a1 3b	movabsq	$0x3ba140a9be28bc50, %rax # imm = 0x3BA140A9BE28BC50
   1c830: 48 39 85 68 ff ff ff         	cmpq	%rax, -0x98(%rbp)
   1c837: 0f 84 f0 26 00 00            	je	0x1ef2d <.text+0x107ad>
   1c83d: 8a 45 ce                     	movb	-0x32(%rbp), %al
   1c840: 88 45 cf                     	movb	%al, -0x31(%rbp)
   1c843: 8a 45 cd                     	movb	-0x33(%rbp), %al
   1c846: 89 c6                        	movl	%eax, %esi
   1c848: 48 8b 85 50 ff ff ff         	movq	-0xb0(%rbp), %rax
   1c84f: 48 89 85 70 ff ff ff         	movq	%rax, -0x90(%rbp)
   1c856: 48 8b 85 60 ff ff ff         	movq	-0xa0(%rbp), %rax
   1c85d: 48 89 85 78 ff ff ff         	movq	%rax, -0x88(%rbp)
   1c864: 4c 89 c0                     	movq	%r8, %rax
   1c867: 4c 89 45 80                  	movq	%r8, -0x80(%rbp)
   1c86b: 4c 89 4d 88                  	movq	%r9, -0x78(%rbp)
   1c86f: 48 8b 85 48 ff ff ff         	movq	-0xb8(%rbp), %rax
   1c876: 48 89 45 90                  	movq	%rax, -0x70(%rbp)
   1c87a: 48 8b 85 58 ff ff ff         	movq	-0xa8(%rbp), %rax
   1c881: 48 89 45 98                  	movq	%rax, -0x68(%rbp)
   1c885: 48 8b 85 30 ff ff ff         	movq	-0xd0(%rbp), %rax
   1c88c: 48 89 45 a0                  	movq	%rax, -0x60(%rbp)
   1c890: 48 8b 85 28 ff ff ff         	movq	-0xd8(%rbp), %rax
   1c897: 48 89 45 a8                  	movq	%rax, -0x58(%rbp)
   1c89b: 48 8b 85 40 ff ff ff         	movq	-0xc0(%rbp), %rax
   1c8a2: 48 89 45 b0                  	movq	%rax, -0x50(%rbp)
   1c8a6: 48 8b 85 08 ff ff ff         	movq	-0xf8(%rbp), %rax
   1c8ad: 48 8b 8d 10 ff ff ff         	movq	-0xf0(%rbp), %rcx
   1c8b4: 48 89 4d b8                  	movq	%rcx, -0x48(%rbp)
   1c8b8: 48 8b 8d 20 ff ff ff         	movq	-0xe0(%rbp), %rcx
   1c8bf: 48 89 4d c0                  	movq	%rcx, -0x40(%rbp)
   1c8c3: 4c 8b 9d 18 ff ff ff         	movq	-0xe8(%rbp), %r11
   1c8ca: 4c 8b bd f8 fe ff ff         	movq	-0x108(%rbp), %r15
   1c8d1: 4c 8b ad b0 fc ff ff         	movq	-0x350(%rbp), %r13
   1c8d8: 48 8b 9d b8 fc ff ff         	movq	-0x348(%rbp), %rbx
   1c8df: 4c 8b 95 38 ff ff ff         	movq	-0xc8(%rbp), %r10
   1c8e6: 48 ba c4 4d 71 da bc c9 1e be	movabsq	$-0x41e13643258eb23c, %rdx # imm = 0xBE1EC9BCDA714DC4
   1c8f0: 49 bc ca 56 76 0e 45 b6 5b 3e	movabsq	$0x3e5bb6450e7656ca, %r12 # imm = 0x3E5BB6450E7656CA
   1c8fa: 4c 39 a5 68 ff ff ff         	cmpq	%r12, -0x98(%rbp)
   1c901: 0f 84 26 d3 ff ff            	je	0x19c2d <.text+0xb4ad>
   1c907: 48 b8 82 8d 0c a7 ea 3d c0 43	movabsq	$0x43c03deaa70c8d82, %rax # imm = 0x43C03DEAA70C8D82
   1c911: 48 39 85 68 ff ff ff         	cmpq	%rax, -0x98(%rbp)
   1c918: 0f 84 f7 48 00 00            	je	0x21215 <.text+0x12a95>
   1c91e: 8a 45 ce                     	movb	-0x32(%rbp), %al
   1c921: 88 45 cf                     	movb	%al, -0x31(%rbp)
   1c924: 8a 45 cd                     	movb	-0x33(%rbp), %al
   1c927: 89 c6                        	movl	%eax, %esi
   1c929: 48 8b 85 50 ff ff ff         	movq	-0xb0(%rbp), %rax
   1c930: 48 89 85 70 ff ff ff         	movq	%rax, -0x90(%rbp)
   1c937: 48 8b 85 60 ff ff ff         	movq	-0xa0(%rbp), %rax
   1c93e: 48 89 85 78 ff ff ff         	movq	%rax, -0x88(%rbp)
   1c945: 4c 89 c0                     	movq	%r8, %rax
   1c948: 4c 89 45 80                  	movq	%r8, -0x80(%rbp)
   1c94c: 4c 89 4d 88                  	movq	%r9, -0x78(%rbp)
   1c950: 48 8b 85 48 ff ff ff         	movq	-0xb8(%rbp), %rax
   1c957: 48 89 45 90                  	movq	%rax, -0x70(%rbp)
   1c95b: 48 8b 85 58 ff ff ff         	movq	-0xa8(%rbp), %rax
   1c962: 48 89 45 98                  	movq	%rax, -0x68(%rbp)
   1c966: 48 8b 85 30 ff ff ff         	movq	-0xd0(%rbp), %rax
   1c96d: 48 89 45 a0                  	movq	%rax, -0x60(%rbp)
   1c971: 48 8b 85 28 ff ff ff         	movq	-0xd8(%rbp), %rax
   1c978: 48 89 45 a8                  	movq	%rax, -0x58(%rbp)
   1c97c: 48 8b 85 40 ff ff ff         	movq	-0xc0(%rbp), %rax
   1c983: 48 89 45 b0                  	movq	%rax, -0x50(%rbp)
   1c987: 48 8b 85 08 ff ff ff         	movq	-0xf8(%rbp), %rax
   1c98e: 48 8b bd 60 fe ff ff         	movq	-0x1a0(%rbp), %rdi
   1c995: 48 89 7d b8                  	movq	%rdi, -0x48(%rbp)
   1c999: 48 8b 8d 20 ff ff ff         	movq	-0xe0(%rbp), %rcx
   1c9a0: 48 89 4d c0                  	movq	%rcx, -0x40(%rbp)
   1c9a4: 4c 8b 9d 18 ff ff ff         	movq	-0xe8(%rbp), %r11
   1c9ab: 4c 8b bd f8 fe ff ff         	movq	-0x108(%rbp), %r15
   1c9b2: 4c 8b ad f0 fe ff ff         	movq	-0x110(%rbp), %r13
   1c9b9: 48 8b 9d 00 ff ff ff         	movq	-0x100(%rbp), %rbx
   1c9c0: 4c 8b 95 38 ff ff ff         	movq	-0xc8(%rbp), %r10
   1c9c7: 48 ba db be 77 62 ce 6c 0b fb	movabsq	$-0x4f493319d884125, %rdx # imm = 0xFB0B6CCE6277BEDB
   1c9d1: 49 bc 23 b3 0e c6 83 ef 1b 44	movabsq	$0x441bef83c60eb323, %r12 # imm = 0x441BEF83C60EB323
   1c9db: 4c 39 a5 68 ff ff ff         	cmpq	%r12, -0x98(%rbp)
   1c9e2: 0f 84 45 d2 ff ff            	je	0x19c2d <.text+0xb4ad>
   1c9e8: 8a 45 ce                     	movb	-0x32(%rbp), %al
   1c9eb: 88 45 cf                     	movb	%al, -0x31(%rbp)
   1c9ee: 8a 45 cd                     	movb	-0x33(%rbp), %al
   1c9f1: 89 c6                        	movl	%eax, %esi
   1c9f3: 48 8b 85 50 ff ff ff         	movq	-0xb0(%rbp), %rax
   1c9fa: 48 89 85 70 ff ff ff         	movq	%rax, -0x90(%rbp)
   1ca01: 48 8b 85 60 ff ff ff         	movq	-0xa0(%rbp), %rax
   1ca08: 48 89 85 78 ff ff ff         	movq	%rax, -0x88(%rbp)
   1ca0f: 4c 89 c0                     	movq	%r8, %rax
   1ca12: 4c 89 45 80                  	movq	%r8, -0x80(%rbp)
   1ca16: 4c 89 4d 88                  	movq	%r9, -0x78(%rbp)
   1ca1a: 48 8b 85 48 ff ff ff         	movq	-0xb8(%rbp), %rax
   1ca21: 48 89 45 90                  	movq	%rax, -0x70(%rbp)
   1ca25: 48 8b 85 58 ff ff ff         	movq	-0xa8(%rbp), %rax
   1ca2c: 48 89 45 98                  	movq	%rax, -0x68(%rbp)
   1ca30: 48 8b 85 30 ff ff ff         	movq	-0xd0(%rbp), %rax
   1ca37: 48 89 45 a0                  	movq	%rax, -0x60(%rbp)
   1ca3b: 48 8b 85 28 ff ff ff         	movq	-0xd8(%rbp), %rax
   1ca42: 48 89 45 a8                  	movq	%rax, -0x58(%rbp)
   1ca46: 48 8b 85 40 ff ff ff         	movq	-0xc0(%rbp), %rax
   1ca4d: 48 89 45 b0                  	movq	%rax, -0x50(%rbp)
   1ca51: 48 8b 85 08 ff ff ff         	movq	-0xf8(%rbp), %rax
   1ca58: 48 8b 8d 10 ff ff ff         	movq	-0xf0(%rbp), %rcx
   1ca5f: 48 89 4d b8                  	movq	%rcx, -0x48(%rbp)
   1ca63: 48 8b 8d 20 ff ff ff         	movq	-0xe0(%rbp), %rcx
   1ca6a: 48 89 4d c0                  	movq	%rcx, -0x40(%rbp)
   1ca6e: 4c 8b 9d 18 ff ff ff         	movq	-0xe8(%rbp), %r11
   1ca75: 4c 8b bd f8 fe ff ff         	movq	-0x108(%rbp), %r15
   1ca7c: 4c 8b ad f0 fe ff ff         	movq	-0x110(%rbp), %r13
   1ca83: 48 8b 9d 00 ff ff ff         	movq	-0x100(%rbp), %rbx
   1ca8a: 4c 8b 95 38 ff ff ff         	movq	-0xc8(%rbp), %r10
   1ca91: 48 ba 29 b0 b2 48 32 40 78 5d	movabsq	$0x5d78403248b2b029, %rdx # imm = 0x5D78403248B2B029
   1ca9b: 49 bc e5 ce 16 49 0d a4 6b 46	movabsq	$0x466ba40d4916cee5, %r12 # imm = 0x466BA40D4916CEE5
   1caa5: 4c 39 a5 68 ff ff ff         	cmpq	%r12, -0x98(%rbp)
   1caac: 0f 84 7b d1 ff ff            	je	0x19c2d <.text+0xb4ad>
   1cab2: 8a 45 ce                     	movb	-0x32(%rbp), %al
   1cab5: 88 45 cf                     	movb	%al, -0x31(%rbp)
   1cab8: 8a 45 cd                     	movb	-0x33(%rbp), %al
   1cabb: 89 c6                        	movl	%eax, %esi
   1cabd: 48 8b 85 50 ff ff ff         	movq	-0xb0(%rbp), %rax
   1cac4: 48 89 85 70 ff ff ff         	movq	%rax, -0x90(%rbp)
   1cacb: 48 8b 85 60 ff ff ff         	movq	-0xa0(%rbp), %rax
   1cad2: 48 89 85 78 ff ff ff         	movq	%rax, -0x88(%rbp)
   1cad9: 4c 89 c0                     	movq	%r8, %rax
   1cadc: 4c 89 45 80                  	movq	%r8, -0x80(%rbp)
   1cae0: 4c 89 4d 88                  	movq	%r9, -0x78(%rbp)
   1cae4: 48 8b 85 48 ff ff ff         	movq	-0xb8(%rbp), %rax
   1caeb: 48 89 45 90                  	movq	%rax, -0x70(%rbp)
   1caef: 48 8b 85 58 ff ff ff         	movq	-0xa8(%rbp), %rax
   1caf6: 48 89 45 98                  	movq	%rax, -0x68(%rbp)
   1cafa: 48 8b 85 30 ff ff ff         	movq	-0xd0(%rbp), %rax
   1cb01: 48 89 45 a0                  	movq	%rax, -0x60(%rbp)
   1cb05: 48 8b 85 28 ff ff ff         	movq	-0xd8(%rbp), %rax
   1cb0c: 48 89 45 a8                  	movq	%rax, -0x58(%rbp)
   1cb10: 48 8b 85 40 ff ff ff         	movq	-0xc0(%rbp), %rax
   1cb17: 48 89 45 b0                  	movq	%rax, -0x50(%rbp)
   1cb1b: 48 8b 85 08 ff ff ff         	movq	-0xf8(%rbp), %rax
   1cb22: 48 8b 8d 10 ff ff ff         	movq	-0xf0(%rbp), %rcx
   1cb29: 48 89 4d b8                  	movq	%rcx, -0x48(%rbp)
   1cb2d: 48 8b 8d 20 ff ff ff         	movq	-0xe0(%rbp), %rcx
   1cb34: 48 89 4d c0                  	movq	%rcx, -0x40(%rbp)
   1cb38: 4c 8b 9d 18 ff ff ff         	movq	-0xe8(%rbp), %r11
   1cb3f: 4c 8b bd f8 fe ff ff         	movq	-0x108(%rbp), %r15
   1cb46: 4c 8b ad f0 fe ff ff         	movq	-0x110(%rbp), %r13
   1cb4d: 48 8b 9d 00 ff ff ff         	movq	-0x100(%rbp), %rbx
   1cb54: 4c 8b 95 38 ff ff ff         	movq	-0xc8(%rbp), %r10
   1cb5b: 48 ba a4 46 b5 a0 ef 63 4a 2d	movabsq	$0x2d4a63efa0b546a4, %rdx # imm = 0x2D4A63EFA0B546A4
   1cb65: 49 bc 34 4e 4f bf 57 c8 75 47	movabsq	$0x4775c857bf4f4e34, %r12 # imm = 0x4775C857BF4F4E34
   1cb6f: 4c 39 a5 68 ff ff ff         	cmpq	%r12, -0x98(%rbp)
   1cb76: 0f 84 b1 d0 ff ff            	je	0x19c2d <.text+0xb4ad>
   1cb7c: 48 b8 ac 98 db cb 66 19 b3 48	movabsq	$0x48b31966cbdb98ac, %rax # imm = 0x48B31966CBDB98AC
   1cb86: 48 39 85 68 ff ff ff         	cmpq	%rax, -0x98(%rbp)
   1cb8d: 0f 84 de 43 00 00            	je	0x20f71 <.text+0x127f1>
   1cb93: 8a 45 ce                     	movb	-0x32(%rbp), %al
   1cb96: 88 45 cf                     	movb	%al, -0x31(%rbp)
   1cb99: 8a 45 cd                     	movb	-0x33(%rbp), %al
   1cb9c: 89 c6                        	movl	%eax, %esi
   1cb9e: 48 8b 85 50 ff ff ff         	movq	-0xb0(%rbp), %rax
   1cba5: 48 89 85 70 ff ff ff         	movq	%rax, -0x90(%rbp)
   1cbac: 48 8b 85 60 ff ff ff         	movq	-0xa0(%rbp), %rax
   1cbb3: 48 89 85 78 ff ff ff         	movq	%rax, -0x88(%rbp)
   1cbba: 4c 89 c0                     	movq	%r8, %rax
   1cbbd: 4c 89 45 80                  	movq	%r8, -0x80(%rbp)
   1cbc1: 4c 89 4d 88                  	movq	%r9, -0x78(%rbp)
   1cbc5: 48 8b 85 48 ff ff ff         	movq	-0xb8(%rbp), %rax
   1cbcc: 48 89 45 90                  	movq	%rax, -0x70(%rbp)
   1cbd0: 48 8b 85 58 ff ff ff         	movq	-0xa8(%rbp), %rax
   1cbd7: 48 89 45 98                  	movq	%rax, -0x68(%rbp)
   1cbdb: 48 8b 85 30 ff ff ff         	movq	-0xd0(%rbp), %rax
   1cbe2: 48 89 45 a0                  	movq	%rax, -0x60(%rbp)
   1cbe6: 48 8b 85 28 ff ff ff         	movq	-0xd8(%rbp), %rax
   1cbed: 48 89 45 a8                  	movq	%rax, -0x58(%rbp)
   1cbf1: 48 8b 85 40 ff ff ff         	movq	-0xc0(%rbp), %rax
   1cbf8: 48 89 45 b0                  	movq	%rax, -0x50(%rbp)
   1cbfc: 48 8b 85 08 ff ff ff         	movq	-0xf8(%rbp), %rax
   1cc03: 48 8b 8d 10 ff ff ff         	movq	-0xf0(%rbp), %rcx
   1cc0a: 48 89 4d b8                  	movq	%rcx, -0x48(%rbp)
   1cc0e: 48 8b 8d 20 ff ff ff         	movq	-0xe0(%rbp), %rcx
   1cc15: 48 89 4d c0                  	movq	%rcx, -0x40(%rbp)
   1cc19: 4c 8b 9d 18 ff ff ff         	movq	-0xe8(%rbp), %r11
   1cc20: 4c 8b bd f8 fe ff ff         	movq	-0x108(%rbp), %r15
   1cc27: 4c 8b ad f0 fe ff ff         	movq	-0x110(%rbp), %r13
   1cc2e: 48 8b 9d 00 ff ff ff         	movq	-0x100(%rbp), %rbx
   1cc35: 4c 8b 95 38 ff ff ff         	movq	-0xc8(%rbp), %r10
   1cc3c: 48 ba bc 5b fe 7c ef 40 e4 be	movabsq	$-0x411bbf108301a444, %rdx # imm = 0xBEE440EF7CFE5BBC
   1cc46: 49 bc 80 ec f1 25 bc 50 ba 4b	movabsq	$0x4bba50bc25f1ec80, %r12 # imm = 0x4BBA50BC25F1EC80
   1cc50: 4c 39 a5 68 ff ff ff         	cmpq	%r12, -0x98(%rbp)
   1cc57: 0f 84 d0 cf ff ff            	je	0x19c2d <.text+0xb4ad>
   1cc5d: 8a 45 ce                     	movb	-0x32(%rbp), %al
   1cc60: 88 45 cf                     	movb	%al, -0x31(%rbp)
   1cc63: 8a 45 cd                     	movb	-0x33(%rbp), %al
   1cc66: 89 c6                        	movl	%eax, %esi
   1cc68: 48 8b 85 50 ff ff ff         	movq	-0xb0(%rbp), %rax
   1cc6f: 48 89 85 70 ff ff ff         	movq	%rax, -0x90(%rbp)
   1cc76: 48 8b 85 60 ff ff ff         	movq	-0xa0(%rbp), %rax
   1cc7d: 48 89 85 78 ff ff ff         	movq	%rax, -0x88(%rbp)
   1cc84: 4c 89 c0                     	movq	%r8, %rax
   1cc87: 4c 89 45 80                  	movq	%r8, -0x80(%rbp)
   1cc8b: 4c 89 4d 88                  	movq	%r9, -0x78(%rbp)
   1cc8f: 48 8b 85 48 ff ff ff         	movq	-0xb8(%rbp), %rax
   1cc96: 48 89 45 90                  	movq	%rax, -0x70(%rbp)
   1cc9a: 48 8b 85 58 ff ff ff         	movq	-0xa8(%rbp), %rax
   1cca1: 48 89 45 98                  	movq	%rax, -0x68(%rbp)
   1cca5: 48 8b 85 30 ff ff ff         	movq	-0xd0(%rbp), %rax
   1ccac: 48 89 45 a0                  	movq	%rax, -0x60(%rbp)
   1ccb0: 48 8b 85 28 ff ff ff         	movq	-0xd8(%rbp), %rax
   1ccb7: 48 89 45 a8                  	movq	%rax, -0x58(%rbp)
   1ccbb: 48 8b 85 40 ff ff ff         	movq	-0xc0(%rbp), %rax
   1ccc2: 48 89 45 b0                  	movq	%rax, -0x50(%rbp)
   1ccc6: 48 8b 85 08 ff ff ff         	movq	-0xf8(%rbp), %rax
   1cccd: 48 8b 8d 10 ff ff ff         	movq	-0xf0(%rbp), %rcx
   1ccd4: 48 89 4d b8                  	movq	%rcx, -0x48(%rbp)
   1ccd8: 48 8b 8d 20 ff ff ff         	movq	-0xe0(%rbp), %rcx
   1ccdf: 48 89 4d c0                  	movq	%rcx, -0x40(%rbp)
   1cce3: 4c 8b 9d 18 ff ff ff         	movq	-0xe8(%rbp), %r11
   1ccea: 4c 8b bd f8 fe ff ff         	movq	-0x108(%rbp), %r15
   1ccf1: 4c 8b ad f0 fe ff ff         	movq	-0x110(%rbp), %r13
   1ccf8: 48 8b 9d 00 ff ff ff         	movq	-0x100(%rbp), %rbx
   1ccff: 4c 8b 95 38 ff ff ff         	movq	-0xc8(%rbp), %r10
   1cd06: 48 ba 01 e1 5e 0e ec c6 64 38	movabsq	$0x3864c6ec0e5ee101, %rdx # imm = 0x3864C6EC0E5EE101
   1cd10: 49 bc f5 ee 10 e3 5b a5 81 4c	movabsq	$0x4c81a55be310eef5, %r12 # imm = 0x4C81A55BE310EEF5
   1cd1a: 4c 39 a5 68 ff ff ff         	cmpq	%r12, -0x98(%rbp)
   1cd21: 0f 84 06 cf ff ff            	je	0x19c2d <.text+0xb4ad>
   1cd27: 48 b8 0b 28 6e b6 97 f7 49 4d	movabsq	$0x4d49f797b66e280b, %rax # imm = 0x4D49F797B66E280B
   1cd31: 48 39 85 68 ff ff ff         	cmpq	%rax, -0x98(%rbp)
   1cd38: 0f 84 6b 46 00 00            	je	0x213a9 <.text+0x12c29>
   1cd3e: 8a 45 ce                     	movb	-0x32(%rbp), %al
   1cd41: 88 45 cf                     	movb	%al, -0x31(%rbp)
   1cd44: 8a 45 cd                     	movb	-0x33(%rbp), %al
   1cd47: 89 c6                        	movl	%eax, %esi
   1cd49: 48 8b 85 50 ff ff ff         	movq	-0xb0(%rbp), %rax
   1cd50: 48 89 85 70 ff ff ff         	movq	%rax, -0x90(%rbp)
   1cd57: 48 8b 85 60 ff ff ff         	movq	-0xa0(%rbp), %rax
   1cd5e: 48 89 85 78 ff ff ff         	movq	%rax, -0x88(%rbp)
   1cd65: 4c 89 c0                     	movq	%r8, %rax
   1cd68: 4c 89 45 80                  	movq	%r8, -0x80(%rbp)
   1cd6c: 4c 89 4d 88                  	movq	%r9, -0x78(%rbp)
   1cd70: 48 8b 85 48 ff ff ff         	movq	-0xb8(%rbp), %rax
   1cd77: 48 89 45 90                  	movq	%rax, -0x70(%rbp)
   1cd7b: 48 8b 85 58 ff ff ff         	movq	-0xa8(%rbp), %rax
   1cd82: 48 89 45 98                  	movq	%rax, -0x68(%rbp)
   1cd86: 48 8b 85 30 ff ff ff         	movq	-0xd0(%rbp), %rax
   1cd8d: 48 89 45 a0                  	movq	%rax, -0x60(%rbp)
   1cd91: 48 8b 85 28 ff ff ff         	movq	-0xd8(%rbp), %rax
   1cd98: 48 89 45 a8                  	movq	%rax, -0x58(%rbp)
   1cd9c: 48 8b 85 40 ff ff ff         	movq	-0xc0(%rbp), %rax
   1cda3: 48 89 45 b0                  	movq	%rax, -0x50(%rbp)
   1cda7: 48 8b 85 08 ff ff ff         	movq	-0xf8(%rbp), %rax
   1cdae: 48 8b 8d 10 ff ff ff         	movq	-0xf0(%rbp), %rcx
   1cdb5: 48 89 4d b8                  	movq	%rcx, -0x48(%rbp)
   1cdb9: 48 8b 8d 20 ff ff ff         	movq	-0xe0(%rbp), %rcx
   1cdc0: 48 89 4d c0                  	movq	%rcx, -0x40(%rbp)
   1cdc4: 4c 8b 9d 18 ff ff ff         	movq	-0xe8(%rbp), %r11
   1cdcb: 4c 8b bd f8 fe ff ff         	movq	-0x108(%rbp), %r15
   1cdd2: 4c 8b ad f0 fe ff ff         	movq	-0x110(%rbp), %r13
   1cdd9: 48 8b 9d 00 ff ff ff         	movq	-0x100(%rbp), %rbx
   1cde0: 4c 8b 95 38 ff ff ff         	movq	-0xc8(%rbp), %r10
   1cde7: 48 ba bc 5b fe 7c ef 40 e4 be	movabsq	$-0x411bbf108301a444, %rdx # imm = 0xBEE440EF7CFE5BBC
   1cdf1: 49 bc 4b 74 08 7e a2 7a 06 4f	movabsq	$0x4f067aa27e08744b, %r12 # imm = 0x4F067AA27E08744B
   1cdfb: 4c 39 a5 68 ff ff ff         	cmpq	%r12, -0x98(%rbp)
   1ce02: 0f 84 25 ce ff ff            	je	0x19c2d <.text+0xb4ad>
   1ce08: 48 b8 b5 fe 89 1c e7 66 63 4f	movabsq	$0x4f6366e71c89feb5, %rax # imm = 0x4F6366E71C89FEB5
   1ce12: 48 39 85 68 ff ff ff         	cmpq	%rax, -0x98(%rbp)
   1ce19: 0f 84 8a 43 00 00            	je	0x211a9 <.text+0x12a29>
   1ce1f: 8a 45 ce                     	movb	-0x32(%rbp), %al
   1ce22: 88 45 cf                     	movb	%al, -0x31(%rbp)
   1ce25: 8a 45 cd                     	movb	-0x33(%rbp), %al
   1ce28: 89 c6                        	movl	%eax, %esi
   1ce2a: 48 8b 85 50 ff ff ff         	movq	-0xb0(%rbp), %rax
   1ce31: 48 89 85 70 ff ff ff         	movq	%rax, -0x90(%rbp)
   1ce38: 48 8b 85 60 ff ff ff         	movq	-0xa0(%rbp), %rax
   1ce3f: 48 89 85 78 ff ff ff         	movq	%rax, -0x88(%rbp)
   1ce46: 4c 89 c0                     	movq	%r8, %rax
   1ce49: 4c 89 45 80                  	movq	%r8, -0x80(%rbp)
   1ce4d: 4c 89 4d 88                  	movq	%r9, -0x78(%rbp)
   1ce51: 48 8b 85 48 ff ff ff         	movq	-0xb8(%rbp), %rax
   1ce58: 48 89 45 90                  	movq	%rax, -0x70(%rbp)
   1ce5c: 48 8b 85 58 ff ff ff         	movq	-0xa8(%rbp), %rax
   1ce63: 48 89 45 98                  	movq	%rax, -0x68(%rbp)
   1ce67: 48 8b 85 30 ff ff ff         	movq	-0xd0(%rbp), %rax
   1ce6e: 48 89 45 a0                  	movq	%rax, -0x60(%rbp)
   1ce72: 48 8b 85 28 ff ff ff         	movq	-0xd8(%rbp), %rax
   1ce79: 48 89 45 a8                  	movq	%rax, -0x58(%rbp)
   1ce7d: 48 8b 85 40 ff ff ff         	movq	-0xc0(%rbp), %rax
   1ce84: 48 89 45 b0                  	movq	%rax, -0x50(%rbp)
   1ce88: 48 8b 85 08 ff ff ff         	movq	-0xf8(%rbp), %rax
   1ce8f: 48 8b 8d 10 ff ff ff         	movq	-0xf0(%rbp), %rcx
   1ce96: 48 89 4d b8                  	movq	%rcx, -0x48(%rbp)
   1ce9a: 48 8b 8d 20 ff ff ff         	movq	-0xe0(%rbp), %rcx
   1cea1: 48 89 4d c0                  	movq	%rcx, -0x40(%rbp)
   1cea5: 4c 8b 9d 18 ff ff ff         	movq	-0xe8(%rbp), %r11
   1ceac: 4c 8b bd f8 fe ff ff         	movq	-0x108(%rbp), %r15
   1ceb3: 4c 8b ad f0 fe ff ff         	movq	-0x110(%rbp), %r13
   1ceba: 48 8b 9d 00 ff ff ff         	movq	-0x100(%rbp), %rbx
   1cec1: 4c 8b 95 38 ff ff ff         	movq	-0xc8(%rbp), %r10
   1cec8: 48 ba 2c 7c 3d f8 60 26 e8 59	movabsq	$0x59e82660f83d7c2c, %rdx # imm = 0x59E82660F83D7C2C
   1ced2: 49 bc bc 98 47 ae e0 53 37 50	movabsq	$0x503753e0ae4798bc, %r12 # imm = 0x503753E0AE4798BC
   1cedc: 4c 39 a5 68 ff ff ff         	cmpq	%r12, -0x98(%rbp)
   1cee3: 0f 84 44 cd ff ff            	je	0x19c2d <.text+0xb4ad>
   1cee9: 48 b8 08 5a 04 c0 3d e4 92 50	movabsq	$0x5092e43dc0045a08, %rax # imm = 0x5092E43DC0045A08
   1cef3: 48 39 85 68 ff ff ff         	cmpq	%rax, -0x98(%rbp)
   1cefa: 0f 84 a2 39 00 00            	je	0x208a2 <.text+0x12122>
   1cf00: 48 b8 73 e4 15 57 21 a6 0e 52	movabsq	$0x520ea6215715e473, %rax # imm = 0x520EA6215715E473
   1cf0a: 48 39 85 68 ff ff ff         	cmpq	%rax, -0x98(%rbp)
   1cf11: 44 8a 65 cd                  	movb	-0x33(%rbp), %r12b
   1cf15: 48 8b 9d 00 ff ff ff         	movq	-0x100(%rbp), %rbx
   1cf1c: 4c 8b ad f0 fe ff ff         	movq	-0x110(%rbp), %r13
   1cf23: 4c 8b bd f8 fe ff ff         	movq	-0x108(%rbp), %r15
   1cf2a: 0f 84 9d 3b 00 00            	je	0x20acd <.text+0x1234d>
   1cf30: 48 b8 d8 ef 61 2a b6 72 3f 52	movabsq	$0x523f72b62a61efd8, %rax # imm = 0x523F72B62A61EFD8
   1cf3a: 48 39 85 68 ff ff ff         	cmpq	%rax, -0x98(%rbp)
   1cf41: 4c 8b 9d 28 ff ff ff         	movq	-0xd8(%rbp), %r11
   1cf48: 48 8b 95 30 ff ff ff         	movq	-0xd0(%rbp), %rdx
   1cf4f: 0f 84 5a 31 00 00            	je	0x200af <.text+0x1192f>
   1cf55: 48 b8 a7 1f 82 ca 40 f9 8f 54	movabsq	$0x548ff940ca821fa7, %rax # imm = 0x548FF940CA821FA7
   1cf5f: 48 39 85 68 ff ff ff         	cmpq	%rax, -0x98(%rbp)
   1cf66: 0f 84 17 37 00 00            	je	0x20683 <.text+0x11f03>
   1cf6c: 48 b8 ba c5 28 51 81 06 00 55	movabsq	$0x550006815128c5ba, %rax # imm = 0x550006815128C5BA
   1cf76: 48 39 85 68 ff ff ff         	cmpq	%rax, -0x98(%rbp)
   1cf7d: 0f 84 b2 20 00 00            	je	0x1f035 <.text+0x108b5>
   1cf83: 48 b8 bb ec 6f 4e 0c 63 17 56	movabsq	$0x5617630c4e6fecbb, %rax # imm = 0x5617630C4E6FECBB
   1cf8d: 48 39 85 68 ff ff ff         	cmpq	%rax, -0x98(%rbp)
   1cf94: 0f 84 a7 1d 00 00            	je	0x1ed41 <.text+0x105c1>
   1cf9a: 8a 45 ce                     	movb	-0x32(%rbp), %al
   1cf9d: 88 45 cf                     	movb	%al, -0x31(%rbp)
   1cfa0: 44 89 e6                     	movl	%r12d, %esi
   1cfa3: 48 8b 85 50 ff ff ff         	movq	-0xb0(%rbp), %rax
   1cfaa: 48 89 85 70 ff ff ff         	movq	%rax, -0x90(%rbp)
   1cfb1: 48 8b 85 60 ff ff ff         	movq	-0xa0(%rbp), %rax
   1cfb8: 48 89 85 78 ff ff ff         	movq	%rax, -0x88(%rbp)
   1cfbf: 4c 89 c0                     	movq	%r8, %rax
   1cfc2: 4c 89 45 80                  	movq	%r8, -0x80(%rbp)
   1cfc6: 4c 89 4d 88                  	movq	%r9, -0x78(%rbp)
   1cfca: 48 8b 85 48 ff ff ff         	movq	-0xb8(%rbp), %rax
   1cfd1: 48 89 45 90                  	movq	%rax, -0x70(%rbp)
   1cfd5: 48 8b 85 58 ff ff ff         	movq	-0xa8(%rbp), %rax
   1cfdc: 48 89 45 98                  	movq	%rax, -0x68(%rbp)
   1cfe0: 48 89 55 a0                  	movq	%rdx, -0x60(%rbp)
   1cfe4: 4c 89 5d a8                  	movq	%r11, -0x58(%rbp)
   1cfe8: 48 8b 85 40 ff ff ff         	movq	-0xc0(%rbp), %rax
   1cfef: 48 89 45 b0                  	movq	%rax, -0x50(%rbp)
   1cff3: 48 8b 85 08 ff ff ff         	movq	-0xf8(%rbp), %rax
   1cffa: 48 8b 8d 10 ff ff ff         	movq	-0xf0(%rbp), %rcx
   1d001: 48 89 4d b8                  	movq	%rcx, -0x48(%rbp)
   1d005: 48 8b 8d 20 ff ff ff         	movq	-0xe0(%rbp), %rcx
   1d00c: 48 89 4d c0                  	movq	%rcx, -0x40(%rbp)
   1d010: 4c 8b 9d 18 ff ff ff         	movq	-0xe8(%rbp), %r11
   1d017: 4c 8b 95 38 ff ff ff         	movq	-0xc8(%rbp), %r10
   1d01e: 48 ba 72 44 7c ec c4 2d 02 6f	movabsq	$0x6f022dc4ec7c4472, %rdx # imm = 0x6F022DC4EC7C4472
   1d028: 49 bc 4f 0e f9 b5 ce d2 2b 59	movabsq	$0x592bd2ceb5f90e4f, %r12 # imm = 0x592BD2CEB5F90E4F
   1d032: 4c 39 a5 68 ff ff ff         	cmpq	%r12, -0x98(%rbp)
   1d039: 0f 84 ee cb ff ff            	je	0x19c2d <.text+0xb4ad>
   1d03f: 48 b8 2c 7c 3d f8 60 26 e8 59	movabsq	$0x59e82660f83d7c2c, %rax # imm = 0x59E82660F83D7C2C
   1d049: 48 39 85 68 ff ff ff         	cmpq	%rax, -0x98(%rbp)
   1d050: 0f 84 19 19 00 00            	je	0x1e96f <.text+0x101ef>
   1d056: 8a 45 ce                     	movb	-0x32(%rbp), %al
   1d059: 88 45 cf                     	movb	%al, -0x31(%rbp)
   1d05c: 8a 45 cd                     	movb	-0x33(%rbp), %al
   1d05f: 89 c6                        	movl	%eax, %esi
   1d061: 48 8b 85 50 ff ff ff         	movq	-0xb0(%rbp), %rax
   1d068: 48 89 85 70 ff ff ff         	movq	%rax, -0x90(%rbp)
   1d06f: 48 8b 85 60 ff ff ff         	movq	-0xa0(%rbp), %rax
   1d076: 48 89 85 78 ff ff ff         	movq	%rax, -0x88(%rbp)
   1d07d: 4c 89 c0                     	movq	%r8, %rax
   1d080: 4c 89 45 80                  	movq	%r8, -0x80(%rbp)
   1d084: 4c 89 4d 88                  	movq	%r9, -0x78(%rbp)
   1d088: 48 8b 85 48 ff ff ff         	movq	-0xb8(%rbp), %rax
   1d08f: 48 89 45 90                  	movq	%rax, -0x70(%rbp)
   1d093: 48 8b 85 58 ff ff ff         	movq	-0xa8(%rbp), %rax
   1d09a: 48 89 45 98                  	movq	%rax, -0x68(%rbp)
   1d09e: 48 8b 85 30 ff ff ff         	movq	-0xd0(%rbp), %rax
   1d0a5: 48 89 45 a0                  	movq	%rax, -0x60(%rbp)
   1d0a9: 48 8b 85 28 ff ff ff         	movq	-0xd8(%rbp), %rax
   1d0b0: 48 89 45 a8                  	movq	%rax, -0x58(%rbp)
   1d0b4: 48 8b 85 40 ff ff ff         	movq	-0xc0(%rbp), %rax
   1d0bb: 48 89 45 b0                  	movq	%rax, -0x50(%rbp)
   1d0bf: 48 8b 85 08 ff ff ff         	movq	-0xf8(%rbp), %rax
   1d0c6: 48 8b 8d 10 ff ff ff         	movq	-0xf0(%rbp), %rcx
   1d0cd: 48 89 4d b8                  	movq	%rcx, -0x48(%rbp)
   1d0d1: 48 8b 8d 20 ff ff ff         	movq	-0xe0(%rbp), %rcx
   1d0d8: 48 89 4d c0                  	movq	%rcx, -0x40(%rbp)
   1d0dc: 4c 8b 9d 18 ff ff ff         	movq	-0xe8(%rbp), %r11
   1d0e3: 4c 8b bd f8 fe ff ff         	movq	-0x108(%rbp), %r15
   1d0ea: 4c 8b ad f0 fe ff ff         	movq	-0x110(%rbp), %r13
   1d0f1: 48 8b 9d 00 ff ff ff         	movq	-0x100(%rbp), %rbx
   1d0f8: 4c 8b 95 38 ff ff ff         	movq	-0xc8(%rbp), %r10
   1d0ff: 48 ba 01 e1 5e 0e ec c6 64 38	movabsq	$0x3864c6ec0e5ee101, %rdx # imm = 0x3864C6EC0E5EE101
   1d109: 49 bc 10 21 37 41 e5 53 43 5a	movabsq	$0x5a4353e541372110, %r12 # imm = 0x5A4353E541372110
   1d113: 4c 39 a5 68 ff ff ff         	cmpq	%r12, -0x98(%rbp)
   1d11a: 0f 84 0d cb ff ff            	je	0x19c2d <.text+0xb4ad>
   1d120: 48 b8 80 cc 19 b2 1d 46 e0 5b	movabsq	$0x5be0461db219cc80, %rax # imm = 0x5BE0461DB219CC80
   1d12a: 48 39 85 68 ff ff ff         	cmpq	%rax, -0x98(%rbp)
   1d131: 0f 84 b5 30 00 00            	je	0x201ec <.text+0x11a6c>
   1d137: 48 b8 29 b0 b2 48 32 40 78 5d	movabsq	$0x5d78403248b2b029, %rax # imm = 0x5D78403248B2B029
   1d141: 48 39 85 68 ff ff ff         	cmpq	%rax, -0x98(%rbp)
   1d148: 40 8a 75 cd                  	movb	-0x33(%rbp), %sil
   1d14c: 4c 8b 95 38 ff ff ff         	movq	-0xc8(%rbp), %r10
   1d153: 48 8b 9d 00 ff ff ff         	movq	-0x100(%rbp), %rbx
   1d15a: 4c 8b ad f0 fe ff ff         	movq	-0x110(%rbp), %r13
   1d161: 4c 8b bd f8 fe ff ff         	movq	-0x108(%rbp), %r15
   1d168: 4c 8b 9d 18 ff ff ff         	movq	-0xe8(%rbp), %r11
   1d16f: 4c 8b 85 20 ff ff ff         	movq	-0xe0(%rbp), %r8
   1d176: 48 8b bd 10 ff ff ff         	movq	-0xf0(%rbp), %rdi
   1d17d: 4c 8b a5 08 ff ff ff         	movq	-0xf8(%rbp), %r12
   1d184: 0f 84 02 1d 00 00            	je	0x1ee8c <.text+0x1070c>
   1d18a: 8a 45 ce                     	movb	-0x32(%rbp), %al
   1d18d: 88 45 cf                     	movb	%al, -0x31(%rbp)
   1d190: 48 8b 85 50 ff ff ff         	movq	-0xb0(%rbp), %rax
   1d197: 48 89 85 70 ff ff ff         	movq	%rax, -0x90(%rbp)
   1d19e: 48 8b 85 60 ff ff ff         	movq	-0xa0(%rbp), %rax
   1d1a5: 48 89 85 78 ff ff ff         	movq	%rax, -0x88(%rbp)
   1d1ac: 48 8b 95 e0 fe ff ff         	movq	-0x120(%rbp), %rdx
   1d1b3: 48 89 d0                     	movq	%rdx, %rax
   1d1b6: 48 89 55 80                  	movq	%rdx, -0x80(%rbp)
   1d1ba: 48 8b 8d e8 fe ff ff         	movq	-0x118(%rbp), %rcx
   1d1c1: 48 89 4d 88                  	movq	%rcx, -0x78(%rbp)
   1d1c5: 48 8b 85 48 ff ff ff         	movq	-0xb8(%rbp), %rax
   1d1cc: 48 89 45 90                  	movq	%rax, -0x70(%rbp)
   1d1d0: 48 8b 85 58 ff ff ff         	movq	-0xa8(%rbp), %rax
   1d1d7: 48 89 45 98                  	movq	%rax, -0x68(%rbp)
   1d1db: 48 8b 85 30 ff ff ff         	movq	-0xd0(%rbp), %rax
   1d1e2: 48 89 45 a0                  	movq	%rax, -0x60(%rbp)
   1d1e6: 48 8b 85 28 ff ff ff         	movq	-0xd8(%rbp), %rax
   1d1ed: 48 89 45 a8                  	movq	%rax, -0x58(%rbp)
   1d1f1: 48 8b 85 40 ff ff ff         	movq	-0xc0(%rbp), %rax
   1d1f8: 48 89 45 b0                  	movq	%rax, -0x50(%rbp)
   1d1fc: 4c 89 e0                     	movq	%r12, %rax
   1d1ff: 48 89 7d b8                  	movq	%rdi, -0x48(%rbp)
   1d203: 4c 89 45 c0                  	movq	%r8, -0x40(%rbp)
   1d207: 49 89 d0                     	movq	%rdx, %r8
   1d20a: 48 ba 01 e1 5e 0e ec c6 64 38	movabsq	$0x3864c6ec0e5ee101, %rdx # imm = 0x3864C6EC0E5EE101
   1d214: 49 bc ac a6 5a 15 b6 2f 55 5e	movabsq	$0x5e552fb6155aa6ac, %r12 # imm = 0x5E552FB6155AA6AC
   1d21e: 4c 39 a5 68 ff ff ff         	cmpq	%r12, -0x98(%rbp)
   1d225: 0f 84 02 ca ff ff            	je	0x19c2d <.text+0xb4ad>
   1d22b: 49 89 c9                     	movq	%rcx, %r9
   1d22e: 8a 45 ce                     	movb	-0x32(%rbp), %al
   1d231: 88 45 cf                     	movb	%al, -0x31(%rbp)
   1d234: 8a 45 cd                     	movb	-0x33(%rbp), %al
   1d237: 89 c6                        	movl	%eax, %esi
   1d239: 48 8b 85 50 ff ff ff         	movq	-0xb0(%rbp), %rax
   1d240: 48 89 85 70 ff ff ff         	movq	%rax, -0x90(%rbp)
   1d247: 48 8b 85 60 ff ff ff         	movq	-0xa0(%rbp), %rax
   1d24e: 48 89 85 78 ff ff ff         	movq	%rax, -0x88(%rbp)
   1d255: 4c 89 c0                     	movq	%r8, %rax
   1d258: 4c 89 45 80                  	movq	%r8, -0x80(%rbp)
   1d25c: 48 89 4d 88                  	movq	%rcx, -0x78(%rbp)
   1d260: 48 8b 85 48 ff ff ff         	movq	-0xb8(%rbp), %rax
   1d267: 48 89 45 90                  	movq	%rax, -0x70(%rbp)
   1d26b: 48 8b 85 58 ff ff ff         	movq	-0xa8(%rbp), %rax
   1d272: 48 89 45 98                  	movq	%rax, -0x68(%rbp)
   1d276: 48 8b 85 30 ff ff ff         	movq	-0xd0(%rbp), %rax
   1d27d: 48 89 45 a0                  	movq	%rax, -0x60(%rbp)
   1d281: 48 8b 85 28 ff ff ff         	movq	-0xd8(%rbp), %rax
   1d288: 48 89 45 a8                  	movq	%rax, -0x58(%rbp)
   1d28c: 48 8b 85 40 ff ff ff         	movq	-0xc0(%rbp), %rax
   1d293: 48 89 45 b0                  	movq	%rax, -0x50(%rbp)
   1d297: 48 8b 85 08 ff ff ff         	movq	-0xf8(%rbp), %rax
   1d29e: 48 8b 8d 10 ff ff ff         	movq	-0xf0(%rbp), %rcx
   1d2a5: 48 89 4d b8                  	movq	%rcx, -0x48(%rbp)
   1d2a9: 48 8b 8d 20 ff ff ff         	movq	-0xe0(%rbp), %rcx
   1d2b0: 48 89 4d c0                  	movq	%rcx, -0x40(%rbp)
   1d2b4: 4c 8b 9d 18 ff ff ff         	movq	-0xe8(%rbp), %r11
   1d2bb: 4c 8b bd f8 fe ff ff         	movq	-0x108(%rbp), %r15
   1d2c2: 4c 8b ad f0 fe ff ff         	movq	-0x110(%rbp), %r13
   1d2c9: 48 8b 9d 00 ff ff ff         	movq	-0x100(%rbp), %rbx
   1d2d0: 4c 8b 95 38 ff ff ff         	movq	-0xc8(%rbp), %r10
   1d2d7: 48 ba 50 bc 28 be a9 40 a1 3b	movabsq	$0x3ba140a9be28bc50, %rdx # imm = 0x3BA140A9BE28BC50
   1d2e1: 49 bc 2b 4e 6f 43 f6 d8 30 5f	movabsq	$0x5f30d8f6436f4e2b, %r12 # imm = 0x5F30D8F6436F4E2B
   1d2eb: 4c 39 a5 68 ff ff ff         	cmpq	%r12, -0x98(%rbp)
   1d2f2: 0f 84 35 c9 ff ff            	je	0x19c2d <.text+0xb4ad>
   1d2f8: 8a 45 ce                     	movb	-0x32(%rbp), %al
   1d2fb: 88 45 cf                     	movb	%al, -0x31(%rbp)
   1d2fe: 8a 45 cd                     	movb	-0x33(%rbp), %al
   1d301: 89 c6                        	movl	%eax, %esi
   1d303: 48 8b 85 50 ff ff ff         	movq	-0xb0(%rbp), %rax
   1d30a: 48 89 85 70 ff ff ff         	movq	%rax, -0x90(%rbp)
   1d311: 48 8b 85 60 ff ff ff         	movq	-0xa0(%rbp), %rax
   1d318: 48 89 85 78 ff ff ff         	movq	%rax, -0x88(%rbp)
   1d31f: 4c 89 c0                     	movq	%r8, %rax
   1d322: 4c 89 45 80                  	movq	%r8, -0x80(%rbp)
   1d326: 4c 89 4d 88                  	movq	%r9, -0x78(%rbp)
   1d32a: 48 8b 85 48 ff ff ff         	movq	-0xb8(%rbp), %rax
   1d331: 48 89 45 90                  	movq	%rax, -0x70(%rbp)
   1d335: 48 8b 85 58 ff ff ff         	movq	-0xa8(%rbp), %rax
   1d33c: 48 89 45 98                  	movq	%rax, -0x68(%rbp)
   1d340: 48 8b 85 30 ff ff ff         	movq	-0xd0(%rbp), %rax
   1d347: 48 89 45 a0                  	movq	%rax, -0x60(%rbp)
   1d34b: 48 8b 85 28 ff ff ff         	movq	-0xd8(%rbp), %rax
   1d352: 48 89 45 a8                  	movq	%rax, -0x58(%rbp)
   1d356: 48 8b 85 40 ff ff ff         	movq	-0xc0(%rbp), %rax
   1d35d: 48 89 45 b0                  	movq	%rax, -0x50(%rbp)
   1d361: 48 8b 85 08 ff ff ff         	movq	-0xf8(%rbp), %rax
   1d368: 48 8b 8d 10 ff ff ff         	movq	-0xf0(%rbp), %rcx
   1d36f: 48 89 4d b8                  	movq	%rcx, -0x48(%rbp)
   1d373: 48 8b 8d 20 ff ff ff         	movq	-0xe0(%rbp), %rcx
   1d37a: 48 89 4d c0                  	movq	%rcx, -0x40(%rbp)
   1d37e: 4c 8b 9d 18 ff ff ff         	movq	-0xe8(%rbp), %r11
   1d385: 4c 8b bd f8 fe ff ff         	movq	-0x108(%rbp), %r15
   1d38c: 4c 8b ad f0 fe ff ff         	movq	-0x110(%rbp), %r13
   1d393: 48 8b 9d 00 ff ff ff         	movq	-0x100(%rbp), %rbx
   1d39a: 4c 8b 95 38 ff ff ff         	movq	-0xc8(%rbp), %r10
   1d3a1: 48 ba 2a 04 4d af c1 b6 ee 96	movabsq	$-0x6911493e50b2fbd6, %rdx # imm = 0x96EEB6C1AF4D042A
   1d3ab: 49 bc d5 b0 33 22 71 00 cf 5f	movabsq	$0x5fcf00712233b0d5, %r12 # imm = 0x5FCF00712233B0D5
   1d3b5: 4c 39 a5 68 ff ff ff         	cmpq	%r12, -0x98(%rbp)
   1d3bc: 0f 84 6b c8 ff ff            	je	0x19c2d <.text+0xb4ad>
   1d3c2: 48 b8 18 b7 2a 7a 9a 56 fe 61	movabsq	$0x61fe569a7a2ab718, %rax # imm = 0x61FE569A7A2AB718
   1d3cc: 48 39 85 68 ff ff ff         	cmpq	%rax, -0x98(%rbp)
   1d3d3: 0f 84 a1 35 00 00            	je	0x2097a <.text+0x121fa>
   1d3d9: 48 b8 08 2e 3d 1e 2d 2a db 62	movabsq	$0x62db2a2d1e3d2e08, %rax # imm = 0x62DB2A2D1E3D2E08
   1d3e3: 48 39 85 68 ff ff ff         	cmpq	%rax, -0x98(%rbp)
   1d3ea: 44 8a 65 cd                  	movb	-0x33(%rbp), %r12b
   1d3ee: 48 8b 9d 00 ff ff ff         	movq	-0x100(%rbp), %rbx
   1d3f5: 4c 8b ad f0 fe ff ff         	movq	-0x110(%rbp), %r13
   1d3fc: 4c 8b bd f8 fe ff ff         	movq	-0x108(%rbp), %r15
   1d403: 0f 84 5c 23 00 00            	je	0x1f765 <.text+0x10fe5>
   1d409: 48 b8 3a 64 6a c7 0f f8 e9 63	movabsq	$0x63e9f80fc76a643a, %rax # imm = 0x63E9F80FC76A643A
   1d413: 48 39 85 68 ff ff ff         	cmpq	%rax, -0x98(%rbp)
   1d41a: 0f 84 5a 2a 00 00            	je	0x1fe7a <.text+0x116fa>
   1d420: 48 b8 c9 fa 9c 1b 2d 13 4c 65	movabsq	$0x654c132d1b9cfac9, %rax # imm = 0x654C132D1B9CFAC9
   1d42a: 48 39 85 68 ff ff ff         	cmpq	%rax, -0x98(%rbp)
   1d431: 0f 84 1f 24 00 00            	je	0x1f856 <.text+0x110d6>
   1d437: 48 b8 33 c1 9c fa 5d 2b f3 65	movabsq	$0x65f32b5dfa9cc133, %rax # imm = 0x65F32B5DFA9CC133
   1d441: 48 39 85 68 ff ff ff         	cmpq	%rax, -0x98(%rbp)
   1d448: 0f 84 7f 31 00 00            	je	0x205cd <.text+0x11e4d>
   1d44e: 48 b8 af 6e 00 5d b2 2d d5 68	movabsq	$0x68d52db25d006eaf, %rax # imm = 0x68D52DB25D006EAF
   1d458: 48 39 85 68 ff ff ff         	cmpq	%rax, -0x98(%rbp)
   1d45f: 4c 8b 9d 28 ff ff ff         	movq	-0xd8(%rbp), %r11
   1d466: 48 8b 8d 30 ff ff ff         	movq	-0xd0(%rbp), %rcx
   1d46d: 0f 84 cc 30 00 00            	je	0x2053f <.text+0x11dbf>
   1d473: 48 b8 d1 bf 7f 53 77 5f c2 69	movabsq	$0x69c25f77537fbfd1, %rax # imm = 0x69C25F77537FBFD1
   1d47d: 48 39 85 68 ff ff ff         	cmpq	%rax, -0x98(%rbp)
   1d484: 0f 84 1f 1f 00 00            	je	0x1f3a9 <.text+0x10c29>
   1d48a: 48 b8 41 bf 77 6f bd 41 1c 6a	movabsq	$0x6a1c41bd6f77bf41, %rax # imm = 0x6A1C41BD6F77BF41
   1d494: 48 39 85 68 ff ff ff         	cmpq	%rax, -0x98(%rbp)
   1d49b: 0f 84 1a 2f 00 00            	je	0x203bb <.text+0x11c3b>
   1d4a1: 48 b8 df 22 97 63 cc 93 48 6a	movabsq	$0x6a4893cc639722df, %rax # imm = 0x6A4893CC639722DF
   1d4ab: 48 39 85 68 ff ff ff         	cmpq	%rax, -0x98(%rbp)
   1d4b2: 0f 84 50 26 00 00            	je	0x1fb08 <.text+0x11388>
   1d4b8: 8a 45 ce                     	movb	-0x32(%rbp), %al
   1d4bb: 88 45 cf                     	movb	%al, -0x31(%rbp)
   1d4be: 44 89 e6                     	movl	%r12d, %esi
   1d4c1: 48 8b 85 50 ff ff ff         	movq	-0xb0(%rbp), %rax
   1d4c8: 48 89 85 70 ff ff ff         	movq	%rax, -0x90(%rbp)
   1d4cf: 48 8b 85 60 ff ff ff         	movq	-0xa0(%rbp), %rax
   1d4d6: 48 89 85 78 ff ff ff         	movq	%rax, -0x88(%rbp)
   1d4dd: 4c 89 c0                     	movq	%r8, %rax
   1d4e0: 4c 89 45 80                  	movq	%r8, -0x80(%rbp)
   1d4e4: 4c 89 4d 88                  	movq	%r9, -0x78(%rbp)
   1d4e8: 48 8b 85 48 ff ff ff         	movq	-0xb8(%rbp), %rax
   1d4ef: 48 89 45 90                  	movq	%rax, -0x70(%rbp)
   1d4f3: 48 8b 85 58 ff ff ff         	movq	-0xa8(%rbp), %rax
   1d4fa: 48 89 45 98                  	movq	%rax, -0x68(%rbp)
   1d4fe: 48 89 4d a0                  	movq	%rcx, -0x60(%rbp)
   1d502: 4c 89 5d a8                  	movq	%r11, -0x58(%rbp)
   1d506: 48 8b 85 40 ff ff ff         	movq	-0xc0(%rbp), %rax
   1d50d: 48 89 45 b0                  	movq	%rax, -0x50(%rbp)
   1d511: 48 8b 85 08 ff ff ff         	movq	-0xf8(%rbp), %rax
   1d518: 48 8b 8d 10 ff ff ff         	movq	-0xf0(%rbp), %rcx
   1d51f: 48 89 4d b8                  	movq	%rcx, -0x48(%rbp)
   1d523: 48 8b 8d 20 ff ff ff         	movq	-0xe0(%rbp), %rcx
   1d52a: 48 89 4d c0                  	movq	%rcx, -0x40(%rbp)
   1d52e: 4c 8b 9d 18 ff ff ff         	movq	-0xe8(%rbp), %r11
   1d535: 4c 8b 95 38 ff ff ff         	movq	-0xc8(%rbp), %r10
   1d53c: 48 ba 01 e1 5e 0e ec c6 64 38	movabsq	$0x3864c6ec0e5ee101, %rdx # imm = 0x3864C6EC0E5EE101
   1d546: 49 bc 60 17 8d 52 70 37 19 6b	movabsq	$0x6b193770528d1760, %r12 # imm = 0x6B193770528D1760
   1d550: 4c 39 a5 68 ff ff ff         	cmpq	%r12, -0x98(%rbp)
   1d557: 0f 84 d0 c6 ff ff            	je	0x19c2d <.text+0xb4ad>
   1d55d: 48 b8 f5 d4 74 d2 9e 3a a7 6b	movabsq	$0x6ba73a9ed274d4f5, %rax # imm = 0x6BA73A9ED274D4F5
   1d567: 48 39 85 68 ff ff ff         	cmpq	%rax, -0x98(%rbp)
   1d56e: 0f 84 f1 1d 00 00            	je	0x1f365 <.text+0x10be5>
   1d574: 48 b8 65 b9 94 3e 0c c4 3c 6e	movabsq	$0x6e3cc40c3e94b965, %rax # imm = 0x6E3CC40C3E94B965
   1d57e: 48 39 85 68 ff ff ff         	cmpq	%rax, -0x98(%rbp)
   1d585: 44 8a 65 cd                  	movb	-0x33(%rbp), %r12b
   1d589: 48 8b 9d 00 ff ff ff         	movq	-0x100(%rbp), %rbx
   1d590: 4c 8b ad f0 fe ff ff         	movq	-0x110(%rbp), %r13
   1d597: 4c 8b bd f8 fe ff ff         	movq	-0x108(%rbp), %r15
   1d59e: 0f 84 e4 35 00 00            	je	0x20b88 <.text+0x12408>
   1d5a4: 48 b8 72 44 7c ec c4 2d 02 6f	movabsq	$0x6f022dc4ec7c4472, %rax # imm = 0x6F022DC4EC7C4472
   1d5ae: 48 39 85 68 ff ff ff         	cmpq	%rax, -0x98(%rbp)
   1d5b5: 4c 8b 9d 28 ff ff ff         	movq	-0xd8(%rbp), %r11
   1d5bc: 48 8b 8d 30 ff ff ff         	movq	-0xd0(%rbp), %rcx
   1d5c3: 0f 84 6e 2b 00 00            	je	0x20137 <.text+0x119b7>
   1d5c9: 8a 45 ce                     	movb	-0x32(%rbp), %al
   1d5cc: 88 45 cf                     	movb	%al, -0x31(%rbp)
   1d5cf: 44 89 e6                     	movl	%r12d, %esi
   1d5d2: 48 8b 85 50 ff ff ff         	movq	-0xb0(%rbp), %rax
   1d5d9: 48 89 85 70 ff ff ff         	movq	%rax, -0x90(%rbp)
   1d5e0: 48 8b 85 60 ff ff ff         	movq	-0xa0(%rbp), %rax
   1d5e7: 48 89 85 78 ff ff ff         	movq	%rax, -0x88(%rbp)
   1d5ee: 4c 89 c0                     	movq	%r8, %rax
   1d5f1: 4c 89 45 80                  	movq	%r8, -0x80(%rbp)
   1d5f5: 4c 89 4d 88                  	movq	%r9, -0x78(%rbp)
   1d5f9: 48 8b 85 48 ff ff ff         	movq	-0xb8(%rbp), %rax
   1d600: 48 89 45 90                  	movq	%rax, -0x70(%rbp)
   1d604: 48 8b 85 58 ff ff ff         	movq	-0xa8(%rbp), %rax
   1d60b: 48 89 45 98                  	movq	%rax, -0x68(%rbp)
   1d60f: 48 89 4d a0                  	movq	%rcx, -0x60(%rbp)
   1d613: 4c 89 5d a8                  	movq	%r11, -0x58(%rbp)
   1d617: 48 8b 85 40 ff ff ff         	movq	-0xc0(%rbp), %rax
   1d61e: 48 89 45 b0                  	movq	%rax, -0x50(%rbp)
   1d622: 48 8b 85 08 ff ff ff         	movq	-0xf8(%rbp), %rax
   1d629: 48 8b 8d 10 ff ff ff         	movq	-0xf0(%rbp), %rcx
   1d630: 48 89 4d b8                  	movq	%rcx, -0x48(%rbp)
   1d634: 48 8b 8d 20 ff ff ff         	movq	-0xe0(%rbp), %rcx
   1d63b: 48 89 4d c0                  	movq	%rcx, -0x40(%rbp)
   1d63f: 4c 8b 9d 18 ff ff ff         	movq	-0xe8(%rbp), %r11
   1d646: 4c 8b 95 38 ff ff ff         	movq	-0xc8(%rbp), %r10
   1d64d: 48 ba 29 b0 b2 48 32 40 78 5d	movabsq	$0x5d78403248b2b029, %rdx # imm = 0x5D78403248B2B029
   1d657: 49 bc 9d c7 ee 13 aa 55 2d 6f	movabsq	$0x6f2d55aa13eec79d, %r12 # imm = 0x6F2D55AA13EEC79D
   1d661: 4c 39 a5 68 ff ff ff         	cmpq	%r12, -0x98(%rbp)
   1d668: 0f 84 bf c5 ff ff            	je	0x19c2d <.text+0xb4ad>
   1d66e: 48 b8 29 f2 f0 59 9c 9c f9 6f	movabsq	$0x6ff99c9c59f0f229, %rax # imm = 0x6FF99C9C59F0F229
   1d678: 48 39 85 68 ff ff ff         	cmpq	%rax, -0x98(%rbp)
   1d67f: 0f 84 1f 23 00 00            	je	0x1f9a4 <.text+0x11224>
   1d685: 48 b8 10 03 a5 6c 84 8f ac 70	movabsq	$0x70ac8f846ca50310, %rax # imm = 0x70AC8F846CA50310
   1d68f: 48 39 85 68 ff ff ff         	cmpq	%rax, -0x98(%rbp)
   1d696: 40 8a 75 cd                  	movb	-0x33(%rbp), %sil
   1d69a: 4c 8b 95 38 ff ff ff         	movq	-0xc8(%rbp), %r10
   1d6a1: 48 8b 9d 00 ff ff ff         	movq	-0x100(%rbp), %rbx
   1d6a8: 4c 8b ad f0 fe ff ff         	movq	-0x110(%rbp), %r13
   1d6af: 4c 8b bd f8 fe ff ff         	movq	-0x108(%rbp), %r15
   1d6b6: 4c 8b 9d 18 ff ff ff         	movq	-0xe8(%rbp), %r11
   1d6bd: 4c 8b 8d 20 ff ff ff         	movq	-0xe0(%rbp), %r9
   1d6c4: 48 8b bd 10 ff ff ff         	movq	-0xf0(%rbp), %rdi
   1d6cb: 4c 8b a5 08 ff ff ff         	movq	-0xf8(%rbp), %r12
   1d6d2: 48 8b 8d 40 ff ff ff         	movq	-0xc0(%rbp), %rcx
   1d6d9: 4c 8b 85 28 ff ff ff         	movq	-0xd8(%rbp), %r8
   1d6e0: 48 8b 95 30 ff ff ff         	movq	-0xd0(%rbp), %rdx
   1d6e7: 0f 84 50 33 00 00            	je	0x20a3d <.text+0x122bd>
   1d6ed: 48 b8 9e cc 65 19 d2 0e 08 71	movabsq	$0x71080ed21965cc9e, %rax # imm = 0x71080ED21965CC9E
   1d6f7: 48 39 85 68 ff ff ff         	cmpq	%rax, -0x98(%rbp)
   1d6fe: 0f 84 06 1a 00 00            	je	0x1f10a <.text+0x1098a>
   1d704: 48 b8 0b 39 f5 e6 3b b3 79 71	movabsq	$0x7179b33be6f5390b, %rax # imm = 0x7179B33BE6F5390B
   1d70e: 48 39 85 68 ff ff ff         	cmpq	%rax, -0x98(%rbp)
   1d715: 0f 84 8a 27 00 00            	je	0x1fea5 <.text+0x11725>
   1d71b: 8a 45 ce                     	movb	-0x32(%rbp), %al
   1d71e: 88 45 cf                     	movb	%al, -0x31(%rbp)
   1d721: 48 8b 85 50 ff ff ff         	movq	-0xb0(%rbp), %rax
   1d728: 48 89 85 70 ff ff ff         	movq	%rax, -0x90(%rbp)
   1d72f: 48 8b 85 60 ff ff ff         	movq	-0xa0(%rbp), %rax
   1d736: 48 89 85 78 ff ff ff         	movq	%rax, -0x88(%rbp)
   1d73d: 4c 8b b5 e0 fe ff ff         	movq	-0x120(%rbp), %r14
   1d744: 4c 89 f0                     	movq	%r14, %rax
   1d747: 4c 89 75 80                  	movq	%r14, -0x80(%rbp)
   1d74b: 4d 89 ca                     	movq	%r9, %r10
   1d74e: 4c 8b 8d e8 fe ff ff         	movq	-0x118(%rbp), %r9
   1d755: 4c 89 4d 88                  	movq	%r9, -0x78(%rbp)
   1d759: 48 8b 85 48 ff ff ff         	movq	-0xb8(%rbp), %rax
   1d760: 48 89 45 90                  	movq	%rax, -0x70(%rbp)
   1d764: 48 8b 85 58 ff ff ff         	movq	-0xa8(%rbp), %rax
   1d76b: 48 89 45 98                  	movq	%rax, -0x68(%rbp)
   1d76f: 48 89 55 a0                  	movq	%rdx, -0x60(%rbp)
   1d773: 4c 89 45 a8                  	movq	%r8, -0x58(%rbp)
   1d777: 48 89 4d b0                  	movq	%rcx, -0x50(%rbp)
   1d77b: 4c 89 e0                     	movq	%r12, %rax
   1d77e: 48 89 7d b8                  	movq	%rdi, -0x48(%rbp)
   1d782: 4c 89 55 c0                  	movq	%r10, -0x40(%rbp)
   1d786: 4c 8b 95 38 ff ff ff         	movq	-0xc8(%rbp), %r10
   1d78d: 48 ba 4b c4 0a 99 13 70 e1 13	movabsq	$0x13e17013990ac44b, %rdx # imm = 0x13E17013990AC44B
   1d797: 49 bc 99 4f cd 98 01 92 ec 71	movabsq	$0x71ec920198cd4f99, %r12 # imm = 0x71EC920198CD4F99
   1d7a1: 4c 39 a5 68 ff ff ff         	cmpq	%r12, -0x98(%rbp)
   1d7a8: 0f 84 7f c4 ff ff            	je	0x19c2d <.text+0xb4ad>
   1d7ae: 8a 45 ce                     	movb	-0x32(%rbp), %al
   1d7b1: 88 45 cf                     	movb	%al, -0x31(%rbp)
   1d7b4: 8a 85 df fe ff ff            	movb	-0x121(%rbp), %al
   1d7ba: 89 c6                        	movl	%eax, %esi
   1d7bc: 48 8b 85 50 ff ff ff         	movq	-0xb0(%rbp), %rax
   1d7c3: 48 89 85 70 ff ff ff         	movq	%rax, -0x90(%rbp)
   1d7ca: 48 8b 85 60 ff ff ff         	movq	-0xa0(%rbp), %rax
   1d7d1: 48 89 85 78 ff ff ff         	movq	%rax, -0x88(%rbp)
   1d7d8: 4c 89 f0                     	movq	%r14, %rax
   1d7db: 4c 89 75 80                  	movq	%r14, -0x80(%rbp)
   1d7df: 4c 89 4d 88                  	movq	%r9, -0x78(%rbp)
   1d7e3: 48 8b 85 48 ff ff ff         	movq	-0xb8(%rbp), %rax
   1d7ea: 48 89 45 90                  	movq	%rax, -0x70(%rbp)
   1d7ee: 48 8b 85 58 ff ff ff         	movq	-0xa8(%rbp), %rax
   1d7f5: 48 89 45 98                  	movq	%rax, -0x68(%rbp)
   1d7f9: 48 8b 85 30 ff ff ff         	movq	-0xd0(%rbp), %rax
   1d800: 48 89 45 a0                  	movq	%rax, -0x60(%rbp)
   1d804: 48 8b 85 28 ff ff ff         	movq	-0xd8(%rbp), %rax
   1d80b: 48 89 45 a8                  	movq	%rax, -0x58(%rbp)
   1d80f: 48 8b 85 40 ff ff ff         	movq	-0xc0(%rbp), %rax
   1d816: 48 89 45 b0                  	movq	%rax, -0x50(%rbp)
   1d81a: 48 8b 85 08 ff ff ff         	movq	-0xf8(%rbp), %rax
   1d821: 48 8b 8d 10 ff ff ff         	movq	-0xf0(%rbp), %rcx
   1d828: 48 89 4d b8                  	movq	%rcx, -0x48(%rbp)
   1d82c: 48 8b 8d 20 ff ff ff         	movq	-0xe0(%rbp), %rcx
   1d833: 48 89 4d c0                  	movq	%rcx, -0x40(%rbp)
   1d837: 4c 8b 9d 18 ff ff ff         	movq	-0xe8(%rbp), %r11
   1d83e: 4c 8b bd f8 fe ff ff         	movq	-0x108(%rbp), %r15
   1d845: 4c 8b ad f0 fe ff ff         	movq	-0x110(%rbp), %r13
   1d84c: 48 8b 9d 00 ff ff ff         	movq	-0x100(%rbp), %rbx
   1d853: 4c 8b 95 38 ff ff ff         	movq	-0xc8(%rbp), %r10
   1d85a: 48 ba 08 bf 53 4c b3 ef 7d 17	movabsq	$0x177defb34c53bf08, %rdx # imm = 0x177DEFB34C53BF08
   1d864: 49 bc 17 2c 41 ba 3a 03 6f 72	movabsq	$0x726f033aba412c17, %r12 # imm = 0x726F033ABA412C17
   1d86e: 4c 39 a5 68 ff ff ff         	cmpq	%r12, -0x98(%rbp)
   1d875: 0f 84 b2 c3 ff ff            	je	0x19c2d <.text+0xb4ad>
   1d87b: 48 b8 43 95 7e cf d7 5f 99 73	movabsq	$0x73995fd7cf7e9543, %rax # imm = 0x73995FD7CF7E9543
   1d885: 48 39 85 68 ff ff ff         	cmpq	%rax, -0x98(%rbp)
   1d88c: 0f 84 4f 2b 00 00            	je	0x203e1 <.text+0x11c61>
   1d892: 8a 45 ce                     	movb	-0x32(%rbp), %al
   1d895: 88 45 cf                     	movb	%al, -0x31(%rbp)
   1d898: 8a 45 cd                     	movb	-0x33(%rbp), %al
   1d89b: 89 c6                        	movl	%eax, %esi
   1d89d: 48 8b 85 50 ff ff ff         	movq	-0xb0(%rbp), %rax
   1d8a4: 48 89 85 70 ff ff ff         	movq	%rax, -0x90(%rbp)
   1d8ab: 48 8b 85 60 ff ff ff         	movq	-0xa0(%rbp), %rax
   1d8b2: 48 89 85 78 ff ff ff         	movq	%rax, -0x88(%rbp)
   1d8b9: 4c 89 f0                     	movq	%r14, %rax
   1d8bc: 4c 89 75 80                  	movq	%r14, -0x80(%rbp)
   1d8c0: 4c 89 4d 88                  	movq	%r9, -0x78(%rbp)
   1d8c4: 48 8b 85 48 ff ff ff         	movq	-0xb8(%rbp), %rax
   1d8cb: 48 89 45 90                  	movq	%rax, -0x70(%rbp)
   1d8cf: 48 8b 85 58 ff ff ff         	movq	-0xa8(%rbp), %rax
   1d8d6: 48 89 45 98                  	movq	%rax, -0x68(%rbp)
   1d8da: 48 8b 85 30 ff ff ff         	movq	-0xd0(%rbp), %rax
   1d8e1: 48 89 45 a0                  	movq	%rax, -0x60(%rbp)
   1d8e5: 48 8b 85 28 ff ff ff         	movq	-0xd8(%rbp), %rax
   1d8ec: 48 89 45 a8                  	movq	%rax, -0x58(%rbp)
   1d8f0: 48 8b 85 40 ff ff ff         	movq	-0xc0(%rbp), %rax
   1d8f7: 48 89 45 b0                  	movq	%rax, -0x50(%rbp)
   1d8fb: 48 8b 85 08 ff ff ff         	movq	-0xf8(%rbp), %rax
   1d902: 48 8b 8d 10 ff ff ff         	movq	-0xf0(%rbp), %rcx
   1d909: 48 89 4d b8                  	movq	%rcx, -0x48(%rbp)
   1d90d: 48 8b 8d 20 ff ff ff         	movq	-0xe0(%rbp), %rcx
   1d914: 48 89 4d c0                  	movq	%rcx, -0x40(%rbp)
   1d918: 4c 8b 9d 18 ff ff ff         	movq	-0xe8(%rbp), %r11
   1d91f: 4c 8b bd f8 fe ff ff         	movq	-0x108(%rbp), %r15
   1d926: 4c 8b ad f0 fe ff ff         	movq	-0x110(%rbp), %r13
   1d92d: 48 8b 9d 00 ff ff ff         	movq	-0x100(%rbp), %rbx
   1d934: 4c 8b 95 38 ff ff ff         	movq	-0xc8(%rbp), %r10
   1d93b: 48 ba fa b1 98 15 30 41 c0 e2	movabsq	$-0x1d3fbecfea674e06, %rdx # imm = 0xE2C041301598B1FA
   1d945: 49 bc 2c 74 6e 7a 89 e0 a9 73	movabsq	$0x73a9e0897a6e742c, %r12 # imm = 0x73A9E0897A6E742C
   1d94f: 4c 39 a5 68 ff ff ff         	cmpq	%r12, -0x98(%rbp)
   1d956: 0f 84 d1 c2 ff ff            	je	0x19c2d <.text+0xb4ad>
   1d95c: 8a 45 ce                     	movb	-0x32(%rbp), %al
   1d95f: 88 45 cf                     	movb	%al, -0x31(%rbp)
   1d962: 8a 45 cd                     	movb	-0x33(%rbp), %al
   1d965: 89 c6                        	movl	%eax, %esi
   1d967: 48 8b 85 50 ff ff ff         	movq	-0xb0(%rbp), %rax
   1d96e: 48 89 85 70 ff ff ff         	movq	%rax, -0x90(%rbp)
   1d975: 48 8b 85 60 ff ff ff         	movq	-0xa0(%rbp), %rax
   1d97c: 48 89 85 78 ff ff ff         	movq	%rax, -0x88(%rbp)
   1d983: 4c 89 f0                     	movq	%r14, %rax
   1d986: 4c 89 75 80                  	movq	%r14, -0x80(%rbp)
   1d98a: 4c 89 4d 88                  	movq	%r9, -0x78(%rbp)
   1d98e: 48 8b 85 48 ff ff ff         	movq	-0xb8(%rbp), %rax
   1d995: 48 89 45 90                  	movq	%rax, -0x70(%rbp)
   1d999: 48 8b 85 58 ff ff ff         	movq	-0xa8(%rbp), %rax
   1d9a0: 48 89 45 98                  	movq	%rax, -0x68(%rbp)
   1d9a4: 48 8b 85 30 ff ff ff         	movq	-0xd0(%rbp), %rax
   1d9ab: 48 89 45 a0                  	movq	%rax, -0x60(%rbp)
   1d9af: 48 8b 85 28 ff ff ff         	movq	-0xd8(%rbp), %rax
   1d9b6: 48 89 45 a8                  	movq	%rax, -0x58(%rbp)
   1d9ba: 48 8b 85 40 ff ff ff         	movq	-0xc0(%rbp), %rax
   1d9c1: 48 89 45 b0                  	movq	%rax, -0x50(%rbp)
   1d9c5: 48 8b 85 08 ff ff ff         	movq	-0xf8(%rbp), %rax
   1d9cc: 48 8b 8d 10 ff ff ff         	movq	-0xf0(%rbp), %rcx
   1d9d3: 48 89 4d b8                  	movq	%rcx, -0x48(%rbp)
   1d9d7: 48 8b 8d 20 ff ff ff         	movq	-0xe0(%rbp), %rcx
   1d9de: 48 89 4d c0                  	movq	%rcx, -0x40(%rbp)
   1d9e2: 4c 8b 9d 18 ff ff ff         	movq	-0xe8(%rbp), %r11
   1d9e9: 4c 8b bd f8 fe ff ff         	movq	-0x108(%rbp), %r15
   1d9f0: 4c 8b ad f0 fe ff ff         	movq	-0x110(%rbp), %r13
   1d9f7: 48 8b 9d 00 ff ff ff         	movq	-0x100(%rbp), %rbx
   1d9fe: 4c 8b 95 38 ff ff ff         	movq	-0xc8(%rbp), %r10
   1da05: 48 ba 01 e1 5e 0e ec c6 64 38	movabsq	$0x3864c6ec0e5ee101, %rdx # imm = 0x3864C6EC0E5EE101
   1da0f: 49 bc 7e 09 3c f6 5b f6 56 76	movabsq	$0x7656f65bf63c097e, %r12 # imm = 0x7656F65BF63C097E
   1da19: 4c 39 a5 68 ff ff ff         	cmpq	%r12, -0x98(%rbp)
   1da20: 0f 84 07 c2 ff ff            	je	0x19c2d <.text+0xb4ad>
   1da26: 48 b8 9d 0f 45 29 85 65 6c 76	movabsq	$0x766c658529450f9d, %rax # imm = 0x766C658529450F9D
   1da30: 48 39 85 68 ff ff ff         	cmpq	%rax, -0x98(%rbp)
   1da37: 0f 84 fd 24 00 00            	je	0x1ff3a <.text+0x117ba>
   1da3d: 48 b8 c0 25 03 0f ff 6e af 76	movabsq	$0x76af6eff0f0325c0, %rax # imm = 0x76AF6EFF0F0325C0
   1da47: 48 39 85 68 ff ff ff         	cmpq	%rax, -0x98(%rbp)
   1da4e: 40 8a 75 cd                  	movb	-0x33(%rbp), %sil
   1da52: 4c 8b 95 38 ff ff ff         	movq	-0xc8(%rbp), %r10
   1da59: 48 8b 9d 00 ff ff ff         	movq	-0x100(%rbp), %rbx
   1da60: 4c 8b ad f0 fe ff ff         	movq	-0x110(%rbp), %r13
   1da67: 4c 8b bd f8 fe ff ff         	movq	-0x108(%rbp), %r15
   1da6e: 4c 8b 8d 18 ff ff ff         	movq	-0xe8(%rbp), %r9
   1da75: 4c 8b 85 20 ff ff ff         	movq	-0xe0(%rbp), %r8
   1da7c: 48 8b bd 10 ff ff ff         	movq	-0xf0(%rbp), %rdi
   1da83: 4c 8b a5 08 ff ff ff         	movq	-0xf8(%rbp), %r12
   1da8a: 4c 8b 9d 28 ff ff ff         	movq	-0xd8(%rbp), %r11
   1da91: 48 8b 95 30 ff ff ff         	movq	-0xd0(%rbp), %rdx
   1da98: 0f 84 f4 21 00 00            	je	0x1fc92 <.text+0x11512>
   1da9e: 48 b8 46 eb 53 bf 65 8c f7 77	movabsq	$0x77f78c65bf53eb46, %rax # imm = 0x77F78C65BF53EB46
   1daa8: 48 39 85 68 ff ff ff         	cmpq	%rax, -0x98(%rbp)
   1daaf: 0f 84 b1 15 00 00            	je	0x1f066 <.text+0x108e6>
   1dab5: 48 b8 02 84 46 ec 12 00 d3 79	movabsq	$0x79d30012ec468402, %rax # imm = 0x79D30012EC468402
   1dabf: 48 39 85 68 ff ff ff         	cmpq	%rax, -0x98(%rbp)
   1dac6: 0f 84 57 25 00 00            	je	0x20023 <.text+0x118a3>
   1dacc: 48 b8 73 ca 09 20 fe d1 de 7b	movabsq	$0x7bded1fe2009ca73, %rax # imm = 0x7BDED1FE2009CA73
   1dad6: 48 39 85 68 ff ff ff         	cmpq	%rax, -0x98(%rbp)
   1dadd: 0f 84 f6 20 00 00            	je	0x1fbd9 <.text+0x11459>
   1dae3: 48 b8 31 c4 bf 8b a2 c7 0c 7c	movabsq	$0x7c0cc7a28bbfc431, %rax # imm = 0x7C0CC7A28BBFC431
   1daed: 48 39 85 68 ff ff ff         	cmpq	%rax, -0x98(%rbp)
   1daf4: 0f 84 9c 17 00 00            	je	0x1f296 <.text+0x10b16>
   1dafa: 8a 45 ce                     	movb	-0x32(%rbp), %al
   1dafd: 88 45 cf                     	movb	%al, -0x31(%rbp)
   1db00: 48 8b 85 50 ff ff ff         	movq	-0xb0(%rbp), %rax
   1db07: 48 89 85 70 ff ff ff         	movq	%rax, -0x90(%rbp)
   1db0e: 48 8b 85 60 ff ff ff         	movq	-0xa0(%rbp), %rax
   1db15: 48 89 85 78 ff ff ff         	movq	%rax, -0x88(%rbp)
   1db1c: 4c 8b b5 e0 fe ff ff         	movq	-0x120(%rbp), %r14
   1db23: 4c 89 f0                     	movq	%r14, %rax
   1db26: 4c 89 75 80                  	movq	%r14, -0x80(%rbp)
   1db2a: 48 8b 8d e8 fe ff ff         	movq	-0x118(%rbp), %rcx
   1db31: 48 89 4d 88                  	movq	%rcx, -0x78(%rbp)
   1db35: 48 8b 85 48 ff ff ff         	movq	-0xb8(%rbp), %rax
   1db3c: 48 89 45 90                  	movq	%rax, -0x70(%rbp)
   1db40: 48 8b 85 58 ff ff ff         	movq	-0xa8(%rbp), %rax
   1db47: 48 89 45 98                  	movq	%rax, -0x68(%rbp)
   1db4b: 48 89 55 a0                  	movq	%rdx, -0x60(%rbp)
   1db4f: 4c 89 5d a8                  	movq	%r11, -0x58(%rbp)
   1db53: 48 8b 85 40 ff ff ff         	movq	-0xc0(%rbp), %rax
   1db5a: 48 89 45 b0                  	movq	%rax, -0x50(%rbp)
   1db5e: 4c 89 e0                     	movq	%r12, %rax
   1db61: 48 89 7d b8                  	movq	%rdi, -0x48(%rbp)
   1db65: 4c 89 45 c0                  	movq	%r8, -0x40(%rbp)
   1db69: 4d 89 cb                     	movq	%r9, %r11
   1db6c: 48 ba 5b 1b a8 e1 5c b0 4b b5	movabsq	$-0x4ab44fa31e57e4a5, %rdx # imm = 0xB54BB05CE1A81B5B
   1db76: 49 bc d4 d3 3d f2 04 57 b3 7c	movabsq	$0x7cb35704f23dd3d4, %r12 # imm = 0x7CB35704F23DD3D4
   1db80: 4c 39 a5 68 ff ff ff         	cmpq	%r12, -0x98(%rbp)
   1db87: 0f 84 a0 c0 ff ff            	je	0x19c2d <.text+0xb4ad>
   1db8d: 4d 89 f0                     	movq	%r14, %r8
   1db90: 49 89 c9                     	movq	%rcx, %r9
   1db93: 8a 45 ce                     	movb	-0x32(%rbp), %al
   1db96: 88 45 cf                     	movb	%al, -0x31(%rbp)
   1db99: 8a 45 cd                     	movb	-0x33(%rbp), %al
   1db9c: 89 c6                        	movl	%eax, %esi
   1db9e: 48 8b 85 50 ff ff ff         	movq	-0xb0(%rbp), %rax
   1dba5: 48 89 85 70 ff ff ff         	movq	%rax, -0x90(%rbp)
   1dbac: 48 8b 85 60 ff ff ff         	movq	-0xa0(%rbp), %rax
   1dbb3: 48 89 85 78 ff ff ff         	movq	%rax, -0x88(%rbp)
   1dbba: 4c 89 f0                     	movq	%r14, %rax
   1dbbd: 4c 89 45 80                  	movq	%r8, -0x80(%rbp)
   1dbc1: 48 89 4d 88                  	movq	%rcx, -0x78(%rbp)
   1dbc5: 48 8b 85 48 ff ff ff         	movq	-0xb8(%rbp), %rax
   1dbcc: 48 89 45 90                  	movq	%rax, -0x70(%rbp)
   1dbd0: 48 8b 85 58 ff ff ff         	movq	-0xa8(%rbp), %rax
   1dbd7: 48 89 45 98                  	movq	%rax, -0x68(%rbp)
   1dbdb: 48 8b 85 30 ff ff ff         	movq	-0xd0(%rbp), %rax
   1dbe2: 48 89 45 a0                  	movq	%rax, -0x60(%rbp)
   1dbe6: 48 8b 85 28 ff ff ff         	movq	-0xd8(%rbp), %rax
   1dbed: 48 89 45 a8                  	movq	%rax, -0x58(%rbp)
   1dbf1: 48 8b 85 40 ff ff ff         	movq	-0xc0(%rbp), %rax
   1dbf8: 48 89 45 b0                  	movq	%rax, -0x50(%rbp)
   1dbfc: 48 8b 85 08 ff ff ff         	movq	-0xf8(%rbp), %rax
   1dc03: 48 8b 8d 10 ff ff ff         	movq	-0xf0(%rbp), %rcx
   1dc0a: 48 89 4d b8                  	movq	%rcx, -0x48(%rbp)
   1dc0e: 48 8b 8d 20 ff ff ff         	movq	-0xe0(%rbp), %rcx
   1dc15: 48 89 4d c0                  	movq	%rcx, -0x40(%rbp)
   1dc19: 4c 8b 9d 18 ff ff ff         	movq	-0xe8(%rbp), %r11
   1dc20: 4c 8b bd f8 fe ff ff         	movq	-0x108(%rbp), %r15
   1dc27: 4c 8b ad f0 fe ff ff         	movq	-0x110(%rbp), %r13
   1dc2e: 48 8b 9d 00 ff ff ff         	movq	-0x100(%rbp), %rbx
   1dc35: 4c 8b 95 38 ff ff ff         	movq	-0xc8(%rbp), %r10
   1dc3c: 48 ba ab 05 b0 c2 ba 26 31 8f	movabsq	$-0x70ced9453d4ffa55, %rdx # imm = 0x8F3126BAC2B005AB
   1dc46: 49 bc 82 2a fa 41 99 4e b6 7c	movabsq	$0x7cb64e9941fa2a82, %r12 # imm = 0x7CB64E9941FA2A82
   1dc50: 4c 39 a5 68 ff ff ff         	cmpq	%r12, -0x98(%rbp)
   1dc57: 0f 84 d0 bf ff ff            	je	0x19c2d <.text+0xb4ad>
   1dc5d: 48 b8 f9 ee 42 72 b3 88 c4 7e	movabsq	$0x7ec488b37242eef9, %rax # imm = 0x7EC488B37242EEF9
   1dc67: 48 39 85 68 ff ff ff         	cmpq	%rax, -0x98(%rbp)
   1dc6e: 0f 84 e1 17 00 00            	je	0x1f455 <.text+0x10cd5>
   1dc74: 48 b8 fa 4e 00 7d e8 88 ed 7f	movabsq	$0x7fed88e87d004efa, %rax # imm = 0x7FED88E87D004EFA
   1dc7e: 48 39 85 68 ff ff ff         	cmpq	%rax, -0x98(%rbp)
   1dc85: 44 8a 75 cd                  	movb	-0x33(%rbp), %r14b
   1dc89: 4c 8b 95 38 ff ff ff         	movq	-0xc8(%rbp), %r10
   1dc90: 48 8b 8d 00 ff ff ff         	movq	-0x100(%rbp), %rcx
   1dc97: 4c 8b ad f0 fe ff ff         	movq	-0x110(%rbp), %r13
   1dc9e: 4c 8b bd f8 fe ff ff         	movq	-0x108(%rbp), %r15
   1dca5: 48 8b 9d 18 ff ff ff         	movq	-0xe8(%rbp), %rbx
   1dcac: 48 8b b5 20 ff ff ff         	movq	-0xe0(%rbp), %rsi
   1dcb3: 48 8b bd 10 ff ff ff         	movq	-0xf0(%rbp), %rdi
   1dcba: 4c 8b a5 08 ff ff ff         	movq	-0xf8(%rbp), %r12
   1dcc1: 4c 8b 9d 28 ff ff ff         	movq	-0xd8(%rbp), %r11
   1dcc8: 48 8b 95 30 ff ff ff         	movq	-0xd0(%rbp), %rdx
   1dccf: 0f 84 37 19 00 00            	je	0x1f60c <.text+0x10e8c>
   1dcd5: 8a 45 ce                     	movb	-0x32(%rbp), %al
   1dcd8: 88 45 cf                     	movb	%al, -0x31(%rbp)
   1dcdb: 48 8b 85 50 ff ff ff         	movq	-0xb0(%rbp), %rax
   1dce2: 48 89 85 70 ff ff ff         	movq	%rax, -0x90(%rbp)
   1dce9: 48 8b 85 60 ff ff ff         	movq	-0xa0(%rbp), %rax
   1dcf0: 48 89 85 78 ff ff ff         	movq	%rax, -0x88(%rbp)
   1dcf7: 4c 89 c0                     	movq	%r8, %rax
   1dcfa: 4c 89 45 80                  	movq	%r8, -0x80(%rbp)
   1dcfe: 4c 89 4d 88                  	movq	%r9, -0x78(%rbp)
   1dd02: 48 8b 85 48 ff ff ff         	movq	-0xb8(%rbp), %rax
   1dd09: 48 89 45 90                  	movq	%rax, -0x70(%rbp)
   1dd0d: 48 8b 85 58 ff ff ff         	movq	-0xa8(%rbp), %rax
   1dd14: 48 89 45 98                  	movq	%rax, -0x68(%rbp)
   1dd18: 48 89 55 a0                  	movq	%rdx, -0x60(%rbp)
   1dd1c: 4c 89 5d a8                  	movq	%r11, -0x58(%rbp)
   1dd20: 48 8b 85 40 ff ff ff         	movq	-0xc0(%rbp), %rax
   1dd27: 48 89 45 b0                  	movq	%rax, -0x50(%rbp)
   1dd2b: 4c 89 e0                     	movq	%r12, %rax
   1dd2e: 48 89 7d b8                  	movq	%rdi, -0x48(%rbp)
   1dd32: 48 89 75 c0                  	movq	%rsi, -0x40(%rbp)
   1dd36: 49 89 db                     	movq	%rbx, %r11
   1dd39: 48 89 cb                     	movq	%rcx, %rbx
   1dd3c: 44 89 f6                     	movl	%r14d, %esi
   1dd3f: 48 8b 8d 68 ff ff ff         	movq	-0x98(%rbp), %rcx
   1dd46: 48 89 ca                     	movq	%rcx, %rdx
   1dd49: 49 bc 8a 05 1f a3 bd 6a 5e a9	movabsq	$-0x56a195425ce0fa76, %r12 # imm = 0xA95E6ABDA31F058A
   1dd53: 4c 39 e1                     	cmpq	%r12, %rcx
   1dd56: 0f 85 d1 be ff ff            	jne	0x19c2d <.text+0xb4ad>
   1dd5c: e9 d0 4d 00 00               	jmp	0x22b31 <.text+0x143b1>
   1dd61: 4c 8b a5 48 ff ff ff         	movq	-0xb8(%rbp), %r12
   1dd68: 48 ba 04 3c 23 00 d6 21 d6 10	movabsq	$0x10d621d600233c04, %rdx # imm = 0x10D621D600233C04
   1dd72: 4c 8b b5 90 fd ff ff         	movq	-0x270(%rbp), %r14
   1dd79: 4d 85 f6                     	testq	%r14, %r14
   1dd7c: 74 0a                        	je	0x1dd88 <.text+0xf608>
   1dd7e: 48 ba 0b 28 6e b6 97 f7 49 4d	movabsq	$0x4d49f797b66e280b, %rdx # imm = 0x4D49F797B66E280B
   1dd88: 44 8a 5d ce                  	movb	-0x32(%rbp), %r11b
   1dd8c: 44 88 5d cf                  	movb	%r11b, -0x31(%rbp)
   1dd90: 4c 8b 9d 50 ff ff ff         	movq	-0xb0(%rbp), %r11
   1dd97: 4c 89 9d 70 ff ff ff         	movq	%r11, -0x90(%rbp)
   1dd9e: 4c 8b 9d 60 ff ff ff         	movq	-0xa0(%rbp), %r11
   1dda5: 4c 89 9d 78 ff ff ff         	movq	%r11, -0x88(%rbp)
   1ddac: 4c 8b 9d e0 fe ff ff         	movq	-0x120(%rbp), %r11
   1ddb3: 4c 89 5d 80                  	movq	%r11, -0x80(%rbp)
   1ddb7: 4c 8b 9d e8 fe ff ff         	movq	-0x118(%rbp), %r11
   1ddbe: 4c 89 5d 88                  	movq	%r11, -0x78(%rbp)
   1ddc2: 4c 89 65 90                  	movq	%r12, -0x70(%rbp)
   1ddc6: 4c 8b 9d 58 ff ff ff         	movq	-0xa8(%rbp), %r11
   1ddcd: 4c 89 5d 98                  	movq	%r11, -0x68(%rbp)
   1ddd1: 4c 8b 9d 30 ff ff ff         	movq	-0xd0(%rbp), %r11
   1ddd8: 4c 89 5d a0                  	movq	%r11, -0x60(%rbp)
   1dddc: 4c 8b 9d 28 ff ff ff         	movq	-0xd8(%rbp), %r11
   1dde3: 4c 89 5d a8                  	movq	%r11, -0x58(%rbp)
   1dde7: 48 89 45 b0                  	movq	%rax, -0x50(%rbp)
   1ddeb: 48 89 c8                     	movq	%rcx, %rax
   1ddee: 48 89 7d b8                  	movq	%rdi, -0x48(%rbp)
   1ddf2: 4c 89 45 c0                  	movq	%r8, -0x40(%rbp)
   1ddf6: 4d 89 cb                     	movq	%r9, %r11
   1ddf9: 4c 89 b5 70 fc ff ff         	movq	%r14, -0x390(%rbp)
   1de00: 4c 8b b5 98 fd ff ff         	movq	-0x268(%rbp), %r14
   1de07: 4c 89 b5 20 fd ff ff         	movq	%r14, -0x2e0(%rbp)
   1de0e: 4c 8b b5 88 fd ff ff         	movq	-0x278(%rbp), %r14
   1de15: 4c 89 b5 28 fd ff ff         	movq	%r14, -0x2d8(%rbp)
   1de1c: e9 0c be ff ff               	jmp	0x19c2d <.text+0xb4ad>
   1de21: 48 8b bd b0 fe ff ff         	movq	-0x150(%rbp), %rdi
   1de28: e8 43 4a 11 00               	callq	0x132870 <strdup@plt>
   1de2d: 48 8b 8d 70 fe ff ff         	movq	-0x190(%rbp), %rcx
   1de34: 48 89 01                     	movq	%rax, (%rcx)
   1de37: 48 ba c4 a9 c2 35 35 12 74 90	movabsq	$-0x6f8bedcaca3d563c, %rdx # imm = 0x9074123535C2A9C4
   1de41: 48 85 c0                     	testq	%rax, %rax
   1de44: 40 8a 75 cd                  	movb	-0x33(%rbp), %sil
   1de48: 4c 8b 95 38 ff ff ff         	movq	-0xc8(%rbp), %r10
   1de4f: 48 8b 9d 00 ff ff ff         	movq	-0x100(%rbp), %rbx
   1de56: 4c 8b ad f0 fe ff ff         	movq	-0x110(%rbp), %r13
   1de5d: 4c 8b bd f8 fe ff ff         	movq	-0x108(%rbp), %r15
   1de64: 4c 8b 8d 18 ff ff ff         	movq	-0xe8(%rbp), %r9
   1de6b: 4c 8b 85 20 ff ff ff         	movq	-0xe0(%rbp), %r8
   1de72: 48 8b bd 10 ff ff ff         	movq	-0xf0(%rbp), %rdi
   1de79: 48 8b 8d 08 ff ff ff         	movq	-0xf8(%rbp), %rcx
   1de80: 48 8b 85 40 ff ff ff         	movq	-0xc0(%rbp), %rax
   1de87: 0f 84 2c 49 00 00            	je	0x227b9 <.text+0x14039>
   1de8d: 48 ba 9d 41 b3 b6 a8 67 71 fa	movabsq	$-0x58e9857494cbe63, %rdx # imm = 0xFA7167A8B6B3419D
   1de97: e9 1d 49 00 00               	jmp	0x227b9 <.text+0x14039>
   1de9c: 4c 8b 9d 48 ff ff ff         	movq	-0xb8(%rbp), %r11
   1dea3: 48 8b 85 b8 fe ff ff         	movq	-0x148(%rbp), %rax
   1deaa: 4c 8b b5 60 fc ff ff         	movq	-0x3a0(%rbp), %r14
   1deb1: 42 8a 44 30 ff               	movb	-0x1(%rax,%r14), %al
   1deb6: 48 ba 6b 6b 81 6b 0e 25 3f 9c	movabsq	$-0x63c0daf1947e9495, %rdx # imm = 0x9C3F250E6B816B6B
   1dec0: 48 8b 8d 68 fe ff ff         	movq	-0x198(%rbp), %rcx
   1dec7: 42 3a 44 31 ff               	cmpb	-0x1(%rcx,%r14), %al
   1decc: 74 0a                        	je	0x1ded8 <.text+0xf758>
   1dece: 48 ba a3 4e 31 e2 8a 62 51 f1	movabsq	$-0xeae9d751dceb15d, %rdx # imm = 0xF151628AE2314EA3
   1ded8: 8a 45 ce                     	movb	-0x32(%rbp), %al
   1dedb: 88 45 cf                     	movb	%al, -0x31(%rbp)
   1dede: 48 8b 85 50 ff ff ff         	movq	-0xb0(%rbp), %rax
   1dee5: 48 89 85 70 ff ff ff         	movq	%rax, -0x90(%rbp)
   1deec: 48 8b 85 60 ff ff ff         	movq	-0xa0(%rbp), %rax
   1def3: 48 89 85 78 ff ff ff         	movq	%rax, -0x88(%rbp)
   1defa: 48 8b 85 e0 fe ff ff         	movq	-0x120(%rbp), %rax
   1df01: 48 89 45 80                  	movq	%rax, -0x80(%rbp)
   1df05: 48 8b 85 e8 fe ff ff         	movq	-0x118(%rbp), %rax
   1df0c: 48 89 45 88                  	movq	%rax, -0x78(%rbp)
   1df10: 4c 89 5d 90                  	movq	%r11, -0x70(%rbp)
   1df14: 48 8b 85 58 ff ff ff         	movq	-0xa8(%rbp), %rax
   1df1b: 48 89 45 98                  	movq	%rax, -0x68(%rbp)
   1df1f: 48 8b 85 30 ff ff ff         	movq	-0xd0(%rbp), %rax
   1df26: 48 89 45 a0                  	movq	%rax, -0x60(%rbp)
   1df2a: 48 8b 85 28 ff ff ff         	movq	-0xd8(%rbp), %rax
   1df31: 48 89 45 a8                  	movq	%rax, -0x58(%rbp)
   1df35: 48 8b 85 40 ff ff ff         	movq	-0xc0(%rbp), %rax
   1df3c: 48 89 45 b0                  	movq	%rax, -0x50(%rbp)
   1df40: 4c 89 e0                     	movq	%r12, %rax
   1df43: 48 89 7d b8                  	movq	%rdi, -0x48(%rbp)
   1df47: 4c 89 45 c0                  	movq	%r8, -0x40(%rbp)
   1df4b: 4d 89 cb                     	movq	%r9, %r11
   1df4e: 49 ff ce                     	decq	%r14
   1df51: 4c 89 b5 f0 fb ff ff         	movq	%r14, -0x410(%rbp)
   1df58: e9 d0 bc ff ff               	jmp	0x19c2d <.text+0xb4ad>
   1df5d: 48 8b 85 98 fc ff ff         	movq	-0x368(%rbp), %rax
   1df64: 8a 00                        	movb	(%rax), %al
   1df66: 48 ba 7e 09 3c f6 5b f6 56 76	movabsq	$0x7656f65bf63c097e, %rdx # imm = 0x7656F65BF63C097E
   1df70: 88 85 d9 fe ff ff            	movb	%al, -0x127(%rbp)
   1df76: 84 c0                        	testb	%al, %al
   1df78: 40 8a 75 cd                  	movb	-0x33(%rbp), %sil
   1df7c: 4c 8b 95 38 ff ff ff         	movq	-0xc8(%rbp), %r10
   1df83: 48 8b 9d 00 ff ff ff         	movq	-0x100(%rbp), %rbx
   1df8a: 4c 8b ad f0 fe ff ff         	movq	-0x110(%rbp), %r13
   1df91: 4c 8b bd f8 fe ff ff         	movq	-0x108(%rbp), %r15
   1df98: 4c 8b 8d 18 ff ff ff         	movq	-0xe8(%rbp), %r9
   1df9f: 4c 8b 85 20 ff ff ff         	movq	-0xe0(%rbp), %r8
   1dfa6: 48 8b bd 10 ff ff ff         	movq	-0xf0(%rbp), %rdi
   1dfad: 48 8b 8d 08 ff ff ff         	movq	-0xf8(%rbp), %rcx
   1dfb4: 48 8b 85 40 ff ff ff         	movq	-0xc0(%rbp), %rax
   1dfbb: 0f 84 f8 47 00 00            	je	0x227b9 <.text+0x14039>
   1dfc1: 48 ba d3 f7 5b 43 e3 71 bb b0	movabsq	$-0x4f448e1cbca4082d, %rdx # imm = 0xB0BB71E3435BF7D3
   1dfcb: e9 e9 47 00 00               	jmp	0x227b9 <.text+0x14039>
   1dfd0: 81 35 36 db 11 00 29 29 29 29	xorl	$0x29292929, 0x11db36(%rip) # imm = 0x29292929
                                                                        # 0x13bb10
   1dfda: c6 05 54 0d 12 00 01         	movb	$0x1, 0x120d54(%rip)    # 0x13ed35
   1dfe1: 8a 45 ce                     	movb	-0x32(%rbp), %al
   1dfe4: 88 45 cf                     	movb	%al, -0x31(%rbp)
   1dfe7: 48 8b 85 50 ff ff ff         	movq	-0xb0(%rbp), %rax
   1dfee: 48 89 85 70 ff ff ff         	movq	%rax, -0x90(%rbp)
   1dff5: 48 8b 85 60 ff ff ff         	movq	-0xa0(%rbp), %rax
   1dffc: 48 89 85 78 ff ff ff         	movq	%rax, -0x88(%rbp)
   1e003: 48 89 c8                     	movq	%rcx, %rax
   1e006: 48 89 4d 80                  	movq	%rcx, -0x80(%rbp)
   1e00a: 4c 89 4d 88                  	movq	%r9, -0x78(%rbp)
   1e00e: 48 8b 85 48 ff ff ff         	movq	-0xb8(%rbp), %rax
   1e015: 48 89 45 90                  	movq	%rax, -0x70(%rbp)
   1e019: 48 8b 85 58 ff ff ff         	movq	-0xa8(%rbp), %rax
   1e020: 48 89 45 98                  	movq	%rax, -0x68(%rbp)
   1e024: 48 8b 85 30 ff ff ff         	movq	-0xd0(%rbp), %rax
   1e02b: 48 89 45 a0                  	movq	%rax, -0x60(%rbp)
   1e02f: 48 8b 85 28 ff ff ff         	movq	-0xd8(%rbp), %rax
   1e036: 48 89 45 a8                  	movq	%rax, -0x58(%rbp)
   1e03a: 48 8b 85 40 ff ff ff         	movq	-0xc0(%rbp), %rax
   1e041: 48 89 45 b0                  	movq	%rax, -0x50(%rbp)
   1e045: 48 8b 85 08 ff ff ff         	movq	-0xf8(%rbp), %rax
   1e04c: 48 8b 8d 10 ff ff ff         	movq	-0xf0(%rbp), %rcx
   1e053: 48 89 4d b8                  	movq	%rcx, -0x48(%rbp)
   1e057: 48 8b 8d 20 ff ff ff         	movq	-0xe0(%rbp), %rcx
   1e05e: 48 89 4d c0                  	movq	%rcx, -0x40(%rbp)
   1e062: 4c 8b 9d 18 ff ff ff         	movq	-0xe8(%rbp), %r11
   1e069: 4c 8b bd f8 fe ff ff         	movq	-0x108(%rbp), %r15
   1e070: 4c 8b ad f0 fe ff ff         	movq	-0x110(%rbp), %r13
   1e077: 48 8b 9d 00 ff ff ff         	movq	-0x100(%rbp), %rbx
   1e07e: 4c 8b 95 38 ff ff ff         	movq	-0xc8(%rbp), %r10
   1e085: 8a 55 cd                     	movb	-0x33(%rbp), %dl
   1e088: 89 d6                        	movl	%edx, %esi
   1e08a: 48 ba 62 b7 3f a4 74 ef fe c1	movabsq	$-0x3e01108b5bc0489e, %rdx # imm = 0xC1FEEF74A43FB762
   1e094: e9 94 bb ff ff               	jmp	0x19c2d <.text+0xb4ad>
   1e099: 48 8b 85 b8 fe ff ff         	movq	-0x148(%rbp), %rax
   1e0a0: 8a 00                        	movb	(%rax), %al
   1e0a2: 48 ba 6d bd a5 e5 0c 97 89 86	movabsq	$-0x797668f31a5a4293, %rdx # imm = 0x8689970CE5A5BD6D
   1e0ac: 88 85 de fe ff ff            	movb	%al, -0x122(%rbp)
   1e0b2: 84 c0                        	testb	%al, %al
   1e0b4: 0f 84 a4 47 00 00            	je	0x2285e <.text+0x140de>
   1e0ba: 48 ba fd ec 04 1c 83 a3 e7 c8	movabsq	$-0x37185c7ce3fb1303, %rdx # imm = 0xC8E7A3831C04ECFD
   1e0c4: e9 95 47 00 00               	jmp	0x2285e <.text+0x140de>
   1e0c9: 48 8b 85 c8 fd ff ff         	movq	-0x238(%rbp), %rax
   1e0d0: c7 00 08 00 00 00            	movl	$0x8, (%rax)
   1e0d6: 8a 45 ce                     	movb	-0x32(%rbp), %al
   1e0d9: 88 45 cf                     	movb	%al, -0x31(%rbp)
   1e0dc: 48 8b 85 50 ff ff ff         	movq	-0xb0(%rbp), %rax
   1e0e3: 48 89 85 70 ff ff ff         	movq	%rax, -0x90(%rbp)
   1e0ea: 48 8b 85 60 ff ff ff         	movq	-0xa0(%rbp), %rax
   1e0f1: 48 89 85 78 ff ff ff         	movq	%rax, -0x88(%rbp)
   1e0f8: 48 89 f8                     	movq	%rdi, %rax
   1e0fb: 48 89 7d 80                  	movq	%rdi, -0x80(%rbp)
   1e0ff: 4c 89 4d 88                  	movq	%r9, -0x78(%rbp)
   1e103: 48 8b 85 48 ff ff ff         	movq	-0xb8(%rbp), %rax
   1e10a: 48 89 45 90                  	movq	%rax, -0x70(%rbp)
   1e10e: 48 8b 85 58 ff ff ff         	movq	-0xa8(%rbp), %rax
   1e115: 48 89 45 98                  	movq	%rax, -0x68(%rbp)
   1e119: 48 8b 85 30 ff ff ff         	movq	-0xd0(%rbp), %rax
   1e120: 48 89 45 a0                  	movq	%rax, -0x60(%rbp)
   1e124: 48 8b 85 28 ff ff ff         	movq	-0xd8(%rbp), %rax
   1e12b: 48 89 45 a8                  	movq	%rax, -0x58(%rbp)
   1e12f: 48 8b 85 40 ff ff ff         	movq	-0xc0(%rbp), %rax
   1e136: 48 89 45 b0                  	movq	%rax, -0x50(%rbp)
   1e13a: 48 8b 85 08 ff ff ff         	movq	-0xf8(%rbp), %rax
   1e141: 48 8b 8d 10 ff ff ff         	movq	-0xf0(%rbp), %rcx
   1e148: 48 89 4d b8                  	movq	%rcx, -0x48(%rbp)
   1e14c: 48 8b 8d 20 ff ff ff         	movq	-0xe0(%rbp), %rcx
   1e153: 48 89 4d c0                  	movq	%rcx, -0x40(%rbp)
   1e157: 4c 8b 9d 18 ff ff ff         	movq	-0xe8(%rbp), %r11
   1e15e: 4c 8b bd f8 fe ff ff         	movq	-0x108(%rbp), %r15
   1e165: 4c 8b ad f0 fe ff ff         	movq	-0x110(%rbp), %r13
   1e16c: 48 8b 9d 00 ff ff ff         	movq	-0x100(%rbp), %rbx
   1e173: 4c 8b 95 38 ff ff ff         	movq	-0xc8(%rbp), %r10
   1e17a: 8a 55 cd                     	movb	-0x33(%rbp), %dl
   1e17d: 89 d6                        	movl	%edx, %esi
   1e17f: 48 ba 8a 05 1f a3 bd 6a 5e a9	movabsq	$-0x56a195425ce0fa76, %rdx # imm = 0xA95E6ABDA31F058A
   1e189: e9 9f ba ff ff               	jmp	0x19c2d <.text+0xb4ad>
   1e18e: 8a 45 ce                     	movb	-0x32(%rbp), %al
   1e191: 88 45 cf                     	movb	%al, -0x31(%rbp)
   1e194: 48 8b 85 50 ff ff ff         	movq	-0xb0(%rbp), %rax
   1e19b: 48 89 85 70 ff ff ff         	movq	%rax, -0x90(%rbp)
   1e1a2: 48 8b 85 60 ff ff ff         	movq	-0xa0(%rbp), %rax
   1e1a9: 48 89 85 78 ff ff ff         	movq	%rax, -0x88(%rbp)
   1e1b0: 48 8b 85 e0 fe ff ff         	movq	-0x120(%rbp), %rax
   1e1b7: 48 89 45 80                  	movq	%rax, -0x80(%rbp)
   1e1bb: 48 8b 85 e8 fe ff ff         	movq	-0x118(%rbp), %rax
   1e1c2: 48 89 45 88                  	movq	%rax, -0x78(%rbp)
   1e1c6: 48 8b 85 48 ff ff ff         	movq	-0xb8(%rbp), %rax
   1e1cd: 48 89 45 90                  	movq	%rax, -0x70(%rbp)
   1e1d1: 48 8b 85 58 ff ff ff         	movq	-0xa8(%rbp), %rax
   1e1d8: 48 89 45 98                  	movq	%rax, -0x68(%rbp)
   1e1dc: 48 89 55 a0                  	movq	%rdx, -0x60(%rbp)
   1e1e0: 4c 89 5d a8                  	movq	%r11, -0x58(%rbp)
   1e1e4: 48 8b 85 40 ff ff ff         	movq	-0xc0(%rbp), %rax
   1e1eb: 48 89 45 b0                  	movq	%rax, -0x50(%rbp)
   1e1ef: 4c 89 e0                     	movq	%r12, %rax
   1e1f2: 48 89 7d b8                  	movq	%rdi, -0x48(%rbp)
   1e1f6: 4c 89 45 c0                  	movq	%r8, -0x40(%rbp)
   1e1fa: 49 89 cb                     	movq	%rcx, %r11
   1e1fd: 31 f6                        	xorl	%esi, %esi
   1e1ff: 48 ba 08 bf 53 4c b3 ef 7d 17	movabsq	$0x177defb34c53bf08, %rdx # imm = 0x177DEFB34C53BF08
   1e209: e9 1f ba ff ff               	jmp	0x19c2d <.text+0xb4ad>
   1e20e: 8a 45 ce                     	movb	-0x32(%rbp), %al
   1e211: 88 45 cf                     	movb	%al, -0x31(%rbp)
   1e214: 48 8b 85 50 ff ff ff         	movq	-0xb0(%rbp), %rax
   1e21b: 48 89 85 70 ff ff ff         	movq	%rax, -0x90(%rbp)
   1e222: 48 8b 85 60 ff ff ff         	movq	-0xa0(%rbp), %rax
   1e229: 48 89 85 78 ff ff ff         	movq	%rax, -0x88(%rbp)
   1e230: 48 89 f8                     	movq	%rdi, %rax
   1e233: 48 89 7d 80                  	movq	%rdi, -0x80(%rbp)
   1e237: 4c 89 4d 88                  	movq	%r9, -0x78(%rbp)
   1e23b: 48 8b 85 48 ff ff ff         	movq	-0xb8(%rbp), %rax
   1e242: 48 89 45 90                  	movq	%rax, -0x70(%rbp)
   1e246: 48 8b 85 58 ff ff ff         	movq	-0xa8(%rbp), %rax
   1e24d: 48 89 45 98                  	movq	%rax, -0x68(%rbp)
   1e251: 48 89 4d a0                  	movq	%rcx, -0x60(%rbp)
   1e255: 4c 89 5d a8                  	movq	%r11, -0x58(%rbp)
   1e259: 48 8b 85 40 ff ff ff         	movq	-0xc0(%rbp), %rax
   1e260: 48 89 45 b0                  	movq	%rax, -0x50(%rbp)
   1e264: 48 8b 85 08 ff ff ff         	movq	-0xf8(%rbp), %rax
   1e26b: 48 8b 8d 10 ff ff ff         	movq	-0xf0(%rbp), %rcx
   1e272: 48 89 4d b8                  	movq	%rcx, -0x48(%rbp)
   1e276: 48 8b 8d 20 ff ff ff         	movq	-0xe0(%rbp), %rcx
   1e27d: 48 89 4d c0                  	movq	%rcx, -0x40(%rbp)
   1e281: 4c 8b 9d 18 ff ff ff         	movq	-0xe8(%rbp), %r11
   1e288: 4c 8b 95 38 ff ff ff         	movq	-0xc8(%rbp), %r10
   1e28f: 44 89 e6                     	movl	%r12d, %esi
   1e292: 48 8b 95 b0 fe ff ff         	movq	-0x150(%rbp), %rdx
   1e299: 48 89 95 28 fc ff ff         	movq	%rdx, -0x3d8(%rbp)
   1e2a0: 48 ba c9 fa 9c 1b 2d 13 4c 65	movabsq	$0x654c132d1b9cfac9, %rdx # imm = 0x654C132D1B9CFAC9
   1e2aa: e9 7e b9 ff ff               	jmp	0x19c2d <.text+0xb4ad>
   1e2af: 0f 28 05 1a d8 11 00         	movaps	0x11d81a(%rip), %xmm0   # 0x13bad0
   1e2b6: 0f 57 05 83 5b fe ff         	xorps	-0x1a47d(%rip), %xmm0   # 0x3e40
   1e2bd: 0f 29 05 0c d8 11 00         	movaps	%xmm0, 0x11d80c(%rip)   # 0x13bad0
   1e2c4: c6 05 62 0a 12 00 01         	movb	$0x1, 0x120a62(%rip)    # 0x13ed2d
   1e2cb: 8a 45 ce                     	movb	-0x32(%rbp), %al
   1e2ce: 88 45 cf                     	movb	%al, -0x31(%rbp)
   1e2d1: 48 8b 85 50 ff ff ff         	movq	-0xb0(%rbp), %rax
   1e2d8: 48 89 85 70 ff ff ff         	movq	%rax, -0x90(%rbp)
   1e2df: 48 8b 85 60 ff ff ff         	movq	-0xa0(%rbp), %rax
   1e2e6: 48 89 85 78 ff ff ff         	movq	%rax, -0x88(%rbp)
   1e2ed: 4c 89 f0                     	movq	%r14, %rax
   1e2f0: 4c 89 75 80                  	movq	%r14, -0x80(%rbp)
   1e2f4: 4c 89 4d 88                  	movq	%r9, -0x78(%rbp)
   1e2f8: 48 8b 85 48 ff ff ff         	movq	-0xb8(%rbp), %rax
   1e2ff: 48 89 45 90                  	movq	%rax, -0x70(%rbp)
   1e303: 48 8b 85 58 ff ff ff         	movq	-0xa8(%rbp), %rax
   1e30a: 48 89 45 98                  	movq	%rax, -0x68(%rbp)
   1e30e: 48 8b 85 30 ff ff ff         	movq	-0xd0(%rbp), %rax
   1e315: 48 89 45 a0                  	movq	%rax, -0x60(%rbp)
   1e319: 48 8b 85 28 ff ff ff         	movq	-0xd8(%rbp), %rax
   1e320: 48 89 45 a8                  	movq	%rax, -0x58(%rbp)
   1e324: 48 8b 85 40 ff ff ff         	movq	-0xc0(%rbp), %rax
   1e32b: 48 89 45 b0                  	movq	%rax, -0x50(%rbp)
   1e32f: 48 8b 85 08 ff ff ff         	movq	-0xf8(%rbp), %rax
   1e336: 48 8b 8d 10 ff ff ff         	movq	-0xf0(%rbp), %rcx
   1e33d: 48 89 4d b8                  	movq	%rcx, -0x48(%rbp)
   1e341: 48 8b 8d 20 ff ff ff         	movq	-0xe0(%rbp), %rcx
   1e348: 48 89 4d c0                  	movq	%rcx, -0x40(%rbp)
   1e34c: 4c 8b 9d 18 ff ff ff         	movq	-0xe8(%rbp), %r11
   1e353: 4c 8b bd f8 fe ff ff         	movq	-0x108(%rbp), %r15
   1e35a: 4c 8b ad f0 fe ff ff         	movq	-0x110(%rbp), %r13
   1e361: 48 8b 9d 00 ff ff ff         	movq	-0x100(%rbp), %rbx
   1e368: 4c 8b 95 38 ff ff ff         	movq	-0xc8(%rbp), %r10
   1e36f: 8a 55 cd                     	movb	-0x33(%rbp), %dl
   1e372: 89 d6                        	movl	%edx, %esi
   1e374: 48 ba de a6 c1 dc 00 48 02 36	movabsq	$0x36024800dcc1a6de, %rdx # imm = 0x36024800DCC1A6DE
   1e37e: e9 aa b8 ff ff               	jmp	0x19c2d <.text+0xb4ad>
   1e383: 31 c0                        	xorl	%eax, %eax
   1e385: b1 01                        	movb	$0x1, %cl
   1e387: f0                           	lock
   1e388: 0f b0 0d 9d 09 12 00         	cmpxchgb	%cl, 0x12099d(%rip)     # 0x13ed2c
   1e38f: 48 ba 0b 39 f5 e6 3b b3 79 71	movabsq	$0x7179b33be6f5390b, %rdx # imm = 0x7179B33BE6F5390B
   1e399: 74 0a                        	je	0x1e3a5 <.text+0xfc25>
   1e39b: 48 ba a3 84 6c 40 6d b0 73 27	movabsq	$0x2773b06d406c84a3, %rdx # imm = 0x2773B06D406C84A3
   1e3a5: 8a 45 ce                     	movb	-0x32(%rbp), %al
   1e3a8: 88 45 cf                     	movb	%al, -0x31(%rbp)
   1e3ab: 48 8b 85 50 ff ff ff         	movq	-0xb0(%rbp), %rax
   1e3b2: 48 89 85 70 ff ff ff         	movq	%rax, -0x90(%rbp)
   1e3b9: 48 8b 85 60 ff ff ff         	movq	-0xa0(%rbp), %rax
   1e3c0: 48 89 85 78 ff ff ff         	movq	%rax, -0x88(%rbp)
   1e3c7: e9 57 3a 00 00               	jmp	0x21e23 <.text+0x136a3>
   1e3cc: 48 8b 85 c8 fd ff ff         	movq	-0x238(%rbp), %rax
   1e3d3: c7 00 02 00 00 00            	movl	$0x2, (%rax)
   1e3d9: 8a 45 ce                     	movb	-0x32(%rbp), %al
   1e3dc: 88 45 cf                     	movb	%al, -0x31(%rbp)
   1e3df: 48 8b 85 50 ff ff ff         	movq	-0xb0(%rbp), %rax
   1e3e6: 48 89 85 70 ff ff ff         	movq	%rax, -0x90(%rbp)
   1e3ed: 48 8b 85 60 ff ff ff         	movq	-0xa0(%rbp), %rax
   1e3f4: 48 89 85 78 ff ff ff         	movq	%rax, -0x88(%rbp)
   1e3fb: 4c 89 c0                     	movq	%r8, %rax
   1e3fe: 4c 89 45 80                  	movq	%r8, -0x80(%rbp)
   1e402: 4c 89 4d 88                  	movq	%r9, -0x78(%rbp)
   1e406: 48 8b 85 48 ff ff ff         	movq	-0xb8(%rbp), %rax
   1e40d: 48 89 45 90                  	movq	%rax, -0x70(%rbp)
   1e411: 48 8b 85 58 ff ff ff         	movq	-0xa8(%rbp), %rax
   1e418: 48 89 45 98                  	movq	%rax, -0x68(%rbp)
   1e41c: 48 89 55 a0                  	movq	%rdx, -0x60(%rbp)
   1e420: 4c 89 5d a8                  	movq	%r11, -0x58(%rbp)
   1e424: 48 8b 85 40 ff ff ff         	movq	-0xc0(%rbp), %rax
   1e42b: 48 89 45 b0                  	movq	%rax, -0x50(%rbp)
   1e42f: 48 8b 85 08 ff ff ff         	movq	-0xf8(%rbp), %rax
   1e436: 48 8b 8d 10 ff ff ff         	movq	-0xf0(%rbp), %rcx
   1e43d: 48 89 4d b8                  	movq	%rcx, -0x48(%rbp)
   1e441: 48 8b 8d 20 ff ff ff         	movq	-0xe0(%rbp), %rcx
   1e448: 48 89 4d c0                  	movq	%rcx, -0x40(%rbp)
   1e44c: 4c 8b 9d 18 ff ff ff         	movq	-0xe8(%rbp), %r11
   1e453: 4c 8b 95 38 ff ff ff         	movq	-0xc8(%rbp), %r10
   1e45a: 44 89 e6                     	movl	%r12d, %esi
   1e45d: 48 ba 16 c5 ef 5c c2 cc b0 e4	movabsq	$-0x1b4f333da3103aea, %rdx # imm = 0xE4B0CCC25CEFC516
   1e467: e9 c1 b7 ff ff               	jmp	0x19c2d <.text+0xb4ad>
   1e46c: 48 8b 85 38 ff ff ff         	movq	-0xc8(%rbp), %rax
   1e473: 8a 00                        	movb	(%rax), %al
   1e475: 48 b9 96 b1 3e ba c2 75 d0 29	movabsq	$0x29d075c2ba3eb196, %rcx # imm = 0x29D075C2BA3EB196
   1e47f: 3a 85 de fe ff ff            	cmpb	-0x122(%rbp), %al
   1e485: 0f 94 85 cd fe ff ff         	sete	-0x133(%rbp)
   1e48c: 74 0a                        	je	0x1e498 <.text+0xfd18>
   1e48e: 48 b9 ad 7a c8 9a 0f 6f 5a a7	movabsq	$-0x58a590f065378553, %rcx # imm = 0xA75A6F0F9AC87AAD
   1e498: 48 ba 96 b1 3e ba c2 75 d0 29	movabsq	$0x29d075c2ba3eb196, %rdx # imm = 0x29D075C2BA3EB196
   1e4a2: 84 c0                        	testb	%al, %al
   1e4a4: 74 03                        	je	0x1e4a9 <.text+0xfd29>
   1e4a6: 48 89 ca                     	movq	%rcx, %rdx
   1e4a9: 8a 45 ce                     	movb	-0x32(%rbp), %al
   1e4ac: 88 45 cf                     	movb	%al, -0x31(%rbp)
   1e4af: 48 8b 85 50 ff ff ff         	movq	-0xb0(%rbp), %rax
   1e4b6: 48 89 85 70 ff ff ff         	movq	%rax, -0x90(%rbp)
   1e4bd: 48 8b 85 60 ff ff ff         	movq	-0xa0(%rbp), %rax
   1e4c4: 48 89 85 78 ff ff ff         	movq	%rax, -0x88(%rbp)
   1e4cb: 4c 89 c0                     	movq	%r8, %rax
   1e4ce: 4c 89 45 80                  	movq	%r8, -0x80(%rbp)
   1e4d2: 4c 89 4d 88                  	movq	%r9, -0x78(%rbp)
   1e4d6: 48 8b 85 48 ff ff ff         	movq	-0xb8(%rbp), %rax
   1e4dd: 48 89 45 90                  	movq	%rax, -0x70(%rbp)
   1e4e1: 48 8b 85 58 ff ff ff         	movq	-0xa8(%rbp), %rax
   1e4e8: 48 89 45 98                  	movq	%rax, -0x68(%rbp)
   1e4ec: 48 8b 85 30 ff ff ff         	movq	-0xd0(%rbp), %rax
   1e4f3: 48 89 45 a0                  	movq	%rax, -0x60(%rbp)
   1e4f7: 48 8b 85 28 ff ff ff         	movq	-0xd8(%rbp), %rax
   1e4fe: 48 89 45 a8                  	movq	%rax, -0x58(%rbp)
   1e502: 48 8b 85 40 ff ff ff         	movq	-0xc0(%rbp), %rax
   1e509: 48 89 45 b0                  	movq	%rax, -0x50(%rbp)
   1e50d: 48 8b 85 08 ff ff ff         	movq	-0xf8(%rbp), %rax
   1e514: 48 8b 8d 10 ff ff ff         	movq	-0xf0(%rbp), %rcx
   1e51b: 48 89 4d b8                  	movq	%rcx, -0x48(%rbp)
   1e51f: 48 8b 8d 20 ff ff ff         	movq	-0xe0(%rbp), %rcx
   1e526: 48 89 4d c0                  	movq	%rcx, -0x40(%rbp)
   1e52a: 4c 8b 9d 18 ff ff ff         	movq	-0xe8(%rbp), %r11
   1e531: 4c 8b 95 38 ff ff ff         	movq	-0xc8(%rbp), %r10
   1e538: 49 8d 72 01                  	leaq	0x1(%r10), %rsi
   1e53c: 48 89 b5 98 fc ff ff         	movq	%rsi, -0x368(%rbp)
   1e543: 4c 89 95 a0 fe ff ff         	movq	%r10, -0x160(%rbp)
   1e54a: 44 89 e6                     	movl	%r12d, %esi
   1e54d: e9 db b6 ff ff               	jmp	0x19c2d <.text+0xb4ad>
   1e552: 8a 45 ce                     	movb	-0x32(%rbp), %al
   1e555: 88 45 cf                     	movb	%al, -0x31(%rbp)
   1e558: 48 8b 85 50 ff ff ff         	movq	-0xb0(%rbp), %rax
   1e55f: 48 89 85 70 ff ff ff         	movq	%rax, -0x90(%rbp)
   1e566: 48 8b 85 60 ff ff ff         	movq	-0xa0(%rbp), %rax
   1e56d: 48 89 85 78 ff ff ff         	movq	%rax, -0x88(%rbp)
   1e574: 4c 89 c0                     	movq	%r8, %rax
   1e577: 4c 89 45 80                  	movq	%r8, -0x80(%rbp)
   1e57b: 4c 89 4d 88                  	movq	%r9, -0x78(%rbp)
   1e57f: 48 8b 85 48 ff ff ff         	movq	-0xb8(%rbp), %rax
   1e586: 48 89 45 90                  	movq	%rax, -0x70(%rbp)
   1e58a: 48 8b 85 58 ff ff ff         	movq	-0xa8(%rbp), %rax
   1e591: 48 89 45 98                  	movq	%rax, -0x68(%rbp)
   1e595: 48 8b 85 30 ff ff ff         	movq	-0xd0(%rbp), %rax
   1e59c: 48 89 45 a0                  	movq	%rax, -0x60(%rbp)
   1e5a0: 48 8b 85 28 ff ff ff         	movq	-0xd8(%rbp), %rax
   1e5a7: 48 89 45 a8                  	movq	%rax, -0x58(%rbp)
   1e5ab: 48 8b 85 40 ff ff ff         	movq	-0xc0(%rbp), %rax
   1e5b2: 48 89 45 b0                  	movq	%rax, -0x50(%rbp)
   1e5b6: 48 8b 85 08 ff ff ff         	movq	-0xf8(%rbp), %rax
   1e5bd: 48 8b 8d 10 ff ff ff         	movq	-0xf0(%rbp), %rcx
   1e5c4: 48 89 4d b8                  	movq	%rcx, -0x48(%rbp)
   1e5c8: 48 8b 8d 20 ff ff ff         	movq	-0xe0(%rbp), %rcx
   1e5cf: 48 89 4d c0                  	movq	%rcx, -0x40(%rbp)
   1e5d3: 4c 8b 9d 18 ff ff ff         	movq	-0xe8(%rbp), %r11
   1e5da: 4c 8b bd f8 fe ff ff         	movq	-0x108(%rbp), %r15
   1e5e1: 4c 8b ad f0 fe ff ff         	movq	-0x110(%rbp), %r13
   1e5e8: 48 8b 9d 00 ff ff ff         	movq	-0x100(%rbp), %rbx
   1e5ef: 4c 8b 95 38 ff ff ff         	movq	-0xc8(%rbp), %r10
   1e5f6: 8a 55 cd                     	movb	-0x33(%rbp), %dl
   1e5f9: 89 d6                        	movl	%edx, %esi
   1e5fb: 31 d2                        	xorl	%edx, %edx
   1e5fd: 48 89 95 68 fd ff ff         	movq	%rdx, -0x298(%rbp)
   1e604: 6a ff                        	pushq	$-0x1
   1e606: 5a                           	popq	%rdx
   1e607: e9 33 0e 00 00               	jmp	0x1f43f <.text+0x10cbf>
   1e60c: 48 8b 85 b8 fe ff ff         	movq	-0x148(%rbp), %rax
   1e613: 8a 40 01                     	movb	0x1(%rax), %al
   1e616: 48 ba 80 ec f1 25 bc 50 ba 4b	movabsq	$0x4bba50bc25f1ec80, %rdx # imm = 0x4BBA50BC25F1EC80
   1e620: 88 85 ca fe ff ff            	movb	%al, -0x136(%rbp)
   1e626: 84 c0                        	testb	%al, %al
   1e628: 40 8a 75 cd                  	movb	-0x33(%rbp), %sil
   1e62c: 4c 8b 95 38 ff ff ff         	movq	-0xc8(%rbp), %r10
   1e633: 48 8b 9d 00 ff ff ff         	movq	-0x100(%rbp), %rbx
   1e63a: 4c 8b ad f0 fe ff ff         	movq	-0x110(%rbp), %r13
   1e641: 4c 8b bd f8 fe ff ff         	movq	-0x108(%rbp), %r15
   1e648: 4c 8b 8d 18 ff ff ff         	movq	-0xe8(%rbp), %r9
   1e64f: 4c 8b 85 20 ff ff ff         	movq	-0xe0(%rbp), %r8
   1e656: 48 8b bd 10 ff ff ff         	movq	-0xf0(%rbp), %rdi
   1e65d: 48 8b 8d 08 ff ff ff         	movq	-0xf8(%rbp), %rcx
   1e664: 48 8b 85 40 ff ff ff         	movq	-0xc0(%rbp), %rax
   1e66b: 0f 84 48 41 00 00            	je	0x227b9 <.text+0x14039>
   1e671: 48 ba f3 0d 4e 47 de 66 58 e7	movabsq	$-0x18a79921b8b1f20d, %rdx # imm = 0xE75866DE474E0DF3
   1e67b: e9 39 41 00 00               	jmp	0x227b9 <.text+0x14039>
   1e680: 6a 01                        	pushq	$0x1
   1e682: 5f                           	popq	%rdi
   1e683: 6a 10                        	pushq	$0x10
   1e685: 5e                           	popq	%rsi
   1e686: e8 f5 41 11 00               	callq	0x132880 <calloc@plt>
   1e68b: 48 ba 62 05 9d 9e 2a 32 d7 0e	movabsq	$0xed7322a9e9d0562, %rdx # imm = 0xED7322A9E9D0562
   1e695: 48 89 85 70 fe ff ff         	movq	%rax, -0x190(%rbp)
   1e69c: 48 85 c0                     	testq	%rax, %rax
   1e69f: 0f 84 0a 1b 00 00            	je	0x201af <.text+0x11a2f>
   1e6a5: 48 ba a9 42 e3 52 be b9 10 a9	movabsq	$-0x56ef4641ad1cbd57, %rdx # imm = 0xA910B9BE52E342A9
   1e6af: e9 fb 1a 00 00               	jmp	0x201af <.text+0x11a2f>
   1e6b4: 48 ba c3 0a 29 23 44 94 7a e2	movabsq	$-0x1d856bbbdcd6f53d, %rdx # imm = 0xE27A944423290AC3
   1e6be: 8a 85 d7 fe ff ff            	movb	-0x129(%rbp), %al
   1e6c4: 48 8b 8d 68 fe ff ff         	movq	-0x198(%rbp), %rcx
   1e6cb: 48 8b b5 38 fe ff ff         	movq	-0x1c8(%rbp), %rsi
   1e6d2: 3a 04 31                     	cmpb	(%rcx,%rsi), %al
   1e6d5: 0f 84 e6 33 00 00            	je	0x21ac1 <.text+0x13341>
   1e6db: 48 ba 0c 78 9f fd 30 11 fd fd	movabsq	$-0x202eecf026087f4, %rdx # imm = 0xFDFD1130FD9F780C
   1e6e5: e9 d7 33 00 00               	jmp	0x21ac1 <.text+0x13341>
   1e6ea: 48 8b 85 60 fe ff ff         	movq	-0x1a0(%rbp), %rax
   1e6f1: 48 3b 85 f0 fc ff ff         	cmpq	-0x310(%rbp), %rax
   1e6f8: 48 ba cd 43 77 1e d1 f2 af d9	movabsq	$-0x26500d2ee188bc33, %rdx # imm = 0xD9AFF2D11E7743CD
   1e702: 48 b8 23 b3 0e c6 83 ef 1b 44	movabsq	$0x441bef83c60eb323, %rax # imm = 0x441BEF83C60EB323
   1e70c: 48 0f 44 d0                  	cmoveq	%rax, %rdx
   1e710: 8a 45 ce                     	movb	-0x32(%rbp), %al
   1e713: 88 45 cf                     	movb	%al, -0x31(%rbp)
   1e716: 48 8b 85 50 ff ff ff         	movq	-0xb0(%rbp), %rax
   1e71d: 48 89 85 70 ff ff ff         	movq	%rax, -0x90(%rbp)
   1e724: 48 8b 85 60 ff ff ff         	movq	-0xa0(%rbp), %rax
   1e72b: 48 89 85 78 ff ff ff         	movq	%rax, -0x88(%rbp)
   1e732: 4c 89 f0                     	movq	%r14, %rax
   1e735: 4c 89 75 80                  	movq	%r14, -0x80(%rbp)
   1e739: 48 89 4d 88                  	movq	%rcx, -0x78(%rbp)
   1e73d: e9 f6 1a 00 00               	jmp	0x20238 <.text+0x11ab8>
   1e742: 80 3d e8 05 12 00 00         	cmpb	$0x0, 0x1205e8(%rip)    # 0x13ed31
   1e749: 48 ba 65 31 3f dd 90 20 05 af	movabsq	$-0x50fadf6f22c0ce9b, %rdx # imm = 0xAF052090DD3F3165
   1e753: 40 8a 75 cd                  	movb	-0x33(%rbp), %sil
   1e757: 48 8b 9d 00 ff ff ff         	movq	-0x100(%rbp), %rbx
   1e75e: 4c 8b ad f0 fe ff ff         	movq	-0x110(%rbp), %r13
   1e765: 4c 8b bd f8 fe ff ff         	movq	-0x108(%rbp), %r15
   1e76c: 4c 8b 9d 18 ff ff ff         	movq	-0xe8(%rbp), %r11
   1e773: 4c 8b 85 20 ff ff ff         	movq	-0xe0(%rbp), %r8
   1e77a: 48 8b bd 10 ff ff ff         	movq	-0xf0(%rbp), %rdi
   1e781: 48 8b 8d 08 ff ff ff         	movq	-0xf8(%rbp), %rcx
   1e788: 48 8b 85 40 ff ff ff         	movq	-0xc0(%rbp), %rax
   1e78f: 75 0a                        	jne	0x1e79b <.text+0x1001b>
   1e791: 48 ba d5 03 5a 7c 82 4f eb cb	movabsq	$-0x3414b07d83a5fc2b, %rdx # imm = 0xCBEB4F827C5A03D5
   1e79b: 44 8a 55 ce                  	movb	-0x32(%rbp), %r10b
   1e79f: 44 88 55 cf                  	movb	%r10b, -0x31(%rbp)
   1e7a3: 4c 8b 95 50 ff ff ff         	movq	-0xb0(%rbp), %r10
   1e7aa: 4c 89 95 70 ff ff ff         	movq	%r10, -0x90(%rbp)
   1e7b1: 4c 8b 95 60 ff ff ff         	movq	-0xa0(%rbp), %r10
   1e7b8: 4c 89 95 78 ff ff ff         	movq	%r10, -0x88(%rbp)
   1e7bf: 4c 8b 95 e0 fe ff ff         	movq	-0x120(%rbp), %r10
   1e7c6: 4c 89 55 80                  	movq	%r10, -0x80(%rbp)
   1e7ca: 4c 8b 95 e8 fe ff ff         	movq	-0x118(%rbp), %r10
   1e7d1: 4c 89 55 88                  	movq	%r10, -0x78(%rbp)
   1e7d5: 4c 8b 95 48 ff ff ff         	movq	-0xb8(%rbp), %r10
   1e7dc: 4c 89 55 90                  	movq	%r10, -0x70(%rbp)
   1e7e0: 4c 8b 95 58 ff ff ff         	movq	-0xa8(%rbp), %r10
   1e7e7: 4c 89 55 98                  	movq	%r10, -0x68(%rbp)
   1e7eb: 4c 8b 95 30 ff ff ff         	movq	-0xd0(%rbp), %r10
   1e7f2: 4c 89 55 a0                  	movq	%r10, -0x60(%rbp)
   1e7f6: 4c 8b 95 28 ff ff ff         	movq	-0xd8(%rbp), %r10
   1e7fd: 4c 89 55 a8                  	movq	%r10, -0x58(%rbp)
   1e801: 48 89 45 b0                  	movq	%rax, -0x50(%rbp)
   1e805: 48 89 c8                     	movq	%rcx, %rax
   1e808: 48 89 7d b8                  	movq	%rdi, -0x48(%rbp)
   1e80c: 4c 89 45 c0                  	movq	%r8, -0x40(%rbp)
   1e810: e9 70 41 00 00               	jmp	0x22985 <.text+0x14205>
   1e815: 8a 45 ce                     	movb	-0x32(%rbp), %al
   1e818: 88 45 cf                     	movb	%al, -0x31(%rbp)
   1e81b: 48 8b 85 50 ff ff ff         	movq	-0xb0(%rbp), %rax
   1e822: 48 89 85 70 ff ff ff         	movq	%rax, -0x90(%rbp)
   1e829: 48 8b 85 60 ff ff ff         	movq	-0xa0(%rbp), %rax
   1e830: 48 89 85 78 ff ff ff         	movq	%rax, -0x88(%rbp)
   1e837: 4c 89 c0                     	movq	%r8, %rax
   1e83a: 4c 89 45 80                  	movq	%r8, -0x80(%rbp)
   1e83e: 4c 89 4d 88                  	movq	%r9, -0x78(%rbp)
   1e842: 48 8b 85 48 ff ff ff         	movq	-0xb8(%rbp), %rax
   1e849: 48 89 45 90                  	movq	%rax, -0x70(%rbp)
   1e84d: 48 8b 85 58 ff ff ff         	movq	-0xa8(%rbp), %rax
   1e854: 48 89 45 98                  	movq	%rax, -0x68(%rbp)
   1e858: 48 8b 85 30 ff ff ff         	movq	-0xd0(%rbp), %rax
   1e85f: 48 89 45 a0                  	movq	%rax, -0x60(%rbp)
   1e863: 48 8b 85 28 ff ff ff         	movq	-0xd8(%rbp), %rax
   1e86a: 48 89 45 a8                  	movq	%rax, -0x58(%rbp)
   1e86e: 48 8b 85 40 ff ff ff         	movq	-0xc0(%rbp), %rax
   1e875: 48 89 45 b0                  	movq	%rax, -0x50(%rbp)
   1e879: 48 8b 85 08 ff ff ff         	movq	-0xf8(%rbp), %rax
   1e880: 48 8b 8d 10 ff ff ff         	movq	-0xf0(%rbp), %rcx
   1e887: 48 89 4d b8                  	movq	%rcx, -0x48(%rbp)
   1e88b: 48 8b 8d 20 ff ff ff         	movq	-0xe0(%rbp), %rcx
   1e892: 48 89 4d c0                  	movq	%rcx, -0x40(%rbp)
   1e896: 4c 8b 9d 18 ff ff ff         	movq	-0xe8(%rbp), %r11
   1e89d: 4c 8b 95 38 ff ff ff         	movq	-0xc8(%rbp), %r10
   1e8a4: 44 89 e6                     	movl	%r12d, %esi
   1e8a7: 48 8b 95 f8 fc ff ff         	movq	-0x308(%rbp), %rdx
   1e8ae: 4c 8d 72 01                  	leaq	0x1(%rdx), %r14
   1e8b2: 4c 89 b5 80 fd ff ff         	movq	%r14, -0x280(%rbp)
   1e8b9: e9 c7 3d 00 00               	jmp	0x22685 <.text+0x13f05>
   1e8be: 48 8b bd c0 fc ff ff         	movq	-0x340(%rbp), %rdi
   1e8c5: e8 c6 3f 11 00               	callq	0x132890 <fclose@plt>
   1e8ca: 8a 45 ce                     	movb	-0x32(%rbp), %al
   1e8cd: 88 45 cf                     	movb	%al, -0x31(%rbp)
   1e8d0: 48 8b 85 50 ff ff ff         	movq	-0xb0(%rbp), %rax
   1e8d7: 48 89 85 70 ff ff ff         	movq	%rax, -0x90(%rbp)
   1e8de: 48 8b 85 60 ff ff ff         	movq	-0xa0(%rbp), %rax
   1e8e5: 48 89 85 78 ff ff ff         	movq	%rax, -0x88(%rbp)
   1e8ec: 4c 89 75 80                  	movq	%r14, -0x80(%rbp)
   1e8f0: 48 8b 85 e8 fe ff ff         	movq	-0x118(%rbp), %rax
   1e8f7: 48 89 45 88                  	movq	%rax, -0x78(%rbp)
   1e8fb: 48 8b 85 48 ff ff ff         	movq	-0xb8(%rbp), %rax
   1e902: 48 89 45 90                  	movq	%rax, -0x70(%rbp)
   1e906: 48 8b 85 58 ff ff ff         	movq	-0xa8(%rbp), %rax
   1e90d: 48 89 45 98                  	movq	%rax, -0x68(%rbp)
   1e911: 48 8b 85 30 ff ff ff         	movq	-0xd0(%rbp), %rax
   1e918: 48 89 45 a0                  	movq	%rax, -0x60(%rbp)
   1e91c: 48 8b 85 28 ff ff ff         	movq	-0xd8(%rbp), %rax
   1e923: 48 89 45 a8                  	movq	%rax, -0x58(%rbp)
   1e927: 48 8b 85 40 ff ff ff         	movq	-0xc0(%rbp), %rax
   1e92e: 48 89 45 b0                  	movq	%rax, -0x50(%rbp)
   1e932: 48 8b 85 08 ff ff ff         	movq	-0xf8(%rbp), %rax
   1e939: 48 8b 8d 10 ff ff ff         	movq	-0xf0(%rbp), %rcx
   1e940: 48 89 4d b8                  	movq	%rcx, -0x48(%rbp)
   1e944: 48 8b 8d 20 ff ff ff         	movq	-0xe0(%rbp), %rcx
   1e94b: 48 89 4d c0                  	movq	%rcx, -0x40(%rbp)
   1e94f: 4c 8b 9d 18 ff ff ff         	movq	-0xe8(%rbp), %r11
   1e956: 4c 8b 95 38 ff ff ff         	movq	-0xc8(%rbp), %r10
   1e95d: 44 89 e6                     	movl	%r12d, %esi
   1e960: 48 ba 8a 05 1f a3 bd 6a 5e a9	movabsq	$-0x56a195425ce0fa76, %rdx # imm = 0xA95E6ABDA31F058A
   1e96a: e9 be b2 ff ff               	jmp	0x19c2d <.text+0xb4ad>
   1e96f: 31 c0                        	xorl	%eax, %eax
   1e971: b1 01                        	movb	$0x1, %cl
   1e973: f0                           	lock
   1e974: 0f b0 0d b1 03 12 00         	cmpxchgb	%cl, 0x1203b1(%rip)     # 0x13ed2c
   1e97b: 48 ba 69 d5 1f 12 bf d9 8e 98	movabsq	$-0x67712640ede02a97, %rdx # imm = 0x988ED9BF121FD569
   1e985: 40 8a 75 cd                  	movb	-0x33(%rbp), %sil
   1e989: 4c 8b 95 38 ff ff ff         	movq	-0xc8(%rbp), %r10
   1e990: 48 8b 9d 00 ff ff ff         	movq	-0x100(%rbp), %rbx
   1e997: 4c 8b ad f0 fe ff ff         	movq	-0x110(%rbp), %r13
   1e99e: 4c 8b bd f8 fe ff ff         	movq	-0x108(%rbp), %r15
   1e9a5: 4c 8b 8d 18 ff ff ff         	movq	-0xe8(%rbp), %r9
   1e9ac: 4c 8b 85 20 ff ff ff         	movq	-0xe0(%rbp), %r8
   1e9b3: 48 8b bd 10 ff ff ff         	movq	-0xf0(%rbp), %rdi
   1e9ba: 48 8b 8d 08 ff ff ff         	movq	-0xf8(%rbp), %rcx
   1e9c1: 48 8b 85 40 ff ff ff         	movq	-0xc0(%rbp), %rax
   1e9c8: 0f 84 eb 3d 00 00            	je	0x227b9 <.text+0x14039>
   1e9ce: 48 ba bc 98 47 ae e0 53 37 50	movabsq	$0x503753e0ae4798bc, %rdx # imm = 0x503753E0AE4798BC
   1e9d8: e9 dc 3d 00 00               	jmp	0x227b9 <.text+0x14039>
   1e9dd: 48 8b 85 c0 fe ff ff         	movq	-0x140(%rbp), %rax
   1e9e4: 48 2b 85 20 fc ff ff         	subq	-0x3e0(%rbp), %rax
   1e9eb: 48 8b 8d 30 fe ff ff         	movq	-0x1d0(%rbp), %rcx
   1e9f2: 48 39 c8                     	cmpq	%rcx, %rax
   1e9f5: 48 0f 46 c1                  	cmovbeq	%rcx, %rax
   1e9f9: eb 0e                        	jmp	0x1ea09 <.text+0x10289>
   1e9fb: 48 8b 85 38 fe ff ff         	movq	-0x1c8(%rbp), %rax
   1ea02: 48 2b 85 d8 fc ff ff         	subq	-0x328(%rbp), %rax
   1ea09: 8a 4d ce                     	movb	-0x32(%rbp), %cl
   1ea0c: 88 4d cf                     	movb	%cl, -0x31(%rbp)
   1ea0f: 48 8b 8d 50 ff ff ff         	movq	-0xb0(%rbp), %rcx
   1ea16: 48 89 8d 70 ff ff ff         	movq	%rcx, -0x90(%rbp)
   1ea1d: 48 8b 8d 60 ff ff ff         	movq	-0xa0(%rbp), %rcx
   1ea24: 48 89 8d 78 ff ff ff         	movq	%rcx, -0x88(%rbp)
   1ea2b: 48 89 45 88                  	movq	%rax, -0x78(%rbp)
   1ea2f: 48 8b 85 48 ff ff ff         	movq	-0xb8(%rbp), %rax
   1ea36: 48 89 45 90                  	movq	%rax, -0x70(%rbp)
   1ea3a: 48 8b 85 58 ff ff ff         	movq	-0xa8(%rbp), %rax
   1ea41: 48 89 45 98                  	movq	%rax, -0x68(%rbp)
   1ea45: 48 89 55 a0                  	movq	%rdx, -0x60(%rbp)
   1ea49: 4c 89 5d a8                  	movq	%r11, -0x58(%rbp)
   1ea4d: 48 8b 85 40 ff ff ff         	movq	-0xc0(%rbp), %rax
   1ea54: 48 89 45 b0                  	movq	%rax, -0x50(%rbp)
   1ea58: 4c 89 e0                     	movq	%r12, %rax
   1ea5b: 48 89 7d b8                  	movq	%rdi, -0x48(%rbp)
   1ea5f: 4c 89 45 c0                  	movq	%r8, -0x40(%rbp)
   1ea63: 4d 89 cb                     	movq	%r9, %r11
   1ea66: 31 d2                        	xorl	%edx, %edx
   1ea68: 48 89 55 80                  	movq	%rdx, -0x80(%rbp)
   1ea6c: 48 ba 3a 4b eb 22 9e 56 0a 1f	movabsq	$0x1f0a569e22eb4b3a, %rdx # imm = 0x1F0A569E22EB4B3A
   1ea76: e9 b2 b1 ff ff               	jmp	0x19c2d <.text+0xb4ad>
   1ea7b: c6 05 ae 02 12 00 00         	movb	$0x0, 0x1202ae(%rip)    # 0x13ed30
   1ea82: 8a 45 ce                     	movb	-0x32(%rbp), %al
   1ea85: 88 45 cf                     	movb	%al, -0x31(%rbp)
   1ea88: 48 8b 85 50 ff ff ff         	movq	-0xb0(%rbp), %rax
   1ea8f: 48 89 85 70 ff ff ff         	movq	%rax, -0x90(%rbp)
   1ea96: 48 8b 85 60 ff ff ff         	movq	-0xa0(%rbp), %rax
   1ea9d: 48 89 85 78 ff ff ff         	movq	%rax, -0x88(%rbp)
   1eaa4: 48 8b 85 e0 fe ff ff         	movq	-0x120(%rbp), %rax
   1eaab: 48 89 45 80                  	movq	%rax, -0x80(%rbp)
   1eaaf: 48 8b 85 e8 fe ff ff         	movq	-0x118(%rbp), %rax
   1eab6: 48 89 45 88                  	movq	%rax, -0x78(%rbp)
   1eaba: 48 8b 85 48 ff ff ff         	movq	-0xb8(%rbp), %rax
   1eac1: 48 89 45 90                  	movq	%rax, -0x70(%rbp)
   1eac5: 48 8b 85 58 ff ff ff         	movq	-0xa8(%rbp), %rax
   1eacc: 48 89 45 98                  	movq	%rax, -0x68(%rbp)
   1ead0: 48 8b 85 30 ff ff ff         	movq	-0xd0(%rbp), %rax
   1ead7: 48 89 45 a0                  	movq	%rax, -0x60(%rbp)
   1eadb: 48 8b 85 28 ff ff ff         	movq	-0xd8(%rbp), %rax
   1eae2: 48 89 45 a8                  	movq	%rax, -0x58(%rbp)
   1eae6: 4c 89 65 b0                  	movq	%r12, -0x50(%rbp)
   1eaea: 48 89 c8                     	movq	%rcx, %rax
   1eaed: 48 89 7d b8                  	movq	%rdi, -0x48(%rbp)
   1eaf1: 4c 89 45 c0                  	movq	%r8, -0x40(%rbp)
   1eaf5: 4d 89 cb                     	movq	%r9, %r11
   1eaf8: 48 ba 2c 7c 3d f8 60 26 e8 59	movabsq	$0x59e82660f83d7c2c, %rdx # imm = 0x59E82660F83D7C2C
   1eb02: e9 26 b1 ff ff               	jmp	0x19c2d <.text+0xb4ad>
   1eb07: 8a 45 ce                     	movb	-0x32(%rbp), %al
   1eb0a: 88 45 cf                     	movb	%al, -0x31(%rbp)
   1eb0d: 48 8b 85 50 ff ff ff         	movq	-0xb0(%rbp), %rax
   1eb14: 48 89 85 70 ff ff ff         	movq	%rax, -0x90(%rbp)
   1eb1b: 48 8b 85 60 ff ff ff         	movq	-0xa0(%rbp), %rax
   1eb22: 48 89 85 78 ff ff ff         	movq	%rax, -0x88(%rbp)
   1eb29: 4c 89 c0                     	movq	%r8, %rax
   1eb2c: 4c 89 45 80                  	movq	%r8, -0x80(%rbp)
   1eb30: 4c 89 4d 88                  	movq	%r9, -0x78(%rbp)
   1eb34: 48 8b 85 48 ff ff ff         	movq	-0xb8(%rbp), %rax
   1eb3b: 48 89 45 90                  	movq	%rax, -0x70(%rbp)
   1eb3f: 48 8b 85 58 ff ff ff         	movq	-0xa8(%rbp), %rax
   1eb46: 48 89 45 98                  	movq	%rax, -0x68(%rbp)
   1eb4a: 48 89 4d a0                  	movq	%rcx, -0x60(%rbp)
   1eb4e: 4c 89 5d a8                  	movq	%r11, -0x58(%rbp)
   1eb52: 48 8b 85 40 ff ff ff         	movq	-0xc0(%rbp), %rax
   1eb59: 48 89 45 b0                  	movq	%rax, -0x50(%rbp)
   1eb5d: 48 8b 85 08 ff ff ff         	movq	-0xf8(%rbp), %rax
   1eb64: 48 8b 8d 10 ff ff ff         	movq	-0xf0(%rbp), %rcx
   1eb6b: 48 89 4d b8                  	movq	%rcx, -0x48(%rbp)
   1eb6f: 48 8b 8d 20 ff ff ff         	movq	-0xe0(%rbp), %rcx
   1eb76: 48 89 4d c0                  	movq	%rcx, -0x40(%rbp)
   1eb7a: 4c 8b 9d 18 ff ff ff         	movq	-0xe8(%rbp), %r11
   1eb81: 4c 8b 95 38 ff ff ff         	movq	-0xc8(%rbp), %r10
   1eb88: 4c 8b b5 38 fd ff ff         	movq	-0x2c8(%rbp), %r14
   1eb8f: 41 8a 56 01                  	movb	0x1(%r14), %dl
   1eb93: 88 95 da fe ff ff            	movb	%dl, -0x126(%rbp)
   1eb99: 44 89 e6                     	movl	%r12d, %esi
   1eb9c: 49 8d 56 01                  	leaq	0x1(%r14), %rdx
   1eba0: e9 d8 05 00 00               	jmp	0x1f17d <.text+0x109fd>
   1eba5: 48 8b 8d 48 ff ff ff         	movq	-0xb8(%rbp), %rcx
   1ebac: 4c 8b a5 60 fd ff ff         	movq	-0x2a0(%rbp), %r12
   1ebb3: 4c 89 e0                     	movq	%r12, %rax
   1ebb6: 4c 8b b5 40 fd ff ff         	movq	-0x2c0(%rbp), %r14
   1ebbd: 4c 29 f0                     	subq	%r14, %rax
   1ebc0: 48 ba 4f 08 c4 71 79 0f 45 97	movabsq	$-0x68baf0868e3bf7b1, %rdx # imm = 0x97450F7971C4084F
   1ebca: 48 3b 85 c0 fe ff ff         	cmpq	-0x140(%rbp), %rax
   1ebd1: 48 8b 9d 00 ff ff ff         	movq	-0x100(%rbp), %rbx
   1ebd8: 4c 8b ad f0 fe ff ff         	movq	-0x110(%rbp), %r13
   1ebdf: 4c 8b bd f8 fe ff ff         	movq	-0x108(%rbp), %r15
   1ebe6: 7c 0a                        	jl	0x1ebf2 <.text+0x10472>
   1ebe8: 48 ba b6 c9 4c 73 9f c4 a8 aa	movabsq	$-0x55573b608cb3364a, %rdx # imm = 0xAAA8C49F734CC9B6
   1ebf2: 8a 45 ce                     	movb	-0x32(%rbp), %al
   1ebf5: 88 45 cf                     	movb	%al, -0x31(%rbp)
   1ebf8: 48 8b 85 50 ff ff ff         	movq	-0xb0(%rbp), %rax
   1ebff: 48 89 85 70 ff ff ff         	movq	%rax, -0x90(%rbp)
   1ec06: 48 8b 85 60 ff ff ff         	movq	-0xa0(%rbp), %rax
   1ec0d: 48 89 85 78 ff ff ff         	movq	%rax, -0x88(%rbp)
   1ec14: 48 89 f8                     	movq	%rdi, %rax
   1ec17: 48 89 7d 80                  	movq	%rdi, -0x80(%rbp)
   1ec1b: 4c 89 4d 88                  	movq	%r9, -0x78(%rbp)
   1ec1f: 48 89 4d 90                  	movq	%rcx, -0x70(%rbp)
   1ec23: 48 8b 85 58 ff ff ff         	movq	-0xa8(%rbp), %rax
   1ec2a: 48 89 45 98                  	movq	%rax, -0x68(%rbp)
   1ec2e: 48 8b 85 30 ff ff ff         	movq	-0xd0(%rbp), %rax
   1ec35: 48 89 45 a0                  	movq	%rax, -0x60(%rbp)
   1ec39: 48 8b 85 28 ff ff ff         	movq	-0xd8(%rbp), %rax
   1ec40: 48 89 45 a8                  	movq	%rax, -0x58(%rbp)
   1ec44: 48 8b 85 40 ff ff ff         	movq	-0xc0(%rbp), %rax
   1ec4b: 48 89 45 b0                  	movq	%rax, -0x50(%rbp)
   1ec4f: 48 8b 85 08 ff ff ff         	movq	-0xf8(%rbp), %rax
   1ec56: 48 8b 8d 10 ff ff ff         	movq	-0xf0(%rbp), %rcx
   1ec5d: 48 89 4d b8                  	movq	%rcx, -0x48(%rbp)
   1ec61: 48 8b 8d 20 ff ff ff         	movq	-0xe0(%rbp), %rcx
   1ec68: 48 89 4d c0                  	movq	%rcx, -0x40(%rbp)
   1ec6c: 4c 8b 9d 18 ff ff ff         	movq	-0xe8(%rbp), %r11
   1ec73: 4c 8b 95 38 ff ff ff         	movq	-0xc8(%rbp), %r10
   1ec7a: 40 8a 75 cd                  	movb	-0x33(%rbp), %sil
   1ec7e: 4c 89 a5 f8 fd ff ff         	movq	%r12, -0x208(%rbp)
   1ec85: 4c 8b a5 50 fd ff ff         	movq	-0x2b0(%rbp), %r12
   1ec8c: 4c 89 a5 30 fe ff ff         	movq	%r12, -0x1d0(%rbp)
   1ec93: 4c 89 b5 68 fe ff ff         	movq	%r14, -0x198(%rbp)
   1ec9a: 4c 89 b5 80 fc ff ff         	movq	%r14, -0x380(%rbp)
   1eca1: e9 87 af ff ff               	jmp	0x19c2d <.text+0xb4ad>
   1eca6: 80 35 33 ce 11 00 4b         	xorb	$0x4b, 0x11ce33(%rip)   # 0x13bae0
   1ecad: 80 35 2d ce 11 00 4b         	xorb	$0x4b, 0x11ce2d(%rip)   # 0x13bae1
   1ecb4: c6 05 76 00 12 00 01         	movb	$0x1, 0x120076(%rip)    # 0x13ed31
   1ecbb: 40 8a 75 ce                  	movb	-0x32(%rbp), %sil
   1ecbf: 40 88 75 cf                  	movb	%sil, -0x31(%rbp)
   1ecc3: 48 8b b5 50 ff ff ff         	movq	-0xb0(%rbp), %rsi
   1ecca: 48 89 b5 70 ff ff ff         	movq	%rsi, -0x90(%rbp)
   1ecd1: 48 8b b5 60 ff ff ff         	movq	-0xa0(%rbp), %rsi
   1ecd8: 48 89 b5 78 ff ff ff         	movq	%rsi, -0x88(%rbp)
   1ecdf: 48 8b b5 e0 fe ff ff         	movq	-0x120(%rbp), %rsi
   1ece6: 48 89 75 80                  	movq	%rsi, -0x80(%rbp)
   1ecea: 48 8b b5 e8 fe ff ff         	movq	-0x118(%rbp), %rsi
   1ecf1: 48 89 75 88                  	movq	%rsi, -0x78(%rbp)
   1ecf5: 48 8b b5 48 ff ff ff         	movq	-0xb8(%rbp), %rsi
   1ecfc: 48 89 75 90                  	movq	%rsi, -0x70(%rbp)
   1ed00: 48 8b b5 58 ff ff ff         	movq	-0xa8(%rbp), %rsi
   1ed07: 48 89 75 98                  	movq	%rsi, -0x68(%rbp)
   1ed0b: 48 8b b5 30 ff ff ff         	movq	-0xd0(%rbp), %rsi
   1ed12: 48 89 75 a0                  	movq	%rsi, -0x60(%rbp)
   1ed16: 48 8b b5 28 ff ff ff         	movq	-0xd8(%rbp), %rsi
   1ed1d: 48 89 75 a8                  	movq	%rsi, -0x58(%rbp)
   1ed21: 48 89 45 b0                  	movq	%rax, -0x50(%rbp)
   1ed25: 48 89 c8                     	movq	%rcx, %rax
   1ed28: 48 89 7d b8                  	movq	%rdi, -0x48(%rbp)
   1ed2c: 4c 89 45 c0                  	movq	%r8, -0x40(%rbp)
   1ed30: 89 d6                        	movl	%edx, %esi
   1ed32: 48 ba d5 d8 9d e5 4f 83 2c d0	movabsq	$-0x2fd37cb01a62272b, %rdx # imm = 0xD02C834FE59DD8D5
   1ed3c: e9 ec ae ff ff               	jmp	0x19c2d <.text+0xb4ad>
   1ed41: 48 8b 85 f8 fc ff ff         	movq	-0x308(%rbp), %rax
   1ed48: 4c 8b b5 a8 fd ff ff         	movq	-0x258(%rbp), %r14
   1ed4f: 49 8d 0c 06                  	leaq	(%r14,%rax), %rcx
   1ed53: 48 89 c8                     	movq	%rcx, %rax
   1ed56: 48 89 8d 08 fe ff ff         	movq	%rcx, -0x1f8(%rbp)
   1ed5d: 48 3b 8d c0 fe ff ff         	cmpq	-0x140(%rbp), %rcx
   1ed64: 48 89 d1                     	movq	%rdx, %rcx
   1ed67: 48 ba b6 4f 0c 15 e8 63 79 1e	movabsq	$0x1e7963e8150c4fb6, %rdx # imm = 0x1E7963E8150C4FB6
   1ed71: 48 b8 ee fa 59 de bd 5c ac 26	movabsq	$0x26ac5cbdde59faee, %rax # imm = 0x26AC5CBDDE59FAEE
   1ed7b: 48 0f 42 d0                  	cmovbq	%rax, %rdx
   1ed7f: 8a 45 ce                     	movb	-0x32(%rbp), %al
   1ed82: 88 45 cf                     	movb	%al, -0x31(%rbp)
   1ed85: 48 8b 85 50 ff ff ff         	movq	-0xb0(%rbp), %rax
   1ed8c: 48 89 85 70 ff ff ff         	movq	%rax, -0x90(%rbp)
   1ed93: 48 8b 85 60 ff ff ff         	movq	-0xa0(%rbp), %rax
   1ed9a: 48 89 85 78 ff ff ff         	movq	%rax, -0x88(%rbp)
   1eda1: 4c 89 c0                     	movq	%r8, %rax
   1eda4: 4c 89 45 80                  	movq	%r8, -0x80(%rbp)
   1eda8: 4c 89 4d 88                  	movq	%r9, -0x78(%rbp)
   1edac: 48 8b 85 48 ff ff ff         	movq	-0xb8(%rbp), %rax
   1edb3: 48 89 45 90                  	movq	%rax, -0x70(%rbp)
   1edb7: 48 8b 85 58 ff ff ff         	movq	-0xa8(%rbp), %rax
   1edbe: 48 89 45 98                  	movq	%rax, -0x68(%rbp)
   1edc2: 48 89 4d a0                  	movq	%rcx, -0x60(%rbp)
   1edc6: 4c 89 5d a8                  	movq	%r11, -0x58(%rbp)
   1edca: 48 8b 85 40 ff ff ff         	movq	-0xc0(%rbp), %rax
   1edd1: 48 89 45 b0                  	movq	%rax, -0x50(%rbp)
   1edd5: 48 8b 85 08 ff ff ff         	movq	-0xf8(%rbp), %rax
   1eddc: 48 8b 8d 10 ff ff ff         	movq	-0xf0(%rbp), %rcx
   1ede3: 48 89 4d b8                  	movq	%rcx, -0x48(%rbp)
   1ede7: 48 8b 8d 20 ff ff ff         	movq	-0xe0(%rbp), %rcx
   1edee: 48 89 4d c0                  	movq	%rcx, -0x40(%rbp)
   1edf2: 4c 8b 9d 18 ff ff ff         	movq	-0xe8(%rbp), %r11
   1edf9: 4c 8b 95 38 ff ff ff         	movq	-0xc8(%rbp), %r10
   1ee00: 44 89 e6                     	movl	%r12d, %esi
   1ee03: 4c 89 b5 60 fe ff ff         	movq	%r14, -0x1a0(%rbp)
   1ee0a: e9 1e ae ff ff               	jmp	0x19c2d <.text+0xb4ad>
   1ee0f: 48 8b 85 c8 fc ff ff         	movq	-0x338(%rbp), %rax
   1ee16: 48 8b 8d 18 fc ff ff         	movq	-0x3e8(%rbp), %rcx
   1ee1d: 48 8b 04 c8                  	movq	(%rax,%rcx,8), %rax
   1ee21: 48 ba 29 f2 f0 59 9c 9c f9 6f	movabsq	$0x6ff99c9c59f0f229, %rdx # imm = 0x6FF99C9C59F0F229
   1ee2b: 48 89 85 20 fc ff ff         	movq	%rax, -0x3e0(%rbp)
   1ee32: 48 39 85 c0 fe ff ff         	cmpq	%rax, -0x140(%rbp)
   1ee39: 40 8a 75 cd                  	movb	-0x33(%rbp), %sil
   1ee3d: 48 8b 9d 00 ff ff ff         	movq	-0x100(%rbp), %rbx
   1ee44: 4c 8b ad f0 fe ff ff         	movq	-0x110(%rbp), %r13
   1ee4b: 4c 8b bd f8 fe ff ff         	movq	-0x108(%rbp), %r15
   1ee52: 74 0a                        	je	0x1ee5e <.text+0x106de>
   1ee54: 48 ba b7 2e be da de c6 84 ff	movabsq	$-0x7b39212541d149, %rdx # imm = 0xFF84C6DEDABE2EB7
   1ee5e: 8a 45 ce                     	movb	-0x32(%rbp), %al
   1ee61: 88 45 cf                     	movb	%al, -0x31(%rbp)
   1ee64: 48 8b 85 50 ff ff ff         	movq	-0xb0(%rbp), %rax
   1ee6b: 48 89 85 70 ff ff ff         	movq	%rax, -0x90(%rbp)
   1ee72: 48 8b 85 60 ff ff ff         	movq	-0xa0(%rbp), %rax
   1ee79: 48 89 85 78 ff ff ff         	movq	%rax, -0x88(%rbp)
   1ee80: 4c 89 f0                     	movq	%r14, %rax
   1ee83: 4c 89 75 80                  	movq	%r14, -0x80(%rbp)
   1ee87: e9 45 0f 00 00               	jmp	0x1fdd1 <.text+0x11651>
   1ee8c: 31 c0                        	xorl	%eax, %eax
   1ee8e: b1 01                        	movb	$0x1, %cl
   1ee90: f0                           	lock
   1ee91: 0f b0 0d 9a fe 11 00         	cmpxchgb	%cl, 0x11fe9a(%rip)     # 0x13ed32
   1ee98: 48 ba f2 a0 a6 1d 3d 70 e5 10	movabsq	$0x10e5703d1da6a0f2, %rdx # imm = 0x10E5703D1DA6A0F2
   1eea2: 74 0a                        	je	0x1eeae <.text+0x1072e>
   1eea4: 48 ba 9d c7 ee 13 aa 55 2d 6f	movabsq	$0x6f2d55aa13eec79d, %rdx # imm = 0x6F2D55AA13EEC79D
   1eeae: 8a 45 ce                     	movb	-0x32(%rbp), %al
   1eeb1: 88 45 cf                     	movb	%al, -0x31(%rbp)
   1eeb4: 48 8b 85 50 ff ff ff         	movq	-0xb0(%rbp), %rax
   1eebb: 48 89 85 70 ff ff ff         	movq	%rax, -0x90(%rbp)
   1eec2: 48 8b 85 60 ff ff ff         	movq	-0xa0(%rbp), %rax
   1eec9: 48 89 85 78 ff ff ff         	movq	%rax, -0x88(%rbp)
   1eed0: 48 8b 85 e0 fe ff ff         	movq	-0x120(%rbp), %rax
   1eed7: 48 89 45 80                  	movq	%rax, -0x80(%rbp)
   1eedb: 48 8b 85 e8 fe ff ff         	movq	-0x118(%rbp), %rax
   1eee2: 48 89 45 88                  	movq	%rax, -0x78(%rbp)
   1eee6: 48 8b 85 48 ff ff ff         	movq	-0xb8(%rbp), %rax
   1eeed: 48 89 45 90                  	movq	%rax, -0x70(%rbp)
   1eef1: 48 8b 85 58 ff ff ff         	movq	-0xa8(%rbp), %rax
   1eef8: 48 89 45 98                  	movq	%rax, -0x68(%rbp)
   1eefc: 48 8b 85 30 ff ff ff         	movq	-0xd0(%rbp), %rax
   1ef03: 48 89 45 a0                  	movq	%rax, -0x60(%rbp)
   1ef07: 48 8b 85 28 ff ff ff         	movq	-0xd8(%rbp), %rax
   1ef0e: 48 89 45 a8                  	movq	%rax, -0x58(%rbp)
   1ef12: 48 8b 85 40 ff ff ff         	movq	-0xc0(%rbp), %rax
   1ef19: 48 89 45 b0                  	movq	%rax, -0x50(%rbp)
   1ef1d: 4c 89 e0                     	movq	%r12, %rax
   1ef20: 48 89 7d b8                  	movq	%rdi, -0x48(%rbp)
   1ef24: 4c 89 45 c0                  	movq	%r8, -0x40(%rbp)
   1ef28: e9 00 ad ff ff               	jmp	0x19c2d <.text+0xb4ad>
   1ef2d: 31 c0                        	xorl	%eax, %eax
   1ef2f: b1 01                        	movb	$0x1, %cl
   1ef31: f0                           	lock
   1ef32: 0f b0 0d f7 fd 11 00         	cmpxchgb	%cl, 0x11fdf7(%rip)     # 0x13ed30
   1ef39: 48 ba 73 0f c8 e7 d3 c0 f8 a4	movabsq	$-0x5b073f2c1837f08d, %rdx # imm = 0xA4F8C0D3E7C80F73
   1ef43: 40 8a 75 cd                  	movb	-0x33(%rbp), %sil
   1ef47: 4c 8b 95 38 ff ff ff         	movq	-0xc8(%rbp), %r10
   1ef4e: 4c 8b bd f8 fe ff ff         	movq	-0x108(%rbp), %r15
   1ef55: 4c 8b 8d 18 ff ff ff         	movq	-0xe8(%rbp), %r9
   1ef5c: 4c 8b 85 20 ff ff ff         	movq	-0xe0(%rbp), %r8
   1ef63: 48 8b bd 10 ff ff ff         	movq	-0xf0(%rbp), %rdi
   1ef6a: 48 8b 8d 08 ff ff ff         	movq	-0xf8(%rbp), %rcx
   1ef71: 48 8b 85 40 ff ff ff         	movq	-0xc0(%rbp), %rax
   1ef78: 48 8b 9d 58 ff ff ff         	movq	-0xa8(%rbp), %rbx
   1ef7f: 4c 8b 9d 60 ff ff ff         	movq	-0xa0(%rbp), %r11
   1ef86: 4c 8b b5 50 ff ff ff         	movq	-0xb0(%rbp), %r14
   1ef8d: 74 0a                        	je	0x1ef99 <.text+0x10819>
   1ef8f: 48 ba 0c 0e 28 d1 5a 5a fb 96	movabsq	$-0x6904a5a52ed7f1f4, %rdx # imm = 0x96FB5A5AD1280E0C
   1ef99: 44 8a 65 ce                  	movb	-0x32(%rbp), %r12b
   1ef9d: 44 88 65 cf                  	movb	%r12b, -0x31(%rbp)
   1efa1: 4c 89 b5 70 ff ff ff         	movq	%r14, -0x90(%rbp)
   1efa8: 4c 89 9d 78 ff ff ff         	movq	%r11, -0x88(%rbp)
   1efaf: 4c 8b 9d e0 fe ff ff         	movq	-0x120(%rbp), %r11
   1efb6: 4c 89 5d 80                  	movq	%r11, -0x80(%rbp)
   1efba: 4c 8b 9d e8 fe ff ff         	movq	-0x118(%rbp), %r11
   1efc1: 4c 89 5d 88                  	movq	%r11, -0x78(%rbp)
   1efc5: 4c 8b 9d 48 ff ff ff         	movq	-0xb8(%rbp), %r11
   1efcc: 4c 89 5d 90                  	movq	%r11, -0x70(%rbp)
   1efd0: 48 89 5d 98                  	movq	%rbx, -0x68(%rbp)
   1efd4: 4c 8b 9d 30 ff ff ff         	movq	-0xd0(%rbp), %r11
   1efdb: 4c 89 5d a0                  	movq	%r11, -0x60(%rbp)
   1efdf: 4c 8b 9d 28 ff ff ff         	movq	-0xd8(%rbp), %r11
   1efe6: 4c 89 5d a8                  	movq	%r11, -0x58(%rbp)
   1efea: 48 89 45 b0                  	movq	%rax, -0x50(%rbp)
   1efee: 48 89 c8                     	movq	%rcx, %rax
   1eff1: 48 89 7d b8                  	movq	%rdi, -0x48(%rbp)
   1eff5: 4c 89 45 c0                  	movq	%r8, -0x40(%rbp)
   1eff9: 4d 89 cb                     	movq	%r9, %r11
   1effc: 4c 8b ad f0 fe ff ff         	movq	-0x110(%rbp), %r13
   1f003: 48 8b 9d 00 ff ff ff         	movq	-0x100(%rbp), %rbx
   1f00a: e9 1e ac ff ff               	jmp	0x19c2d <.text+0xb4ad>
   1f00f: 80 3d 1f fd 11 00 00         	cmpb	$0x0, 0x11fd1f(%rip)    # 0x13ed35
   1f016: 48 ba ca 09 51 68 46 89 2f b8	movabsq	$-0x47d076b997aef636, %rdx # imm = 0xB82F8946685109CA
   1f020: 0f 85 d8 2d 00 00            	jne	0x21dfe <.text+0x1367e>
   1f026: 48 ba d5 30 ad 4a 81 ea d8 fd	movabsq	$-0x227157eb552cf2b, %rdx # imm = 0xFDD8EA814AAD30D5
   1f030: e9 c9 2d 00 00               	jmp	0x21dfe <.text+0x1367e>
   1f035: 48 8b 85 b8 fe ff ff         	movq	-0x148(%rbp), %rax
   1f03c: 8a 40 03                     	movb	0x3(%rax), %al
   1f03f: 48 ba fc e8 ca 90 f4 dd a5 33	movabsq	$0x33a5ddf490cae8fc, %rdx # imm = 0x33A5DDF490CAE8FC
   1f049: 88 85 ce fe ff ff            	movb	%al, -0x132(%rbp)
   1f04f: 84 c0                        	testb	%al, %al
   1f051: 0f 84 6a 2a 00 00            	je	0x21ac1 <.text+0x13341>
   1f057: 48 ba e3 9e 1b f8 fd be d2 1b	movabsq	$0x1bd2befdf81b9ee3, %rdx # imm = 0x1BD2BEFDF81B9EE3
   1f061: e9 5b 2a 00 00               	jmp	0x21ac1 <.text+0x13341>
   1f066: 0f 57 c0                     	xorps	%xmm0, %xmm0
   1f069: 48 8b 85 10 fe ff ff         	movq	-0x1f0(%rbp), %rax
   1f070: 0f 29 40 10                  	movaps	%xmm0, 0x10(%rax)
   1f074: 0f 29 00                     	movaps	%xmm0, (%rax)
   1f077: 8a 45 ce                     	movb	-0x32(%rbp), %al
   1f07a: 88 45 cf                     	movb	%al, -0x31(%rbp)
   1f07d: 48 8b 85 50 ff ff ff         	movq	-0xb0(%rbp), %rax
   1f084: 48 89 85 70 ff ff ff         	movq	%rax, -0x90(%rbp)
   1f08b: 48 8b 85 60 ff ff ff         	movq	-0xa0(%rbp), %rax
   1f092: 48 89 85 78 ff ff ff         	movq	%rax, -0x88(%rbp)
   1f099: 48 8b 85 e0 fe ff ff         	movq	-0x120(%rbp), %rax
   1f0a0: 48 89 45 80                  	movq	%rax, -0x80(%rbp)
   1f0a4: 48 8b 85 e8 fe ff ff         	movq	-0x118(%rbp), %rax
   1f0ab: 48 89 45 88                  	movq	%rax, -0x78(%rbp)
   1f0af: 48 8b 85 48 ff ff ff         	movq	-0xb8(%rbp), %rax
   1f0b6: 48 89 45 90                  	movq	%rax, -0x70(%rbp)
   1f0ba: 48 8b 85 58 ff ff ff         	movq	-0xa8(%rbp), %rax
   1f0c1: 48 89 45 98                  	movq	%rax, -0x68(%rbp)
   1f0c5: 48 89 55 a0                  	movq	%rdx, -0x60(%rbp)
   1f0c9: 4c 89 5d a8                  	movq	%r11, -0x58(%rbp)
   1f0cd: 48 8b 85 40 ff ff ff         	movq	-0xc0(%rbp), %rax
   1f0d4: 48 89 45 b0                  	movq	%rax, -0x50(%rbp)
   1f0d8: 4c 89 e0                     	movq	%r12, %rax
   1f0db: 48 89 7d b8                  	movq	%rdi, -0x48(%rbp)
   1f0df: 4c 89 45 c0                  	movq	%r8, -0x40(%rbp)
   1f0e3: 4d 89 cb                     	movq	%r9, %r11
   1f0e6: 8a 95 de fe ff ff            	movb	-0x122(%rbp), %dl
   1f0ec: 88 95 dc fe ff ff            	movb	%dl, -0x124(%rbp)
   1f0f2: 31 d2                        	xorl	%edx, %edx
   1f0f4: 48 89 95 30 fd ff ff         	movq	%rdx, -0x2d0(%rbp)
   1f0fb: 48 ba f6 22 77 8d 3d 5f a4 ca	movabsq	$-0x355ba0c27288dd0a, %rdx # imm = 0xCAA45F3D8D7722F6
   1f105: e9 23 ab ff ff               	jmp	0x19c2d <.text+0xb4ad>
   1f10a: 8a 45 ce                     	movb	-0x32(%rbp), %al
   1f10d: 88 45 cf                     	movb	%al, -0x31(%rbp)
   1f110: 48 8b 85 50 ff ff ff         	movq	-0xb0(%rbp), %rax
   1f117: 48 89 85 70 ff ff ff         	movq	%rax, -0x90(%rbp)
   1f11e: 48 8b 85 60 ff ff ff         	movq	-0xa0(%rbp), %rax
   1f125: 48 89 85 78 ff ff ff         	movq	%rax, -0x88(%rbp)
   1f12c: 48 8b 85 e0 fe ff ff         	movq	-0x120(%rbp), %rax
   1f133: 48 89 45 80                  	movq	%rax, -0x80(%rbp)
   1f137: 48 8b 85 e8 fe ff ff         	movq	-0x118(%rbp), %rax
   1f13e: 48 89 45 88                  	movq	%rax, -0x78(%rbp)
   1f142: 48 8b 85 48 ff ff ff         	movq	-0xb8(%rbp), %rax
   1f149: 48 89 45 90                  	movq	%rax, -0x70(%rbp)
   1f14d: 48 8b 85 58 ff ff ff         	movq	-0xa8(%rbp), %rax
   1f154: 48 89 45 98                  	movq	%rax, -0x68(%rbp)
   1f158: 48 89 55 a0                  	movq	%rdx, -0x60(%rbp)
   1f15c: 4c 89 45 a8                  	movq	%r8, -0x58(%rbp)
   1f160: 48 89 4d b0                  	movq	%rcx, -0x50(%rbp)
   1f164: 4c 89 e0                     	movq	%r12, %rax
   1f167: 48 89 7d b8                  	movq	%rdi, -0x48(%rbp)
   1f16b: 4c 89 4d c0                  	movq	%r9, -0x40(%rbp)
   1f16f: c6 85 da fe ff ff 01         	movb	$0x1, -0x126(%rbp)
   1f176: 48 8b 95 b0 fe ff ff         	movq	-0x150(%rbp), %rdx
   1f17d: 48 89 95 58 fd ff ff         	movq	%rdx, -0x2a8(%rbp)
   1f184: 48 ba 08 5a 04 c0 3d e4 92 50	movabsq	$0x5092e43dc0045a08, %rdx # imm = 0x5092E43DC0045A08
   1f18e: e9 9a aa ff ff               	jmp	0x19c2d <.text+0xb4ad>
   1f193: 48 8b 85 40 fe ff ff         	movq	-0x1c0(%rbp), %rax
   1f19a: 48 8b 8d 48 fd ff ff         	movq	-0x2b8(%rbp), %rcx
   1f1a1: 48 89 48 08                  	movq	%rcx, 0x8(%rax)
   1f1a5: 48 8b 8d 70 fe ff ff         	movq	-0x190(%rbp), %rcx
   1f1ac: 48 89 08                     	movq	%rcx, (%rax)
   1f1af: 8a 45 ce                     	movb	-0x32(%rbp), %al
   1f1b2: 88 45 cf                     	movb	%al, -0x31(%rbp)
   1f1b5: 48 8b 85 50 ff ff ff         	movq	-0xb0(%rbp), %rax
   1f1bc: 48 89 85 70 ff ff ff         	movq	%rax, -0x90(%rbp)
   1f1c3: 48 8b 85 60 ff ff ff         	movq	-0xa0(%rbp), %rax
   1f1ca: 48 89 85 78 ff ff ff         	movq	%rax, -0x88(%rbp)
   1f1d1: 4c 89 c0                     	movq	%r8, %rax
   1f1d4: 4c 89 45 80                  	movq	%r8, -0x80(%rbp)
   1f1d8: 4c 89 4d 88                  	movq	%r9, -0x78(%rbp)
   1f1dc: 48 8b 85 48 ff ff ff         	movq	-0xb8(%rbp), %rax
   1f1e3: 48 89 45 90                  	movq	%rax, -0x70(%rbp)
   1f1e7: 48 8b 85 58 ff ff ff         	movq	-0xa8(%rbp), %rax
   1f1ee: 48 89 45 98                  	movq	%rax, -0x68(%rbp)
   1f1f2: 48 89 55 a0                  	movq	%rdx, -0x60(%rbp)
   1f1f6: 4c 89 5d a8                  	movq	%r11, -0x58(%rbp)
   1f1fa: 48 8b 85 40 ff ff ff         	movq	-0xc0(%rbp), %rax
   1f201: 48 89 45 b0                  	movq	%rax, -0x50(%rbp)
   1f205: 48 8b 85 08 ff ff ff         	movq	-0xf8(%rbp), %rax
   1f20c: 48 8b 8d 10 ff ff ff         	movq	-0xf0(%rbp), %rcx
   1f213: 48 89 4d b8                  	movq	%rcx, -0x48(%rbp)
   1f217: 48 8b 8d 20 ff ff ff         	movq	-0xe0(%rbp), %rcx
   1f21e: 48 89 4d c0                  	movq	%rcx, -0x40(%rbp)
   1f222: 4c 8b 9d 18 ff ff ff         	movq	-0xe8(%rbp), %r11
   1f229: 4c 8b 95 38 ff ff ff         	movq	-0xc8(%rbp), %r10
   1f230: 44 89 e6                     	movl	%r12d, %esi
   1f233: 48 ba 5c 36 e2 b2 0f e4 84 cf	movabsq	$-0x307b1bf04d1dc9a4, %rdx # imm = 0xCF84E40FB2E2365C
   1f23d: e9 eb a9 ff ff               	jmp	0x19c2d <.text+0xb4ad>
   1f242: 48 8b 85 48 fe ff ff         	movq	-0x1b8(%rbp), %rax
   1f249: 48 3b 85 e0 fc ff ff         	cmpq	-0x320(%rbp), %rax
   1f250: 48 ba ec ae b0 db 62 22 af 09	movabsq	$0x9af2262dbb0aeec, %rdx # imm = 0x9AF2262DBB0AEEC
   1f25a: 48 b8 ee 54 af 91 bd 01 41 e8	movabsq	$-0x17befe426e50ab12, %rax # imm = 0xE84101BD91AF54EE
   1f264: 48 0f 44 d0                  	cmoveq	%rax, %rdx
   1f268: 8a 45 ce                     	movb	-0x32(%rbp), %al
   1f26b: 88 45 cf                     	movb	%al, -0x31(%rbp)
   1f26e: 48 8b 85 50 ff ff ff         	movq	-0xb0(%rbp), %rax
   1f275: 48 89 85 70 ff ff ff         	movq	%rax, -0x90(%rbp)
   1f27c: 48 8b 85 60 ff ff ff         	movq	-0xa0(%rbp), %rax
   1f283: 48 89 85 78 ff ff ff         	movq	%rax, -0x88(%rbp)
   1f28a: 48 89 f8                     	movq	%rdi, %rax
   1f28d: 48 89 7d 80                  	movq	%rdi, -0x80(%rbp)
   1f291: e9 9e 0f 00 00               	jmp	0x20234 <.text+0x11ab4>
   1f296: 48 8b 85 d8 fc ff ff         	movq	-0x328(%rbp), %rax
   1f29d: 48 89 c1                     	movq	%rax, %rcx
   1f2a0: 48 f7 d1                     	notq	%rcx
   1f2a3: 48 03 8d c0 fe ff ff         	addq	-0x140(%rbp), %rcx
   1f2aa: 48 39 c8                     	cmpq	%rcx, %rax
   1f2ad: 48 0f 47 c8                  	cmovaq	%rax, %rcx
   1f2b1: 48 ff c1                     	incq	%rcx
   1f2b4: 48 89 8d 10 fd ff ff         	movq	%rcx, -0x2f0(%rbp)
   1f2bb: 8a 45 ce                     	movb	-0x32(%rbp), %al
   1f2be: 88 45 cf                     	movb	%al, -0x31(%rbp)
   1f2c1: 48 8b 85 50 ff ff ff         	movq	-0xb0(%rbp), %rax
   1f2c8: 48 89 85 70 ff ff ff         	movq	%rax, -0x90(%rbp)
   1f2cf: 48 8b 85 60 ff ff ff         	movq	-0xa0(%rbp), %rax
   1f2d6: 48 89 85 78 ff ff ff         	movq	%rax, -0x88(%rbp)
   1f2dd: 48 8b 85 e0 fe ff ff         	movq	-0x120(%rbp), %rax
   1f2e4: 48 89 45 80                  	movq	%rax, -0x80(%rbp)
   1f2e8: 48 8b 85 e8 fe ff ff         	movq	-0x118(%rbp), %rax
   1f2ef: 48 89 45 88                  	movq	%rax, -0x78(%rbp)
   1f2f3: 48 8b 85 48 ff ff ff         	movq	-0xb8(%rbp), %rax
   1f2fa: 48 89 45 90                  	movq	%rax, -0x70(%rbp)
   1f2fe: 48 8b 85 58 ff ff ff         	movq	-0xa8(%rbp), %rax
   1f305: 48 89 45 98                  	movq	%rax, -0x68(%rbp)
   1f309: 48 89 55 a0                  	movq	%rdx, -0x60(%rbp)
   1f30d: 4c 89 5d a8                  	movq	%r11, -0x58(%rbp)
   1f311: 48 8b 85 40 ff ff ff         	movq	-0xc0(%rbp), %rax
   1f318: 48 89 45 b0                  	movq	%rax, -0x50(%rbp)
   1f31c: 4c 89 e0                     	movq	%r12, %rax
   1f31f: 48 89 7d b8                  	movq	%rdi, -0x48(%rbp)
   1f323: 4c 89 45 c0                  	movq	%r8, -0x40(%rbp)
   1f327: 4d 89 cb                     	movq	%r9, %r11
   1f32a: ba 00 00 00 00               	movl	$0x0, %edx
   1f32f: 48 89 95 18 fd ff ff         	movq	%rdx, -0x2e8(%rbp)
   1f336: 48 ba 20 00 88 a4 ce 0e 3b 18	movabsq	$0x183b0ecea4880020, %rdx # imm = 0x183B0ECEA4880020
   1f340: e9 e8 a8 ff ff               	jmp	0x19c2d <.text+0xb4ad>
   1f345: f6 85 d2 fe ff ff 01         	testb	$0x1, -0x12e(%rbp)
   1f34c: 48 ba 10 21 37 41 e5 53 43 5a	movabsq	$0x5a4353e541372110, %rdx # imm = 0x5A4353E541372110
   1f356: 48 b8 d3 ac dc d1 78 c0 13 e5	movabsq	$-0x1aec3f872e23532d, %rax # imm = 0xE513C078D1DCACD3
   1f360: e9 a2 0e 00 00               	jmp	0x20207 <.text+0x11a87>
   1f365: 48 ba 02 84 46 ec 12 00 d3 79	movabsq	$0x79d30012ec468402, %rdx # imm = 0x79D30012EC468402
   1f36f: 8a 85 d8 fe ff ff            	movb	-0x128(%rbp), %al
   1f375: 38 85 d5 fe ff ff            	cmpb	%al, -0x12b(%rbp)
   1f37b: 40 8a 75 cd                  	movb	-0x33(%rbp), %sil
   1f37f: 48 8b 9d 00 ff ff ff         	movq	-0x100(%rbp), %rbx
   1f386: 4c 8b ad f0 fe ff ff         	movq	-0x110(%rbp), %r13
   1f38d: 4c 8b bd f8 fe ff ff         	movq	-0x108(%rbp), %r15
   1f394: 0f 82 0e 0a 00 00            	jb	0x1fda8 <.text+0x11628>
   1f39a: 48 ba d1 bf 7f 53 77 5f c2 69	movabsq	$0x69c25f77537fbfd1, %rdx # imm = 0x69C25F77537FBFD1
   1f3a4: e9 ff 09 00 00               	jmp	0x1fda8 <.text+0x11628>
   1f3a9: 8a 45 ce                     	movb	-0x32(%rbp), %al
   1f3ac: 88 45 cf                     	movb	%al, -0x31(%rbp)
   1f3af: 48 8b 85 50 ff ff ff         	movq	-0xb0(%rbp), %rax
   1f3b6: 48 89 85 70 ff ff ff         	movq	%rax, -0x90(%rbp)
   1f3bd: 48 8b 85 60 ff ff ff         	movq	-0xa0(%rbp), %rax
   1f3c4: 48 89 85 78 ff ff ff         	movq	%rax, -0x88(%rbp)
   1f3cb: 4c 89 c0                     	movq	%r8, %rax
   1f3ce: 4c 89 45 80                  	movq	%r8, -0x80(%rbp)
   1f3d2: 4c 89 4d 88                  	movq	%r9, -0x78(%rbp)
   1f3d6: 48 8b 85 48 ff ff ff         	movq	-0xb8(%rbp), %rax
   1f3dd: 48 89 45 90                  	movq	%rax, -0x70(%rbp)
   1f3e1: 48 8b 85 58 ff ff ff         	movq	-0xa8(%rbp), %rax
   1f3e8: 48 89 45 98                  	movq	%rax, -0x68(%rbp)
   1f3ec: 48 89 4d a0                  	movq	%rcx, -0x60(%rbp)
   1f3f0: 4c 89 5d a8                  	movq	%r11, -0x58(%rbp)
   1f3f4: 48 8b 85 40 ff ff ff         	movq	-0xc0(%rbp), %rax
   1f3fb: 48 89 45 b0                  	movq	%rax, -0x50(%rbp)
   1f3ff: 48 8b 85 08 ff ff ff         	movq	-0xf8(%rbp), %rax
   1f406: 48 8b 8d 10 ff ff ff         	movq	-0xf0(%rbp), %rcx
   1f40d: 48 89 4d b8                  	movq	%rcx, -0x48(%rbp)
   1f411: 48 8b 8d 20 ff ff ff         	movq	-0xe0(%rbp), %rcx
   1f418: 48 89 4d c0                  	movq	%rcx, -0x40(%rbp)
   1f41c: 4c 8b 9d 18 ff ff ff         	movq	-0xe8(%rbp), %r11
   1f423: 4c 8b 95 38 ff ff ff         	movq	-0xc8(%rbp), %r10
   1f42a: 44 89 e6                     	movl	%r12d, %esi
   1f42d: 48 8b 95 e8 fc ff ff         	movq	-0x318(%rbp), %rdx
   1f434: 4c 8d 72 01                  	leaq	0x1(%rdx), %r14
   1f438: 4c 89 b5 68 fd ff ff         	movq	%r14, -0x298(%rbp)
   1f43f: 48 89 95 70 fd ff ff         	movq	%rdx, -0x290(%rbp)
   1f446: 48 ba d4 2e b2 59 e8 5f c1 e5	movabsq	$-0x1a3ea017a64dd12c, %rdx # imm = 0xE5C15FE859B22ED4
   1f450: e9 d8 a7 ff ff               	jmp	0x19c2d <.text+0xb4ad>
   1f455: 8a 45 ce                     	movb	-0x32(%rbp), %al
   1f458: 88 45 cf                     	movb	%al, -0x31(%rbp)
   1f45b: 48 8b 85 50 ff ff ff         	movq	-0xb0(%rbp), %rax
   1f462: 48 89 85 70 ff ff ff         	movq	%rax, -0x90(%rbp)
   1f469: 48 8b 85 60 ff ff ff         	movq	-0xa0(%rbp), %rax
   1f470: 48 89 85 78 ff ff ff         	movq	%rax, -0x88(%rbp)
   1f477: 4c 89 c0                     	movq	%r8, %rax
   1f47a: 4c 89 45 80                  	movq	%r8, -0x80(%rbp)
   1f47e: 4c 89 4d 88                  	movq	%r9, -0x78(%rbp)
   1f482: 48 8b 85 48 ff ff ff         	movq	-0xb8(%rbp), %rax
   1f489: 48 89 45 90                  	movq	%rax, -0x70(%rbp)
   1f48d: 48 8b 85 58 ff ff ff         	movq	-0xa8(%rbp), %rax
   1f494: 48 89 45 98                  	movq	%rax, -0x68(%rbp)
   1f498: 48 8b 85 30 ff ff ff         	movq	-0xd0(%rbp), %rax
   1f49f: 48 89 45 a0                  	movq	%rax, -0x60(%rbp)
   1f4a3: 48 8b 85 28 ff ff ff         	movq	-0xd8(%rbp), %rax
   1f4aa: 48 89 45 a8                  	movq	%rax, -0x58(%rbp)
   1f4ae: 48 8b 85 40 ff ff ff         	movq	-0xc0(%rbp), %rax
   1f4b5: 48 89 45 b0                  	movq	%rax, -0x50(%rbp)
   1f4b9: 48 8b 85 08 ff ff ff         	movq	-0xf8(%rbp), %rax
   1f4c0: 48 8b 8d 10 ff ff ff         	movq	-0xf0(%rbp), %rcx
   1f4c7: 48 89 4d b8                  	movq	%rcx, -0x48(%rbp)
   1f4cb: 4c 8b 85 20 ff ff ff         	movq	-0xe0(%rbp), %r8
   1f4d2: 4c 89 85 f0 fc ff ff         	movq	%r8, -0x310(%rbp)
   1f4d9: 4c 89 45 c0                  	movq	%r8, -0x40(%rbp)
   1f4dd: 4c 8b 9d 18 ff ff ff         	movq	-0xe8(%rbp), %r11
   1f4e4: 4c 89 da                     	movq	%r11, %rdx
   1f4e7: 4c 89 9d f8 fc ff ff         	movq	%r11, -0x308(%rbp)
   1f4ee: 4c 8b bd f8 fe ff ff         	movq	-0x108(%rbp), %r15
   1f4f5: 4c 8b ad f0 fe ff ff         	movq	-0x110(%rbp), %r13
   1f4fc: 48 8b 9d 00 ff ff ff         	movq	-0x100(%rbp), %rbx
   1f503: 4c 8b 95 38 ff ff ff         	movq	-0xc8(%rbp), %r10
   1f50a: 8a 55 cd                     	movb	-0x33(%rbp), %dl
   1f50d: 89 d6                        	movl	%edx, %esi
   1f50f: 6a 01                        	pushq	$0x1
   1f511: 5a                           	popq	%rdx
   1f512: e9 12 2e 00 00               	jmp	0x22329 <.text+0x13ba9>
   1f517: 4c 8b a5 48 ff ff ff         	movq	-0xb8(%rbp), %r12
   1f51e: 48 ba d5 b4 95 59 ca a0 2a ac	movabsq	$-0x53d55f35a66a4b2b, %rdx # imm = 0xAC2AA0CA5995B4D5
   1f528: 44 8a b5 dc fe ff ff         	movb	-0x124(%rbp), %r14b
   1f52f: 45 84 f6                     	testb	%r14b, %r14b
   1f532: 40 8a 75 cd                  	movb	-0x33(%rbp), %sil
   1f536: 4c 8b 95 38 ff ff ff         	movq	-0xc8(%rbp), %r10
   1f53d: 48 8b 9d 00 ff ff ff         	movq	-0x100(%rbp), %rbx
   1f544: 4c 8b ad f0 fe ff ff         	movq	-0x110(%rbp), %r13
   1f54b: 4c 8b bd f8 fe ff ff         	movq	-0x108(%rbp), %r15
   1f552: 4c 8b 8d 18 ff ff ff         	movq	-0xe8(%rbp), %r9
   1f559: 4c 8b 85 20 ff ff ff         	movq	-0xe0(%rbp), %r8
   1f560: 48 8b bd 10 ff ff ff         	movq	-0xf0(%rbp), %rdi
   1f567: 48 8b 8d 08 ff ff ff         	movq	-0xf8(%rbp), %rcx
   1f56e: 48 8b 85 40 ff ff ff         	movq	-0xc0(%rbp), %rax
   1f575: 74 0a                        	je	0x1f581 <.text+0x10e01>
   1f577: 48 ba c0 72 a3 8b 1a 2c 22 c0	movabsq	$-0x3fddd3e5745c8d40, %rdx # imm = 0xC0222C1A8BA372C0
   1f581: 44 8a 5d ce                  	movb	-0x32(%rbp), %r11b
   1f585: 44 88 5d cf                  	movb	%r11b, -0x31(%rbp)
   1f589: 4c 8b 9d 50 ff ff ff         	movq	-0xb0(%rbp), %r11
   1f590: 4c 89 9d 70 ff ff ff         	movq	%r11, -0x90(%rbp)
   1f597: 4c 8b 9d 60 ff ff ff         	movq	-0xa0(%rbp), %r11
   1f59e: 4c 89 9d 78 ff ff ff         	movq	%r11, -0x88(%rbp)
   1f5a5: 4c 8b 9d e0 fe ff ff         	movq	-0x120(%rbp), %r11
   1f5ac: 4c 89 5d 80                  	movq	%r11, -0x80(%rbp)
   1f5b0: 4c 8b 9d e8 fe ff ff         	movq	-0x118(%rbp), %r11
   1f5b7: 4c 89 5d 88                  	movq	%r11, -0x78(%rbp)
   1f5bb: 4c 89 65 90                  	movq	%r12, -0x70(%rbp)
   1f5bf: 4c 8b 9d 58 ff ff ff         	movq	-0xa8(%rbp), %r11
   1f5c6: 4c 89 5d 98                  	movq	%r11, -0x68(%rbp)
   1f5ca: 4c 8b 9d 30 ff ff ff         	movq	-0xd0(%rbp), %r11
   1f5d1: 4c 89 5d a0                  	movq	%r11, -0x60(%rbp)
   1f5d5: 4c 8b 9d 28 ff ff ff         	movq	-0xd8(%rbp), %r11
   1f5dc: 4c 89 5d a8                  	movq	%r11, -0x58(%rbp)
   1f5e0: 48 89 45 b0                  	movq	%rax, -0x50(%rbp)
   1f5e4: 48 89 c8                     	movq	%rcx, %rax
   1f5e7: 48 89 7d b8                  	movq	%rdi, -0x48(%rbp)
   1f5eb: 4c 89 45 c0                  	movq	%r8, -0x40(%rbp)
   1f5ef: 4d 89 cb                     	movq	%r9, %r11
   1f5f2: 44 88 b5 d3 fe ff ff         	movb	%r14b, -0x12d(%rbp)
   1f5f9: 4c 8b b5 30 fd ff ff         	movq	-0x2d0(%rbp), %r14
   1f600: 4c 89 b5 c0 fe ff ff         	movq	%r14, -0x140(%rbp)
   1f607: e9 21 a6 ff ff               	jmp	0x19c2d <.text+0xb4ad>
   1f60c: 48 8b 85 e8 fc ff ff         	movq	-0x318(%rbp), %rax
   1f613: 4d 89 c2                     	movq	%r8, %r10
   1f616: 4c 8b 85 78 fd ff ff         	movq	-0x288(%rbp), %r8
   1f61d: 49 8d 0c 00                  	leaq	(%r8,%rax), %rcx
   1f621: 48 89 c8                     	movq	%rcx, %rax
   1f624: 48 89 8d 00 fe ff ff         	movq	%rcx, -0x200(%rbp)
   1f62b: 48 3b 8d c0 fe ff ff         	cmpq	-0x140(%rbp), %rcx
   1f632: 48 89 d1                     	movq	%rdx, %rcx
   1f635: 48 ba 42 ba 0a 7b 0c 43 74 d5	movabsq	$-0x2a8bbcf384f545be, %rdx # imm = 0xD574430C7B0ABA42
   1f63f: 48 b8 2a 48 2d 2e be 00 f0 34	movabsq	$0x34f000be2e2d482a, %rax # imm = 0x34F000BE2E2D482A
   1f649: 48 0f 42 d0                  	cmovbq	%rax, %rdx
   1f64d: 8a 45 ce                     	movb	-0x32(%rbp), %al
   1f650: 88 45 cf                     	movb	%al, -0x31(%rbp)
   1f653: 48 8b 85 50 ff ff ff         	movq	-0xb0(%rbp), %rax
   1f65a: 48 89 85 70 ff ff ff         	movq	%rax, -0x90(%rbp)
   1f661: 48 8b 85 60 ff ff ff         	movq	-0xa0(%rbp), %rax
   1f668: 48 89 85 78 ff ff ff         	movq	%rax, -0x88(%rbp)
   1f66f: 4c 89 55 80                  	movq	%r10, -0x80(%rbp)
   1f673: 4c 89 4d 88                  	movq	%r9, -0x78(%rbp)
   1f677: 48 8b 85 48 ff ff ff         	movq	-0xb8(%rbp), %rax
   1f67e: 48 89 45 90                  	movq	%rax, -0x70(%rbp)
   1f682: 48 8b 85 58 ff ff ff         	movq	-0xa8(%rbp), %rax
   1f689: 48 89 45 98                  	movq	%rax, -0x68(%rbp)
   1f68d: 48 89 4d a0                  	movq	%rcx, -0x60(%rbp)
   1f691: 4c 89 5d a8                  	movq	%r11, -0x58(%rbp)
   1f695: 48 8b 85 40 ff ff ff         	movq	-0xc0(%rbp), %rax
   1f69c: 48 89 45 b0                  	movq	%rax, -0x50(%rbp)
   1f6a0: 4c 89 e0                     	movq	%r12, %rax
   1f6a3: 48 89 7d b8                  	movq	%rdi, -0x48(%rbp)
   1f6a7: 48 89 75 c0                  	movq	%rsi, -0x40(%rbp)
   1f6ab: 49 89 db                     	movq	%rbx, %r11
   1f6ae: 48 8b 9d 00 ff ff ff         	movq	-0x100(%rbp), %rbx
   1f6b5: 4c 8b 95 38 ff ff ff         	movq	-0xc8(%rbp), %r10
   1f6bc: 44 89 f6                     	movl	%r14d, %esi
   1f6bf: 4c 89 85 48 fe ff ff         	movq	%r8, -0x1b8(%rbp)
   1f6c6: e9 62 a5 ff ff               	jmp	0x19c2d <.text+0xb4ad>
   1f6cb: f6 85 d4 fe ff ff 01         	testb	$0x1, -0x12c(%rbp)
   1f6d2: 48 ba 60 17 8d 52 70 37 19 6b	movabsq	$0x6b193770528d1760, %rdx # imm = 0x6B193770528D1760
   1f6dc: 48 b8 4b 83 08 9e 65 09 cf fd	movabsq	$-0x230f69a61f77cb5, %rax # imm = 0xFDCF09659E08834B
   1f6e6: 48 0f 45 d0                  	cmovneq	%rax, %rdx
   1f6ea: 8a 45 ce                     	movb	-0x32(%rbp), %al
   1f6ed: 88 45 cf                     	movb	%al, -0x31(%rbp)
   1f6f0: 48 8b 85 50 ff ff ff         	movq	-0xb0(%rbp), %rax
   1f6f7: 48 89 85 70 ff ff ff         	movq	%rax, -0x90(%rbp)
   1f6fe: 48 8b 85 60 ff ff ff         	movq	-0xa0(%rbp), %rax
   1f705: 48 89 85 78 ff ff ff         	movq	%rax, -0x88(%rbp)
   1f70c: 48 8b 85 e0 fe ff ff         	movq	-0x120(%rbp), %rax
   1f713: 48 89 45 80                  	movq	%rax, -0x80(%rbp)
   1f717: 48 8b 85 e8 fe ff ff         	movq	-0x118(%rbp), %rax
   1f71e: 48 89 45 88                  	movq	%rax, -0x78(%rbp)
   1f722: 48 8b 85 48 ff ff ff         	movq	-0xb8(%rbp), %rax
   1f729: 48 89 45 90                  	movq	%rax, -0x70(%rbp)
   1f72d: 48 8b 85 58 ff ff ff         	movq	-0xa8(%rbp), %rax
   1f734: 48 89 45 98                  	movq	%rax, -0x68(%rbp)
   1f738: 48 8b 85 30 ff ff ff         	movq	-0xd0(%rbp), %rax
   1f73f: 48 89 45 a0                  	movq	%rax, -0x60(%rbp)
   1f743: 48 8b 85 28 ff ff ff         	movq	-0xd8(%rbp), %rax
   1f74a: 48 89 45 a8                  	movq	%rax, -0x58(%rbp)
   1f74e: 48 8b 85 40 ff ff ff         	movq	-0xc0(%rbp), %rax
   1f755: 48 89 45 b0                  	movq	%rax, -0x50(%rbp)
   1f759: 48 8b 85 08 ff ff ff         	movq	-0xf8(%rbp), %rax
   1f760: e9 c1 30 00 00               	jmp	0x22826 <.text+0x140a6>
   1f765: 0f b6 8d d3 fe ff ff         	movzbl	-0x12d(%rbp), %ecx
   1f76c: 6a 01                        	pushq	$0x1
   1f76e: 58                           	popq	%rax
   1f76f: 48 d3 e0                     	shlq	%cl, %rax
   1f772: 48 89 ca                     	movq	%rcx, %rdx
   1f775: 48 c1 ea 06                  	shrq	$0x6, %rdx
   1f779: 48 8b b5 10 fe ff ff         	movq	-0x1f0(%rbp), %rsi
   1f780: 48 09 04 d6                  	orq	%rax, (%rsi,%rdx,8)
   1f784: 48 8b b5 c0 fe ff ff         	movq	-0x140(%rbp), %rsi
   1f78b: 48 8d 7e 01                  	leaq	0x1(%rsi), %rdi
   1f78f: 48 8b 85 c8 fc ff ff         	movq	-0x338(%rbp), %rax
   1f796: 48 89 fa                     	movq	%rdi, %rdx
   1f799: 48 89 bd 30 fd ff ff         	movq	%rdi, -0x2d0(%rbp)
   1f7a0: 48 89 3c c8                  	movq	%rdi, (%rax,%rcx,8)
   1f7a4: 8a 45 ce                     	movb	-0x32(%rbp), %al
   1f7a7: 88 45 cf                     	movb	%al, -0x31(%rbp)
   1f7aa: 48 8b 85 50 ff ff ff         	movq	-0xb0(%rbp), %rax
   1f7b1: 48 89 85 70 ff ff ff         	movq	%rax, -0x90(%rbp)
   1f7b8: 48 8b 85 60 ff ff ff         	movq	-0xa0(%rbp), %rax
   1f7bf: 48 89 85 78 ff ff ff         	movq	%rax, -0x88(%rbp)
   1f7c6: 4c 89 c0                     	movq	%r8, %rax
   1f7c9: 4c 89 45 80                  	movq	%r8, -0x80(%rbp)
   1f7cd: 4c 89 4d 88                  	movq	%r9, -0x78(%rbp)
   1f7d1: 48 8b 85 48 ff ff ff         	movq	-0xb8(%rbp), %rax
   1f7d8: 48 89 45 90                  	movq	%rax, -0x70(%rbp)
   1f7dc: 48 8b 85 58 ff ff ff         	movq	-0xa8(%rbp), %rax
   1f7e3: 48 89 45 98                  	movq	%rax, -0x68(%rbp)
   1f7e7: 48 8b 85 30 ff ff ff         	movq	-0xd0(%rbp), %rax
   1f7ee: 48 89 45 a0                  	movq	%rax, -0x60(%rbp)
   1f7f2: 48 8b 85 28 ff ff ff         	movq	-0xd8(%rbp), %rax
   1f7f9: 48 89 45 a8                  	movq	%rax, -0x58(%rbp)
   1f7fd: 48 8b 85 40 ff ff ff         	movq	-0xc0(%rbp), %rax
   1f804: 48 89 45 b0                  	movq	%rax, -0x50(%rbp)
   1f808: 48 8b 85 08 ff ff ff         	movq	-0xf8(%rbp), %rax
   1f80f: 48 8b 8d 10 ff ff ff         	movq	-0xf0(%rbp), %rcx
   1f816: 48 89 4d b8                  	movq	%rcx, -0x48(%rbp)
   1f81a: 48 8b 8d 20 ff ff ff         	movq	-0xe0(%rbp), %rcx
   1f821: 48 89 4d c0                  	movq	%rcx, -0x40(%rbp)
   1f825: 4c 8b 9d 18 ff ff ff         	movq	-0xe8(%rbp), %r11
   1f82c: 4c 8b 95 38 ff ff ff         	movq	-0xc8(%rbp), %r10
   1f833: 48 8b 95 b8 fe ff ff         	movq	-0x148(%rbp), %rdx
   1f83a: 8a 54 32 01                  	movb	0x1(%rdx,%rsi), %dl
   1f83e: 88 95 dc fe ff ff            	movb	%dl, -0x124(%rbp)
   1f844: 44 89 e6                     	movl	%r12d, %esi
   1f847: 48 ba f6 22 77 8d 3d 5f a4 ca	movabsq	$-0x355ba0c27288dd0a, %rdx # imm = 0xCAA45F3D8D7722F6
   1f851: e9 d7 a3 ff ff               	jmp	0x19c2d <.text+0xb4ad>
   1f856: 48 8b bd d0 fc ff ff         	movq	-0x330(%rbp), %rdi
   1f85d: be 80 10 00 00               	movl	$0x1080, %esi           # imm = 0x1080
   1f862: 48 8b 95 c0 fc ff ff         	movq	-0x340(%rbp), %rdx
   1f869: e8 32 30 11 00               	callq	0x1328a0 <fgets@plt>
   1f86e: 48 ba bf ef f1 d0 8e 1f 50 0c	movabsq	$0xc501f8ed0f1efbf, %rdx # imm = 0xC501F8ED0F1EFBF
   1f878: 48 85 c0                     	testq	%rax, %rax
   1f87b: 0f 84 2e 09 00 00            	je	0x201af <.text+0x11a2f>
   1f881: 48 ba e5 ce 16 49 0d a4 6b 46	movabsq	$0x466ba40d4916cee5, %rdx # imm = 0x466BA40D4916CEE5
   1f88b: e9 1f 09 00 00               	jmp	0x201af <.text+0x11a2f>
   1f890: 48 8b 85 20 fe ff ff         	movq	-0x1e0(%rbp), %rax
   1f897: 48 8b 8d 48 fe ff ff         	movq	-0x1b8(%rbp), %rcx
   1f89e: 48 01 c8                     	addq	%rcx, %rax
   1f8a1: 48 8b 8d b8 fe ff ff         	movq	-0x148(%rbp), %rcx
   1f8a8: 40 8a 34 01                  	movb	(%rcx,%rax), %sil
   1f8ac: 48 8b 85 00 fe ff ff         	movq	-0x200(%rbp), %rax
   1f8b3: 8a 04 01                     	movb	(%rcx,%rax), %al
   1f8b6: 48 ba 1c 04 e4 d0 02 24 ca ea	movabsq	$-0x1535dbfd2f1bfbe4, %rdx # imm = 0xEACA2402D0E4041C
   1f8c0: 40 88 b5 d5 fe ff ff         	movb	%sil, -0x12b(%rbp)
   1f8c7: 88 85 d8 fe ff ff            	movb	%al, -0x128(%rbp)
   1f8cd: 40 38 c6                     	cmpb	%al, %sil
   1f8d0: 0f 84 eb 21 00 00            	je	0x21ac1 <.text+0x13341>
   1f8d6: 48 ba f5 d4 74 d2 9e 3a a7 6b	movabsq	$0x6ba73a9ed274d4f5, %rdx # imm = 0x6BA73A9ED274D4F5
   1f8e0: e9 dc 21 00 00               	jmp	0x21ac1 <.text+0x13341>
   1f8e5: 8a 45 ce                     	movb	-0x32(%rbp), %al
   1f8e8: 88 45 cf                     	movb	%al, -0x31(%rbp)
   1f8eb: 48 8b 85 50 ff ff ff         	movq	-0xb0(%rbp), %rax
   1f8f2: 48 89 85 70 ff ff ff         	movq	%rax, -0x90(%rbp)
   1f8f9: 48 8b 85 60 ff ff ff         	movq	-0xa0(%rbp), %rax
   1f900: 48 89 85 78 ff ff ff         	movq	%rax, -0x88(%rbp)
   1f907: 4c 89 75 80                  	movq	%r14, -0x80(%rbp)
   1f90b: 4c 89 4d 88                  	movq	%r9, -0x78(%rbp)
   1f90f: 48 8b 85 48 ff ff ff         	movq	-0xb8(%rbp), %rax
   1f916: 48 89 45 90                  	movq	%rax, -0x70(%rbp)
   1f91a: 48 8b 85 58 ff ff ff         	movq	-0xa8(%rbp), %rax
   1f921: 48 89 45 98                  	movq	%rax, -0x68(%rbp)
   1f925: 48 8b 85 30 ff ff ff         	movq	-0xd0(%rbp), %rax
   1f92c: 48 89 45 a0                  	movq	%rax, -0x60(%rbp)
   1f930: 48 8b 85 28 ff ff ff         	movq	-0xd8(%rbp), %rax
   1f937: 48 89 45 a8                  	movq	%rax, -0x58(%rbp)
   1f93b: 48 8b 85 10 ff ff ff         	movq	-0xf0(%rbp), %rax
   1f942: 48 89 45 b8                  	movq	%rax, -0x48(%rbp)
   1f946: 48 8b 85 20 ff ff ff         	movq	-0xe0(%rbp), %rax
   1f94d: 48 89 45 c0                  	movq	%rax, -0x40(%rbp)
   1f951: 4c 8b 9d 18 ff ff ff         	movq	-0xe8(%rbp), %r11
   1f958: 4c 8b bd f8 fe ff ff         	movq	-0x108(%rbp), %r15
   1f95f: 4c 8b ad f0 fe ff ff         	movq	-0x110(%rbp), %r13
   1f966: 48 8b 9d 00 ff ff ff         	movq	-0x100(%rbp), %rbx
   1f96d: 4c 8b 95 38 ff ff ff         	movq	-0xc8(%rbp), %r10
   1f974: 8a 45 cd                     	movb	-0x33(%rbp), %al
   1f977: 89 c6                        	movl	%eax, %esi
   1f979: 48 8b 85 70 fd ff ff         	movq	-0x290(%rbp), %rax
   1f980: 48 89 85 20 fe ff ff         	movq	%rax, -0x1e0(%rbp)
   1f987: 6a 01                        	pushq	$0x1
   1f989: 58                           	popq	%rax
   1f98a: 48 89 45 b0                  	movq	%rax, -0x50(%rbp)
   1f98e: 48 8b 85 68 fd ff ff         	movq	-0x298(%rbp), %rax
   1f995: 48 ba a0 68 b2 a8 5c 97 fd 36	movabsq	$0x36fd975ca8b268a0, %rdx # imm = 0x36FD975CA8B268A0
   1f99f: e9 89 a2 ff ff               	jmp	0x19c2d <.text+0xb4ad>
   1f9a4: 48 8b 8d a8 fc ff ff         	movq	-0x358(%rbp), %rcx
   1f9ab: 48 8b 85 30 fe ff ff         	movq	-0x1d0(%rbp), %rax
   1f9b2: 48 39 c1                     	cmpq	%rax, %rcx
   1f9b5: 48 0f 47 c1                  	cmovaq	%rcx, %rax
   1f9b9: 48 89 85 08 fd ff ff         	movq	%rax, -0x2f8(%rbp)
   1f9c0: 8a 45 ce                     	movb	-0x32(%rbp), %al
   1f9c3: 88 45 cf                     	movb	%al, -0x31(%rbp)
   1f9c6: 48 8b 85 50 ff ff ff         	movq	-0xb0(%rbp), %rax
   1f9cd: 48 89 85 70 ff ff ff         	movq	%rax, -0x90(%rbp)
   1f9d4: 48 8b 85 60 ff ff ff         	movq	-0xa0(%rbp), %rax
   1f9db: 48 89 85 78 ff ff ff         	movq	%rax, -0x88(%rbp)
   1f9e2: 4c 89 c0                     	movq	%r8, %rax
   1f9e5: 4c 89 45 80                  	movq	%r8, -0x80(%rbp)
   1f9e9: 4c 89 4d 88                  	movq	%r9, -0x78(%rbp)
   1f9ed: 48 8b 85 48 ff ff ff         	movq	-0xb8(%rbp), %rax
   1f9f4: 48 89 45 90                  	movq	%rax, -0x70(%rbp)
   1f9f8: 48 8b 85 58 ff ff ff         	movq	-0xa8(%rbp), %rax
   1f9ff: 48 89 45 98                  	movq	%rax, -0x68(%rbp)
   1fa03: 48 8b 85 30 ff ff ff         	movq	-0xd0(%rbp), %rax
   1fa0a: 48 89 45 a0                  	movq	%rax, -0x60(%rbp)
   1fa0e: 48 8b 85 28 ff ff ff         	movq	-0xd8(%rbp), %rax
   1fa15: 48 89 45 a8                  	movq	%rax, -0x58(%rbp)
   1fa19: 48 8b 85 40 ff ff ff         	movq	-0xc0(%rbp), %rax
   1fa20: 48 89 45 b0                  	movq	%rax, -0x50(%rbp)
   1fa24: 48 8b 85 08 ff ff ff         	movq	-0xf8(%rbp), %rax
   1fa2b: 48 8b 8d 10 ff ff ff         	movq	-0xf0(%rbp), %rcx
   1fa32: 48 89 4d b8                  	movq	%rcx, -0x48(%rbp)
   1fa36: 48 8b 8d 20 ff ff ff         	movq	-0xe0(%rbp), %rcx
   1fa3d: 48 89 4d c0                  	movq	%rcx, -0x40(%rbp)
   1fa41: 4c 8b 9d 18 ff ff ff         	movq	-0xe8(%rbp), %r11
   1fa48: 4c 8b bd f8 fe ff ff         	movq	-0x108(%rbp), %r15
   1fa4f: 4c 8b ad f0 fe ff ff         	movq	-0x110(%rbp), %r13
   1fa56: 48 8b 9d 00 ff ff ff         	movq	-0x100(%rbp), %rbx
   1fa5d: 4c 8b 95 38 ff ff ff         	movq	-0xc8(%rbp), %r10
   1fa64: 8a 55 cd                     	movb	-0x33(%rbp), %dl
   1fa67: 89 d6                        	movl	%edx, %esi
   1fa69: 48 ba 73 ca 09 20 fe d1 de 7b	movabsq	$0x7bded1fe2009ca73, %rdx # imm = 0x7BDED1FE2009CA73
   1fa73: e9 b5 a1 ff ff               	jmp	0x19c2d <.text+0xb4ad>
   1fa78: 40 8a 75 ce                  	movb	-0x32(%rbp), %sil
   1fa7c: 40 88 75 cf                  	movb	%sil, -0x31(%rbp)
   1fa80: 48 8b b5 50 ff ff ff         	movq	-0xb0(%rbp), %rsi
   1fa87: 48 89 b5 70 ff ff ff         	movq	%rsi, -0x90(%rbp)
   1fa8e: 48 8b b5 60 ff ff ff         	movq	-0xa0(%rbp), %rsi
   1fa95: 48 89 b5 78 ff ff ff         	movq	%rsi, -0x88(%rbp)
   1fa9c: 48 8b b5 e0 fe ff ff         	movq	-0x120(%rbp), %rsi
   1faa3: 48 89 75 80                  	movq	%rsi, -0x80(%rbp)
   1faa7: 48 8b b5 e8 fe ff ff         	movq	-0x118(%rbp), %rsi
   1faae: 48 89 75 88                  	movq	%rsi, -0x78(%rbp)
   1fab2: 48 8b b5 48 ff ff ff         	movq	-0xb8(%rbp), %rsi
   1fab9: 48 89 75 90                  	movq	%rsi, -0x70(%rbp)
   1fabd: 48 8b b5 58 ff ff ff         	movq	-0xa8(%rbp), %rsi
   1fac4: 48 89 75 98                  	movq	%rsi, -0x68(%rbp)
   1fac8: 48 8b b5 30 ff ff ff         	movq	-0xd0(%rbp), %rsi
   1facf: 48 89 75 a0                  	movq	%rsi, -0x60(%rbp)
   1fad3: 48 8b b5 28 ff ff ff         	movq	-0xd8(%rbp), %rsi
   1fada: 48 89 75 a8                  	movq	%rsi, -0x58(%rbp)
   1fade: 48 89 45 b0                  	movq	%rax, -0x50(%rbp)
   1fae2: 48 89 c8                     	movq	%rcx, %rax
   1fae5: 48 89 7d b8                  	movq	%rdi, -0x48(%rbp)
   1fae9: 4c 89 45 c0                  	movq	%r8, -0x40(%rbp)
   1faed: 4d 89 cb                     	movq	%r9, %r11
   1faf0: 89 d6                        	movl	%edx, %esi
   1faf2: 48 8b 95 b0 fe ff ff         	movq	-0x150(%rbp), %rdx
   1faf9: 4c 8b b5 28 fe ff ff         	movq	-0x1d8(%rbp), %r14
   1fb00: 4c 01 f2                     	addq	%r14, %rdx
   1fb03: e9 ea 24 00 00               	jmp	0x21ff2 <.text+0x13872>
   1fb08: 48 8b 85 b0 fe ff ff         	movq	-0x150(%rbp), %rax
   1fb0f: 48 8b 8d 28 fe ff ff         	movq	-0x1d8(%rbp), %rcx
   1fb16: 80 7c 08 ff 2f               	cmpb	$0x2f, -0x1(%rax,%rcx)
   1fb1b: 48 ba d4 d3 3d f2 04 57 b3 7c	movabsq	$0x7cb35704f23dd3d4, %rdx # imm = 0x7CB35704F23DD3D4
   1fb25: 74 0a                        	je	0x1fb31 <.text+0x113b1>
   1fb27: 48 ba 9e 5c af ee 7b d8 16 02	movabsq	$0x216d87beeaf5c9e, %rdx # imm = 0x216D87BEEAF5C9E
   1fb31: 8a 45 ce                     	movb	-0x32(%rbp), %al
   1fb34: 88 45 cf                     	movb	%al, -0x31(%rbp)
   1fb37: 48 8b 85 50 ff ff ff         	movq	-0xb0(%rbp), %rax
   1fb3e: 48 89 85 70 ff ff ff         	movq	%rax, -0x90(%rbp)
   1fb45: 48 8b 85 60 ff ff ff         	movq	-0xa0(%rbp), %rax
   1fb4c: 48 89 85 78 ff ff ff         	movq	%rax, -0x88(%rbp)
   1fb53: 4c 89 c0                     	movq	%r8, %rax
   1fb56: 4c 89 45 80                  	movq	%r8, -0x80(%rbp)
   1fb5a: 4c 89 4d 88                  	movq	%r9, -0x78(%rbp)
   1fb5e: 48 8b 85 48 ff ff ff         	movq	-0xb8(%rbp), %rax
   1fb65: 48 89 45 90                  	movq	%rax, -0x70(%rbp)
   1fb69: 48 8b 85 58 ff ff ff         	movq	-0xa8(%rbp), %rax
   1fb70: 48 89 45 98                  	movq	%rax, -0x68(%rbp)
   1fb74: 48 8b 85 30 ff ff ff         	movq	-0xd0(%rbp), %rax
   1fb7b: 48 89 45 a0                  	movq	%rax, -0x60(%rbp)
   1fb7f: 48 8b 85 28 ff ff ff         	movq	-0xd8(%rbp), %rax
   1fb86: 48 89 45 a8                  	movq	%rax, -0x58(%rbp)
   1fb8a: 48 8b 85 40 ff ff ff         	movq	-0xc0(%rbp), %rax
   1fb91: 48 89 45 b0                  	movq	%rax, -0x50(%rbp)
   1fb95: 48 8b 85 08 ff ff ff         	movq	-0xf8(%rbp), %rax
   1fb9c: 48 8b 8d 10 ff ff ff         	movq	-0xf0(%rbp), %rcx
   1fba3: 48 89 4d b8                  	movq	%rcx, -0x48(%rbp)
   1fba7: 48 8b 8d 20 ff ff ff         	movq	-0xe0(%rbp), %rcx
   1fbae: 48 89 4d c0                  	movq	%rcx, -0x40(%rbp)
   1fbb2: 4c 8b 9d 18 ff ff ff         	movq	-0xe8(%rbp), %r11
   1fbb9: 4c 8b 95 38 ff ff ff         	movq	-0xc8(%rbp), %r10
   1fbc0: 44 89 e6                     	movl	%r12d, %esi
   1fbc3: 4c 8b b5 28 fe ff ff         	movq	-0x1d8(%rbp), %r14
   1fbca: 49 ff ce                     	decq	%r14
   1fbcd: 4c 89 b5 08 fc ff ff         	movq	%r14, -0x3f8(%rbp)
   1fbd4: e9 54 a0 ff ff               	jmp	0x19c2d <.text+0xb4ad>
   1fbd9: 48 8b 8d 48 ff ff ff         	movq	-0xb8(%rbp), %rcx
   1fbe0: 48 8b 85 b8 fe ff ff         	movq	-0x148(%rbp), %rax
   1fbe7: 4c 8b b5 08 fd ff ff         	movq	-0x2f8(%rbp), %r14
   1fbee: 42 8a 04 30                  	movb	(%rax,%r14), %al
   1fbf2: 48 ba 11 bf 9a c2 6a fb c2 2d	movabsq	$0x2dc2fb6ac29abf11, %rdx # imm = 0x2DC2FB6AC29ABF11
   1fbfc: 88 85 d7 fe ff ff            	movb	%al, -0x129(%rbp)
   1fc02: 84 c0                        	testb	%al, %al
   1fc04: 74 0a                        	je	0x1fc10 <.text+0x11490>
   1fc06: 48 ba 66 d9 14 87 7a 8b 6f 2b	movabsq	$0x2b6f8b7a8714d966, %rdx # imm = 0x2B6F8B7A8714D966
   1fc10: 8a 45 ce                     	movb	-0x32(%rbp), %al
   1fc13: 88 45 cf                     	movb	%al, -0x31(%rbp)
   1fc16: 48 8b 85 50 ff ff ff         	movq	-0xb0(%rbp), %rax
   1fc1d: 48 89 85 70 ff ff ff         	movq	%rax, -0x90(%rbp)
   1fc24: 48 8b 85 60 ff ff ff         	movq	-0xa0(%rbp), %rax
   1fc2b: 48 89 85 78 ff ff ff         	movq	%rax, -0x88(%rbp)
   1fc32: 48 8b 85 e0 fe ff ff         	movq	-0x120(%rbp), %rax
   1fc39: 48 89 45 80                  	movq	%rax, -0x80(%rbp)
   1fc3d: 48 8b 85 e8 fe ff ff         	movq	-0x118(%rbp), %rax
   1fc44: 48 89 45 88                  	movq	%rax, -0x78(%rbp)
   1fc48: 48 89 4d 90                  	movq	%rcx, -0x70(%rbp)
   1fc4c: 48 8b 85 58 ff ff ff         	movq	-0xa8(%rbp), %rax
   1fc53: 48 89 45 98                  	movq	%rax, -0x68(%rbp)
   1fc57: 48 8b 85 30 ff ff ff         	movq	-0xd0(%rbp), %rax
   1fc5e: 48 89 45 a0                  	movq	%rax, -0x60(%rbp)
   1fc62: 48 8b 85 28 ff ff ff         	movq	-0xd8(%rbp), %rax
   1fc69: 48 89 45 a8                  	movq	%rax, -0x58(%rbp)
   1fc6d: 48 8b 85 40 ff ff ff         	movq	-0xc0(%rbp), %rax
   1fc74: 48 89 45 b0                  	movq	%rax, -0x50(%rbp)
   1fc78: 4c 89 e0                     	movq	%r12, %rax
   1fc7b: 48 89 7d b8                  	movq	%rdi, -0x48(%rbp)
   1fc7f: 4c 89 45 c0                  	movq	%r8, -0x40(%rbp)
   1fc83: 4d 89 cb                     	movq	%r9, %r11
   1fc86: 4c 89 b5 38 fe ff ff         	movq	%r14, -0x1c8(%rbp)
   1fc8d: e9 9b 9f ff ff               	jmp	0x19c2d <.text+0xb4ad>
   1fc92: 8a 8d db fe ff ff            	movb	-0x125(%rbp), %cl
   1fc98: 0f b6 c1                     	movzbl	%cl, %eax
   1fc9b: 0b 85 8c fe ff ff            	orl	-0x174(%rbp), %eax
   1fca1: 89 85 e0 fd ff ff            	movl	%eax, -0x220(%rbp)
   1fca7: 0f b7 c0                     	movzwl	%ax, %eax
   1fcaa: 48 ba 63 67 77 38 87 a0 2d 93	movabsq	$-0x6cd25f78c788989d, %rdx # imm = 0x932DA08738776763
   1fcb4: 3b 85 ec fd ff ff            	cmpl	-0x214(%rbp), %eax
   1fcba: 75 0a                        	jne	0x1fcc6 <.text+0x11546>
   1fcbc: 48 ba 80 cc 19 b2 1d 46 e0 5b	movabsq	$0x5be0461db219cc80, %rdx # imm = 0x5BE0461DB219CC80
   1fcc6: 84 c9                        	testb	%cl, %cl
   1fcc8: 48 b8 80 cc 19 b2 1d 46 e0 5b	movabsq	$0x5be0461db219cc80, %rax # imm = 0x5BE0461DB219CC80
   1fcd2: 48 0f 44 d0                  	cmoveq	%rax, %rdx
   1fcd6: 8a 45 ce                     	movb	-0x32(%rbp), %al
   1fcd9: 88 45 cf                     	movb	%al, -0x31(%rbp)
   1fcdc: 48 8b 85 50 ff ff ff         	movq	-0xb0(%rbp), %rax
   1fce3: 48 89 85 70 ff ff ff         	movq	%rax, -0x90(%rbp)
   1fcea: 48 8b 85 60 ff ff ff         	movq	-0xa0(%rbp), %rax
   1fcf1: 48 89 85 78 ff ff ff         	movq	%rax, -0x88(%rbp)
   1fcf8: 48 8b 85 e0 fe ff ff         	movq	-0x120(%rbp), %rax
   1fcff: 48 89 45 80                  	movq	%rax, -0x80(%rbp)
   1fd03: 48 8b 85 e8 fe ff ff         	movq	-0x118(%rbp), %rax
   1fd0a: 48 89 45 88                  	movq	%rax, -0x78(%rbp)
   1fd0e: 48 8b 85 48 ff ff ff         	movq	-0xb8(%rbp), %rax
   1fd15: 48 89 45 90                  	movq	%rax, -0x70(%rbp)
   1fd19: 48 8b 85 58 ff ff ff         	movq	-0xa8(%rbp), %rax
   1fd20: 48 89 45 98                  	movq	%rax, -0x68(%rbp)
   1fd24: 48 8b 85 30 ff ff ff         	movq	-0xd0(%rbp), %rax
   1fd2b: 48 89 45 a0                  	movq	%rax, -0x60(%rbp)
   1fd2f: 48 8b 85 28 ff ff ff         	movq	-0xd8(%rbp), %rax
   1fd36: 48 89 45 a8                  	movq	%rax, -0x58(%rbp)
   1fd3a: 48 8b 85 40 ff ff ff         	movq	-0xc0(%rbp), %rax
   1fd41: 48 89 45 b0                  	movq	%rax, -0x50(%rbp)
   1fd45: 4c 89 e0                     	movq	%r12, %rax
   1fd48: 48 89 7d b8                  	movq	%rdi, -0x48(%rbp)
   1fd4c: 4c 89 45 c0                  	movq	%r8, -0x40(%rbp)
   1fd50: 4d 89 cb                     	movq	%r9, %r11
   1fd53: 0f 95 85 d1 fe ff ff         	setne	-0x12f(%rbp)
   1fd5a: 4c 8b b5 b0 fd ff ff         	movq	-0x250(%rbp), %r14
   1fd61: 4c 89 b5 58 fc ff ff         	movq	%r14, -0x3a8(%rbp)
   1fd68: e9 c0 9e ff ff               	jmp	0x19c2d <.text+0xb4ad>
   1fd6d: 48 ba 08 94 e5 f3 11 ac 3e d9	movabsq	$-0x26c153ee0c1a6bf8, %rdx # imm = 0xD93EAC11F3E59408
   1fd77: 8a 85 d6 fe ff ff            	movb	-0x12a(%rbp), %al
   1fd7d: 38 85 d0 fe ff ff            	cmpb	%al, -0x130(%rbp)
   1fd83: 40 8a 75 cd                  	movb	-0x33(%rbp), %sil
   1fd87: 48 8b 9d 00 ff ff ff         	movq	-0x100(%rbp), %rbx
   1fd8e: 4c 8b ad f0 fe ff ff         	movq	-0x110(%rbp), %r13
   1fd95: 4c 8b bd f8 fe ff ff         	movq	-0x108(%rbp), %r15
   1fd9c: 77 0a                        	ja	0x1fda8 <.text+0x11628>
   1fd9e: 48 ba 0a 30 93 f3 ce 4e 71 31	movabsq	$0x31714ecef393300a, %rdx # imm = 0x31714ECEF393300A
   1fda8: 8a 45 ce                     	movb	-0x32(%rbp), %al
   1fdab: 88 45 cf                     	movb	%al, -0x31(%rbp)
   1fdae: 48 8b 85 50 ff ff ff         	movq	-0xb0(%rbp), %rax
   1fdb5: 48 89 85 70 ff ff ff         	movq	%rax, -0x90(%rbp)
   1fdbc: 48 8b 85 60 ff ff ff         	movq	-0xa0(%rbp), %rax
   1fdc3: 48 89 85 78 ff ff ff         	movq	%rax, -0x88(%rbp)
   1fdca: 4c 89 c0                     	movq	%r8, %rax
   1fdcd: 4c 89 45 80                  	movq	%r8, -0x80(%rbp)
   1fdd1: 4c 89 4d 88                  	movq	%r9, -0x78(%rbp)
   1fdd5: 48 8b 85 48 ff ff ff         	movq	-0xb8(%rbp), %rax
   1fddc: 48 89 45 90                  	movq	%rax, -0x70(%rbp)
   1fde0: 48 8b 85 58 ff ff ff         	movq	-0xa8(%rbp), %rax
   1fde7: 48 89 45 98                  	movq	%rax, -0x68(%rbp)
   1fdeb: 48 8b 85 30 ff ff ff         	movq	-0xd0(%rbp), %rax
   1fdf2: 48 89 45 a0                  	movq	%rax, -0x60(%rbp)
   1fdf6: 48 8b 85 28 ff ff ff         	movq	-0xd8(%rbp), %rax
   1fdfd: 48 89 45 a8                  	movq	%rax, -0x58(%rbp)
   1fe01: 48 8b 85 40 ff ff ff         	movq	-0xc0(%rbp), %rax
   1fe08: 48 89 45 b0                  	movq	%rax, -0x50(%rbp)
   1fe0c: 48 8b 85 08 ff ff ff         	movq	-0xf8(%rbp), %rax
   1fe13: 48 8b 8d 10 ff ff ff         	movq	-0xf0(%rbp), %rcx
   1fe1a: 48 89 4d b8                  	movq	%rcx, -0x48(%rbp)
   1fe1e: 48 8b 8d 20 ff ff ff         	movq	-0xe0(%rbp), %rcx
   1fe25: 48 89 4d c0                  	movq	%rcx, -0x40(%rbp)
   1fe29: 4c 8b 9d 18 ff ff ff         	movq	-0xe8(%rbp), %r11
   1fe30: e9 50 2b 00 00               	jmp	0x22985 <.text+0x14205>
   1fe35: c6 05 f6 ee 11 00 00         	movb	$0x0, 0x11eef6(%rip)    # 0x13ed32
   1fe3c: 48 8b bd d0 fc ff ff         	movq	-0x330(%rbp), %rdi
   1fe43: 48 8d 35 a6 bc 11 00         	leaq	0x11bca6(%rip), %rsi    # 0x13baf0
   1fe4a: 48 8b 95 b0 fe ff ff         	movq	-0x150(%rbp), %rdx
   1fe51: 31 c0                        	xorl	%eax, %eax
   1fe53: e8 58 2a 11 00               	callq	0x1328b0 <sscanf@plt>
   1fe58: 48 ba 2d af f8 2b 27 64 d1 bc	movabsq	$-0x432e9bd8d40750d3, %rdx # imm = 0xBCD164272BF8AF2D
   1fe62: 83 f8 01                     	cmpl	$0x1, %eax
   1fe65: 0f 84 44 03 00 00            	je	0x201af <.text+0x11a2f>
   1fe6b: 48 ba ac a6 5a 15 b6 2f 55 5e	movabsq	$0x5e552fb6155aa6ac, %rdx # imm = 0x5E552FB6155AA6AC
   1fe75: e9 35 03 00 00               	jmp	0x201af <.text+0x11a2f>
   1fe7a: 48 ba fa 23 c2 bd 44 7c 2d 97	movabsq	$-0x68d283bb423ddc06, %rdx # imm = 0x972D7C44BDC223FA
   1fe84: 8a 85 df fe ff ff            	movb	-0x121(%rbp), %al
   1fe8a: 38 85 78 fe ff ff            	cmpb	%al, -0x188(%rbp)
   1fe90: 0f 84 2b 1c 00 00            	je	0x21ac1 <.text+0x13341>
   1fe96: 48 ba 7d 36 6e 44 08 21 d2 b2	movabsq	$-0x4d2ddef7bb91c983, %rdx # imm = 0xB2D22108446E367D
   1fea0: e9 1c 1c 00 00               	jmp	0x21ac1 <.text+0x13341>
   1fea5: 80 3d 81 ee 11 00 00         	cmpb	$0x0, 0x11ee81(%rip)    # 0x13ed2d
   1feac: 48 ba 4f 0e f9 b5 ce d2 2b 59	movabsq	$0x592bd2ceb5f90e4f, %rdx # imm = 0x592BD2CEB5F90E4F
   1feb6: 8a 45 ce                     	movb	-0x32(%rbp), %al
   1feb9: 75 0a                        	jne	0x1fec5 <.text+0x11745>
   1febb: 48 ba 10 03 a5 6c 84 8f ac 70	movabsq	$0x70ac8f846ca50310, %rdx # imm = 0x70AC8F846CA50310
   1fec5: 88 45 cf                     	movb	%al, -0x31(%rbp)
   1fec8: 48 8b 85 50 ff ff ff         	movq	-0xb0(%rbp), %rax
   1fecf: 48 89 85 70 ff ff ff         	movq	%rax, -0x90(%rbp)
   1fed6: 48 8b 85 60 ff ff ff         	movq	-0xa0(%rbp), %rax
   1fedd: 48 89 85 78 ff ff ff         	movq	%rax, -0x88(%rbp)
   1fee4: 48 8b 85 e0 fe ff ff         	movq	-0x120(%rbp), %rax
   1feeb: 48 89 45 80                  	movq	%rax, -0x80(%rbp)
   1feef: 48 8b 85 e8 fe ff ff         	movq	-0x118(%rbp), %rax
   1fef6: 48 89 45 88                  	movq	%rax, -0x78(%rbp)
   1fefa: 48 8b 85 48 ff ff ff         	movq	-0xb8(%rbp), %rax
   1ff01: 48 89 45 90                  	movq	%rax, -0x70(%rbp)
   1ff05: 48 8b 85 58 ff ff ff         	movq	-0xa8(%rbp), %rax
   1ff0c: 48 89 45 98                  	movq	%rax, -0x68(%rbp)
   1ff10: 48 8b 85 30 ff ff ff         	movq	-0xd0(%rbp), %rax
   1ff17: 48 89 45 a0                  	movq	%rax, -0x60(%rbp)
   1ff1b: 48 8b 85 28 ff ff ff         	movq	-0xd8(%rbp), %rax
   1ff22: 48 89 45 a8                  	movq	%rax, -0x58(%rbp)
   1ff26: 48 89 4d b0                  	movq	%rcx, -0x50(%rbp)
   1ff2a: 4c 89 e0                     	movq	%r12, %rax
   1ff2d: 48 89 7d b8                  	movq	%rdi, -0x48(%rbp)
   1ff31: 4c 89 4d c0                  	movq	%r9, -0x40(%rbp)
   1ff35: e9 f3 9c ff ff               	jmp	0x19c2d <.text+0xb4ad>
   1ff3a: 8b 8d 84 fe ff ff            	movl	-0x17c(%rbp), %ecx
   1ff40: c1 e1 08                     	shll	$0x8, %ecx
   1ff43: 03 8d 88 fe ff ff            	addl	-0x178(%rbp), %ecx
   1ff49: 48 8b 85 98 fe ff ff         	movq	-0x168(%rbp), %rax
   1ff50: 0f b6 00                     	movzbl	(%rax), %eax
   1ff53: c1 e0 08                     	shll	$0x8, %eax
   1ff56: 89 85 8c fe ff ff            	movl	%eax, -0x174(%rbp)
   1ff5c: 8a 45 ce                     	movb	-0x32(%rbp), %al
   1ff5f: 88 45 cf                     	movb	%al, -0x31(%rbp)
   1ff62: 89 8d ec fd ff ff            	movl	%ecx, -0x214(%rbp)
   1ff68: 48 8b 85 50 ff ff ff         	movq	-0xb0(%rbp), %rax
   1ff6f: 48 89 85 70 ff ff ff         	movq	%rax, -0x90(%rbp)
   1ff76: 48 8b 85 60 ff ff ff         	movq	-0xa0(%rbp), %rax
   1ff7d: 48 89 85 78 ff ff ff         	movq	%rax, -0x88(%rbp)
   1ff84: 4c 89 f0                     	movq	%r14, %rax
   1ff87: 4c 89 75 80                  	movq	%r14, -0x80(%rbp)
   1ff8b: 4c 89 4d 88                  	movq	%r9, -0x78(%rbp)
   1ff8f: 48 8b 85 48 ff ff ff         	movq	-0xb8(%rbp), %rax
   1ff96: 48 89 45 90                  	movq	%rax, -0x70(%rbp)
   1ff9a: 48 8b 85 58 ff ff ff         	movq	-0xa8(%rbp), %rax
   1ffa1: 48 89 45 98                  	movq	%rax, -0x68(%rbp)
   1ffa5: 48 8b 85 30 ff ff ff         	movq	-0xd0(%rbp), %rax
   1ffac: 48 89 45 a0                  	movq	%rax, -0x60(%rbp)
   1ffb0: 48 8b 85 28 ff ff ff         	movq	-0xd8(%rbp), %rax
   1ffb7: 48 89 45 a8                  	movq	%rax, -0x58(%rbp)
   1ffbb: 48 8b 85 40 ff ff ff         	movq	-0xc0(%rbp), %rax
   1ffc2: 48 89 45 b0                  	movq	%rax, -0x50(%rbp)
   1ffc6: 48 8b 85 08 ff ff ff         	movq	-0xf8(%rbp), %rax
   1ffcd: 48 8b 8d 10 ff ff ff         	movq	-0xf0(%rbp), %rcx
   1ffd4: 48 89 4d b8                  	movq	%rcx, -0x48(%rbp)
   1ffd8: 48 8b 8d 20 ff ff ff         	movq	-0xe0(%rbp), %rcx
   1ffdf: 48 89 4d c0                  	movq	%rcx, -0x40(%rbp)
   1ffe3: 4c 8b 9d 18 ff ff ff         	movq	-0xe8(%rbp), %r11
   1ffea: 4c 8b bd f8 fe ff ff         	movq	-0x108(%rbp), %r15
   1fff1: 4c 8b ad f0 fe ff ff         	movq	-0x110(%rbp), %r13
   1fff8: 48 8b 9d 00 ff ff ff         	movq	-0x100(%rbp), %rbx
   1ffff: 4c 8b 95 38 ff ff ff         	movq	-0xc8(%rbp), %r10
   20006: 8a 55 cd                     	movb	-0x33(%rbp), %dl
   20009: 89 d6                        	movl	%edx, %esi
   2000b: 8a 95 d9 fe ff ff            	movb	-0x127(%rbp), %dl
   20011: 88 95 db fe ff ff            	movb	%dl, -0x125(%rbp)
   20017: 48 8b 95 a0 fe ff ff         	movq	-0x160(%rbp), %rdx
   2001e: e9 9b 1b 00 00               	jmp	0x21bbe <.text+0x1343e>
   20023: 4c 8b 9d 00 fe ff ff         	movq	-0x200(%rbp), %r11
   2002a: 4c 2b 9d 20 fe ff ff         	subq	-0x1e0(%rbp), %r11
   20031: 8a 45 ce                     	movb	-0x32(%rbp), %al
   20034: 88 45 cf                     	movb	%al, -0x31(%rbp)
   20037: 48 8b 85 50 ff ff ff         	movq	-0xb0(%rbp), %rax
   2003e: 48 89 85 70 ff ff ff         	movq	%rax, -0x90(%rbp)
   20045: 48 8b 85 60 ff ff ff         	movq	-0xa0(%rbp), %rax
   2004c: 48 89 85 78 ff ff ff         	movq	%rax, -0x88(%rbp)
   20053: 48 8b 85 e0 fe ff ff         	movq	-0x120(%rbp), %rax
   2005a: 48 89 45 80                  	movq	%rax, -0x80(%rbp)
   2005e: 48 8b 85 e8 fe ff ff         	movq	-0x118(%rbp), %rax
   20065: 48 89 45 88                  	movq	%rax, -0x78(%rbp)
   20069: 48 8b 85 48 ff ff ff         	movq	-0xb8(%rbp), %rax
   20070: 48 89 45 90                  	movq	%rax, -0x70(%rbp)
   20074: 48 8b 85 58 ff ff ff         	movq	-0xa8(%rbp), %rax
   2007b: 48 89 45 98                  	movq	%rax, -0x68(%rbp)
   2007f: 48 89 55 a0                  	movq	%rdx, -0x60(%rbp)
   20083: 4c 89 5d a8                  	movq	%r11, -0x58(%rbp)
   20087: 48 8b 85 40 ff ff ff         	movq	-0xc0(%rbp), %rax
   2008e: 48 89 45 b0                  	movq	%rax, -0x50(%rbp)
   20092: 4c 89 e0                     	movq	%r12, %rax
   20095: 48 89 7d b8                  	movq	%rdi, -0x48(%rbp)
   20099: 4c 89 45 c0                  	movq	%r8, -0x40(%rbp)
   2009d: 4d 89 cb                     	movq	%r9, %r11
   200a0: 48 ba f7 61 c1 f1 5c 28 2d d9	movabsq	$-0x26d2d7a30e3e9e09, %rdx # imm = 0xD92D285CF1C161F7
   200aa: e9 7e 9b ff ff               	jmp	0x19c2d <.text+0xb4ad>
   200af: 0f b6 85 78 fe ff ff         	movzbl	-0x188(%rbp), %eax
   200b6: 8d 48 a5                     	leal	-0x5b(%rax), %ecx
   200b9: 89 c6                        	movl	%eax, %esi
   200bb: 83 ce 20                     	orl	$0x20, %esi
   200be: 83 f9 e6                     	cmpl	$-0x1a, %ecx
   200c1: 0f 42 f0                     	cmovbl	%eax, %esi
   200c4: 0f b6 45 ce                  	movzbl	-0x32(%rbp), %eax
   200c8: 8d 48 a5                     	leal	-0x5b(%rax), %ecx
   200cb: 89 c7                        	movl	%eax, %edi
   200cd: 83 cf 20                     	orl	$0x20, %edi
   200d0: 83 f9 e6                     	cmpl	$-0x1a, %ecx
   200d3: 0f 42 f8                     	cmovbl	%eax, %edi
   200d6: 48 ba 9c 11 e5 14 71 4b 2d 20	movabsq	$0x202d4b7114e5119c, %rdx # imm = 0x202D4B7114E5119C
   200e0: 39 fe                        	cmpl	%edi, %esi
   200e2: 0f 84 d9 19 00 00            	je	0x21ac1 <.text+0x13341>
   200e8: 48 ba 5e 9e 7a 1f fe 1f c8 cd	movabsq	$-0x3237e001e08561a2, %rdx # imm = 0xCDC81FFE1F7A9E5E
   200f2: e9 ca 19 00 00               	jmp	0x21ac1 <.text+0x13341>
   200f7: c6 05 2e ec 11 00 00         	movb	$0x0, 0x11ec2e(%rip)    # 0x13ed2c
   200fe: 48 8d 3d cb b9 11 00         	leaq	0x11b9cb(%rip), %rdi    # 0x13bad0
   20105: 48 8d 35 d4 b9 11 00         	leaq	0x11b9d4(%rip), %rsi    # 0x13bae0
   2010c: e8 af 27 11 00               	callq	0x1328c0 <fopen@plt>
   20111: 48 ba 01 3f 6c d3 c8 51 e5 d8	movabsq	$-0x271aae372c93c0ff, %rdx # imm = 0xD8E551C8D36C3F01
   2011b: 48 89 85 c0 fc ff ff         	movq	%rax, -0x340(%rbp)
   20122: 48 85 c0                     	testq	%rax, %rax
   20125: 0f 84 84 00 00 00            	je	0x201af <.text+0x11a2f>
   2012b: 48 ba 62 b1 21 17 8e 4a 0a c3	movabsq	$-0x3cf5b571e8de4e9e, %rdx # imm = 0xC30A4A8E1721B162
   20135: eb 78                        	jmp	0x201af <.text+0x11a2f>
   20137: c6 05 ee eb 11 00 00         	movb	$0x0, 0x11ebee(%rip)    # 0x13ed2c
   2013e: 48 89 e0                     	movq	%rsp, %rax
   20141: 48 83 c0 e0                  	addq	$-0x20, %rax
   20145: 48 89 85 10 fe ff ff         	movq	%rax, -0x1f0(%rbp)
   2014c: 48 89 c4                     	movq	%rax, %rsp
   2014f: 48 89 e0                     	movq	%rsp, %rax
   20152: 48 05 00 f8 ff ff            	addq	$-0x800, %rax           # imm = 0xF800
   20158: 48 89 85 c8 fc ff ff         	movq	%rax, -0x338(%rbp)
   2015f: 48 89 c4                     	movq	%rax, %rsp
   20162: 48 89 e0                     	movq	%rsp, %rax
   20165: 48 05 80 ef ff ff            	addq	$-0x1080, %rax          # imm = 0xEF80
   2016b: 48 89 85 d0 fc ff ff         	movq	%rax, -0x330(%rbp)
   20172: 48 89 c4                     	movq	%rax, %rsp
   20175: 48 89 e0                     	movq	%rsp, %rax
   20178: 48 05 80 ef ff ff            	addq	$-0x1080, %rax          # imm = 0xEF80
   2017e: 48 89 85 b0 fe ff ff         	movq	%rax, -0x150(%rbp)
   20185: 48 89 c4                     	movq	%rax, %rsp
   20188: 48 8d 3d 41 b9 11 00         	leaq	0x11b941(%rip), %rdi    # 0x13bad0
   2018f: 6a 04                        	pushq	$0x4
   20191: 5e                           	popq	%rsi
   20192: e8 c9 26 11 00               	callq	0x132860 <access@plt>
   20197: 48 ba 2b 4e 6f 43 f6 d8 30 5f	movabsq	$0x5f30d8f6436f4e2b, %rdx # imm = 0x5F30D8F6436F4E2B
   201a1: 85 c0                        	testl	%eax, %eax
   201a3: 74 0a                        	je	0x201af <.text+0x11a2f>
   201a5: 48 ba d5 b0 33 22 71 00 cf 5f	movabsq	$0x5fcf00712233b0d5, %rdx # imm = 0x5FCF00712233B0D5
   201af: 8a 45 ce                     	movb	-0x32(%rbp), %al
   201b2: 88 45 cf                     	movb	%al, -0x31(%rbp)
   201b5: 48 8b 85 50 ff ff ff         	movq	-0xb0(%rbp), %rax
   201bc: 48 89 85 70 ff ff ff         	movq	%rax, -0x90(%rbp)
   201c3: 48 8b 85 60 ff ff ff         	movq	-0xa0(%rbp), %rax
   201ca: 48 89 85 78 ff ff ff         	movq	%rax, -0x88(%rbp)
   201d1: 48 8b 85 e0 fe ff ff         	movq	-0x120(%rbp), %rax
   201d8: 48 89 45 80                  	movq	%rax, -0x80(%rbp)
   201dc: 48 8b 85 e8 fe ff ff         	movq	-0x118(%rbp), %rax
   201e3: 48 89 45 88                  	movq	%rax, -0x78(%rbp)
   201e7: e9 9f 26 00 00               	jmp	0x2288b <.text+0x1410b>
   201ec: f6 85 d1 fe ff ff 01         	testb	$0x1, -0x12f(%rbp)
   201f3: 48 ba 79 31 77 ac f9 1f 2b dd	movabsq	$-0x22d4e0065388ce87, %rdx # imm = 0xDD2B1FF9AC773179
   201fd: 48 b8 4b 74 08 7e a2 7a 06 4f	movabsq	$0x4f067aa27e08744b, %rax # imm = 0x4F067AA27E08744B
   20207: 48 0f 45 d0                  	cmovneq	%rax, %rdx
   2020b: 8a 45 ce                     	movb	-0x32(%rbp), %al
   2020e: 88 45 cf                     	movb	%al, -0x31(%rbp)
   20211: 48 8b 85 50 ff ff ff         	movq	-0xb0(%rbp), %rax
   20218: 48 89 85 70 ff ff ff         	movq	%rax, -0x90(%rbp)
   2021f: 48 8b 85 60 ff ff ff         	movq	-0xa0(%rbp), %rax
   20226: 48 89 85 78 ff ff ff         	movq	%rax, -0x88(%rbp)
   2022d: 4c 89 c0                     	movq	%r8, %rax
   20230: 4c 89 45 80                  	movq	%r8, -0x80(%rbp)
   20234: 4c 89 4d 88                  	movq	%r9, -0x78(%rbp)
   20238: 48 8b 85 48 ff ff ff         	movq	-0xb8(%rbp), %rax
   2023f: 48 89 45 90                  	movq	%rax, -0x70(%rbp)
   20243: 48 8b 85 58 ff ff ff         	movq	-0xa8(%rbp), %rax
   2024a: 48 89 45 98                  	movq	%rax, -0x68(%rbp)
   2024e: 48 8b 85 30 ff ff ff         	movq	-0xd0(%rbp), %rax
   20255: 48 89 45 a0                  	movq	%rax, -0x60(%rbp)
   20259: 48 8b 85 28 ff ff ff         	movq	-0xd8(%rbp), %rax
   20260: 48 89 45 a8                  	movq	%rax, -0x58(%rbp)
   20264: 48 8b 85 40 ff ff ff         	movq	-0xc0(%rbp), %rax
   2026b: 48 89 45 b0                  	movq	%rax, -0x50(%rbp)
   2026f: 48 8b 85 08 ff ff ff         	movq	-0xf8(%rbp), %rax
   20276: 48 8b 8d 10 ff ff ff         	movq	-0xf0(%rbp), %rcx
   2027d: 48 89 4d b8                  	movq	%rcx, -0x48(%rbp)
   20281: 48 8b 8d 20 ff ff ff         	movq	-0xe0(%rbp), %rcx
   20288: 48 89 4d c0                  	movq	%rcx, -0x40(%rbp)
   2028c: 4c 8b 9d 18 ff ff ff         	movq	-0xe8(%rbp), %r11
   20293: 4c 8b bd f8 fe ff ff         	movq	-0x108(%rbp), %r15
   2029a: 4c 8b ad f0 fe ff ff         	movq	-0x110(%rbp), %r13
   202a1: 48 8b 9d 00 ff ff ff         	movq	-0x100(%rbp), %rbx
   202a8: 4c 8b 95 38 ff ff ff         	movq	-0xc8(%rbp), %r10
   202af: 40 8a 75 cd                  	movb	-0x33(%rbp), %sil
   202b3: e9 75 99 ff ff               	jmp	0x19c2d <.text+0xb4ad>
   202b8: 48 8b 95 20 fe ff ff         	movq	-0x1e0(%rbp), %rdx
   202bf: 48 8d 42 01                  	leaq	0x1(%rdx), %rax
   202c3: 4d 89 cb                     	movq	%r9, %r11
   202c6: 4d 89 c1                     	movq	%r8, %r9
   202c9: 49 89 f8                     	movq	%rdi, %r8
   202cc: 48 89 cf                     	movq	%rcx, %rdi
   202cf: 4c 89 e6                     	movq	%r12, %rsi
   202d2: 4c 8b a5 18 fe ff ff         	movq	-0x1e8(%rbp), %r12
   202d9: 49 8d 4c 24 01               	leaq	0x1(%r12), %rcx
   202de: 48 39 c8                     	cmpq	%rcx, %rax
   202e1: 4c 8b b5 f0 fc ff ff         	movq	-0x310(%rbp), %r14
   202e8: 4c 0f 47 b5 e0 fc ff ff      	cmovaq	-0x320(%rbp), %r14
   202f0: 4c 0f 47 e2                  	cmovaq	%rdx, %r12
   202f4: 8a 45 ce                     	movb	-0x32(%rbp), %al
   202f7: 88 45 cf                     	movb	%al, -0x31(%rbp)
   202fa: 48 8b 85 50 ff ff ff         	movq	-0xb0(%rbp), %rax
   20301: 48 89 85 70 ff ff ff         	movq	%rax, -0x90(%rbp)
   20308: 48 8b 85 60 ff ff ff         	movq	-0xa0(%rbp), %rax
   2030f: 48 89 85 78 ff ff ff         	movq	%rax, -0x88(%rbp)
   20316: 48 8b 85 e0 fe ff ff         	movq	-0x120(%rbp), %rax
   2031d: 48 89 45 80                  	movq	%rax, -0x80(%rbp)
   20321: 48 8b 85 e8 fe ff ff         	movq	-0x118(%rbp), %rax
   20328: 48 89 45 88                  	movq	%rax, -0x78(%rbp)
   2032c: 48 8b 85 48 ff ff ff         	movq	-0xb8(%rbp), %rax
   20333: 48 89 45 90                  	movq	%rax, -0x70(%rbp)
   20337: 48 8b 85 58 ff ff ff         	movq	-0xa8(%rbp), %rax
   2033e: 48 89 45 98                  	movq	%rax, -0x68(%rbp)
   20342: 48 8b 85 30 ff ff ff         	movq	-0xd0(%rbp), %rax
   20349: 48 89 45 a0                  	movq	%rax, -0x60(%rbp)
   2034d: 48 8b 85 28 ff ff ff         	movq	-0xd8(%rbp), %rax
   20354: 48 89 45 a8                  	movq	%rax, -0x58(%rbp)
   20358: 48 89 75 b0                  	movq	%rsi, -0x50(%rbp)
   2035c: 48 89 f8                     	movq	%rdi, %rax
   2035f: 4c 89 45 b8                  	movq	%r8, -0x48(%rbp)
   20363: 4c 89 4d c0                  	movq	%r9, -0x40(%rbp)
   20367: 4c 8b 95 38 ff ff ff         	movq	-0xc8(%rbp), %r10
   2036e: 8a 4d cd                     	movb	-0x33(%rbp), %cl
   20371: 89 ce                        	movl	%ecx, %esi
   20373: 48 8b 95 b8 fe ff ff         	movq	-0x148(%rbp), %rdx
   2037a: 4c 89 b5 10 fc ff ff         	movq	%r14, -0x3f0(%rbp)
   20381: 49 01 d6                     	addq	%rdx, %r14
   20384: 4c 89 b5 88 fd ff ff         	movq	%r14, -0x278(%rbp)
   2038b: 4c 89 a5 d8 fc ff ff         	movq	%r12, -0x328(%rbp)
   20392: 4d 8d 74 24 01               	leaq	0x1(%r12), %r14
   20397: 48 89 95 98 fd ff ff         	movq	%rdx, -0x268(%rbp)
   2039e: 4c 89 b5 90 fd ff ff         	movq	%r14, -0x270(%rbp)
   203a5: 4c 89 b5 a8 fc ff ff         	movq	%r14, -0x358(%rbp)
   203ac: 48 ba 2b dc fc d1 73 c6 b4 ad	movabsq	$-0x524b398c2e0323d5, %rdx # imm = 0xADB4C673D1FCDC2B
   203b6: e9 72 98 ff ff               	jmp	0x19c2d <.text+0xb4ad>
   203bb: 80 3d c5 eb 11 00 00         	cmpb	$0x0, 0x11ebc5(%rip)    # 0x13ef87
   203c2: 48 ba 82 2a fa 41 99 4e b6 7c	movabsq	$0x7cb64e9941fa2a82, %rdx # imm = 0x7CB64E9941FA2A82
   203cc: 0f 85 ef 16 00 00            	jne	0x21ac1 <.text+0x13341>
   203d2: 48 ba 33 c1 9c fa 5d 2b f3 65	movabsq	$0x65f32b5dfa9cc133, %rdx # imm = 0x65F32B5DFA9CC133
   203dc: e9 e0 16 00 00               	jmp	0x21ac1 <.text+0x13341>
   203e1: 48 8b 85 78 fc ff ff         	movq	-0x388(%rbp), %rax
   203e8: 48 8b 8d 68 fe ff ff         	movq	-0x198(%rbp), %rcx
   203ef: 0f b6 14 01                  	movzbl	(%rcx,%rax), %edx
   203f3: 48 89 d0                     	movq	%rdx, %rax
   203f6: 48 c1 e8 06                  	shrq	$0x6, %rax
   203fa: 48 8b 8d 10 fe ff ff         	movq	-0x1f0(%rbp), %rcx
   20401: 48 8b 04 c1                  	movq	(%rcx,%rax,8), %rax
   20405: 48 89 d1                     	movq	%rdx, %rcx
   20408: 48 89 95 18 fc ff ff         	movq	%rdx, -0x3e8(%rbp)
   2040f: 48 0f a3 d0                  	btq	%rdx, %rax
   20413: 48 ba 72 62 d1 0f 5e e5 1c bc	movabsq	$-0x43e31aa1f02e9d8e, %rdx # imm = 0xBC1CE55E0FD16272
   2041d: 40 8a 75 cd                  	movb	-0x33(%rbp), %sil
   20421: 4c 8b 95 38 ff ff ff         	movq	-0xc8(%rbp), %r10
   20428: 48 8b 9d 00 ff ff ff         	movq	-0x100(%rbp), %rbx
   2042f: 4c 8b ad f0 fe ff ff         	movq	-0x110(%rbp), %r13
   20436: 4c 8b bd f8 fe ff ff         	movq	-0x108(%rbp), %r15
   2043d: 4c 8b 8d 18 ff ff ff         	movq	-0xe8(%rbp), %r9
   20444: 4c 8b 85 20 ff ff ff         	movq	-0xe0(%rbp), %r8
   2044b: 48 8b bd 10 ff ff ff         	movq	-0xf0(%rbp), %rdi
   20452: 48 8b 8d 08 ff ff ff         	movq	-0xf8(%rbp), %rcx
   20459: 48 8b 85 40 ff ff ff         	movq	-0xc0(%rbp), %rax
   20460: 73 0a                        	jae	0x2046c <.text+0x11cec>
   20462: 48 ba 64 ea 2a 3d ba 31 ad 10	movabsq	$0x10ad31ba3d2aea64, %rdx # imm = 0x10AD31BA3D2AEA64
   2046c: 44 8a 5d ce                  	movb	-0x32(%rbp), %r11b
   20470: 44 88 5d cf                  	movb	%r11b, -0x31(%rbp)
   20474: 4c 8b 9d 50 ff ff ff         	movq	-0xb0(%rbp), %r11
   2047b: 4c 89 9d 70 ff ff ff         	movq	%r11, -0x90(%rbp)
   20482: 4c 8b 9d 60 ff ff ff         	movq	-0xa0(%rbp), %r11
   20489: 4c 89 9d 78 ff ff ff         	movq	%r11, -0x88(%rbp)
   20490: 4c 8b 9d e0 fe ff ff         	movq	-0x120(%rbp), %r11
   20497: 4c 89 5d 80                  	movq	%r11, -0x80(%rbp)
   2049b: 4c 8b 9d e8 fe ff ff         	movq	-0x118(%rbp), %r11
   204a2: 4c 89 5d 88                  	movq	%r11, -0x78(%rbp)
   204a6: 4c 8b 9d 58 ff ff ff         	movq	-0xa8(%rbp), %r11
   204ad: 4c 89 5d 98                  	movq	%r11, -0x68(%rbp)
   204b1: 4c 8b 9d 30 ff ff ff         	movq	-0xd0(%rbp), %r11
   204b8: 4c 89 5d a0                  	movq	%r11, -0x60(%rbp)
   204bc: 4c 8b 9d 28 ff ff ff         	movq	-0xd8(%rbp), %r11
   204c3: 4c 89 5d a8                  	movq	%r11, -0x58(%rbp)
   204c7: 48 89 45 b0                  	movq	%rax, -0x50(%rbp)
   204cb: 48 89 c8                     	movq	%rcx, %rax
   204ce: 48 89 7d b8                  	movq	%rdi, -0x48(%rbp)
   204d2: 4c 89 45 c0                  	movq	%r8, -0x40(%rbp)
   204d6: 48 8b 8d 48 ff ff ff         	movq	-0xb8(%rbp), %rcx
   204dd: 48 89 4d 90                  	movq	%rcx, -0x70(%rbp)
   204e1: 48 89 8d 40 fc ff ff         	movq	%rcx, -0x3c0(%rbp)
   204e8: e9 41 23 00 00               	jmp	0x2282e <.text+0x140ae>
   204ed: 48 8b 85 18 fe ff ff         	movq	-0x1e8(%rbp), %rax
   204f4: 48 8b 8d 60 fe ff ff         	movq	-0x1a0(%rbp), %rcx
   204fb: 48 01 c8                     	addq	%rcx, %rax
   204fe: 48 8b 8d b8 fe ff ff         	movq	-0x148(%rbp), %rcx
   20505: 8a 04 01                     	movb	(%rcx,%rax), %al
   20508: 48 8b 95 08 fe ff ff         	movq	-0x1f8(%rbp), %rdx
   2050f: 8a 0c 11                     	movb	(%rcx,%rdx), %cl
   20512: 48 ba 27 0a 70 dd 00 53 18 af	movabsq	$-0x50e7acff228ff5d9, %rdx # imm = 0xAF185300DD700A27
   2051c: 88 85 d0 fe ff ff            	movb	%al, -0x130(%rbp)
   20522: 88 8d d6 fe ff ff            	movb	%cl, -0x12a(%rbp)
   20528: 38 c8                        	cmpb	%cl, %al
   2052a: 0f 84 91 15 00 00            	je	0x21ac1 <.text+0x13341>
   20530: 48 ba f8 fc 34 b4 fd 9e 49 30	movabsq	$0x30499efdb434fcf8, %rdx # imm = 0x30499EFDB434FCF8
   2053a: e9 82 15 00 00               	jmp	0x21ac1 <.text+0x13341>
   2053f: 48 85 c9                     	testq	%rcx, %rcx
   20542: 48 89 ce                     	movq	%rcx, %rsi
   20545: 48 ba b5 fe 89 1c e7 66 63 4f	movabsq	$0x4f6366e71c89feb5, %rdx # imm = 0x4F6366E71C89FEB5
   2054f: 48 b8 a7 1f 82 ca 40 f9 8f 54	movabsq	$0x548ff940ca821fa7, %rax # imm = 0x548FF940CA821FA7
   20559: 48 0f 44 d0                  	cmoveq	%rax, %rdx
   2055d: 8a 45 ce                     	movb	-0x32(%rbp), %al
   20560: 88 45 cf                     	movb	%al, -0x31(%rbp)
   20563: 48 8b 85 50 ff ff ff         	movq	-0xb0(%rbp), %rax
   2056a: 48 89 85 70 ff ff ff         	movq	%rax, -0x90(%rbp)
   20571: 48 8b 85 60 ff ff ff         	movq	-0xa0(%rbp), %rax
   20578: 48 89 85 78 ff ff ff         	movq	%rax, -0x88(%rbp)
   2057f: 4c 89 c0                     	movq	%r8, %rax
   20582: 4c 89 45 80                  	movq	%r8, -0x80(%rbp)
   20586: 4c 89 4d 88                  	movq	%r9, -0x78(%rbp)
   2058a: 48 8b 85 48 ff ff ff         	movq	-0xb8(%rbp), %rax
   20591: 48 89 45 90                  	movq	%rax, -0x70(%rbp)
   20595: 4c 89 5d a8                  	movq	%r11, -0x58(%rbp)
   20599: 48 8b 85 40 ff ff ff         	movq	-0xc0(%rbp), %rax
   205a0: 48 89 45 b0                  	movq	%rax, -0x50(%rbp)
   205a4: 48 8b 85 08 ff ff ff         	movq	-0xf8(%rbp), %rax
   205ab: 48 89 4d a0                  	movq	%rcx, -0x60(%rbp)
   205af: 48 89 8d 30 fc ff ff         	movq	%rcx, -0x3d0(%rbp)
   205b6: 48 8b b5 58 ff ff ff         	movq	-0xa8(%rbp), %rsi
   205bd: 48 89 75 98                  	movq	%rsi, -0x68(%rbp)
   205c1: 48 89 b5 50 fe ff ff         	movq	%rsi, -0x1b0(%rbp)
   205c8: e9 fc 22 00 00               	jmp	0x228c9 <.text+0x14149>
   205cd: 80 35 03 cd 11 00 69         	xorb	$0x69, 0x11cd03(%rip)   # 0x13d2d7
   205d4: 80 35 fd cc 11 00 69         	xorb	$0x69, 0x11ccfd(%rip)   # 0x13d2d8
   205db: c6 05 a5 e9 11 00 01         	movb	$0x1, 0x11e9a5(%rip)    # 0x13ef87
   205e2: 8a 45 ce                     	movb	-0x32(%rbp), %al
   205e5: 88 45 cf                     	movb	%al, -0x31(%rbp)
   205e8: 48 8b 85 50 ff ff ff         	movq	-0xb0(%rbp), %rax
   205ef: 48 89 85 70 ff ff ff         	movq	%rax, -0x90(%rbp)
   205f6: 48 8b 85 60 ff ff ff         	movq	-0xa0(%rbp), %rax
   205fd: 48 89 85 78 ff ff ff         	movq	%rax, -0x88(%rbp)
   20604: 4c 89 c0                     	movq	%r8, %rax
   20607: 4c 89 45 80                  	movq	%r8, -0x80(%rbp)
   2060b: 4c 89 4d 88                  	movq	%r9, -0x78(%rbp)
   2060f: 48 8b 85 48 ff ff ff         	movq	-0xb8(%rbp), %rax
   20616: 48 89 45 90                  	movq	%rax, -0x70(%rbp)
   2061a: 48 8b 85 58 ff ff ff         	movq	-0xa8(%rbp), %rax
   20621: 48 89 45 98                  	movq	%rax, -0x68(%rbp)
   20625: 48 8b 85 30 ff ff ff         	movq	-0xd0(%rbp), %rax
   2062c: 48 89 45 a0                  	movq	%rax, -0x60(%rbp)
   20630: 48 8b 85 28 ff ff ff         	movq	-0xd8(%rbp), %rax
   20637: 48 89 45 a8                  	movq	%rax, -0x58(%rbp)
   2063b: 48 8b 85 40 ff ff ff         	movq	-0xc0(%rbp), %rax
   20642: 48 89 45 b0                  	movq	%rax, -0x50(%rbp)
   20646: 48 8b 85 08 ff ff ff         	movq	-0xf8(%rbp), %rax
   2064d: 48 8b 8d 10 ff ff ff         	movq	-0xf0(%rbp), %rcx
   20654: 48 89 4d b8                  	movq	%rcx, -0x48(%rbp)
   20658: 48 8b 8d 20 ff ff ff         	movq	-0xe0(%rbp), %rcx
   2065f: 48 89 4d c0                  	movq	%rcx, -0x40(%rbp)
   20663: 4c 8b 9d 18 ff ff ff         	movq	-0xe8(%rbp), %r11
   2066a: 4c 8b 95 38 ff ff ff         	movq	-0xc8(%rbp), %r10
   20671: 44 89 e6                     	movl	%r12d, %esi
   20674: 48 ba ab 05 b0 c2 ba 26 31 8f	movabsq	$-0x70ced9453d4ffa55, %rdx # imm = 0x8F3126BAC2B005AB
   2067e: e9 aa 95 ff ff               	jmp	0x19c2d <.text+0xb4ad>
   20683: 8a 45 ce                     	movb	-0x32(%rbp), %al
   20686: 88 45 cf                     	movb	%al, -0x31(%rbp)
   20689: 48 8b 85 50 ff ff ff         	movq	-0xb0(%rbp), %rax
   20690: 48 89 85 70 ff ff ff         	movq	%rax, -0x90(%rbp)
   20697: 48 8b 85 60 ff ff ff         	movq	-0xa0(%rbp), %rax
   2069e: 48 89 85 78 ff ff ff         	movq	%rax, -0x88(%rbp)
   206a5: 4c 89 c0                     	movq	%r8, %rax
   206a8: 4c 89 45 80                  	movq	%r8, -0x80(%rbp)
   206ac: 4c 89 4d 88                  	movq	%r9, -0x78(%rbp)
   206b0: 48 8b 85 90 fc ff ff         	movq	-0x370(%rbp), %rax
   206b7: 48 8b 8d f8 fd ff ff         	movq	-0x208(%rbp), %rcx
   206be: 48 8d 04 01                  	leaq	(%rcx,%rax), %rax
   206c2: 48 89 45 90                  	movq	%rax, -0x70(%rbp)
   206c6: 48 8b 85 58 ff ff ff         	movq	-0xa8(%rbp), %rax
   206cd: 48 89 45 98                  	movq	%rax, -0x68(%rbp)
   206d1: 48 89 55 a0                  	movq	%rdx, -0x60(%rbp)
   206d5: 4c 89 5d a8                  	movq	%r11, -0x58(%rbp)
   206d9: 48 8b 85 40 ff ff ff         	movq	-0xc0(%rbp), %rax
   206e0: 48 89 45 b0                  	movq	%rax, -0x50(%rbp)
   206e4: 48 8b 85 08 ff ff ff         	movq	-0xf8(%rbp), %rax
   206eb: 48 8b 8d 10 ff ff ff         	movq	-0xf0(%rbp), %rcx
   206f2: 48 89 4d b8                  	movq	%rcx, -0x48(%rbp)
   206f6: 48 8b 8d 20 ff ff ff         	movq	-0xe0(%rbp), %rcx
   206fd: 48 89 4d c0                  	movq	%rcx, -0x40(%rbp)
   20701: 4c 8b 9d 18 ff ff ff         	movq	-0xe8(%rbp), %r11
   20708: 4c 8b 95 38 ff ff ff         	movq	-0xc8(%rbp), %r10
   2070f: 44 89 e6                     	movl	%r12d, %esi
   20712: 48 ba 43 95 7e cf d7 5f 99 73	movabsq	$0x73995fd7cf7e9543, %rdx # imm = 0x73995FD7CF7E9543
   2071c: e9 0c 95 ff ff               	jmp	0x19c2d <.text+0xb4ad>
   20721: c6 05 5e e8 11 00 00         	movb	$0x0, 0x11e85e(%rip)    # 0x13ef86
   20728: 4c 8b bd f8 fe ff ff         	movq	-0x108(%rbp), %r15
   2072f: 4c 89 ff                     	movq	%r15, %rdi
   20732: 4c 89 cb                     	movq	%r9, %rbx
   20735: e8 a1 2d 0a 00               	callq	0xc34db <Java_com_adjust_sdk_sig_NativeLibHelper_nSign+0x7e30>
   2073a: 48 89 85 b0 fc ff ff         	movq	%rax, -0x350(%rbp)
   20741: 8a 45 ce                     	movb	-0x32(%rbp), %al
   20744: 88 45 cf                     	movb	%al, -0x31(%rbp)
   20747: 48 8b 85 50 ff ff ff         	movq	-0xb0(%rbp), %rax
   2074e: 48 89 85 70 ff ff ff         	movq	%rax, -0x90(%rbp)
   20755: 48 8b 85 60 ff ff ff         	movq	-0xa0(%rbp), %rax
   2075c: 48 89 85 78 ff ff ff         	movq	%rax, -0x88(%rbp)
   20763: 4c 89 f0                     	movq	%r14, %rax
   20766: 4c 89 75 80                  	movq	%r14, -0x80(%rbp)
   2076a: 48 89 5d 88                  	movq	%rbx, -0x78(%rbp)
   2076e: 48 8b 85 48 ff ff ff         	movq	-0xb8(%rbp), %rax
   20775: 48 89 45 90                  	movq	%rax, -0x70(%rbp)
   20779: 48 8b 85 58 ff ff ff         	movq	-0xa8(%rbp), %rax
   20780: 48 89 45 98                  	movq	%rax, -0x68(%rbp)
   20784: 48 8b 85 30 ff ff ff         	movq	-0xd0(%rbp), %rax
   2078b: 48 89 45 a0                  	movq	%rax, -0x60(%rbp)
   2078f: 48 8b 85 28 ff ff ff         	movq	-0xd8(%rbp), %rax
   20796: 48 89 45 a8                  	movq	%rax, -0x58(%rbp)
   2079a: 48 8b 85 40 ff ff ff         	movq	-0xc0(%rbp), %rax
   207a1: 48 89 45 b0                  	movq	%rax, -0x50(%rbp)
   207a5: 48 8b 85 08 ff ff ff         	movq	-0xf8(%rbp), %rax
   207ac: 48 8b 8d 10 ff ff ff         	movq	-0xf0(%rbp), %rcx
   207b3: 48 89 4d b8                  	movq	%rcx, -0x48(%rbp)
   207b7: 48 8b 8d 20 ff ff ff         	movq	-0xe0(%rbp), %rcx
   207be: 48 89 4d c0                  	movq	%rcx, -0x40(%rbp)
   207c2: 4c 8b 9d 18 ff ff ff         	movq	-0xe8(%rbp), %r11
   207c9: 4c 8b ad f0 fe ff ff         	movq	-0x110(%rbp), %r13
   207d0: 48 8b 9d 00 ff ff ff         	movq	-0x100(%rbp), %rbx
   207d7: 4c 8b 95 38 ff ff ff         	movq	-0xc8(%rbp), %r10
   207de: 8a 55 cd                     	movb	-0x33(%rbp), %dl
   207e1: 89 d6                        	movl	%edx, %esi
   207e3: 48 8d 15 26 b3 11 00         	leaq	0x11b326(%rip), %rdx    # 0x13bb10
   207ea: 48 89 95 b8 fc ff ff         	movq	%rdx, -0x348(%rbp)
   207f1: 48 ba ca 56 76 0e 45 b6 5b 3e	movabsq	$0x3e5bb6450e7656ca, %rdx # imm = 0x3E5BB6450E7656CA
   207fb: e9 2d 94 ff ff               	jmp	0x19c2d <.text+0xb4ad>
   20800: 8a 45 ce                     	movb	-0x32(%rbp), %al
   20803: 88 45 cf                     	movb	%al, -0x31(%rbp)
   20806: 48 8b 85 50 ff ff ff         	movq	-0xb0(%rbp), %rax
   2080d: 48 89 85 70 ff ff ff         	movq	%rax, -0x90(%rbp)
   20814: 48 8b 85 60 ff ff ff         	movq	-0xa0(%rbp), %rax
   2081b: 48 89 85 78 ff ff ff         	movq	%rax, -0x88(%rbp)
   20822: 4c 89 c0                     	movq	%r8, %rax
   20825: 4c 89 45 80                  	movq	%r8, -0x80(%rbp)
   20829: 4c 89 4d 88                  	movq	%r9, -0x78(%rbp)
   2082d: 48 8b 85 48 ff ff ff         	movq	-0xb8(%rbp), %rax
   20834: 48 89 45 90                  	movq	%rax, -0x70(%rbp)
   20838: 48 8b 85 50 fe ff ff         	movq	-0x1b0(%rbp), %rax
   2083f: 48 8d 40 01                  	leaq	0x1(%rax), %rax
   20843: 48 89 45 98                  	movq	%rax, -0x68(%rbp)
   20847: 48 8b 85 30 fc ff ff         	movq	-0x3d0(%rbp), %rax
   2084e: 48 8d 40 ff                  	leaq	-0x1(%rax), %rax
   20852: 48 89 45 a0                  	movq	%rax, -0x60(%rbp)
   20856: 4c 89 5d a8                  	movq	%r11, -0x58(%rbp)
   2085a: 48 8b 85 40 ff ff ff         	movq	-0xc0(%rbp), %rax
   20861: 48 89 45 b0                  	movq	%rax, -0x50(%rbp)
   20865: 48 8b 85 08 ff ff ff         	movq	-0xf8(%rbp), %rax
   2086c: 48 8b 8d 10 ff ff ff         	movq	-0xf0(%rbp), %rcx
   20873: 48 89 4d b8                  	movq	%rcx, -0x48(%rbp)
   20877: 48 8b 8d 20 ff ff ff         	movq	-0xe0(%rbp), %rcx
   2087e: 48 89 4d c0                  	movq	%rcx, -0x40(%rbp)
   20882: 4c 8b 9d 18 ff ff ff         	movq	-0xe8(%rbp), %r11
   20889: 4c 8b 95 38 ff ff ff         	movq	-0xc8(%rbp), %r10
   20890: 44 89 e6                     	movl	%r12d, %esi
   20893: 48 ba af 6e 00 5d b2 2d d5 68	movabsq	$0x68d52db25d006eaf, %rdx # imm = 0x68D52DB25D006EAF
   2089d: e9 8b 93 ff ff               	jmp	0x19c2d <.text+0xb4ad>
   208a2: 48 ba 65 b9 94 3e 0c c4 3c 6e	movabsq	$0x6e3cc40c3e94b965, %rdx # imm = 0x6E3CC40C3E94B965
   208ac: 80 bd da fe ff ff 00         	cmpb	$0x0, -0x126(%rbp)
   208b3: 40 8a 75 cd                  	movb	-0x33(%rbp), %sil
   208b7: 48 8b 9d 00 ff ff ff         	movq	-0x100(%rbp), %rbx
   208be: 4c 8b ad f0 fe ff ff         	movq	-0x110(%rbp), %r13
   208c5: 4c 8b bd f8 fe ff ff         	movq	-0x108(%rbp), %r15
   208cc: 74 0a                        	je	0x208d8 <.text+0x12158>
   208ce: 48 ba 5f fd 73 55 3e 22 b6 33	movabsq	$0x33b6223e5573fd5f, %rdx # imm = 0x33B6223E5573FD5F
   208d8: 8a 45 ce                     	movb	-0x32(%rbp), %al
   208db: 88 45 cf                     	movb	%al, -0x31(%rbp)
   208de: 48 8b 85 50 ff ff ff         	movq	-0xb0(%rbp), %rax
   208e5: 48 89 85 70 ff ff ff         	movq	%rax, -0x90(%rbp)
   208ec: 48 8b 85 60 ff ff ff         	movq	-0xa0(%rbp), %rax
   208f3: 48 89 85 78 ff ff ff         	movq	%rax, -0x88(%rbp)
   208fa: 4c 89 c0                     	movq	%r8, %rax
   208fd: 4c 89 45 80                  	movq	%r8, -0x80(%rbp)
   20901: 4c 89 4d 88                  	movq	%r9, -0x78(%rbp)
   20905: 48 8b 85 48 ff ff ff         	movq	-0xb8(%rbp), %rax
   2090c: 48 89 45 90                  	movq	%rax, -0x70(%rbp)
   20910: 48 8b 85 58 ff ff ff         	movq	-0xa8(%rbp), %rax
   20917: 48 89 45 98                  	movq	%rax, -0x68(%rbp)
   2091b: 48 8b 85 30 ff ff ff         	movq	-0xd0(%rbp), %rax
   20922: 48 89 45 a0                  	movq	%rax, -0x60(%rbp)
   20926: 48 8b 85 28 ff ff ff         	movq	-0xd8(%rbp), %rax
   2092d: 48 89 45 a8                  	movq	%rax, -0x58(%rbp)
   20931: 48 8b 85 40 ff ff ff         	movq	-0xc0(%rbp), %rax
   20938: 48 89 45 b0                  	movq	%rax, -0x50(%rbp)
   2093c: 48 8b 85 08 ff ff ff         	movq	-0xf8(%rbp), %rax
   20943: 48 8b 8d 10 ff ff ff         	movq	-0xf0(%rbp), %rcx
   2094a: 48 89 4d b8                  	movq	%rcx, -0x48(%rbp)
   2094e: 48 8b 8d 20 ff ff ff         	movq	-0xe0(%rbp), %rcx
   20955: 48 89 4d c0                  	movq	%rcx, -0x40(%rbp)
   20959: 4c 8b 9d 18 ff ff ff         	movq	-0xe8(%rbp), %r11
   20960: 4c 8b 95 38 ff ff ff         	movq	-0xc8(%rbp), %r10
   20967: 4c 8b b5 58 fd ff ff         	movq	-0x2a8(%rbp), %r14
   2096e: 4c 89 b5 38 fd ff ff         	movq	%r14, -0x2c8(%rbp)
   20975: e9 b3 92 ff ff               	jmp	0x19c2d <.text+0xb4ad>
   2097a: 8a 45 ce                     	movb	-0x32(%rbp), %al
   2097d: 88 45 cf                     	movb	%al, -0x31(%rbp)
   20980: 48 8b 85 50 ff ff ff         	movq	-0xb0(%rbp), %rax
   20987: 48 89 85 70 ff ff ff         	movq	%rax, -0x90(%rbp)
   2098e: 48 8b 85 60 ff ff ff         	movq	-0xa0(%rbp), %rax
   20995: 48 89 85 78 ff ff ff         	movq	%rax, -0x88(%rbp)
   2099c: 4c 89 c0                     	movq	%r8, %rax
   2099f: 4c 89 45 80                  	movq	%r8, -0x80(%rbp)
   209a3: 4c 89 4d 88                  	movq	%r9, -0x78(%rbp)
   209a7: 48 8b 85 48 ff ff ff         	movq	-0xb8(%rbp), %rax
   209ae: 48 89 45 90                  	movq	%rax, -0x70(%rbp)
   209b2: 48 8b 85 58 ff ff ff         	movq	-0xa8(%rbp), %rax
   209b9: 48 89 45 98                  	movq	%rax, -0x68(%rbp)
   209bd: 48 8b 85 30 ff ff ff         	movq	-0xd0(%rbp), %rax
   209c4: 48 89 45 a0                  	movq	%rax, -0x60(%rbp)
   209c8: 48 8b 85 28 ff ff ff         	movq	-0xd8(%rbp), %rax
   209cf: 48 89 45 a8                  	movq	%rax, -0x58(%rbp)
   209d3: 48 8b 85 40 ff ff ff         	movq	-0xc0(%rbp), %rax
   209da: 48 89 45 b0                  	movq	%rax, -0x50(%rbp)
   209de: 48 8b 85 08 ff ff ff         	movq	-0xf8(%rbp), %rax
   209e5: 48 8b 8d 10 ff ff ff         	movq	-0xf0(%rbp), %rcx
   209ec: 48 89 4d b8                  	movq	%rcx, -0x48(%rbp)
   209f0: 4c 8b bd f8 fe ff ff         	movq	-0x108(%rbp), %r15
   209f7: 4c 8b ad f0 fe ff ff         	movq	-0x110(%rbp), %r13
   209fe: 48 8b 9d 00 ff ff ff         	movq	-0x100(%rbp), %rbx
   20a05: 4c 8b 95 38 ff ff ff         	movq	-0xc8(%rbp), %r10
   20a0c: 8a 55 cd                     	movb	-0x33(%rbp), %dl
   20a0f: 89 d6                        	movl	%edx, %esi
   20a11: 48 8b 95 a0 fd ff ff         	movq	-0x260(%rbp), %rdx
   20a18: 48 89 95 18 fe ff ff         	movq	%rdx, -0x1e8(%rbp)
   20a1f: 6a 01                        	pushq	$0x1
   20a21: 41 58                        	popq	%r8
   20a23: 4c 89 45 c0                  	movq	%r8, -0x40(%rbp)
   20a27: 4c 8b 9d 80 fd ff ff         	movq	-0x280(%rbp), %r11
   20a2e: 48 ba f9 ee 42 72 b3 88 c4 7e	movabsq	$0x7ec488b37242eef9, %rdx # imm = 0x7EC488B37242EEF9
   20a38: e9 f0 91 ff ff               	jmp	0x19c2d <.text+0xb4ad>
   20a3d: 0f 28 05 8c b0 11 00         	movaps	0x11b08c(%rip), %xmm0   # 0x13bad0
   20a44: 0f 57 05 f5 33 fe ff         	xorps	-0x1cc0b(%rip), %xmm0   # 0x3e40
   20a4b: 0f 29 05 7e b0 11 00         	movaps	%xmm0, 0x11b07e(%rip)   # 0x13bad0
   20a52: c6 05 d4 e2 11 00 01         	movb	$0x1, 0x11e2d4(%rip)    # 0x13ed2d
   20a59: 8a 45 ce                     	movb	-0x32(%rbp), %al
   20a5c: 88 45 cf                     	movb	%al, -0x31(%rbp)
   20a5f: 48 8b 85 50 ff ff ff         	movq	-0xb0(%rbp), %rax
   20a66: 48 89 85 70 ff ff ff         	movq	%rax, -0x90(%rbp)
   20a6d: 48 8b 85 60 ff ff ff         	movq	-0xa0(%rbp), %rax
   20a74: 48 89 85 78 ff ff ff         	movq	%rax, -0x88(%rbp)
   20a7b: 48 8b 85 e0 fe ff ff         	movq	-0x120(%rbp), %rax
   20a82: 48 89 45 80                  	movq	%rax, -0x80(%rbp)
   20a86: 48 8b 85 e8 fe ff ff         	movq	-0x118(%rbp), %rax
   20a8d: 48 89 45 88                  	movq	%rax, -0x78(%rbp)
   20a91: 48 8b 85 48 ff ff ff         	movq	-0xb8(%rbp), %rax
   20a98: 48 89 45 90                  	movq	%rax, -0x70(%rbp)
   20a9c: 48 8b 85 58 ff ff ff         	movq	-0xa8(%rbp), %rax
   20aa3: 48 89 45 98                  	movq	%rax, -0x68(%rbp)
   20aa7: 48 89 55 a0                  	movq	%rdx, -0x60(%rbp)
   20aab: 4c 89 45 a8                  	movq	%r8, -0x58(%rbp)
   20aaf: 48 89 4d b0                  	movq	%rcx, -0x50(%rbp)
   20ab3: 4c 89 e0                     	movq	%r12, %rax
   20ab6: 48 89 7d b8                  	movq	%rdi, -0x48(%rbp)
   20aba: 4c 89 4d c0                  	movq	%r9, -0x40(%rbp)
   20abe: 48 ba 72 44 7c ec c4 2d 02 6f	movabsq	$0x6f022dc4ec7c4472, %rdx # imm = 0x6F022DC4EC7C4472
   20ac8: e9 60 91 ff ff               	jmp	0x19c2d <.text+0xb4ad>
   20acd: 8b 85 e4 fd ff ff            	movl	-0x21c(%rbp), %eax
   20ad3: c1 e0 08                     	shll	$0x8, %eax
   20ad6: 89 85 90 fe ff ff            	movl	%eax, -0x170(%rbp)
   20adc: 8a 45 ce                     	movb	-0x32(%rbp), %al
   20adf: 88 45 cf                     	movb	%al, -0x31(%rbp)
   20ae2: 48 8b 85 50 ff ff ff         	movq	-0xb0(%rbp), %rax
   20ae9: 48 89 85 70 ff ff ff         	movq	%rax, -0x90(%rbp)
   20af0: 48 8b 85 60 ff ff ff         	movq	-0xa0(%rbp), %rax
   20af7: 48 89 85 78 ff ff ff         	movq	%rax, -0x88(%rbp)
   20afe: 4c 89 c0                     	movq	%r8, %rax
   20b01: 4c 89 45 80                  	movq	%r8, -0x80(%rbp)
   20b05: 4c 89 4d 88                  	movq	%r9, -0x78(%rbp)
   20b09: 48 8b 85 48 ff ff ff         	movq	-0xb8(%rbp), %rax
   20b10: 48 89 45 90                  	movq	%rax, -0x70(%rbp)
   20b14: 48 8b 85 58 ff ff ff         	movq	-0xa8(%rbp), %rax
   20b1b: 48 89 45 98                  	movq	%rax, -0x68(%rbp)
   20b1f: 48 8b 85 30 ff ff ff         	movq	-0xd0(%rbp), %rax
   20b26: 48 89 45 a0                  	movq	%rax, -0x60(%rbp)
   20b2a: 48 8b 85 28 ff ff ff         	movq	-0xd8(%rbp), %rax
   20b31: 48 89 45 a8                  	movq	%rax, -0x58(%rbp)
   20b35: 48 8b 85 40 ff ff ff         	movq	-0xc0(%rbp), %rax
   20b3c: 48 89 45 b0                  	movq	%rax, -0x50(%rbp)
   20b40: 48 8b 85 08 ff ff ff         	movq	-0xf8(%rbp), %rax
   20b47: 48 8b 8d 10 ff ff ff         	movq	-0xf0(%rbp), %rcx
   20b4e: 48 89 4d b8                  	movq	%rcx, -0x48(%rbp)
   20b52: 48 8b 8d 20 ff ff ff         	movq	-0xe0(%rbp), %rcx
   20b59: 48 89 4d c0                  	movq	%rcx, -0x40(%rbp)
   20b5d: 4c 8b 9d 18 ff ff ff         	movq	-0xe8(%rbp), %r11
   20b64: 4c 8b 95 38 ff ff ff         	movq	-0xc8(%rbp), %r10
   20b6b: 48 8b 95 68 fc ff ff         	movq	-0x398(%rbp), %rdx
   20b72: 40 8a 72 01                  	movb	0x1(%rdx), %sil
   20b76: 40 88 b5 dd fe ff ff         	movb	%sil, -0x123(%rbp)
   20b7d: 44 89 e6                     	movl	%r12d, %esi
   20b80: 48 ff c2                     	incq	%rdx
   20b83: e9 ef 1e 00 00               	jmp	0x22a77 <.text+0x142f7>
   20b88: 48 8b 85 38 fd ff ff         	movq	-0x2c8(%rbp), %rax
   20b8f: 48 2b 85 28 fc ff ff         	subq	-0x3d8(%rbp), %rax
   20b96: 48 89 85 00 fd ff ff         	movq	%rax, -0x300(%rbp)
   20b9d: 8a 45 ce                     	movb	-0x32(%rbp), %al
   20ba0: 88 45 cf                     	movb	%al, -0x31(%rbp)
   20ba3: 48 8b 85 50 ff ff ff         	movq	-0xb0(%rbp), %rax
   20baa: 48 89 85 70 ff ff ff         	movq	%rax, -0x90(%rbp)
   20bb1: 48 8b 85 60 ff ff ff         	movq	-0xa0(%rbp), %rax
   20bb8: 48 89 85 78 ff ff ff         	movq	%rax, -0x88(%rbp)
   20bbf: 4c 89 c0                     	movq	%r8, %rax
   20bc2: 4c 89 45 80                  	movq	%r8, -0x80(%rbp)
   20bc6: 4c 89 4d 88                  	movq	%r9, -0x78(%rbp)
   20bca: 48 8b 85 48 ff ff ff         	movq	-0xb8(%rbp), %rax
   20bd1: 48 89 45 90                  	movq	%rax, -0x70(%rbp)
   20bd5: 48 8b 85 58 ff ff ff         	movq	-0xa8(%rbp), %rax
   20bdc: 48 89 45 98                  	movq	%rax, -0x68(%rbp)
   20be0: 48 8b 85 30 ff ff ff         	movq	-0xd0(%rbp), %rax
   20be7: 48 89 45 a0                  	movq	%rax, -0x60(%rbp)
   20beb: 48 8b 85 28 ff ff ff         	movq	-0xd8(%rbp), %rax
   20bf2: 48 89 45 a8                  	movq	%rax, -0x58(%rbp)
   20bf6: 48 8b 85 40 ff ff ff         	movq	-0xc0(%rbp), %rax
   20bfd: 48 89 45 b0                  	movq	%rax, -0x50(%rbp)
   20c01: 48 8b 85 08 ff ff ff         	movq	-0xf8(%rbp), %rax
   20c08: 48 8b 8d 10 ff ff ff         	movq	-0xf0(%rbp), %rcx
   20c0f: 48 89 4d b8                  	movq	%rcx, -0x48(%rbp)
   20c13: 48 8b 8d 20 ff ff ff         	movq	-0xe0(%rbp), %rcx
   20c1a: 48 89 4d c0                  	movq	%rcx, -0x40(%rbp)
   20c1e: 4c 8b 9d 18 ff ff ff         	movq	-0xe8(%rbp), %r11
   20c25: 4c 8b 95 38 ff ff ff         	movq	-0xc8(%rbp), %r10
   20c2c: 44 89 e6                     	movl	%r12d, %esi
   20c2f: 48 ba e4 ae 4c ce 55 08 2d d2	movabsq	$-0x2dd2f7aa31b3511c, %rdx # imm = 0xD22D0855CE4CAEE4
   20c39: e9 ef 8f ff ff               	jmp	0x19c2d <.text+0xb4ad>
   20c3e: 0f 28 05 ab ae 11 00         	movaps	0x11aeab(%rip), %xmm0   # 0x13baf0
   20c45: 0f 57 05 94 33 fe ff         	xorps	-0x1cc6c(%rip), %xmm0   # 0x3fe0
   20c4c: 0f 29 05 9d ae 11 00         	movaps	%xmm0, 0x11ae9d(%rip)   # 0x13baf0
   20c53: 48 b8 19 19 19 19 19 19 19 19	movabsq	$0x1919191919191919, %rax # imm = 0x1919191919191919
   20c5d: 48 31 05 9c ae 11 00         	xorq	%rax, 0x11ae9c(%rip)    # 0x13bb00
   20c64: f2 0f 10 05 9c ae 11 00      	movsd	0x11ae9c(%rip), %xmm0   # 0x13bb08
   20c6c: 0f 57 05 dd 2b fe ff         	xorps	-0x1d423(%rip), %xmm0   # 0x3850
   20c73: f3 0f 11 05 8d ae 11 00      	movss	%xmm0, 0x11ae8d(%rip)   # 0x13bb08
   20c7b: 80 35 8a ae 11 00 19         	xorb	$0x19, 0x11ae8a(%rip)   # 0x13bb0c
   20c82: 80 35 84 ae 11 00 19         	xorb	$0x19, 0x11ae84(%rip)   # 0x13bb0d
   20c89: 80 35 7e ae 11 00 19         	xorb	$0x19, 0x11ae7e(%rip)   # 0x13bb0e
   20c90: c6 05 9c e0 11 00 01         	movb	$0x1, 0x11e09c(%rip)    # 0x13ed33
   20c97: 8a 45 ce                     	movb	-0x32(%rbp), %al
   20c9a: 88 45 cf                     	movb	%al, -0x31(%rbp)
   20c9d: 48 8b 85 50 ff ff ff         	movq	-0xb0(%rbp), %rax
   20ca4: 48 89 85 70 ff ff ff         	movq	%rax, -0x90(%rbp)
   20cab: 48 8b 85 60 ff ff ff         	movq	-0xa0(%rbp), %rax
   20cb2: 48 89 85 78 ff ff ff         	movq	%rax, -0x88(%rbp)
   20cb9: 4c 89 c0                     	movq	%r8, %rax
   20cbc: 4c 89 45 80                  	movq	%r8, -0x80(%rbp)
   20cc0: 4c 89 4d 88                  	movq	%r9, -0x78(%rbp)
   20cc4: 48 8b 85 48 ff ff ff         	movq	-0xb8(%rbp), %rax
   20ccb: 48 89 45 90                  	movq	%rax, -0x70(%rbp)
   20ccf: 48 8b 85 58 ff ff ff         	movq	-0xa8(%rbp), %rax
   20cd6: 48 89 45 98                  	movq	%rax, -0x68(%rbp)
   20cda: 48 89 55 a0                  	movq	%rdx, -0x60(%rbp)
   20cde: 4c 89 5d a8                  	movq	%r11, -0x58(%rbp)
   20ce2: 48 8b 85 40 ff ff ff         	movq	-0xc0(%rbp), %rax
   20ce9: 48 89 45 b0                  	movq	%rax, -0x50(%rbp)
   20ced: 48 8b 85 08 ff ff ff         	movq	-0xf8(%rbp), %rax
   20cf4: 48 8b 8d 10 ff ff ff         	movq	-0xf0(%rbp), %rcx
   20cfb: 48 89 4d b8                  	movq	%rcx, -0x48(%rbp)
   20cff: 48 8b 8d 20 ff ff ff         	movq	-0xe0(%rbp), %rcx
   20d06: 48 89 4d c0                  	movq	%rcx, -0x40(%rbp)
   20d0a: 4c 8b 9d 18 ff ff ff         	movq	-0xe8(%rbp), %r11
   20d11: 4c 8b 95 38 ff ff ff         	movq	-0xc8(%rbp), %r10
   20d18: 44 89 e6                     	movl	%r12d, %esi
   20d1b: 48 ba 4b c4 0a 99 13 70 e1 13	movabsq	$0x13e17013990ac44b, %rdx # imm = 0x13E17013990AC44B
   20d25: e9 03 8f ff ff               	jmp	0x19c2d <.text+0xb4ad>
   20d2a: 4c 8b a5 48 ff ff ff         	movq	-0xb8(%rbp), %r12
   20d31: 48 8b 85 40 fe ff ff         	movq	-0x1c0(%rbp), %rax
   20d38: 48 83 38 00                  	cmpq	$0x0, (%rax)
   20d3c: 48 ba 09 23 38 c1 b8 f9 00 21	movabsq	$0x2100f9b8c1382309, %rdx # imm = 0x2100F9B8C1382309
   20d46: 40 8a 75 cd                  	movb	-0x33(%rbp), %sil
   20d4a: 4c 8b 95 38 ff ff ff         	movq	-0xc8(%rbp), %r10
   20d51: 48 8b 9d 00 ff ff ff         	movq	-0x100(%rbp), %rbx
   20d58: 4c 8b ad f0 fe ff ff         	movq	-0x110(%rbp), %r13
   20d5f: 4c 8b bd f8 fe ff ff         	movq	-0x108(%rbp), %r15
   20d66: 4c 8b 8d 18 ff ff ff         	movq	-0xe8(%rbp), %r9
   20d6d: 4c 8b 85 20 ff ff ff         	movq	-0xe0(%rbp), %r8
   20d74: 48 8b bd 10 ff ff ff         	movq	-0xf0(%rbp), %rdi
   20d7b: 48 8b 8d 08 ff ff ff         	movq	-0xf8(%rbp), %rcx
   20d82: 48 8b 85 40 ff ff ff         	movq	-0xc0(%rbp), %rax
   20d89: 74 0a                        	je	0x20d95 <.text+0x12615>
   20d8b: 48 ba a9 de 82 33 49 92 4c 94	movabsq	$-0x6bb36db6cc7d2157, %rdx # imm = 0x944C92493382DEA9
   20d95: 4c 8b b5 70 fe ff ff         	movq	-0x190(%rbp), %r14
   20d9c: 49 83 66 08 00               	andq	$0x0, 0x8(%r14)
   20da1: 44 8a 5d ce                  	movb	-0x32(%rbp), %r11b
   20da5: 44 88 5d cf                  	movb	%r11b, -0x31(%rbp)
   20da9: 4c 8b 9d 50 ff ff ff         	movq	-0xb0(%rbp), %r11
   20db0: 4c 89 9d 70 ff ff ff         	movq	%r11, -0x90(%rbp)
   20db7: 4c 8b 9d 60 ff ff ff         	movq	-0xa0(%rbp), %r11
   20dbe: 4c 89 9d 78 ff ff ff         	movq	%r11, -0x88(%rbp)
   20dc5: 4c 8b 9d e0 fe ff ff         	movq	-0x120(%rbp), %r11
   20dcc: 4c 89 5d 80                  	movq	%r11, -0x80(%rbp)
   20dd0: 4c 8b 9d e8 fe ff ff         	movq	-0x118(%rbp), %r11
   20dd7: 4c 89 5d 88                  	movq	%r11, -0x78(%rbp)
   20ddb: 4c 89 65 90                  	movq	%r12, -0x70(%rbp)
   20ddf: 4c 8b 9d 58 ff ff ff         	movq	-0xa8(%rbp), %r11
   20de6: 4c 89 5d 98                  	movq	%r11, -0x68(%rbp)
   20dea: 4c 8b 9d 30 ff ff ff         	movq	-0xd0(%rbp), %r11
   20df1: 4c 89 5d a0                  	movq	%r11, -0x60(%rbp)
   20df5: 4c 8b 9d 28 ff ff ff         	movq	-0xd8(%rbp), %r11
   20dfc: 4c 89 5d a8                  	movq	%r11, -0x58(%rbp)
   20e00: 48 89 45 b0                  	movq	%rax, -0x50(%rbp)
   20e04: 48 89 c8                     	movq	%rcx, %rax
   20e07: 48 89 7d b8                  	movq	%rdi, -0x48(%rbp)
   20e0b: 4c 89 45 c0                  	movq	%r8, -0x40(%rbp)
   20e0f: 4d 89 cb                     	movq	%r9, %r11
   20e12: 49 83 c6 08                  	addq	$0x8, %r14
   20e16: 4c 89 b5 48 fd ff ff         	movq	%r14, -0x2b8(%rbp)
   20e1d: e9 0b 8e ff ff               	jmp	0x19c2d <.text+0xb4ad>
   20e22: 48 8b 85 00 fd ff ff         	movq	-0x300(%rbp), %rax
   20e29: 48 ff c8                     	decq	%rax
   20e2c: 48 89 85 58 fe ff ff         	movq	%rax, -0x1a8(%rbp)
   20e33: 48 ba 0a 06 39 4e fb 7b d4 86	movabsq	$-0x792b8404b1c6f9f6, %rdx # imm = 0x86D47BFB4E39060A
   20e3d: 48 b8 3c 6c 44 a4 dd 3e 0d 97	movabsq	$-0x68f2c1225bbb93c4, %rax # imm = 0x970D3EDDA4446C3C
   20e47: 48 0f 44 d0                  	cmoveq	%rax, %rdx
   20e4b: 8a 45 ce                     	movb	-0x32(%rbp), %al
   20e4e: 88 45 cf                     	movb	%al, -0x31(%rbp)
   20e51: 48 8b 85 50 ff ff ff         	movq	-0xb0(%rbp), %rax
   20e58: 48 89 85 70 ff ff ff         	movq	%rax, -0x90(%rbp)
   20e5f: 48 8b 85 60 ff ff ff         	movq	-0xa0(%rbp), %rax
   20e66: 48 89 85 78 ff ff ff         	movq	%rax, -0x88(%rbp)
   20e6d: 48 8b 85 e0 fe ff ff         	movq	-0x120(%rbp), %rax
   20e74: 48 89 45 80                  	movq	%rax, -0x80(%rbp)
   20e78: 48 8b 85 e8 fe ff ff         	movq	-0x118(%rbp), %rax
   20e7f: 48 89 45 88                  	movq	%rax, -0x78(%rbp)
   20e83: 48 8b 85 48 ff ff ff         	movq	-0xb8(%rbp), %rax
   20e8a: 48 89 45 90                  	movq	%rax, -0x70(%rbp)
   20e8e: 48 8b 85 58 ff ff ff         	movq	-0xa8(%rbp), %rax
   20e95: 48 89 45 98                  	movq	%rax, -0x68(%rbp)
   20e99: 48 8b 85 30 ff ff ff         	movq	-0xd0(%rbp), %rax
   20ea0: 48 89 45 a0                  	movq	%rax, -0x60(%rbp)
   20ea4: 48 8b 85 28 ff ff ff         	movq	-0xd8(%rbp), %rax
   20eab: 48 89 45 a8                  	movq	%rax, -0x58(%rbp)
   20eaf: 4c 89 65 b0                  	movq	%r12, -0x50(%rbp)
   20eb3: e9 6b 19 00 00               	jmp	0x22823 <.text+0x140a3>
   20eb8: 8a 45 ce                     	movb	-0x32(%rbp), %al
   20ebb: 88 45 cf                     	movb	%al, -0x31(%rbp)
   20ebe: 48 8b 85 50 ff ff ff         	movq	-0xb0(%rbp), %rax
   20ec5: 48 89 85 70 ff ff ff         	movq	%rax, -0x90(%rbp)
   20ecc: 48 8b 85 60 ff ff ff         	movq	-0xa0(%rbp), %rax
   20ed3: 48 89 85 78 ff ff ff         	movq	%rax, -0x88(%rbp)
   20eda: 48 8b 85 68 fe ff ff         	movq	-0x198(%rbp), %rax
   20ee1: 4c 01 c8                     	addq	%r9, %rax
   20ee4: 48 89 85 40 fd ff ff         	movq	%rax, -0x2c0(%rbp)
   20eeb: 4c 89 4d 88                  	movq	%r9, -0x78(%rbp)
   20eef: 48 8b 85 48 ff ff ff         	movq	-0xb8(%rbp), %rax
   20ef6: 48 89 45 90                  	movq	%rax, -0x70(%rbp)
   20efa: 48 8b 85 58 ff ff ff         	movq	-0xa8(%rbp), %rax
   20f01: 48 89 45 98                  	movq	%rax, -0x68(%rbp)
   20f05: 48 89 55 a0                  	movq	%rdx, -0x60(%rbp)
   20f09: 4c 89 c0                     	movq	%r8, %rax
   20f0c: 4c 89 45 80                  	movq	%r8, -0x80(%rbp)
   20f10: 4c 89 85 50 fd ff ff         	movq	%r8, -0x2b0(%rbp)
   20f17: 4c 89 5d a8                  	movq	%r11, -0x58(%rbp)
   20f1b: 48 8b 85 40 ff ff ff         	movq	-0xc0(%rbp), %rax
   20f22: 48 89 45 b0                  	movq	%rax, -0x50(%rbp)
   20f26: 48 8b 85 08 ff ff ff         	movq	-0xf8(%rbp), %rax
   20f2d: 48 8b 8d 10 ff ff ff         	movq	-0xf0(%rbp), %rcx
   20f34: 48 89 4d b8                  	movq	%rcx, -0x48(%rbp)
   20f38: 48 8b 8d 20 ff ff ff         	movq	-0xe0(%rbp), %rcx
   20f3f: 48 89 4d c0                  	movq	%rcx, -0x40(%rbp)
   20f43: 4c 8b 9d 18 ff ff ff         	movq	-0xe8(%rbp), %r11
   20f4a: 4c 8b 95 38 ff ff ff         	movq	-0xc8(%rbp), %r10
   20f51: 44 89 e6                     	movl	%r12d, %esi
   20f54: 48 8b 95 40 fc ff ff         	movq	-0x3c0(%rbp), %rdx
   20f5b: 48 89 95 60 fd ff ff         	movq	%rdx, -0x2a0(%rbp)
   20f62: 48 ba 7a e0 4d ab 1c 58 ae 9a	movabsq	$-0x6551a7e354b21f86, %rdx # imm = 0x9AAE581CAB4DE07A
   20f6c: e9 bc 8c ff ff               	jmp	0x19c2d <.text+0xb4ad>
   20f71: 31 c0                        	xorl	%eax, %eax
   20f73: b1 01                        	movb	$0x1, %cl
   20f75: f0                           	lock
   20f76: 0f b0 0d 09 e0 11 00         	cmpxchgb	%cl, 0x11e009(%rip)     # 0x13ef86
   20f7d: 48 ba 41 bf 77 6f bd 41 1c 6a	movabsq	$0x6a1c41bd6f77bf41, %rdx # imm = 0x6A1C41BD6F77BF41
   20f87: 40 8a 75 cd                  	movb	-0x33(%rbp), %sil
   20f8b: 4c 8b 95 38 ff ff ff         	movq	-0xc8(%rbp), %r10
   20f92: 48 8b 9d 00 ff ff ff         	movq	-0x100(%rbp), %rbx
   20f99: 4c 8b ad f0 fe ff ff         	movq	-0x110(%rbp), %r13
   20fa0: 4c 8b bd f8 fe ff ff         	movq	-0x108(%rbp), %r15
   20fa7: 4c 8b 8d 18 ff ff ff         	movq	-0xe8(%rbp), %r9
   20fae: 4c 8b 85 20 ff ff ff         	movq	-0xe0(%rbp), %r8
   20fb5: 48 8b bd 10 ff ff ff         	movq	-0xf0(%rbp), %rdi
   20fbc: 48 8b 8d 08 ff ff ff         	movq	-0xf8(%rbp), %rcx
   20fc3: 48 8b 85 40 ff ff ff         	movq	-0xc0(%rbp), %rax
   20fca: 0f 84 e9 17 00 00            	je	0x227b9 <.text+0x14039>
   20fd0: 48 ba 40 25 82 b4 11 0d a3 a1	movabsq	$-0x5e5cf2ee4b7ddac0, %rdx # imm = 0xA1A30D11B4822540
   20fda: e9 da 17 00 00               	jmp	0x227b9 <.text+0x14039>
   20fdf: 48 8b 95 50 fc ff ff         	movq	-0x3b0(%rbp), %rdx
   20fe6: 0f b6 42 01                  	movzbl	0x1(%rdx), %eax
   20fea: 89 85 ac fe ff ff            	movl	%eax, -0x154(%rbp)
   20ff0: 0b 85 f4 fd ff ff            	orl	-0x20c(%rbp), %eax
   20ff6: c1 e0 08                     	shll	$0x8, %eax
   20ff9: 89 85 94 fe ff ff            	movl	%eax, -0x16c(%rbp)
   20fff: 8a 45 ce                     	movb	-0x32(%rbp), %al
   21002: 88 45 cf                     	movb	%al, -0x31(%rbp)
   21005: 48 8b 85 50 ff ff ff         	movq	-0xb0(%rbp), %rax
   2100c: 48 89 85 70 ff ff ff         	movq	%rax, -0x90(%rbp)
   21013: 48 8b 85 60 ff ff ff         	movq	-0xa0(%rbp), %rax
   2101a: 48 89 85 78 ff ff ff         	movq	%rax, -0x88(%rbp)
   21021: 4c 89 f0                     	movq	%r14, %rax
   21024: 4c 89 75 80                  	movq	%r14, -0x80(%rbp)
   21028: 4c 89 4d 88                  	movq	%r9, -0x78(%rbp)
   2102c: 48 8b 85 48 ff ff ff         	movq	-0xb8(%rbp), %rax
   21033: 48 89 45 90                  	movq	%rax, -0x70(%rbp)
   21037: 48 8b 85 58 ff ff ff         	movq	-0xa8(%rbp), %rax
   2103e: 48 89 45 98                  	movq	%rax, -0x68(%rbp)
   21042: 48 8b 85 30 ff ff ff         	movq	-0xd0(%rbp), %rax
   21049: 48 89 45 a0                  	movq	%rax, -0x60(%rbp)
   2104d: 48 8b 85 28 ff ff ff         	movq	-0xd8(%rbp), %rax
   21054: 48 89 45 a8                  	movq	%rax, -0x58(%rbp)
   21058: 48 8b 85 40 ff ff ff         	movq	-0xc0(%rbp), %rax
   2105f: 48 89 45 b0                  	movq	%rax, -0x50(%rbp)
   21063: 48 8b 85 08 ff ff ff         	movq	-0xf8(%rbp), %rax
   2106a: 48 8b 8d 10 ff ff ff         	movq	-0xf0(%rbp), %rcx
   21071: 48 89 4d b8                  	movq	%rcx, -0x48(%rbp)
   21075: 48 8b 8d 20 ff ff ff         	movq	-0xe0(%rbp), %rcx
   2107c: 48 89 4d c0                  	movq	%rcx, -0x40(%rbp)
   21080: 4c 8b 9d 18 ff ff ff         	movq	-0xe8(%rbp), %r11
   21087: 4c 8b bd f8 fe ff ff         	movq	-0x108(%rbp), %r15
   2108e: 4c 8b ad f0 fe ff ff         	movq	-0x110(%rbp), %r13
   21095: 48 8b 9d 00 ff ff ff         	movq	-0x100(%rbp), %rbx
   2109c: 4c 8b 95 38 ff ff ff         	movq	-0xc8(%rbp), %r10
   210a3: 40 8a 75 cd                  	movb	-0x33(%rbp), %sil
   210a7: 48 ff c2                     	incq	%rdx
   210aa: e9 1f 05 00 00               	jmp	0x215ce <.text+0x12e4e>
   210af: 48 8b 85 a0 fe ff ff         	movq	-0x160(%rbp), %rax
   210b6: 8a 40 03                     	movb	0x3(%rax), %al
   210b9: 48 ba 2d 2f 9f 35 ce 0e 8f 98	movabsq	$-0x6770f131ca60d0d3, %rdx # imm = 0x988F0ECE359F2F2D
   210c3: 88 85 cf fe ff ff            	movb	%al, -0x131(%rbp)
   210c9: 84 c0                        	testb	%al, %al
   210cb: 40 8a 75 cd                  	movb	-0x33(%rbp), %sil
   210cf: 4c 8b 95 38 ff ff ff         	movq	-0xc8(%rbp), %r10
   210d6: 48 8b 9d 00 ff ff ff         	movq	-0x100(%rbp), %rbx
   210dd: 4c 8b ad f0 fe ff ff         	movq	-0x110(%rbp), %r13
   210e4: 4c 8b bd f8 fe ff ff         	movq	-0x108(%rbp), %r15
   210eb: 4c 8b 8d 18 ff ff ff         	movq	-0xe8(%rbp), %r9
   210f2: 4c 8b 85 20 ff ff ff         	movq	-0xe0(%rbp), %r8
   210f9: 48 8b bd 10 ff ff ff         	movq	-0xf0(%rbp), %rdi
   21100: 48 8b 8d 08 ff ff ff         	movq	-0xf8(%rbp), %rcx
   21107: 48 8b 85 40 ff ff ff         	movq	-0xc0(%rbp), %rax
   2110e: 74 0a                        	je	0x2111a <.text+0x1299a>
   21110: 48 ba 61 4d 39 20 29 e1 92 fe	movabsq	$-0x16d1ed6dfc6b29f, %rdx # imm = 0xFE92E12920394D61
   2111a: 44 8a 5d ce                  	movb	-0x32(%rbp), %r11b
   2111e: 44 88 5d cf                  	movb	%r11b, -0x31(%rbp)
   21122: 4c 8b 9d 50 ff ff ff         	movq	-0xb0(%rbp), %r11
   21129: 4c 89 9d 70 ff ff ff         	movq	%r11, -0x90(%rbp)
   21130: 4c 8b 9d 60 ff ff ff         	movq	-0xa0(%rbp), %r11
   21137: 4c 89 9d 78 ff ff ff         	movq	%r11, -0x88(%rbp)
   2113e: 4c 8b 9d e0 fe ff ff         	movq	-0x120(%rbp), %r11
   21145: 4c 89 5d 80                  	movq	%r11, -0x80(%rbp)
   21149: 4c 8b 9d e8 fe ff ff         	movq	-0x118(%rbp), %r11
   21150: 4c 89 5d 88                  	movq	%r11, -0x78(%rbp)
   21154: 4c 8b 9d 48 ff ff ff         	movq	-0xb8(%rbp), %r11
   2115b: 4c 89 5d 90                  	movq	%r11, -0x70(%rbp)
   2115f: 4c 8b 9d 58 ff ff ff         	movq	-0xa8(%rbp), %r11
   21166: 4c 89 5d 98                  	movq	%r11, -0x68(%rbp)
   2116a: 4c 8b 9d 30 ff ff ff         	movq	-0xd0(%rbp), %r11
   21171: 4c 89 5d a0                  	movq	%r11, -0x60(%rbp)
   21175: 4c 8b 9d 28 ff ff ff         	movq	-0xd8(%rbp), %r11
   2117c: 4c 89 5d a8                  	movq	%r11, -0x58(%rbp)
   21180: 48 89 45 b0                  	movq	%rax, -0x50(%rbp)
   21184: 48 89 c8                     	movq	%rcx, %rax
   21187: 48 89 7d b8                  	movq	%rdi, -0x48(%rbp)
   2118b: 4c 89 45 c0                  	movq	%r8, -0x40(%rbp)
   2118f: 4d 89 cb                     	movq	%r9, %r11
   21192: 4c 8b b5 a0 fe ff ff         	movq	-0x160(%rbp), %r14
   21199: 49 83 c6 03                  	addq	$0x3, %r14
   2119d: 4c 89 b5 48 fc ff ff         	movq	%r14, -0x3b8(%rbp)
   211a4: e9 84 8a ff ff               	jmp	0x19c2d <.text+0xb4ad>
   211a9: 48 8b 85 50 fe ff ff         	movq	-0x1b0(%rbp), %rax
   211b0: 80 38 00                     	cmpb	$0x0, (%rax)
   211b3: 48 ba da 06 62 6c 90 29 80 81	movabsq	$-0x7e7fd66f939df926, %rdx # imm = 0x818029906C6206DA
   211bd: 40 8a 75 cd                  	movb	-0x33(%rbp), %sil
   211c1: 4c 8b 95 38 ff ff ff         	movq	-0xc8(%rbp), %r10
   211c8: 48 8b 9d 00 ff ff ff         	movq	-0x100(%rbp), %rbx
   211cf: 4c 8b ad f0 fe ff ff         	movq	-0x110(%rbp), %r13
   211d6: 4c 8b bd f8 fe ff ff         	movq	-0x108(%rbp), %r15
   211dd: 4c 8b 8d 18 ff ff ff         	movq	-0xe8(%rbp), %r9
   211e4: 4c 8b 85 20 ff ff ff         	movq	-0xe0(%rbp), %r8
   211eb: 48 8b bd 10 ff ff ff         	movq	-0xf0(%rbp), %rdi
   211f2: 48 8b 8d 08 ff ff ff         	movq	-0xf8(%rbp), %rcx
   211f9: 48 8b 85 40 ff ff ff         	movq	-0xc0(%rbp), %rax
   21200: 0f 84 b3 15 00 00            	je	0x227b9 <.text+0x14039>
   21206: 48 ba 1d 25 e9 88 08 ec ba 21	movabsq	$0x21baec0888e9251d, %rdx # imm = 0x21BAEC0888E9251D
   21210: e9 a4 15 00 00               	jmp	0x227b9 <.text+0x14039>
   21215: 48 8b 85 a0 fe ff ff         	movq	-0x160(%rbp), %rax
   2121c: 8a 40 02                     	movb	0x2(%rax), %al
   2121f: 48 ba f5 ee 10 e3 5b a5 81 4c	movabsq	$0x4c81a55be310eef5, %rdx # imm = 0x4C81A55BE310EEF5
   21229: 88 85 cc fe ff ff            	movb	%al, -0x134(%rbp)
   2122f: 84 c0                        	testb	%al, %al
   21231: 40 8a 75 cd                  	movb	-0x33(%rbp), %sil
   21235: 4c 8b 95 38 ff ff ff         	movq	-0xc8(%rbp), %r10
   2123c: 48 8b 9d 00 ff ff ff         	movq	-0x100(%rbp), %rbx
   21243: 4c 8b ad f0 fe ff ff         	movq	-0x110(%rbp), %r13
   2124a: 4c 8b bd f8 fe ff ff         	movq	-0x108(%rbp), %r15
   21251: 4c 8b 9d 18 ff ff ff         	movq	-0xe8(%rbp), %r11
   21258: 4c 8b 85 20 ff ff ff         	movq	-0xe0(%rbp), %r8
   2125f: 48 8b 8d 08 ff ff ff         	movq	-0xf8(%rbp), %rcx
   21266: 48 8b 85 40 ff ff ff         	movq	-0xc0(%rbp), %rax
   2126d: 74 0a                        	je	0x21279 <.text+0x12af9>
   2126f: 48 ba ba c5 28 51 81 06 00 55	movabsq	$0x550006815128c5ba, %rdx # imm = 0x550006815128C5BA
   21279: 40 8a 7d ce                  	movb	-0x32(%rbp), %dil
   2127d: 40 88 7d cf                  	movb	%dil, -0x31(%rbp)
   21281: 48 8b bd 50 ff ff ff         	movq	-0xb0(%rbp), %rdi
   21288: 48 89 bd 70 ff ff ff         	movq	%rdi, -0x90(%rbp)
   2128f: 48 8b bd 60 ff ff ff         	movq	-0xa0(%rbp), %rdi
   21296: 48 89 bd 78 ff ff ff         	movq	%rdi, -0x88(%rbp)
   2129d: 48 8b bd e0 fe ff ff         	movq	-0x120(%rbp), %rdi
   212a4: 48 89 7d 80                  	movq	%rdi, -0x80(%rbp)
   212a8: 48 8b bd e8 fe ff ff         	movq	-0x118(%rbp), %rdi
   212af: 48 89 7d 88                  	movq	%rdi, -0x78(%rbp)
   212b3: 48 8b bd 48 ff ff ff         	movq	-0xb8(%rbp), %rdi
   212ba: 48 89 7d 90                  	movq	%rdi, -0x70(%rbp)
   212be: 48 8b bd 58 ff ff ff         	movq	-0xa8(%rbp), %rdi
   212c5: 48 89 7d 98                  	movq	%rdi, -0x68(%rbp)
   212c9: 48 8b bd 30 ff ff ff         	movq	-0xd0(%rbp), %rdi
   212d0: 48 89 7d a0                  	movq	%rdi, -0x60(%rbp)
   212d4: 48 8b bd 28 ff ff ff         	movq	-0xd8(%rbp), %rdi
   212db: 48 89 7d a8                  	movq	%rdi, -0x58(%rbp)
   212df: 48 89 45 b0                  	movq	%rax, -0x50(%rbp)
   212e3: 48 89 c8                     	movq	%rcx, %rax
   212e6: 48 8b 8d 10 ff ff ff         	movq	-0xf0(%rbp), %rcx
   212ed: 48 89 4d b8                  	movq	%rcx, -0x48(%rbp)
   212f1: 4c 89 45 c0                  	movq	%r8, -0x40(%rbp)
   212f5: 4c 8b b5 a0 fe ff ff         	movq	-0x160(%rbp), %r14
   212fc: 49 83 c6 02                  	addq	$0x2, %r14
   21300: 4c 89 b5 38 fc ff ff         	movq	%r14, -0x3c8(%rbp)
   21307: e9 21 89 ff ff               	jmp	0x19c2d <.text+0xb4ad>
   2130c: 8a 45 ce                     	movb	-0x32(%rbp), %al
   2130f: 88 45 cf                     	movb	%al, -0x31(%rbp)
   21312: 48 8b 85 50 ff ff ff         	movq	-0xb0(%rbp), %rax
   21319: 48 89 85 70 ff ff ff         	movq	%rax, -0x90(%rbp)
   21320: 48 8b 85 60 ff ff ff         	movq	-0xa0(%rbp), %rax
   21327: 48 89 85 78 ff ff ff         	movq	%rax, -0x88(%rbp)
   2132e: 4c 89 c0                     	movq	%r8, %rax
   21331: 4c 89 45 80                  	movq	%r8, -0x80(%rbp)
   21335: 4c 89 4d 88                  	movq	%r9, -0x78(%rbp)
   21339: 48 8b 85 48 ff ff ff         	movq	-0xb8(%rbp), %rax
   21340: 48 89 45 90                  	movq	%rax, -0x70(%rbp)
   21344: 48 8b 85 58 ff ff ff         	movq	-0xa8(%rbp), %rax
   2134b: 48 89 45 98                  	movq	%rax, -0x68(%rbp)
   2134f: 48 89 4d a0                  	movq	%rcx, -0x60(%rbp)
   21353: 4c 89 5d a8                  	movq	%r11, -0x58(%rbp)
   21357: 48 8b 85 40 ff ff ff         	movq	-0xc0(%rbp), %rax
   2135e: 48 89 85 e0 fc ff ff         	movq	%rax, -0x320(%rbp)
   21365: 48 89 45 b0                  	movq	%rax, -0x50(%rbp)
   21369: 48 8b 85 08 ff ff ff         	movq	-0xf8(%rbp), %rax
   21370: 48 89 c1                     	movq	%rax, %rcx
   21373: 48 89 85 e8 fc ff ff         	movq	%rax, -0x318(%rbp)
   2137a: 48 8b 8d 10 ff ff ff         	movq	-0xf0(%rbp), %rcx
   21381: 48 89 4d b8                  	movq	%rcx, -0x48(%rbp)
   21385: 48 8b 8d 20 ff ff ff         	movq	-0xe0(%rbp), %rcx
   2138c: 48 89 4d c0                  	movq	%rcx, -0x40(%rbp)
   21390: 4c 8b 9d 18 ff ff ff         	movq	-0xe8(%rbp), %r11
   21397: 4c 8b 95 38 ff ff ff         	movq	-0xc8(%rbp), %r10
   2139e: 44 89 e6                     	movl	%r12d, %esi
   213a1: 6a 01                        	pushq	$0x1
   213a3: 5a                           	popq	%rdx
   213a4: e9 b9 08 00 00               	jmp	0x21c62 <.text+0x134e2>
   213a9: 48 8b 85 20 fd ff ff         	movq	-0x2e0(%rbp), %rax
   213b0: 8a 00                        	movb	(%rax), %al
   213b2: 48 ba be da 80 96 f3 6e 28 29	movabsq	$0x29286ef39680dabe, %rdx # imm = 0x29286EF39680DABE
   213bc: 48 8b 8d 28 fd ff ff         	movq	-0x2d8(%rbp), %rcx
   213c3: 3a 01                        	cmpb	(%rcx), %al
   213c5: 40 8a 75 cd                  	movb	-0x33(%rbp), %sil
   213c9: 4c 8b 95 38 ff ff ff         	movq	-0xc8(%rbp), %r10
   213d0: 48 8b 9d 00 ff ff ff         	movq	-0x100(%rbp), %rbx
   213d7: 4c 8b ad f0 fe ff ff         	movq	-0x110(%rbp), %r13
   213de: 4c 8b bd f8 fe ff ff         	movq	-0x108(%rbp), %r15
   213e5: 4c 8b 8d 18 ff ff ff         	movq	-0xe8(%rbp), %r9
   213ec: 4c 8b 85 20 ff ff ff         	movq	-0xe0(%rbp), %r8
   213f3: 48 8b bd 10 ff ff ff         	movq	-0xf0(%rbp), %rdi
   213fa: 48 8b 8d 08 ff ff ff         	movq	-0xf8(%rbp), %rcx
   21401: 48 8b 85 40 ff ff ff         	movq	-0xc0(%rbp), %rax
   21408: 0f 84 ab 13 00 00            	je	0x227b9 <.text+0x14039>
   2140e: 48 ba 31 c4 bf 8b a2 c7 0c 7c	movabsq	$0x7c0cc7a28bbfc431, %rdx # imm = 0x7C0CC7A28BBFC431
   21418: e9 9c 13 00 00               	jmp	0x227b9 <.text+0x14039>
   2141d: 4c 8b 9d 48 ff ff ff         	movq	-0xb8(%rbp), %r11
   21424: 48 ba 48 af 86 ed ea 7b df 01	movabsq	$0x1df7beaed86af48, %rdx # imm = 0x1DF7BEAED86AF48
   2142e: 44 8b b5 94 fe ff ff         	movl	-0x16c(%rbp), %r14d
   21435: 44 3b b5 f0 fd ff ff         	cmpl	-0x210(%rbp), %r14d
   2143c: 75 0a                        	jne	0x21448 <.text+0x12cc8>
   2143e: 48 ba b5 79 69 c4 df c4 15 de	movabsq	$-0x21ea3b203b96864b, %rdx # imm = 0xDE15C4DFC46979B5
   21448: 80 bd ac fe ff ff 00         	cmpb	$0x0, -0x154(%rbp)
   2144f: 48 b8 b5 79 69 c4 df c4 15 de	movabsq	$-0x21ea3b203b96864b, %rax # imm = 0xDE15C4DFC46979B5
   21459: 48 0f 44 d0                  	cmoveq	%rax, %rdx
   2145d: 8a 45 ce                     	movb	-0x32(%rbp), %al
   21460: 88 45 cf                     	movb	%al, -0x31(%rbp)
   21463: 48 8b 85 50 ff ff ff         	movq	-0xb0(%rbp), %rax
   2146a: 48 89 85 70 ff ff ff         	movq	%rax, -0x90(%rbp)
   21471: 48 8b 85 60 ff ff ff         	movq	-0xa0(%rbp), %rax
   21478: 48 89 85 78 ff ff ff         	movq	%rax, -0x88(%rbp)
   2147f: 48 8b 85 e0 fe ff ff         	movq	-0x120(%rbp), %rax
   21486: 48 89 45 80                  	movq	%rax, -0x80(%rbp)
   2148a: 48 8b 85 e8 fe ff ff         	movq	-0x118(%rbp), %rax
   21491: 48 89 45 88                  	movq	%rax, -0x78(%rbp)
   21495: 4c 89 5d 90                  	movq	%r11, -0x70(%rbp)
   21499: 48 8b 85 58 ff ff ff         	movq	-0xa8(%rbp), %rax
   214a0: 48 89 45 98                  	movq	%rax, -0x68(%rbp)
   214a4: 48 8b 85 30 ff ff ff         	movq	-0xd0(%rbp), %rax
   214ab: 48 89 45 a0                  	movq	%rax, -0x60(%rbp)
   214af: 48 8b 85 28 ff ff ff         	movq	-0xd8(%rbp), %rax
   214b6: 48 89 45 a8                  	movq	%rax, -0x58(%rbp)
   214ba: 4c 89 65 b0                  	movq	%r12, -0x50(%rbp)
   214be: 48 89 c8                     	movq	%rcx, %rax
   214c1: 48 89 7d b8                  	movq	%rdi, -0x48(%rbp)
   214c5: 4c 89 45 c0                  	movq	%r8, -0x40(%rbp)
   214c9: 4d 89 cb                     	movq	%r9, %r11
   214cc: 0f 95 85 d2 fe ff ff         	setne	-0x12e(%rbp)
   214d3: 4c 8b a5 c0 fd ff ff         	movq	-0x240(%rbp), %r12
   214da: 4c 89 a5 50 fc ff ff         	movq	%r12, -0x3b0(%rbp)
   214e1: 44 89 b5 f4 fd ff ff         	movl	%r14d, -0x20c(%rbp)
   214e8: e9 40 87 ff ff               	jmp	0x19c2d <.text+0xb4ad>
   214ed: 8b 85 84 fe ff ff            	movl	-0x17c(%rbp), %eax
   214f3: c1 e0 18                     	shll	$0x18, %eax
   214f6: 8b 95 88 fe ff ff            	movl	-0x178(%rbp), %edx
   214fc: c1 e2 10                     	shll	$0x10, %edx
   214ff: 09 c2                        	orl	%eax, %edx
   21501: 8b b5 d8 fd ff ff            	movl	-0x228(%rbp), %esi
   21507: c1 e6 08                     	shll	$0x8, %esi
   2150a: 09 d6                        	orl	%edx, %esi
   2150c: 8b 85 dc fd ff ff            	movl	-0x224(%rbp), %eax
   21512: c1 e0 10                     	shll	$0x10, %eax
   21515: 8b 95 d4 fd ff ff            	movl	-0x22c(%rbp), %edx
   2151b: c1 e2 08                     	shll	$0x8, %edx
   2151e: 09 c2                        	orl	%eax, %edx
   21520: 48 8b 85 98 fe ff ff         	movq	-0x168(%rbp), %rax
   21527: 0f b6 00                     	movzbl	(%rax), %eax
   2152a: c1 e0 18                     	shll	$0x18, %eax
   2152d: 09 c2                        	orl	%eax, %edx
   2152f: 8a 45 ce                     	movb	-0x32(%rbp), %al
   21532: 88 45 cf                     	movb	%al, -0x31(%rbp)
   21535: 89 b5 f0 fd ff ff            	movl	%esi, -0x210(%rbp)
   2153b: 48 8b 85 50 ff ff ff         	movq	-0xb0(%rbp), %rax
   21542: 48 89 85 70 ff ff ff         	movq	%rax, -0x90(%rbp)
   21549: 48 8b 85 60 ff ff ff         	movq	-0xa0(%rbp), %rax
   21550: 48 89 85 78 ff ff ff         	movq	%rax, -0x88(%rbp)
   21557: 4c 89 c0                     	movq	%r8, %rax
   2155a: 4c 89 45 80                  	movq	%r8, -0x80(%rbp)
   2155e: 4c 89 4d 88                  	movq	%r9, -0x78(%rbp)
   21562: 48 8b 85 48 ff ff ff         	movq	-0xb8(%rbp), %rax
   21569: 48 89 45 90                  	movq	%rax, -0x70(%rbp)
   2156d: 48 8b 85 58 ff ff ff         	movq	-0xa8(%rbp), %rax
   21574: 48 89 45 98                  	movq	%rax, -0x68(%rbp)
   21578: 48 89 4d a0                  	movq	%rcx, -0x60(%rbp)
   2157c: 4c 89 5d a8                  	movq	%r11, -0x58(%rbp)
   21580: 48 8b 85 40 ff ff ff         	movq	-0xc0(%rbp), %rax
   21587: 48 89 45 b0                  	movq	%rax, -0x50(%rbp)
   2158b: 48 8b 85 08 ff ff ff         	movq	-0xf8(%rbp), %rax
   21592: 48 8b 8d 10 ff ff ff         	movq	-0xf0(%rbp), %rcx
   21599: 48 89 4d b8                  	movq	%rcx, -0x48(%rbp)
   2159d: 48 8b 8d 20 ff ff ff         	movq	-0xe0(%rbp), %rcx
   215a4: 48 89 4d c0                  	movq	%rcx, -0x40(%rbp)
   215a8: 4c 8b 9d 18 ff ff ff         	movq	-0xe8(%rbp), %r11
   215af: 89 95 94 fe ff ff            	movl	%edx, -0x16c(%rbp)
   215b5: 4c 8b 95 38 ff ff ff         	movq	-0xc8(%rbp), %r10
   215bc: 44 89 e6                     	movl	%r12d, %esi
   215bf: b2 01                        	movb	$0x1, %dl
   215c1: 89 95 ac fe ff ff            	movl	%edx, -0x154(%rbp)
   215c7: 48 8b 95 38 fc ff ff         	movq	-0x3c8(%rbp), %rdx
   215ce: 48 89 95 c0 fd ff ff         	movq	%rdx, -0x240(%rbp)
   215d5: 48 ba 72 70 99 84 23 13 53 1c	movabsq	$0x1c53132384997072, %rdx # imm = 0x1C53132384997072
   215df: e9 49 86 ff ff               	jmp	0x19c2d <.text+0xb4ad>
   215e4: 48 8b 85 88 fc ff ff         	movq	-0x378(%rbp), %rax
   215eb: c6 00 00                     	movb	$0x0, (%rax)
   215ee: 8a 45 ce                     	movb	-0x32(%rbp), %al
   215f1: 88 45 cf                     	movb	%al, -0x31(%rbp)
   215f4: 48 8b 85 50 ff ff ff         	movq	-0xb0(%rbp), %rax
   215fb: 48 89 85 70 ff ff ff         	movq	%rax, -0x90(%rbp)
   21602: 48 8b 85 60 ff ff ff         	movq	-0xa0(%rbp), %rax
   21609: 48 89 85 78 ff ff ff         	movq	%rax, -0x88(%rbp)
   21610: 48 8b 85 e0 fe ff ff         	movq	-0x120(%rbp), %rax
   21617: 48 89 45 80                  	movq	%rax, -0x80(%rbp)
   2161b: 48 8b 85 e8 fe ff ff         	movq	-0x118(%rbp), %rax
   21622: 48 89 45 88                  	movq	%rax, -0x78(%rbp)
   21626: 48 8b 85 48 ff ff ff         	movq	-0xb8(%rbp), %rax
   2162d: 48 89 45 90                  	movq	%rax, -0x70(%rbp)
   21631: 48 8b 85 58 ff ff ff         	movq	-0xa8(%rbp), %rax
   21638: 48 89 45 98                  	movq	%rax, -0x68(%rbp)
   2163c: 48 8b 85 30 ff ff ff         	movq	-0xd0(%rbp), %rax
   21643: 48 89 45 a0                  	movq	%rax, -0x60(%rbp)
   21647: 48 8b 85 28 ff ff ff         	movq	-0xd8(%rbp), %rax
   2164e: 48 89 45 a8                  	movq	%rax, -0x58(%rbp)
   21652: 4c 89 65 b0                  	movq	%r12, -0x50(%rbp)
   21656: 48 89 c8                     	movq	%rcx, %rax
   21659: 48 89 7d b8                  	movq	%rdi, -0x48(%rbp)
   2165d: 4c 89 45 c0                  	movq	%r8, -0x40(%rbp)
   21661: 4d 89 cb                     	movq	%r9, %r11
   21664: 48 8b 95 58 fe ff ff         	movq	-0x1a8(%rbp), %rdx
   2166b: 48 89 95 00 fd ff ff         	movq	%rdx, -0x300(%rbp)
   21672: 48 ba e4 ae 4c ce 55 08 2d d2	movabsq	$-0x2dd2f7aa31b3511c, %rdx # imm = 0xD22D0855CE4CAEE4
   2167c: e9 ac 85 ff ff               	jmp	0x19c2d <.text+0xb4ad>
   21681: 8a 45 ce                     	movb	-0x32(%rbp), %al
   21684: 88 45 cf                     	movb	%al, -0x31(%rbp)
   21687: 48 8b 85 50 ff ff ff         	movq	-0xb0(%rbp), %rax
   2168e: 48 89 85 70 ff ff ff         	movq	%rax, -0x90(%rbp)
   21695: 48 8b 85 60 ff ff ff         	movq	-0xa0(%rbp), %rax
   2169c: 48 89 85 78 ff ff ff         	movq	%rax, -0x88(%rbp)
   216a3: 4c 89 c0                     	movq	%r8, %rax
   216a6: 4c 89 45 80                  	movq	%r8, -0x80(%rbp)
   216aa: 4c 89 4d 88                  	movq	%r9, -0x78(%rbp)
   216ae: 48 8b 85 48 ff ff ff         	movq	-0xb8(%rbp), %rax
   216b5: 48 89 45 90                  	movq	%rax, -0x70(%rbp)
   216b9: 48 8b 85 58 ff ff ff         	movq	-0xa8(%rbp), %rax
   216c0: 48 89 45 98                  	movq	%rax, -0x68(%rbp)
   216c4: 48 8b 85 30 ff ff ff         	movq	-0xd0(%rbp), %rax
   216cb: 48 89 45 a0                  	movq	%rax, -0x60(%rbp)
   216cf: 48 8b 85 28 ff ff ff         	movq	-0xd8(%rbp), %rax
   216d6: 48 89 45 a8                  	movq	%rax, -0x58(%rbp)
   216da: 48 8b 85 40 ff ff ff         	movq	-0xc0(%rbp), %rax
   216e1: 48 89 45 b0                  	movq	%rax, -0x50(%rbp)
   216e5: 48 8b 85 08 ff ff ff         	movq	-0xf8(%rbp), %rax
   216ec: 48 8b 8d 10 ff ff ff         	movq	-0xf0(%rbp), %rcx
   216f3: 48 89 4d b8                  	movq	%rcx, -0x48(%rbp)
   216f7: 48 8b 8d 20 ff ff ff         	movq	-0xe0(%rbp), %rcx
   216fe: 48 89 4d c0                  	movq	%rcx, -0x40(%rbp)
   21702: 4c 8b 9d 18 ff ff ff         	movq	-0xe8(%rbp), %r11
   21709: 4c 8b bd f8 fe ff ff         	movq	-0x108(%rbp), %r15
   21710: 4c 8b ad f0 fe ff ff         	movq	-0x110(%rbp), %r13
   21717: 48 8b 9d 00 ff ff ff         	movq	-0x100(%rbp), %rbx
   2171e: 4c 8b 95 38 ff ff ff         	movq	-0xc8(%rbp), %r10
   21725: 8a 55 cd                     	movb	-0x33(%rbp), %dl
   21728: 89 d6                        	movl	%edx, %esi
   2172a: 48 8b 95 70 fc ff ff         	movq	-0x390(%rbp), %rdx
   21731: 48 ff ca                     	decq	%rdx
   21734: 48 89 95 90 fd ff ff         	movq	%rdx, -0x270(%rbp)
   2173b: 48 8b 95 20 fd ff ff         	movq	-0x2e0(%rbp), %rdx
   21742: 48 ff c2                     	incq	%rdx
   21745: 48 89 95 98 fd ff ff         	movq	%rdx, -0x268(%rbp)
   2174c: 48 8b 95 28 fd ff ff         	movq	-0x2d8(%rbp), %rdx
   21753: 48 ff c2                     	incq	%rdx
   21756: 48 89 95 88 fd ff ff         	movq	%rdx, -0x278(%rbp)
   2175d: 48 ba 2b dc fc d1 73 c6 b4 ad	movabsq	$-0x524b398c2e0323d5, %rdx # imm = 0xADB4C673D1FCDC2B
   21767: e9 c1 84 ff ff               	jmp	0x19c2d <.text+0xb4ad>
   2176c: 48 8d 05 a0 a3 11 00         	leaq	0x11a3a0(%rip), %rax    # 0x13bb13
   21773: 48 8b 9d 00 ff ff ff         	movq	-0x100(%rbp), %rbx
   2177a: 48 39 c3                     	cmpq	%rax, %rbx
   2177d: 48 ba 3a 64 6a c7 0f f8 e9 63	movabsq	$0x63e9f80fc76a643a, %rdx # imm = 0x63E9F80FC76A643A
   21787: 48 b8 4a a5 a6 a9 75 47 f9 93	movabsq	$-0x6c06b88a56595ab6, %rax # imm = 0x93F94775A9A6A54A
   21791: 48 0f 44 d0                  	cmoveq	%rax, %rdx
   21795: 8a 45 ce                     	movb	-0x32(%rbp), %al
   21798: 88 45 cf                     	movb	%al, -0x31(%rbp)
   2179b: 48 8b 85 50 ff ff ff         	movq	-0xb0(%rbp), %rax
   217a2: 48 89 85 70 ff ff ff         	movq	%rax, -0x90(%rbp)
   217a9: 48 8b 85 60 ff ff ff         	movq	-0xa0(%rbp), %rax
   217b0: 48 89 85 78 ff ff ff         	movq	%rax, -0x88(%rbp)
   217b7: 48 89 c8                     	movq	%rcx, %rax
   217ba: 48 89 4d 80                  	movq	%rcx, -0x80(%rbp)
   217be: 4c 89 4d 88                  	movq	%r9, -0x78(%rbp)
   217c2: 48 8b 85 48 ff ff ff         	movq	-0xb8(%rbp), %rax
   217c9: 48 89 45 90                  	movq	%rax, -0x70(%rbp)
   217cd: 48 8b 85 58 ff ff ff         	movq	-0xa8(%rbp), %rax
   217d4: 48 89 45 98                  	movq	%rax, -0x68(%rbp)
   217d8: 48 8b 85 30 ff ff ff         	movq	-0xd0(%rbp), %rax
   217df: 48 89 45 a0                  	movq	%rax, -0x60(%rbp)
   217e3: 48 8b 85 28 ff ff ff         	movq	-0xd8(%rbp), %rax
   217ea: 48 89 45 a8                  	movq	%rax, -0x58(%rbp)
   217ee: 48 8b 85 40 ff ff ff         	movq	-0xc0(%rbp), %rax
   217f5: 48 89 45 b0                  	movq	%rax, -0x50(%rbp)
   217f9: 48 8b 85 08 ff ff ff         	movq	-0xf8(%rbp), %rax
   21800: 48 8b 8d 10 ff ff ff         	movq	-0xf0(%rbp), %rcx
   21807: 48 89 4d b8                  	movq	%rcx, -0x48(%rbp)
   2180b: 48 8b 8d 20 ff ff ff         	movq	-0xe0(%rbp), %rcx
   21812: 48 89 4d c0                  	movq	%rcx, -0x40(%rbp)
   21816: 4c 8b 9d 18 ff ff ff         	movq	-0xe8(%rbp), %r11
   2181d: 4c 8b bd f8 fe ff ff         	movq	-0x108(%rbp), %r15
   21824: 4c 8b ad f0 fe ff ff         	movq	-0x110(%rbp), %r13
   2182b: e9 78 ea ff ff               	jmp	0x202a8 <.text+0x11b28>
   21830: 8a 45 ce                     	movb	-0x32(%rbp), %al
   21833: 88 45 cf                     	movb	%al, -0x31(%rbp)
   21836: 48 8b 85 50 ff ff ff         	movq	-0xb0(%rbp), %rax
   2183d: 48 89 85 70 ff ff ff         	movq	%rax, -0x90(%rbp)
   21844: 48 8b 85 60 ff ff ff         	movq	-0xa0(%rbp), %rax
   2184b: 48 89 85 78 ff ff ff         	movq	%rax, -0x88(%rbp)
   21852: 4c 89 75 80                  	movq	%r14, -0x80(%rbp)
   21856: 4c 89 4d 88                  	movq	%r9, -0x78(%rbp)
   2185a: 48 8b 85 48 ff ff ff         	movq	-0xb8(%rbp), %rax
   21861: 48 89 45 90                  	movq	%rax, -0x70(%rbp)
   21865: 48 8b 85 58 ff ff ff         	movq	-0xa8(%rbp), %rax
   2186c: 48 89 45 98                  	movq	%rax, -0x68(%rbp)
   21870: 48 8b 85 30 ff ff ff         	movq	-0xd0(%rbp), %rax
   21877: 48 89 45 a0                  	movq	%rax, -0x60(%rbp)
   2187b: 48 8b 85 28 ff ff ff         	movq	-0xd8(%rbp), %rax
   21882: 48 89 45 a8                  	movq	%rax, -0x58(%rbp)
   21886: 48 8b 85 40 ff ff ff         	movq	-0xc0(%rbp), %rax
   2188d: 48 89 45 b0                  	movq	%rax, -0x50(%rbp)
   21891: 48 8b 85 08 ff ff ff         	movq	-0xf8(%rbp), %rax
   21898: 48 8b 8d 10 ff ff ff         	movq	-0xf0(%rbp), %rcx
   2189f: 48 89 4d b8                  	movq	%rcx, -0x48(%rbp)
   218a3: 48 8b 8d 20 ff ff ff         	movq	-0xe0(%rbp), %rcx
   218aa: 48 89 4d c0                  	movq	%rcx, -0x40(%rbp)
   218ae: 4c 8b 9d 18 ff ff ff         	movq	-0xe8(%rbp), %r11
   218b5: 4c 8b bd f8 fe ff ff         	movq	-0x108(%rbp), %r15
   218bc: 4c 8b ad f0 fe ff ff         	movq	-0x110(%rbp), %r13
   218c3: 48 8b 9d 00 ff ff ff         	movq	-0x100(%rbp), %rbx
   218ca: 4c 8b 95 38 ff ff ff         	movq	-0xc8(%rbp), %r10
   218d1: 8a 55 cd                     	movb	-0x33(%rbp), %dl
   218d4: 89 d6                        	movl	%edx, %esi
   218d6: 48 8b 95 38 fe ff ff         	movq	-0x1c8(%rbp), %rdx
   218dd: 48 ff c2                     	incq	%rdx
   218e0: 48 89 95 08 fd ff ff         	movq	%rdx, -0x2f8(%rbp)
   218e7: 48 ba 73 ca 09 20 fe d1 de 7b	movabsq	$0x7bded1fe2009ca73, %rdx # imm = 0x7BDED1FE2009CA73
   218f1: e9 37 83 ff ff               	jmp	0x19c2d <.text+0xb4ad>
   218f6: 48 8b 85 b0 fe ff ff         	movq	-0x150(%rbp), %rax
   218fd: 48 8b 8d 58 fe ff ff         	movq	-0x1a8(%rbp), %rcx
   21904: 80 3c 08 2f                  	cmpb	$0x2f, (%rax,%rcx)
   21908: 48 ba 1d 1b 8c 0c b6 14 d2 d8	movabsq	$-0x272deb49f373e4e3, %rdx # imm = 0xD8D214B60C8C1B1D
   21912: 40 8a 75 cd                  	movb	-0x33(%rbp), %sil
   21916: 4c 8b 95 38 ff ff ff         	movq	-0xc8(%rbp), %r10
   2191d: 48 8b 9d 00 ff ff ff         	movq	-0x100(%rbp), %rbx
   21924: 4c 8b ad f0 fe ff ff         	movq	-0x110(%rbp), %r13
   2192b: 4c 8b bd f8 fe ff ff         	movq	-0x108(%rbp), %r15
   21932: 4c 8b 8d 18 ff ff ff         	movq	-0xe8(%rbp), %r9
   21939: 4c 8b 85 20 ff ff ff         	movq	-0xe0(%rbp), %r8
   21940: 48 8b bd 10 ff ff ff         	movq	-0xf0(%rbp), %rdi
   21947: 48 8b 8d 08 ff ff ff         	movq	-0xf8(%rbp), %rcx
   2194e: 48 8b 85 40 ff ff ff         	movq	-0xc0(%rbp), %rax
   21955: 74 0a                        	je	0x21961 <.text+0x131e1>
   21957: 48 ba 34 4e 4f bf 57 c8 75 47	movabsq	$0x4775c857bf4f4e34, %rdx # imm = 0x4775C857BF4F4E34
   21961: 44 8a 5d ce                  	movb	-0x32(%rbp), %r11b
   21965: 44 88 5d cf                  	movb	%r11b, -0x31(%rbp)
   21969: 4c 8b 9d 50 ff ff ff         	movq	-0xb0(%rbp), %r11
   21970: 4c 89 9d 70 ff ff ff         	movq	%r11, -0x90(%rbp)
   21977: 4c 8b 9d 60 ff ff ff         	movq	-0xa0(%rbp), %r11
   2197e: 4c 89 9d 78 ff ff ff         	movq	%r11, -0x88(%rbp)
   21985: 4c 8b 9d e0 fe ff ff         	movq	-0x120(%rbp), %r11
   2198c: 4c 89 5d 80                  	movq	%r11, -0x80(%rbp)
   21990: 4c 8b 9d e8 fe ff ff         	movq	-0x118(%rbp), %r11
   21997: 4c 89 5d 88                  	movq	%r11, -0x78(%rbp)
   2199b: 4c 8b 9d 48 ff ff ff         	movq	-0xb8(%rbp), %r11
   219a2: 4c 89 5d 90                  	movq	%r11, -0x70(%rbp)
   219a6: 4c 8b 9d 58 ff ff ff         	movq	-0xa8(%rbp), %r11
   219ad: 4c 89 5d 98                  	movq	%r11, -0x68(%rbp)
   219b1: 4c 8b 9d 30 ff ff ff         	movq	-0xd0(%rbp), %r11
   219b8: 4c 89 5d a0                  	movq	%r11, -0x60(%rbp)
   219bc: 4c 8b 9d 28 ff ff ff         	movq	-0xd8(%rbp), %r11
   219c3: 4c 89 5d a8                  	movq	%r11, -0x58(%rbp)
   219c7: 48 89 45 b0                  	movq	%rax, -0x50(%rbp)
   219cb: 48 89 c8                     	movq	%rcx, %rax
   219ce: 48 89 7d b8                  	movq	%rdi, -0x48(%rbp)
   219d2: 4c 89 45 c0                  	movq	%r8, -0x40(%rbp)
   219d6: 4d 89 cb                     	movq	%r9, %r11
   219d9: 4c 8b b5 b0 fe ff ff         	movq	-0x150(%rbp), %r14
   219e0: 4c 8b a5 58 fe ff ff         	movq	-0x1a8(%rbp), %r12
   219e7: 4d 01 e6                     	addq	%r12, %r14
   219ea: 4c 89 b5 88 fc ff ff         	movq	%r14, -0x378(%rbp)
   219f1: e9 37 82 ff ff               	jmp	0x19c2d <.text+0xb4ad>
   219f6: 48 8b 85 b8 fe ff ff         	movq	-0x148(%rbp), %rax
   219fd: 80 78 04 00                  	cmpb	$0x0, 0x4(%rax)
   21a01: 48 ba 0b 0e 5b 1f b7 b7 58 c1	movabsq	$-0x3ea74848e0a4f1f5, %rdx # imm = 0xC158B7B71F5B0E0B
   21a0b: 74 0a                        	je	0x21a17 <.text+0x13297>
   21a0d: 48 ba 46 eb 53 bf 65 8c f7 77	movabsq	$0x77f78c65bf53eb46, %rdx # imm = 0x77F78C65BF53EB46
   21a17: 8a 45 ce                     	movb	-0x32(%rbp), %al
   21a1a: 88 45 cf                     	movb	%al, -0x31(%rbp)
   21a1d: 48 8b 85 50 ff ff ff         	movq	-0xb0(%rbp), %rax
   21a24: 48 89 85 70 ff ff ff         	movq	%rax, -0x90(%rbp)
   21a2b: 48 8b 85 60 ff ff ff         	movq	-0xa0(%rbp), %rax
   21a32: 48 89 85 78 ff ff ff         	movq	%rax, -0x88(%rbp)
   21a39: 48 8b 85 e0 fe ff ff         	movq	-0x120(%rbp), %rax
   21a40: 48 89 45 80                  	movq	%rax, -0x80(%rbp)
   21a44: 48 8b 85 e8 fe ff ff         	movq	-0x118(%rbp), %rax
   21a4b: 48 89 45 88                  	movq	%rax, -0x78(%rbp)
   21a4f: 48 8b 85 48 ff ff ff         	movq	-0xb8(%rbp), %rax
   21a56: 48 89 45 90                  	movq	%rax, -0x70(%rbp)
   21a5a: 48 8b 85 58 ff ff ff         	movq	-0xa8(%rbp), %rax
   21a61: 48 89 45 98                  	movq	%rax, -0x68(%rbp)
   21a65: 48 8b 85 30 ff ff ff         	movq	-0xd0(%rbp), %rax
   21a6c: 48 89 45 a0                  	movq	%rax, -0x60(%rbp)
   21a70: 48 8b 85 28 ff ff ff         	movq	-0xd8(%rbp), %rax
   21a77: 48 89 45 a8                  	movq	%rax, -0x58(%rbp)
   21a7b: 48 8b 85 40 ff ff ff         	movq	-0xc0(%rbp), %rax
   21a82: 48 89 45 b0                  	movq	%rax, -0x50(%rbp)
   21a86: 4c 89 e0                     	movq	%r12, %rax
   21a89: e9 98 0d 00 00               	jmp	0x22826 <.text+0x140a6>
   21a8e: f6 85 cd fe ff ff 01         	testb	$0x1, -0x133(%rbp)
   21a95: b8 00 00 00 00               	movl	$0x0, %eax
   21a9a: 48 0f 45 85 a0 fe ff ff      	cmovneq	-0x160(%rbp), %rax
   21aa2: 48 89 85 98 fe ff ff         	movq	%rax, -0x168(%rbp)
   21aa9: 48 ba 0f a3 47 35 f3 9d 9c b2	movabsq	$-0x4d63620ccab85cf1, %rdx # imm = 0xB29C9DF33547A30F
   21ab3: 48 b8 5b 19 4d cb de b1 f9 0d	movabsq	$0xdf9b1decb4d195b, %rax # imm = 0xDF9B1DECB4D195B
   21abd: 48 0f 45 d0                  	cmovneq	%rax, %rdx
   21ac1: 8a 45 ce                     	movb	-0x32(%rbp), %al
   21ac4: 88 45 cf                     	movb	%al, -0x31(%rbp)
   21ac7: 48 8b 85 50 ff ff ff         	movq	-0xb0(%rbp), %rax
   21ace: 48 89 85 70 ff ff ff         	movq	%rax, -0x90(%rbp)
   21ad5: 48 8b 85 60 ff ff ff         	movq	-0xa0(%rbp), %rax
   21adc: 48 89 85 78 ff ff ff         	movq	%rax, -0x88(%rbp)
   21ae3: 4c 89 c0                     	movq	%r8, %rax
   21ae6: 4c 89 45 80                  	movq	%r8, -0x80(%rbp)
   21aea: e9 98 0d 00 00               	jmp	0x22887 <.text+0x14107>
   21aef: 8b 85 e0 fd ff ff            	movl	-0x220(%rbp), %eax
   21af5: c1 e0 08                     	shll	$0x8, %eax
   21af8: 0f b7 c0                     	movzwl	%ax, %eax
   21afb: 89 85 8c fe ff ff            	movl	%eax, -0x174(%rbp)
   21b01: 8a 45 ce                     	movb	-0x32(%rbp), %al
   21b04: 88 45 cf                     	movb	%al, -0x31(%rbp)
   21b07: 48 8b 85 50 ff ff ff         	movq	-0xb0(%rbp), %rax
   21b0e: 48 89 85 70 ff ff ff         	movq	%rax, -0x90(%rbp)
   21b15: 48 8b 85 60 ff ff ff         	movq	-0xa0(%rbp), %rax
   21b1c: 48 89 85 78 ff ff ff         	movq	%rax, -0x88(%rbp)
   21b23: 4c 89 f0                     	movq	%r14, %rax
   21b26: 4c 89 75 80                  	movq	%r14, -0x80(%rbp)
   21b2a: 4c 89 4d 88                  	movq	%r9, -0x78(%rbp)
   21b2e: 48 8b 85 48 ff ff ff         	movq	-0xb8(%rbp), %rax
   21b35: 48 89 45 90                  	movq	%rax, -0x70(%rbp)
   21b39: 48 8b 85 58 ff ff ff         	movq	-0xa8(%rbp), %rax
   21b40: 48 89 45 98                  	movq	%rax, -0x68(%rbp)
   21b44: 48 8b 85 30 ff ff ff         	movq	-0xd0(%rbp), %rax
   21b4b: 48 89 45 a0                  	movq	%rax, -0x60(%rbp)
   21b4f: 48 8b 85 28 ff ff ff         	movq	-0xd8(%rbp), %rax
   21b56: 48 89 45 a8                  	movq	%rax, -0x58(%rbp)
   21b5a: 48 8b 85 40 ff ff ff         	movq	-0xc0(%rbp), %rax
   21b61: 48 89 45 b0                  	movq	%rax, -0x50(%rbp)
   21b65: 48 8b 85 08 ff ff ff         	movq	-0xf8(%rbp), %rax
   21b6c: 48 8b 8d 10 ff ff ff         	movq	-0xf0(%rbp), %rcx
   21b73: 48 89 4d b8                  	movq	%rcx, -0x48(%rbp)
   21b77: 48 8b 8d 20 ff ff ff         	movq	-0xe0(%rbp), %rcx
   21b7e: 48 89 4d c0                  	movq	%rcx, -0x40(%rbp)
   21b82: 4c 8b 9d 18 ff ff ff         	movq	-0xe8(%rbp), %r11
   21b89: 4c 8b bd f8 fe ff ff         	movq	-0x108(%rbp), %r15
   21b90: 4c 8b ad f0 fe ff ff         	movq	-0x110(%rbp), %r13
   21b97: 48 8b 9d 00 ff ff ff         	movq	-0x100(%rbp), %rbx
   21b9e: 4c 8b 95 38 ff ff ff         	movq	-0xc8(%rbp), %r10
   21ba5: 48 8b 95 58 fc ff ff         	movq	-0x3a8(%rbp), %rdx
   21bac: 40 8a 72 02                  	movb	0x2(%rdx), %sil
   21bb0: 40 88 b5 db fe ff ff         	movb	%sil, -0x125(%rbp)
   21bb7: 40 8a 75 cd                  	movb	-0x33(%rbp), %sil
   21bbb: 48 ff c2                     	incq	%rdx
   21bbe: 48 89 95 b0 fd ff ff         	movq	%rdx, -0x250(%rbp)
   21bc5: 48 ba c0 25 03 0f ff 6e af 76	movabsq	$0x76af6eff0f0325c0, %rdx # imm = 0x76AF6EFF0F0325C0
   21bcf: e9 59 80 ff ff               	jmp	0x19c2d <.text+0xb4ad>
   21bd4: 8a 45 ce                     	movb	-0x32(%rbp), %al
   21bd7: 88 45 cf                     	movb	%al, -0x31(%rbp)
   21bda: 48 8b 85 50 ff ff ff         	movq	-0xb0(%rbp), %rax
   21be1: 48 89 85 70 ff ff ff         	movq	%rax, -0x90(%rbp)
   21be8: 48 8b 85 60 ff ff ff         	movq	-0xa0(%rbp), %rax
   21bef: 48 89 85 78 ff ff ff         	movq	%rax, -0x88(%rbp)
   21bf6: 4c 89 f0                     	movq	%r14, %rax
   21bf9: 4c 89 75 80                  	movq	%r14, -0x80(%rbp)
   21bfd: 4c 89 4d 88                  	movq	%r9, -0x78(%rbp)
   21c01: 48 8b 85 48 ff ff ff         	movq	-0xb8(%rbp), %rax
   21c08: 48 89 45 90                  	movq	%rax, -0x70(%rbp)
   21c0c: 48 8b 85 58 ff ff ff         	movq	-0xa8(%rbp), %rax
   21c13: 48 89 45 98                  	movq	%rax, -0x68(%rbp)
   21c17: 48 89 4d a0                  	movq	%rcx, -0x60(%rbp)
   21c1b: 4c 89 5d a8                  	movq	%r11, -0x58(%rbp)
   21c1f: 48 8b 85 40 ff ff ff         	movq	-0xc0(%rbp), %rax
   21c26: 48 89 45 b0                  	movq	%rax, -0x50(%rbp)
   21c2a: 48 8b 85 08 ff ff ff         	movq	-0xf8(%rbp), %rax
   21c31: 48 8b 8d 10 ff ff ff         	movq	-0xf0(%rbp), %rcx
   21c38: 48 89 4d b8                  	movq	%rcx, -0x48(%rbp)
   21c3c: 48 8b 8d 20 ff ff ff         	movq	-0xe0(%rbp), %rcx
   21c43: 48 89 4d c0                  	movq	%rcx, -0x40(%rbp)
   21c47: 4c 8b 9d 18 ff ff ff         	movq	-0xe8(%rbp), %r11
   21c4e: 4c 8b 95 38 ff ff ff         	movq	-0xc8(%rbp), %r10
   21c55: 44 89 e6                     	movl	%r12d, %esi
   21c58: 48 8b 95 48 fe ff ff         	movq	-0x1b8(%rbp), %rdx
   21c5f: 48 ff c2                     	incq	%rdx
   21c62: 48 89 95 78 fd ff ff         	movq	%rdx, -0x288(%rbp)
   21c69: 48 ba fa 4e 00 7d e8 88 ed 7f	movabsq	$0x7fed88e87d004efa, %rdx # imm = 0x7FED88E87D004EFA
   21c73: e9 b5 7f ff ff               	jmp	0x19c2d <.text+0xb4ad>
   21c78: 48 8b 95 c0 fe ff ff         	movq	-0x140(%rbp), %rdx
   21c7f: 48 89 d0                     	movq	%rdx, %rax
   21c82: 48 83 c8 3f                  	orq	$0x3f, %rax
   21c86: 48 89 85 90 fc ff ff         	movq	%rax, -0x370(%rbp)
   21c8d: 8a 45 ce                     	movb	-0x32(%rbp), %al
   21c90: 88 45 cf                     	movb	%al, -0x31(%rbp)
   21c93: 48 8b 85 50 ff ff ff         	movq	-0xb0(%rbp), %rax
   21c9a: 48 89 85 70 ff ff ff         	movq	%rax, -0x90(%rbp)
   21ca1: 48 8b 85 60 ff ff ff         	movq	-0xa0(%rbp), %rax
   21ca8: 48 89 85 78 ff ff ff         	movq	%rax, -0x88(%rbp)
   21caf: 4c 89 f0                     	movq	%r14, %rax
   21cb2: 4c 89 75 80                  	movq	%r14, -0x80(%rbp)
   21cb6: 4c 89 4d 88                  	movq	%r9, -0x78(%rbp)
   21cba: 48 8b 85 48 ff ff ff         	movq	-0xb8(%rbp), %rax
   21cc1: 48 89 45 90                  	movq	%rax, -0x70(%rbp)
   21cc5: 48 8b 85 58 ff ff ff         	movq	-0xa8(%rbp), %rax
   21ccc: 48 89 45 98                  	movq	%rax, -0x68(%rbp)
   21cd0: 48 8b 85 30 ff ff ff         	movq	-0xd0(%rbp), %rax
   21cd7: 48 89 45 a0                  	movq	%rax, -0x60(%rbp)
   21cdb: 48 8b 85 28 ff ff ff         	movq	-0xd8(%rbp), %rax
   21ce2: 48 89 45 a8                  	movq	%rax, -0x58(%rbp)
   21ce6: 48 8b 85 40 ff ff ff         	movq	-0xc0(%rbp), %rax
   21ced: 48 89 45 b0                  	movq	%rax, -0x50(%rbp)
   21cf1: 48 8b 85 08 ff ff ff         	movq	-0xf8(%rbp), %rax
   21cf8: 48 8b 8d 10 ff ff ff         	movq	-0xf0(%rbp), %rcx
   21cff: 48 89 4d b8                  	movq	%rcx, -0x48(%rbp)
   21d03: 48 8b 8d 20 ff ff ff         	movq	-0xe0(%rbp), %rcx
   21d0a: 48 89 4d c0                  	movq	%rcx, -0x40(%rbp)
   21d0e: 4c 8b 9d 18 ff ff ff         	movq	-0xe8(%rbp), %r11
   21d15: 4c 8b bd f8 fe ff ff         	movq	-0x108(%rbp), %r15
   21d1c: 4c 8b ad f0 fe ff ff         	movq	-0x110(%rbp), %r13
   21d23: 48 8b 9d 00 ff ff ff         	movq	-0x100(%rbp), %rbx
   21d2a: 4c 8b 95 38 ff ff ff         	movq	-0xc8(%rbp), %r10
   21d31: 40 8a 75 cd                  	movb	-0x33(%rbp), %sil
   21d35: 48 8d 52 ff                  	leaq	-0x1(%rdx), %rdx
   21d39: 48 89 95 78 fc ff ff         	movq	%rdx, -0x388(%rbp)
   21d40: 48 8b 95 98 fe ff ff         	movq	-0x168(%rbp), %rdx
   21d47: 48 89 95 40 fd ff ff         	movq	%rdx, -0x2c0(%rbp)
   21d4e: 41 be 00 00 00 00            	movl	$0x0, %r14d
   21d54: 4c 89 b5 50 fd ff ff         	movq	%r14, -0x2b0(%rbp)
   21d5b: 48 89 95 60 fd ff ff         	movq	%rdx, -0x2a0(%rbp)
   21d62: 48 8b 95 10 fd ff ff         	movq	-0x2f0(%rbp), %rdx
   21d69: 48 89 95 f8 fb ff ff         	movq	%rdx, -0x408(%rbp)
   21d70: 48 8b 95 18 fd ff ff         	movq	-0x2e8(%rbp), %rdx
   21d77: 48 89 95 00 fc ff ff         	movq	%rdx, -0x400(%rbp)
   21d7e: 48 ba 7a e0 4d ab 1c 58 ae 9a	movabsq	$-0x6551a7e354b21f86, %rdx # imm = 0x9AAE581CAB4DE07A
   21d88: e9 a0 7e ff ff               	jmp	0x19c2d <.text+0xb4ad>
   21d8d: 31 c0                        	xorl	%eax, %eax
   21d8f: b1 01                        	movb	$0x1, %cl
   21d91: f0                           	lock
   21d92: 0f b0 0d 9b cf 11 00         	cmpxchgb	%cl, 0x11cf9b(%rip)     # 0x13ed34
   21d99: 48 ba dc 00 41 ae 4e ca 0a 12	movabsq	$0x120aca4eae4100dc, %rdx # imm = 0x120ACA4EAE4100DC
   21da3: 0f 84 b5 0a 00 00            	je	0x2285e <.text+0x140de>
   21da9: 48 ba 71 bf 2f a8 22 77 aa fa	movabsq	$-0x55588dd57d0408f, %rdx # imm = 0xFAAA7722A82FBF71
   21db3: e9 a6 0a 00 00               	jmp	0x2285e <.text+0x140de>
   21db8: 48 8b 85 b0 fe ff ff         	movq	-0x150(%rbp), %rax
   21dbf: 80 38 00                     	cmpb	$0x0, (%rax)
   21dc2: 48 ba 63 f8 f3 51 53 80 39 df	movabsq	$-0x20c67facae0c079d, %rdx # imm = 0xDF39805351F3F863
   21dcc: 0f 84 8c 0a 00 00            	je	0x2285e <.text+0x140de>
   21dd2: 48 ba 9e cc 65 19 d2 0e 08 71	movabsq	$0x71080ed21965cc9e, %rdx # imm = 0x71080ED21965CC9E
   21ddc: e9 7d 0a 00 00               	jmp	0x2285e <.text+0x140de>
   21de1: 80 3d 4b cf 11 00 00         	cmpb	$0x0, 0x11cf4b(%rip)    # 0x13ed33
   21de8: 48 ba 99 4f cd 98 01 92 ec 71	movabsq	$0x71ec920198cd4f99, %rdx # imm = 0x71EC920198CD4F99
   21df2: 75 0a                        	jne	0x21dfe <.text+0x1367e>
   21df4: 48 ba 52 a3 f6 b1 c9 8d 3b 25	movabsq	$0x253b8dc9b1f6a352, %rdx # imm = 0x253B8DC9B1F6A352
   21dfe: 8a 45 ce                     	movb	-0x32(%rbp), %al
   21e01: 88 45 cf                     	movb	%al, -0x31(%rbp)
   21e04: 48 8b 85 50 ff ff ff         	movq	-0xb0(%rbp), %rax
   21e0b: 48 89 85 70 ff ff ff         	movq	%rax, -0x90(%rbp)
   21e12: 48 8b 85 60 ff ff ff         	movq	-0xa0(%rbp), %rax
   21e19: 48 89 85 78 ff ff ff         	movq	%rax, -0x88(%rbp)
   21e20: 4c 89 f0                     	movq	%r14, %rax
   21e23: 4c 89 75 80                  	movq	%r14, -0x80(%rbp)
   21e27: e9 5b 0a 00 00               	jmp	0x22887 <.text+0x14107>
   21e2c: 8a 45 ce                     	movb	-0x32(%rbp), %al
   21e2f: 88 45 cf                     	movb	%al, -0x31(%rbp)
   21e32: 48 8b 85 50 ff ff ff         	movq	-0xb0(%rbp), %rax
   21e39: 48 89 85 70 ff ff ff         	movq	%rax, -0x90(%rbp)
   21e40: 48 8b 85 60 ff ff ff         	movq	-0xa0(%rbp), %rax
   21e47: 48 89 85 78 ff ff ff         	movq	%rax, -0x88(%rbp)
   21e4e: 48 89 f8                     	movq	%rdi, %rax
   21e51: 48 89 7d 80                  	movq	%rdi, -0x80(%rbp)
   21e55: 4c 89 4d 88                  	movq	%r9, -0x78(%rbp)
   21e59: 48 8b 85 48 ff ff ff         	movq	-0xb8(%rbp), %rax
   21e60: 48 89 45 90                  	movq	%rax, -0x70(%rbp)
   21e64: 48 8b 85 58 ff ff ff         	movq	-0xa8(%rbp), %rax
   21e6b: 48 89 45 98                  	movq	%rax, -0x68(%rbp)
   21e6f: 48 89 4d a0                  	movq	%rcx, -0x60(%rbp)
   21e73: 4c 89 5d a8                  	movq	%r11, -0x58(%rbp)
   21e77: 48 8b 85 40 ff ff ff         	movq	-0xc0(%rbp), %rax
   21e7e: 48 89 45 b0                  	movq	%rax, -0x50(%rbp)
   21e82: 48 8b 85 08 ff ff ff         	movq	-0xf8(%rbp), %rax
   21e89: 48 8b 8d 10 ff ff ff         	movq	-0xf0(%rbp), %rcx
   21e90: 48 89 4d b8                  	movq	%rcx, -0x48(%rbp)
   21e94: 48 8b 8d 20 ff ff ff         	movq	-0xe0(%rbp), %rcx
   21e9b: 48 89 4d c0                  	movq	%rcx, -0x40(%rbp)
   21e9f: 4c 8b 9d 18 ff ff ff         	movq	-0xe8(%rbp), %r11
   21ea6: 49 8d 55 01                  	leaq	0x1(%r13), %rdx
   21eaa: 48 89 95 b0 fc ff ff         	movq	%rdx, -0x350(%rbp)
   21eb1: 48 8d 53 01                  	leaq	0x1(%rbx), %rdx
   21eb5: 48 89 95 b8 fc ff ff         	movq	%rdx, -0x348(%rbp)
   21ebc: 4c 8b 95 38 ff ff ff         	movq	-0xc8(%rbp), %r10
   21ec3: 44 89 e6                     	movl	%r12d, %esi
   21ec6: 48 ba ca 56 76 0e 45 b6 5b 3e	movabsq	$0x3e5bb6450e7656ca, %rdx # imm = 0x3E5BB6450E7656CA
   21ed0: e9 58 7d ff ff               	jmp	0x19c2d <.text+0xb4ad>
   21ed5: 48 8b b5 50 ff ff ff         	movq	-0xb0(%rbp), %rsi
   21edc: 48 85 f6                     	testq	%rsi, %rsi
   21edf: 48 ba df 22 97 63 cc 93 48 6a	movabsq	$0x6a4893cc639722df, %rdx # imm = 0x6A4893CC639722DF
   21ee9: 48 b8 35 65 fd 23 0a ab 55 2c	movabsq	$0x2c55ab0a23fd6535, %rax # imm = 0x2C55AB0A23FD6535
   21ef3: 48 0f 44 d0                  	cmoveq	%rax, %rdx
   21ef7: 8a 45 ce                     	movb	-0x32(%rbp), %al
   21efa: 88 45 cf                     	movb	%al, -0x31(%rbp)
   21efd: 48 8b 85 60 ff ff ff         	movq	-0xa0(%rbp), %rax
   21f04: 48 89 85 78 ff ff ff         	movq	%rax, -0x88(%rbp)
   21f0b: 4c 89 f0                     	movq	%r14, %rax
   21f0e: 4c 89 75 80                  	movq	%r14, -0x80(%rbp)
   21f12: 4c 89 4d 88                  	movq	%r9, -0x78(%rbp)
   21f16: 48 8b 85 48 ff ff ff         	movq	-0xb8(%rbp), %rax
   21f1d: 48 89 45 90                  	movq	%rax, -0x70(%rbp)
   21f21: 48 8b 85 58 ff ff ff         	movq	-0xa8(%rbp), %rax
   21f28: 48 89 45 98                  	movq	%rax, -0x68(%rbp)
   21f2c: 48 89 4d a0                  	movq	%rcx, -0x60(%rbp)
   21f30: 4c 89 5d a8                  	movq	%r11, -0x58(%rbp)
   21f34: 48 8b 85 40 ff ff ff         	movq	-0xc0(%rbp), %rax
   21f3b: 48 89 45 b0                  	movq	%rax, -0x50(%rbp)
   21f3f: 48 8b 85 08 ff ff ff         	movq	-0xf8(%rbp), %rax
   21f46: 48 8b 8d 10 ff ff ff         	movq	-0xf0(%rbp), %rcx
   21f4d: 48 89 4d b8                  	movq	%rcx, -0x48(%rbp)
   21f51: 48 8b 8d 20 ff ff ff         	movq	-0xe0(%rbp), %rcx
   21f58: 48 89 4d c0                  	movq	%rcx, -0x40(%rbp)
   21f5c: 4c 8b 9d 18 ff ff ff         	movq	-0xe8(%rbp), %r11
   21f63: 48 89 b5 70 ff ff ff         	movq	%rsi, -0x90(%rbp)
   21f6a: 48 89 b5 28 fe ff ff         	movq	%rsi, -0x1d8(%rbp)
   21f71: e9 70 09 00 00               	jmp	0x228e6 <.text+0x14166>
   21f76: 8a 45 ce                     	movb	-0x32(%rbp), %al
   21f79: 88 45 cf                     	movb	%al, -0x31(%rbp)
   21f7c: 48 8b 85 50 ff ff ff         	movq	-0xb0(%rbp), %rax
   21f83: 48 89 85 70 ff ff ff         	movq	%rax, -0x90(%rbp)
   21f8a: 48 8b 85 60 ff ff ff         	movq	-0xa0(%rbp), %rax
   21f91: 48 89 85 78 ff ff ff         	movq	%rax, -0x88(%rbp)
   21f98: 48 8b 85 e0 fe ff ff         	movq	-0x120(%rbp), %rax
   21f9f: 48 89 45 80                  	movq	%rax, -0x80(%rbp)
   21fa3: 48 8b 85 e8 fe ff ff         	movq	-0x118(%rbp), %rax
   21faa: 48 89 45 88                  	movq	%rax, -0x78(%rbp)
   21fae: 48 8b 85 48 ff ff ff         	movq	-0xb8(%rbp), %rax
   21fb5: 48 89 45 90                  	movq	%rax, -0x70(%rbp)
   21fb9: 48 8b 85 58 ff ff ff         	movq	-0xa8(%rbp), %rax
   21fc0: 48 89 45 98                  	movq	%rax, -0x68(%rbp)
   21fc4: 48 8b 85 30 ff ff ff         	movq	-0xd0(%rbp), %rax
   21fcb: 48 89 45 a0                  	movq	%rax, -0x60(%rbp)
   21fcf: 48 8b 85 28 ff ff ff         	movq	-0xd8(%rbp), %rax
   21fd6: 48 89 45 a8                  	movq	%rax, -0x58(%rbp)
   21fda: 4c 89 65 b0                  	movq	%r12, -0x50(%rbp)
   21fde: 48 89 c8                     	movq	%rcx, %rax
   21fe1: 48 89 7d b8                  	movq	%rdi, -0x48(%rbp)
   21fe5: 4c 89 45 c0                  	movq	%r8, -0x40(%rbp)
   21fe9: 89 d6                        	movl	%edx, %esi
   21feb: 48 8d 15 e5 b2 11 00         	leaq	0x11b2e5(%rip), %rdx    # 0x13d2d7
   21ff2: 48 89 95 a0 fc ff ff         	movq	%rdx, -0x360(%rbp)
   21ff9: 48 ba a2 e9 b3 d3 65 be 42 f7	movabsq	$-0x8bd419a2c4c165e, %rdx # imm = 0xF742BE65D3B3E9A2
   22003: e9 25 7c ff ff               	jmp	0x19c2d <.text+0xb4ad>
   22008: 4c 8b 9d 48 ff ff ff         	movq	-0xb8(%rbp), %r11
   2200f: 8a 8d dd fe ff ff            	movb	-0x123(%rbp), %cl
   22015: 0f b6 c1                     	movzbl	%cl, %eax
   22018: 0b 85 90 fe ff ff            	orl	-0x170(%rbp), %eax
   2201e: 48 ba 73 e4 15 57 21 a6 0e 52	movabsq	$0x520ea6215715e473, %rdx # imm = 0x520EA6215715E473
   22028: 89 85 e4 fd ff ff            	movl	%eax, -0x21c(%rbp)
   2202e: 3b 85 e8 fd ff ff            	cmpl	-0x218(%rbp), %eax
   22034: 40 8a 75 cd                  	movb	-0x33(%rbp), %sil
   22038: 4c 8b 95 38 ff ff ff         	movq	-0xc8(%rbp), %r10
   2203f: 48 8b 9d 00 ff ff ff         	movq	-0x100(%rbp), %rbx
   22046: 4c 8b ad f0 fe ff ff         	movq	-0x110(%rbp), %r13
   2204d: 4c 8b bd f8 fe ff ff         	movq	-0x108(%rbp), %r15
   22054: 4c 8b 8d 18 ff ff ff         	movq	-0xe8(%rbp), %r9
   2205b: 4c 8b 85 20 ff ff ff         	movq	-0xe0(%rbp), %r8
   22062: 48 8b bd 10 ff ff ff         	movq	-0xf0(%rbp), %rdi
   22069: 4c 8b b5 08 ff ff ff         	movq	-0xf8(%rbp), %r14
   22070: 4c 8b a5 40 ff ff ff         	movq	-0xc0(%rbp), %r12
   22077: 75 0a                        	jne	0x22083 <.text+0x13903>
   22079: 48 ba d3 f2 f7 e0 7d 84 1e e6	movabsq	$-0x19e17b821f080d2d, %rdx # imm = 0xE61E847DE0F7F2D3
   22083: 84 c9                        	testb	%cl, %cl
   22085: 48 b8 d3 f2 f7 e0 7d 84 1e e6	movabsq	$-0x19e17b821f080d2d, %rax # imm = 0xE61E847DE0F7F2D3
   2208f: 48 0f 44 d0                  	cmoveq	%rax, %rdx
   22093: 8a 45 ce                     	movb	-0x32(%rbp), %al
   22096: 88 45 cf                     	movb	%al, -0x31(%rbp)
   22099: 48 8b 85 50 ff ff ff         	movq	-0xb0(%rbp), %rax
   220a0: 48 89 85 70 ff ff ff         	movq	%rax, -0x90(%rbp)
   220a7: 48 8b 85 60 ff ff ff         	movq	-0xa0(%rbp), %rax
   220ae: 48 89 85 78 ff ff ff         	movq	%rax, -0x88(%rbp)
   220b5: 48 8b 85 e0 fe ff ff         	movq	-0x120(%rbp), %rax
   220bc: 48 89 45 80                  	movq	%rax, -0x80(%rbp)
   220c0: 48 8b 85 e8 fe ff ff         	movq	-0x118(%rbp), %rax
   220c7: 48 89 45 88                  	movq	%rax, -0x78(%rbp)
   220cb: 4c 89 5d 90                  	movq	%r11, -0x70(%rbp)
   220cf: 48 8b 85 58 ff ff ff         	movq	-0xa8(%rbp), %rax
   220d6: 48 89 45 98                  	movq	%rax, -0x68(%rbp)
   220da: 48 8b 85 30 ff ff ff         	movq	-0xd0(%rbp), %rax
   220e1: 48 89 45 a0                  	movq	%rax, -0x60(%rbp)
   220e5: 48 8b 85 28 ff ff ff         	movq	-0xd8(%rbp), %rax
   220ec: 48 89 45 a8                  	movq	%rax, -0x58(%rbp)
   220f0: 4c 89 65 b0                  	movq	%r12, -0x50(%rbp)
   220f4: 4c 89 f0                     	movq	%r14, %rax
   220f7: 48 89 7d b8                  	movq	%rdi, -0x48(%rbp)
   220fb: 4c 89 45 c0                  	movq	%r8, -0x40(%rbp)
   220ff: 4d 89 cb                     	movq	%r9, %r11
   22102: 0f 95 85 d4 fe ff ff         	setne	-0x12c(%rbp)
   22109: 4c 8b b5 b8 fd ff ff         	movq	-0x248(%rbp), %r14
   22110: 4c 89 b5 68 fc ff ff         	movq	%r14, -0x398(%rbp)
   22117: e9 11 7b ff ff               	jmp	0x19c2d <.text+0xb4ad>
   2211c: 48 8b 85 c0 fe ff ff         	movq	-0x140(%rbp), %rax
   22123: 48 8b 95 10 fc ff ff         	movq	-0x3f0(%rbp), %rdx
   2212a: 48 29 d0                     	subq	%rdx, %rax
   2212d: 48 89 85 18 fd ff ff         	movq	%rax, -0x2e8(%rbp)
   22134: 8a 45 ce                     	movb	-0x32(%rbp), %al
   22137: 88 45 cf                     	movb	%al, -0x31(%rbp)
   2213a: 48 8b 85 50 ff ff ff         	movq	-0xb0(%rbp), %rax
   22141: 48 89 85 70 ff ff ff         	movq	%rax, -0x90(%rbp)
   22148: 48 8b 85 60 ff ff ff         	movq	-0xa0(%rbp), %rax
   2214f: 48 89 85 78 ff ff ff         	movq	%rax, -0x88(%rbp)
   22156: 4c 89 f0                     	movq	%r14, %rax
   22159: 4c 89 75 80                  	movq	%r14, -0x80(%rbp)
   2215d: 4c 89 4d 88                  	movq	%r9, -0x78(%rbp)
   22161: 48 8b 85 48 ff ff ff         	movq	-0xb8(%rbp), %rax
   22168: 48 89 45 90                  	movq	%rax, -0x70(%rbp)
   2216c: 48 8b 85 58 ff ff ff         	movq	-0xa8(%rbp), %rax
   22173: 48 89 45 98                  	movq	%rax, -0x68(%rbp)
   22177: 48 8b 85 30 ff ff ff         	movq	-0xd0(%rbp), %rax
   2217e: 48 89 45 a0                  	movq	%rax, -0x60(%rbp)
   22182: 48 8b 85 28 ff ff ff         	movq	-0xd8(%rbp), %rax
   22189: 48 89 45 a8                  	movq	%rax, -0x58(%rbp)
   2218d: 48 8b 85 40 ff ff ff         	movq	-0xc0(%rbp), %rax
   22194: 48 89 45 b0                  	movq	%rax, -0x50(%rbp)
   22198: 48 8b 85 08 ff ff ff         	movq	-0xf8(%rbp), %rax
   2219f: 48 8b 8d 10 ff ff ff         	movq	-0xf0(%rbp), %rcx
   221a6: 48 89 4d b8                  	movq	%rcx, -0x48(%rbp)
   221aa: 48 8b 8d 20 ff ff ff         	movq	-0xe0(%rbp), %rcx
   221b1: 48 89 4d c0                  	movq	%rcx, -0x40(%rbp)
   221b5: 4c 8b 9d 18 ff ff ff         	movq	-0xe8(%rbp), %r11
   221bc: 4c 8b 95 38 ff ff ff         	movq	-0xc8(%rbp), %r10
   221c3: 44 89 e6                     	movl	%r12d, %esi
   221c6: 48 89 95 10 fd ff ff         	movq	%rdx, -0x2f0(%rbp)
   221cd: 48 ba 20 00 88 a4 ce 0e 3b 18	movabsq	$0x183b0ecea4880020, %rdx # imm = 0x183B0ECEA4880020
   221d7: e9 51 7a ff ff               	jmp	0x19c2d <.text+0xb4ad>
   221dc: 48 8b bd 08 fe ff ff         	movq	-0x1f8(%rbp), %rdi
   221e3: 48 2b bd 18 fe ff ff         	subq	-0x1e8(%rbp), %rdi
   221ea: 8a 45 ce                     	movb	-0x32(%rbp), %al
   221ed: 88 45 cf                     	movb	%al, -0x31(%rbp)
   221f0: 48 8b 85 50 ff ff ff         	movq	-0xb0(%rbp), %rax
   221f7: 48 89 85 70 ff ff ff         	movq	%rax, -0x90(%rbp)
   221fe: 48 8b 85 60 ff ff ff         	movq	-0xa0(%rbp), %rax
   22205: 48 89 85 78 ff ff ff         	movq	%rax, -0x88(%rbp)
   2220c: 4c 89 c0                     	movq	%r8, %rax
   2220f: 4c 89 45 80                  	movq	%r8, -0x80(%rbp)
   22213: 4c 89 4d 88                  	movq	%r9, -0x78(%rbp)
   22217: 48 8b 85 48 ff ff ff         	movq	-0xb8(%rbp), %rax
   2221e: 48 89 45 90                  	movq	%rax, -0x70(%rbp)
   22222: 48 8b 85 58 ff ff ff         	movq	-0xa8(%rbp), %rax
   22229: 48 89 45 98                  	movq	%rax, -0x68(%rbp)
   2222d: 48 8b 85 30 ff ff ff         	movq	-0xd0(%rbp), %rax
   22234: 48 89 45 a0                  	movq	%rax, -0x60(%rbp)
   22238: 48 8b 85 28 ff ff ff         	movq	-0xd8(%rbp), %rax
   2223f: 48 89 45 a8                  	movq	%rax, -0x58(%rbp)
   22243: 48 8b 85 40 ff ff ff         	movq	-0xc0(%rbp), %rax
   2224a: 48 89 45 b0                  	movq	%rax, -0x50(%rbp)
   2224e: 48 8b 85 08 ff ff ff         	movq	-0xf8(%rbp), %rax
   22255: 48 89 7d b8                  	movq	%rdi, -0x48(%rbp)
   22259: 48 8b 8d 20 ff ff ff         	movq	-0xe0(%rbp), %rcx
   22260: 48 89 4d c0                  	movq	%rcx, -0x40(%rbp)
   22264: 4c 8b 9d 18 ff ff ff         	movq	-0xe8(%rbp), %r11
   2226b: 4c 8b bd f8 fe ff ff         	movq	-0x108(%rbp), %r15
   22272: 4c 8b ad f0 fe ff ff         	movq	-0x110(%rbp), %r13
   22279: 48 8b 9d 00 ff ff ff         	movq	-0x100(%rbp), %rbx
   22280: 4c 8b 95 38 ff ff ff         	movq	-0xc8(%rbp), %r10
   22287: 8a 55 cd                     	movb	-0x33(%rbp), %dl
   2228a: 89 d6                        	movl	%edx, %esi
   2228c: 48 ba db be 77 62 ce 6c 0b fb	movabsq	$-0x4f493319d884125, %rdx # imm = 0xFB0B6CCE6277BEDB
   22296: e9 92 79 ff ff               	jmp	0x19c2d <.text+0xb4ad>
   2229b: 8a 45 ce                     	movb	-0x32(%rbp), %al
   2229e: 88 45 cf                     	movb	%al, -0x31(%rbp)
   222a1: 48 8b 85 50 ff ff ff         	movq	-0xb0(%rbp), %rax
   222a8: 48 89 85 70 ff ff ff         	movq	%rax, -0x90(%rbp)
   222af: 48 8b 85 60 ff ff ff         	movq	-0xa0(%rbp), %rax
   222b6: 48 89 85 78 ff ff ff         	movq	%rax, -0x88(%rbp)
   222bd: 4c 89 c0                     	movq	%r8, %rax
   222c0: 4c 89 45 80                  	movq	%r8, -0x80(%rbp)
   222c4: 4c 89 4d 88                  	movq	%r9, -0x78(%rbp)
   222c8: 48 8b 85 48 ff ff ff         	movq	-0xb8(%rbp), %rax
   222cf: 48 89 45 90                  	movq	%rax, -0x70(%rbp)
   222d3: 48 8b 85 58 ff ff ff         	movq	-0xa8(%rbp), %rax
   222da: 48 89 45 98                  	movq	%rax, -0x68(%rbp)
   222de: 48 89 4d a0                  	movq	%rcx, -0x60(%rbp)
   222e2: 4c 89 5d a8                  	movq	%r11, -0x58(%rbp)
   222e6: 48 8b 85 40 ff ff ff         	movq	-0xc0(%rbp), %rax
   222ed: 48 89 45 b0                  	movq	%rax, -0x50(%rbp)
   222f1: 48 8b 85 08 ff ff ff         	movq	-0xf8(%rbp), %rax
   222f8: 48 8b 8d 10 ff ff ff         	movq	-0xf0(%rbp), %rcx
   222ff: 48 89 4d b8                  	movq	%rcx, -0x48(%rbp)
   22303: 48 8b 8d 20 ff ff ff         	movq	-0xe0(%rbp), %rcx
   2230a: 48 89 4d c0                  	movq	%rcx, -0x40(%rbp)
   2230e: 4c 8b 9d 18 ff ff ff         	movq	-0xe8(%rbp), %r11
   22315: 4c 8b 95 38 ff ff ff         	movq	-0xc8(%rbp), %r10
   2231c: 44 89 e6                     	movl	%r12d, %esi
   2231f: 48 8b 95 60 fe ff ff         	movq	-0x1a0(%rbp), %rdx
   22326: 48 ff c2                     	incq	%rdx
   22329: 48 89 95 a8 fd ff ff         	movq	%rdx, -0x258(%rbp)
   22330: 48 ba bb ec 6f 4e 0c 63 17 56	movabsq	$0x5617630c4e6fecbb, %rdx # imm = 0x5617630C4E6FECBB
   2233a: e9 ee 78 ff ff               	jmp	0x19c2d <.text+0xb4ad>
   2233f: 48 8b 95 78 fe ff ff         	movq	-0x188(%rbp), %rdx
   22346: 8d 42 a5                     	leal	-0x5b(%rdx), %eax
   22349: 89 d1                        	movl	%edx, %ecx
   2234b: 83 c9 20                     	orl	$0x20, %ecx
   2234e: 83 f8 e6                     	cmpl	$-0x1a, %eax
   22351: 0f 42 ca                     	cmovbl	%edx, %ecx
   22354: 0f b6 85 df fe ff ff         	movzbl	-0x121(%rbp), %eax
   2235b: 8d 50 a5                     	leal	-0x5b(%rax), %edx
   2235e: 89 c6                        	movl	%eax, %esi
   22360: 83 ce 20                     	orl	$0x20, %esi
   22363: 83 fa e6                     	cmpl	$-0x1a, %edx
   22366: 0f 42 f0                     	cmovbl	%eax, %esi
   22369: 48 ba 80 f6 3a 89 2c 64 5c 94	movabsq	$-0x6ba39bd376c50980, %rdx # imm = 0x945C642C893AF680
   22373: 39 f1                        	cmpl	%esi, %ecx
   22375: 40 8a 75 cd                  	movb	-0x33(%rbp), %sil
   22379: 4c 8b 95 38 ff ff ff         	movq	-0xc8(%rbp), %r10
   22380: 48 8b 9d 00 ff ff ff         	movq	-0x100(%rbp), %rbx
   22387: 4c 8b ad f0 fe ff ff         	movq	-0x110(%rbp), %r13
   2238e: 4c 8b bd f8 fe ff ff         	movq	-0x108(%rbp), %r15
   22395: 4c 8b 8d 18 ff ff ff         	movq	-0xe8(%rbp), %r9
   2239c: 4c 8b 85 20 ff ff ff         	movq	-0xe0(%rbp), %r8
   223a3: 48 8b bd 10 ff ff ff         	movq	-0xf0(%rbp), %rdi
   223aa: 48 8b 8d 08 ff ff ff         	movq	-0xf8(%rbp), %rcx
   223b1: 48 8b 85 40 ff ff ff         	movq	-0xc0(%rbp), %rax
   223b8: 0f 84 fb 03 00 00            	je	0x227b9 <.text+0x14039>
   223be: 48 ba 17 2c 41 ba 3a 03 6f 72	movabsq	$0x726f033aba412c17, %rdx # imm = 0x726F033ABA412C17
   223c8: e9 ec 03 00 00               	jmp	0x227b9 <.text+0x14039>
   223cd: c6 05 60 c9 11 00 00         	movb	$0x0, 0x11c960(%rip)    # 0x13ed34
   223d4: 41 0f b6 45 00               	movzbl	(%r13), %eax
   223d9: 48 ba f0 2b ca 01 f8 a8 a2 df	movabsq	$-0x205d5707fe35d410, %rdx # imm = 0xDFA2A8F801CA2BF0
   223e3: 48 89 85 78 fe ff ff         	movq	%rax, -0x188(%rbp)
   223ea: 85 c0                        	testl	%eax, %eax
   223ec: 74 0a                        	je	0x223f8 <.text+0x13c78>
   223ee: 48 ba 22 17 c1 80 81 fb 35 fc	movabsq	$-0x3ca047e7f3ee8de, %rdx # imm = 0xFC35FB8180C11722
   223f8: 8a 45 ce                     	movb	-0x32(%rbp), %al
   223fb: 88 45 cf                     	movb	%al, -0x31(%rbp)
   223fe: 48 8b 85 50 ff ff ff         	movq	-0xb0(%rbp), %rax
   22405: 48 89 85 70 ff ff ff         	movq	%rax, -0x90(%rbp)
   2240c: 48 8b 85 60 ff ff ff         	movq	-0xa0(%rbp), %rax
   22413: 48 89 85 78 ff ff ff         	movq	%rax, -0x88(%rbp)
   2241a: 48 89 f8                     	movq	%rdi, %rax
   2241d: 48 89 7d 80                  	movq	%rdi, -0x80(%rbp)
   22421: 4c 89 4d 88                  	movq	%r9, -0x78(%rbp)
   22425: 48 8b 85 48 ff ff ff         	movq	-0xb8(%rbp), %rax
   2242c: 48 89 45 90                  	movq	%rax, -0x70(%rbp)
   22430: 48 8b 85 58 ff ff ff         	movq	-0xa8(%rbp), %rax
   22437: 48 89 45 98                  	movq	%rax, -0x68(%rbp)
   2243b: 48 8b 85 30 ff ff ff         	movq	-0xd0(%rbp), %rax
   22442: 48 89 45 a0                  	movq	%rax, -0x60(%rbp)
   22446: 48 8b 85 28 ff ff ff         	movq	-0xd8(%rbp), %rax
   2244d: 48 89 45 a8                  	movq	%rax, -0x58(%rbp)
   22451: 48 8b 85 40 ff ff ff         	movq	-0xc0(%rbp), %rax
   22458: 48 89 45 b0                  	movq	%rax, -0x50(%rbp)
   2245c: 48 8b 85 08 ff ff ff         	movq	-0xf8(%rbp), %rax
   22463: 48 8b 8d 10 ff ff ff         	movq	-0xf0(%rbp), %rcx
   2246a: 48 89 4d b8                  	movq	%rcx, -0x48(%rbp)
   2246e: 48 8b 8d 20 ff ff ff         	movq	-0xe0(%rbp), %rcx
   22475: 48 89 4d c0                  	movq	%rcx, -0x40(%rbp)
   22479: 4c 8b 9d 18 ff ff ff         	movq	-0xe8(%rbp), %r11
   22480: 40 8a 33                     	movb	(%rbx), %sil
   22483: 40 88 b5 df fe ff ff         	movb	%sil, -0x121(%rbp)
   2248a: e9 57 04 00 00               	jmp	0x228e6 <.text+0x14166>
   2248f: 4c 8b b5 60 ff ff ff         	movq	-0xa0(%rbp), %r14
   22496: 4c 3b b5 30 fe ff ff         	cmpq	-0x1d0(%rbp), %r14
   2249d: 48 ba bd 33 18 43 3c b7 00 89	movabsq	$-0x76ff48c3bce7cc43, %rdx # imm = 0x8900B73C431833BD
   224a7: 48 b8 b2 4c a3 3f 21 ee 58 e6	movabsq	$-0x19a711dec05cb34e, %rax # imm = 0xE658EE213FA34CB2
   224b1: 48 0f 47 d0                  	cmovaq	%rax, %rdx
   224b5: 8a 45 ce                     	movb	-0x32(%rbp), %al
   224b8: 88 45 cf                     	movb	%al, -0x31(%rbp)
   224bb: 48 8b 85 50 ff ff ff         	movq	-0xb0(%rbp), %rax
   224c2: 48 89 85 70 ff ff ff         	movq	%rax, -0x90(%rbp)
   224c9: 48 8b 85 e0 fe ff ff         	movq	-0x120(%rbp), %rax
   224d0: 48 89 45 80                  	movq	%rax, -0x80(%rbp)
   224d4: 48 8b 85 e8 fe ff ff         	movq	-0x118(%rbp), %rax
   224db: 48 89 45 88                  	movq	%rax, -0x78(%rbp)
   224df: 48 8b 85 48 ff ff ff         	movq	-0xb8(%rbp), %rax
   224e6: 48 89 45 90                  	movq	%rax, -0x70(%rbp)
   224ea: 48 8b 85 58 ff ff ff         	movq	-0xa8(%rbp), %rax
   224f1: 48 89 45 98                  	movq	%rax, -0x68(%rbp)
   224f5: 48 8b 85 30 ff ff ff         	movq	-0xd0(%rbp), %rax
   224fc: 48 89 45 a0                  	movq	%rax, -0x60(%rbp)
   22500: 48 8b 85 28 ff ff ff         	movq	-0xd8(%rbp), %rax
   22507: 48 89 45 a8                  	movq	%rax, -0x58(%rbp)
   2250b: 4c 89 65 b0                  	movq	%r12, -0x50(%rbp)
   2250f: 48 89 c8                     	movq	%rcx, %rax
   22512: 48 89 7d b8                  	movq	%rdi, -0x48(%rbp)
   22516: 4c 89 45 c0                  	movq	%r8, -0x40(%rbp)
   2251a: 4d 89 cb                     	movq	%r9, %r11
   2251d: 4c 89 b5 78 ff ff ff         	movq	%r14, -0x88(%rbp)
   22524: 4c 89 b5 60 fc ff ff         	movq	%r14, -0x3a0(%rbp)
   2252b: e9 fd 76 ff ff               	jmp	0x19c2d <.text+0xb4ad>
   22530: 48 8b 85 b8 fe ff ff         	movq	-0x148(%rbp), %rax
   22537: 8a 40 02                     	movb	0x2(%rax), %al
   2253a: 48 ba 9d 0f 45 29 85 65 6c 76	movabsq	$0x766c658529450f9d, %rdx # imm = 0x766C658529450F9D
   22544: 88 85 cb fe ff ff            	movb	%al, -0x135(%rbp)
   2254a: 84 c0                        	testb	%al, %al
   2254c: 74 0a                        	je	0x22558 <.text+0x13dd8>
   2254e: 48 ba 82 8d 0c a7 ea 3d c0 43	movabsq	$0x43c03deaa70c8d82, %rdx # imm = 0x43C03DEAA70C8D82
   22558: 8a 45 ce                     	movb	-0x32(%rbp), %al
   2255b: 88 45 cf                     	movb	%al, -0x31(%rbp)
   2255e: 48 8b 85 50 ff ff ff         	movq	-0xb0(%rbp), %rax
   22565: 48 89 85 70 ff ff ff         	movq	%rax, -0x90(%rbp)
   2256c: 48 8b 85 60 ff ff ff         	movq	-0xa0(%rbp), %rax
   22573: 48 89 85 78 ff ff ff         	movq	%rax, -0x88(%rbp)
   2257a: 48 8b 85 e0 fe ff ff         	movq	-0x120(%rbp), %rax
   22581: 48 89 45 80                  	movq	%rax, -0x80(%rbp)
   22585: 48 8b 85 e8 fe ff ff         	movq	-0x118(%rbp), %rax
   2258c: 48 89 45 88                  	movq	%rax, -0x78(%rbp)
   22590: 48 8b 85 48 ff ff ff         	movq	-0xb8(%rbp), %rax
   22597: 48 89 45 90                  	movq	%rax, -0x70(%rbp)
   2259b: 48 8b 85 58 ff ff ff         	movq	-0xa8(%rbp), %rax
   225a2: 48 89 45 98                  	movq	%rax, -0x68(%rbp)
   225a6: 48 8b 85 30 ff ff ff         	movq	-0xd0(%rbp), %rax
   225ad: 48 89 45 a0                  	movq	%rax, -0x60(%rbp)
   225b1: 48 8b 85 28 ff ff ff         	movq	-0xd8(%rbp), %rax
   225b8: 48 89 45 a8                  	movq	%rax, -0x58(%rbp)
   225bc: 4c 89 65 b0                  	movq	%r12, -0x50(%rbp)
   225c0: 48 89 c8                     	movq	%rcx, %rax
   225c3: 48 89 7d b8                  	movq	%rdi, -0x48(%rbp)
   225c7: 4c 89 45 c0                  	movq	%r8, -0x40(%rbp)
   225cb: e9 5d 76 ff ff               	jmp	0x19c2d <.text+0xb4ad>
   225d0: 8a 45 ce                     	movb	-0x32(%rbp), %al
   225d3: 88 45 cf                     	movb	%al, -0x31(%rbp)
   225d6: 48 8b 85 50 ff ff ff         	movq	-0xb0(%rbp), %rax
   225dd: 48 89 85 70 ff ff ff         	movq	%rax, -0x90(%rbp)
   225e4: 48 8b 85 60 ff ff ff         	movq	-0xa0(%rbp), %rax
   225eb: 48 89 85 78 ff ff ff         	movq	%rax, -0x88(%rbp)
   225f2: 48 89 f8                     	movq	%rdi, %rax
   225f5: 48 89 7d 80                  	movq	%rdi, -0x80(%rbp)
   225f9: 4c 89 4d 88                  	movq	%r9, -0x78(%rbp)
   225fd: 48 8b 85 48 ff ff ff         	movq	-0xb8(%rbp), %rax
   22604: 48 89 45 90                  	movq	%rax, -0x70(%rbp)
   22608: 48 8b 85 58 ff ff ff         	movq	-0xa8(%rbp), %rax
   2260f: 48 89 45 98                  	movq	%rax, -0x68(%rbp)
   22613: 48 8b 85 30 ff ff ff         	movq	-0xd0(%rbp), %rax
   2261a: 48 89 45 a0                  	movq	%rax, -0x60(%rbp)
   2261e: 48 8b 85 28 ff ff ff         	movq	-0xd8(%rbp), %rax
   22625: 48 89 45 a8                  	movq	%rax, -0x58(%rbp)
   22629: 48 8b 85 40 ff ff ff         	movq	-0xc0(%rbp), %rax
   22630: 48 89 45 b0                  	movq	%rax, -0x50(%rbp)
   22634: 48 8b 85 08 ff ff ff         	movq	-0xf8(%rbp), %rax
   2263b: 48 8b 8d 10 ff ff ff         	movq	-0xf0(%rbp), %rcx
   22642: 48 89 4d b8                  	movq	%rcx, -0x48(%rbp)
   22646: 48 8b 8d 20 ff ff ff         	movq	-0xe0(%rbp), %rcx
   2264d: 48 89 4d c0                  	movq	%rcx, -0x40(%rbp)
   22651: 4c 8b 9d 18 ff ff ff         	movq	-0xe8(%rbp), %r11
   22658: 4c 8b bd f8 fe ff ff         	movq	-0x108(%rbp), %r15
   2265f: 4c 8b ad f0 fe ff ff         	movq	-0x110(%rbp), %r13
   22666: 48 8b 9d 00 ff ff ff         	movq	-0x100(%rbp), %rbx
   2266d: 4c 8b 95 38 ff ff ff         	movq	-0xc8(%rbp), %r10
   22674: 8a 55 cd                     	movb	-0x33(%rbp), %dl
   22677: 89 d6                        	movl	%edx, %esi
   22679: 31 d2                        	xorl	%edx, %edx
   2267b: 48 89 95 80 fd ff ff         	movq	%rdx, -0x280(%rbp)
   22682: 6a ff                        	pushq	$-0x1
   22684: 5a                           	popq	%rdx
   22685: 48 89 95 a0 fd ff ff         	movq	%rdx, -0x260(%rbp)
   2268c: 48 ba 18 b7 2a 7a 9a 56 fe 61	movabsq	$0x61fe569a7a2ab718, %rdx # imm = 0x61FE569A7A2AB718
   22696: e9 92 75 ff ff               	jmp	0x19c2d <.text+0xb4ad>
   2269b: 8a 45 ce                     	movb	-0x32(%rbp), %al
   2269e: 88 45 cf                     	movb	%al, -0x31(%rbp)
   226a1: 48 8b 85 50 ff ff ff         	movq	-0xb0(%rbp), %rax
   226a8: 48 89 85 70 ff ff ff         	movq	%rax, -0x90(%rbp)
   226af: 48 8b 85 60 ff ff ff         	movq	-0xa0(%rbp), %rax
   226b6: 48 89 85 78 ff ff ff         	movq	%rax, -0x88(%rbp)
   226bd: 48 8b 85 48 ff ff ff         	movq	-0xb8(%rbp), %rax
   226c4: 48 89 45 90                  	movq	%rax, -0x70(%rbp)
   226c8: 48 8b 85 58 ff ff ff         	movq	-0xa8(%rbp), %rax
   226cf: 48 89 45 98                  	movq	%rax, -0x68(%rbp)
   226d3: 48 8b 85 30 ff ff ff         	movq	-0xd0(%rbp), %rax
   226da: 48 89 45 a0                  	movq	%rax, -0x60(%rbp)
   226de: 48 8b 85 28 ff ff ff         	movq	-0xd8(%rbp), %rax
   226e5: 48 89 45 a8                  	movq	%rax, -0x58(%rbp)
   226e9: 48 8b 85 40 ff ff ff         	movq	-0xc0(%rbp), %rax
   226f0: 48 89 45 b0                  	movq	%rax, -0x50(%rbp)
   226f4: 48 8b 85 08 ff ff ff         	movq	-0xf8(%rbp), %rax
   226fb: 48 8b 8d 10 ff ff ff         	movq	-0xf0(%rbp), %rcx
   22702: 48 89 4d b8                  	movq	%rcx, -0x48(%rbp)
   22706: 48 8b 8d 20 ff ff ff         	movq	-0xe0(%rbp), %rcx
   2270d: 48 89 4d c0                  	movq	%rcx, -0x40(%rbp)
   22711: 4c 8b 9d 18 ff ff ff         	movq	-0xe8(%rbp), %r11
   22718: 4c 8b bd f8 fe ff ff         	movq	-0x108(%rbp), %r15
   2271f: 4c 8b ad f0 fe ff ff         	movq	-0x110(%rbp), %r13
   22726: 48 8b 9d 00 ff ff ff         	movq	-0x100(%rbp), %rbx
   2272d: 4c 8b 95 38 ff ff ff         	movq	-0xc8(%rbp), %r10
   22734: 8a 55 cd                     	movb	-0x33(%rbp), %dl
   22737: 89 d6                        	movl	%edx, %esi
   22739: 31 d2                        	xorl	%edx, %edx
   2273b: 48 89 55 80                  	movq	%rdx, -0x80(%rbp)
   2273f: 48 8b 95 c0 fe ff ff         	movq	-0x140(%rbp), %rdx
   22746: 48 89 55 88                  	movq	%rdx, -0x78(%rbp)
   2274a: 48 ba 3a 4b eb 22 9e 56 0a 1f	movabsq	$0x1f0a569e22eb4b3a, %rdx # imm = 0x1F0A569E22EB4B3A
   22754: e9 d4 74 ff ff               	jmp	0x19c2d <.text+0xb4ad>
   22759: 80 3d cd c5 11 00 00         	cmpb	$0x0, 0x11c5cd(%rip)    # 0x13ed2d
   22760: 48 ba 82 be ba 17 48 56 46 f4	movabsq	$-0xbb9a9b7e845417e, %rdx # imm = 0xF446564817BABE82
   2276a: 40 8a 75 cd                  	movb	-0x33(%rbp), %sil
   2276e: 4c 8b 95 38 ff ff ff         	movq	-0xc8(%rbp), %r10
   22775: 48 8b 9d 00 ff ff ff         	movq	-0x100(%rbp), %rbx
   2277c: 4c 8b ad f0 fe ff ff         	movq	-0x110(%rbp), %r13
   22783: 4c 8b bd f8 fe ff ff         	movq	-0x108(%rbp), %r15
   2278a: 4c 8b 8d 18 ff ff ff         	movq	-0xe8(%rbp), %r9
   22791: 4c 8b 85 20 ff ff ff         	movq	-0xe0(%rbp), %r8
   22798: 48 8b bd 10 ff ff ff         	movq	-0xf0(%rbp), %rdi
   2279f: 48 8b 8d 08 ff ff ff         	movq	-0xf8(%rbp), %rcx
   227a6: 48 8b 85 40 ff ff ff         	movq	-0xc0(%rbp), %rax
   227ad: 75 0a                        	jne	0x227b9 <.text+0x14039>
   227af: 48 ba 67 ac 6e 50 cf e2 82 02	movabsq	$0x282e2cf506eac67, %rdx # imm = 0x282E2CF506EAC67
   227b9: 44 8a 5d ce                  	movb	-0x32(%rbp), %r11b
   227bd: 44 88 5d cf                  	movb	%r11b, -0x31(%rbp)
   227c1: 4c 8b 9d 50 ff ff ff         	movq	-0xb0(%rbp), %r11
   227c8: 4c 89 9d 70 ff ff ff         	movq	%r11, -0x90(%rbp)
   227cf: 4c 8b 9d 60 ff ff ff         	movq	-0xa0(%rbp), %r11
   227d6: 4c 89 9d 78 ff ff ff         	movq	%r11, -0x88(%rbp)
   227dd: 4c 8b 9d e0 fe ff ff         	movq	-0x120(%rbp), %r11
   227e4: 4c 89 5d 80                  	movq	%r11, -0x80(%rbp)
   227e8: 4c 8b 9d e8 fe ff ff         	movq	-0x118(%rbp), %r11
   227ef: 4c 89 5d 88                  	movq	%r11, -0x78(%rbp)
   227f3: 4c 8b 9d 48 ff ff ff         	movq	-0xb8(%rbp), %r11
   227fa: 4c 89 5d 90                  	movq	%r11, -0x70(%rbp)
   227fe: 4c 8b 9d 58 ff ff ff         	movq	-0xa8(%rbp), %r11
   22805: 4c 89 5d 98                  	movq	%r11, -0x68(%rbp)
   22809: 4c 8b 9d 30 ff ff ff         	movq	-0xd0(%rbp), %r11
   22810: 4c 89 5d a0                  	movq	%r11, -0x60(%rbp)
   22814: 4c 8b 9d 28 ff ff ff         	movq	-0xd8(%rbp), %r11
   2281b: 4c 89 5d a8                  	movq	%r11, -0x58(%rbp)
   2281f: 48 89 45 b0                  	movq	%rax, -0x50(%rbp)
   22823: 48 89 c8                     	movq	%rcx, %rax
   22826: 48 89 7d b8                  	movq	%rdi, -0x48(%rbp)
   2282a: 4c 89 45 c0                  	movq	%r8, -0x40(%rbp)
   2282e: 4d 89 cb                     	movq	%r9, %r11
   22831: e9 f7 73 ff ff               	jmp	0x19c2d <.text+0xb4ad>
   22836: 48 8b 85 98 fe ff ff         	movq	-0x168(%rbp), %rax
   2283d: 48 8b 8d c0 fe ff ff         	movq	-0x140(%rbp), %rcx
   22844: 80 3c 08 00                  	cmpb	$0x0, (%rax,%rcx)
   22848: 48 ba b3 7b 64 c7 99 62 4c 1e	movabsq	$0x1e4c6299c7647bb3, %rdx # imm = 0x1E4C6299C7647BB3
   22852: 74 0a                        	je	0x2285e <.text+0x140de>
   22854: 48 ba 08 2e 3d 1e 2d 2a db 62	movabsq	$0x62db2a2d1e3d2e08, %rdx # imm = 0x62DB2A2D1E3D2E08
   2285e: 8a 45 ce                     	movb	-0x32(%rbp), %al
   22861: 88 45 cf                     	movb	%al, -0x31(%rbp)
   22864: 48 8b 85 50 ff ff ff         	movq	-0xb0(%rbp), %rax
   2286b: 48 89 85 70 ff ff ff         	movq	%rax, -0x90(%rbp)
   22872: 48 8b 85 60 ff ff ff         	movq	-0xa0(%rbp), %rax
   22879: 48 89 85 78 ff ff ff         	movq	%rax, -0x88(%rbp)
   22880: 48 89 f8                     	movq	%rdi, %rax
   22883: 48 89 7d 80                  	movq	%rdi, -0x80(%rbp)
   22887: 4c 89 4d 88                  	movq	%r9, -0x78(%rbp)
   2288b: 48 8b 85 48 ff ff ff         	movq	-0xb8(%rbp), %rax
   22892: 48 89 45 90                  	movq	%rax, -0x70(%rbp)
   22896: 48 8b 85 58 ff ff ff         	movq	-0xa8(%rbp), %rax
   2289d: 48 89 45 98                  	movq	%rax, -0x68(%rbp)
   228a1: 48 8b 85 30 ff ff ff         	movq	-0xd0(%rbp), %rax
   228a8: 48 89 45 a0                  	movq	%rax, -0x60(%rbp)
   228ac: 48 8b 85 28 ff ff ff         	movq	-0xd8(%rbp), %rax
   228b3: 48 89 45 a8                  	movq	%rax, -0x58(%rbp)
   228b7: 48 8b 85 40 ff ff ff         	movq	-0xc0(%rbp), %rax
   228be: 48 89 45 b0                  	movq	%rax, -0x50(%rbp)
   228c2: 48 8b 85 08 ff ff ff         	movq	-0xf8(%rbp), %rax
   228c9: 48 8b 8d 10 ff ff ff         	movq	-0xf0(%rbp), %rcx
   228d0: 48 89 4d b8                  	movq	%rcx, -0x48(%rbp)
   228d4: 48 8b 8d 20 ff ff ff         	movq	-0xe0(%rbp), %rcx
   228db: 48 89 4d c0                  	movq	%rcx, -0x40(%rbp)
   228df: 4c 8b 9d 18 ff ff ff         	movq	-0xe8(%rbp), %r11
   228e6: 4c 8b 95 38 ff ff ff         	movq	-0xc8(%rbp), %r10
   228ed: 44 89 e6                     	movl	%r12d, %esi
   228f0: e9 38 73 ff ff               	jmp	0x19c2d <.text+0xb4ad>
   228f5: 48 8b 85 50 fe ff ff         	movq	-0x1b0(%rbp), %rax
   228fc: 48 2b 85 80 fc ff ff         	subq	-0x380(%rbp), %rax
   22903: 48 3b 85 c0 fe ff ff         	cmpq	-0x140(%rbp), %rax
   2290a: 48 ba b5 50 23 a4 b8 4b 91 18	movabsq	$0x18914bb8a42350b5, %rdx # imm = 0x18914BB8A42350B5
   22914: 48 b8 f5 a9 02 47 52 fe 9e ff	movabsq	$-0x6101adb8fd560b, %rax # imm = 0xFF9EFE524702A9F5
   2291e: 48 0f 4c d0                  	cmovlq	%rax, %rdx
   22922: 44 88 55 cf                  	movb	%r10b, -0x31(%rbp)
   22926: 4c 89 bd 70 ff ff ff         	movq	%r15, -0x90(%rbp)
   2292d: 4c 89 ad 78 ff ff ff         	movq	%r13, -0x88(%rbp)
   22934: 48 89 7d 80                  	movq	%rdi, -0x80(%rbp)
   22938: 4c 89 4d 88                  	movq	%r9, -0x78(%rbp)
   2293c: 4c 89 45 90                  	movq	%r8, -0x70(%rbp)
   22940: 4c 89 75 98                  	movq	%r14, -0x68(%rbp)
   22944: 4c 89 5d a0                  	movq	%r11, -0x60(%rbp)
   22948: 48 89 5d a8                  	movq	%rbx, -0x58(%rbp)
   2294c: 4c 89 65 b0                  	movq	%r12, -0x50(%rbp)
   22950: 48 89 c8                     	movq	%rcx, %rax
   22953: 48 8b 8d 10 ff ff ff         	movq	-0xf0(%rbp), %rcx
   2295a: 48 89 4d b8                  	movq	%rcx, -0x48(%rbp)
   2295e: 48 8b 8d 20 ff ff ff         	movq	-0xe0(%rbp), %rcx
   22965: 48 89 4d c0                  	movq	%rcx, -0x40(%rbp)
   22969: 4c 8b 9d 18 ff ff ff         	movq	-0xe8(%rbp), %r11
   22970: 4c 8b bd f8 fe ff ff         	movq	-0x108(%rbp), %r15
   22977: 4c 8b ad f0 fe ff ff         	movq	-0x110(%rbp), %r13
   2297e: 48 8b 9d 00 ff ff ff         	movq	-0x100(%rbp), %rbx
   22985: 4c 8b 95 38 ff ff ff         	movq	-0xc8(%rbp), %r10
   2298c: e9 9c 72 ff ff               	jmp	0x19c2d <.text+0xb4ad>
   22991: c1 e2 18                     	shll	$0x18, %edx
   22994: c1 e6 10                     	shll	$0x10, %esi
   22997: 09 d6                        	orl	%edx, %esi
   22999: 41 c1 e2 08                  	shll	$0x8, %r10d
   2299d: 41 09 f2                     	orl	%esi, %r10d
   229a0: 0f b6 85 ce fe ff ff         	movzbl	-0x132(%rbp), %eax
   229a7: 44 09 d0                     	orl	%r10d, %eax
   229aa: 89 85 e8 fd ff ff            	movl	%eax, -0x218(%rbp)
   229b0: 41 c1 e6 10                  	shll	$0x10, %r14d
   229b4: 41 c1 e0 08                  	shll	$0x8, %r8d
   229b8: 45 09 f0                     	orl	%r14d, %r8d
   229bb: 48 8b 85 98 fe ff ff         	movq	-0x168(%rbp), %rax
   229c2: 0f b6 00                     	movzbl	(%rax), %eax
   229c5: c1 e0 18                     	shll	$0x18, %eax
   229c8: 41 09 c0                     	orl	%eax, %r8d
   229cb: 8a 45 ce                     	movb	-0x32(%rbp), %al
   229ce: 88 45 cf                     	movb	%al, -0x31(%rbp)
   229d1: 48 8b 85 50 ff ff ff         	movq	-0xb0(%rbp), %rax
   229d8: 48 89 85 70 ff ff ff         	movq	%rax, -0x90(%rbp)
   229df: 48 8b 85 60 ff ff ff         	movq	-0xa0(%rbp), %rax
   229e6: 48 89 85 78 ff ff ff         	movq	%rax, -0x88(%rbp)
   229ed: 48 89 f8                     	movq	%rdi, %rax
   229f0: 48 89 7d 80                  	movq	%rdi, -0x80(%rbp)
   229f4: 4c 89 4d 88                  	movq	%r9, -0x78(%rbp)
   229f8: 48 8b 85 48 ff ff ff         	movq	-0xb8(%rbp), %rax
   229ff: 48 89 45 90                  	movq	%rax, -0x70(%rbp)
   22a03: 48 8b 85 58 ff ff ff         	movq	-0xa8(%rbp), %rax
   22a0a: 48 89 45 98                  	movq	%rax, -0x68(%rbp)
   22a0e: 48 8b 85 30 ff ff ff         	movq	-0xd0(%rbp), %rax
   22a15: 48 89 45 a0                  	movq	%rax, -0x60(%rbp)
   22a19: 48 8b 85 28 ff ff ff         	movq	-0xd8(%rbp), %rax
   22a20: 48 89 45 a8                  	movq	%rax, -0x58(%rbp)
   22a24: 48 8b 85 40 ff ff ff         	movq	-0xc0(%rbp), %rax
   22a2b: 48 89 45 b0                  	movq	%rax, -0x50(%rbp)
   22a2f: 48 8b 85 08 ff ff ff         	movq	-0xf8(%rbp), %rax
   22a36: 48 8b 8d 10 ff ff ff         	movq	-0xf0(%rbp), %rcx
   22a3d: 48 89 4d b8                  	movq	%rcx, -0x48(%rbp)
   22a41: 48 8b 8d 20 ff ff ff         	movq	-0xe0(%rbp), %rcx
   22a48: 48 89 4d c0                  	movq	%rcx, -0x40(%rbp)
   22a4c: 4c 8b 9d 18 ff ff ff         	movq	-0xe8(%rbp), %r11
   22a53: 44 89 85 90 fe ff ff         	movl	%r8d, -0x170(%rbp)
   22a5a: 4c 8b 95 38 ff ff ff         	movq	-0xc8(%rbp), %r10
   22a61: 44 89 e6                     	movl	%r12d, %esi
   22a64: 8a 95 cf fe ff ff            	movb	-0x131(%rbp), %dl
   22a6a: 88 95 dd fe ff ff            	movb	%dl, -0x123(%rbp)
   22a70: 48 8b 95 48 fc ff ff         	movq	-0x3b8(%rbp), %rdx
   22a77: 48 89 95 b8 fd ff ff         	movq	%rdx, -0x248(%rbp)
   22a7e: 48 ba 96 41 42 b6 b3 32 01 9e	movabsq	$-0x61fecd4c49bdbe6a, %rdx # imm = 0x9E0132B3B6424196
   22a88: e9 a0 71 ff ff               	jmp	0x19c2d <.text+0xb4ad>
   22a8d: 4c 8b 8d 40 fe ff ff         	movq	-0x1c0(%rbp), %r9
   22a94: 49 8b 41 08                  	movq	0x8(%r9), %rax
   22a98: 4d 89 de                     	movq	%r11, %r14
   22a9b: 49 89 d3                     	movq	%rdx, %r11
   22a9e: 48 8b 95 70 fe ff ff         	movq	-0x190(%rbp), %rdx
   22aa5: 48 89 10                     	movq	%rdx, (%rax)
   22aa8: 48 8b 85 48 fd ff ff         	movq	-0x2b8(%rbp), %rax
   22aaf: 49 89 41 08                  	movq	%rax, 0x8(%r9)
   22ab3: 8a 45 ce                     	movb	-0x32(%rbp), %al
   22ab6: 88 45 cf                     	movb	%al, -0x31(%rbp)
   22ab9: 48 8b 85 50 ff ff ff         	movq	-0xb0(%rbp), %rax
   22ac0: 48 89 85 70 ff ff ff         	movq	%rax, -0x90(%rbp)
   22ac7: 48 8b 85 60 ff ff ff         	movq	-0xa0(%rbp), %rax
   22ace: 48 89 85 78 ff ff ff         	movq	%rax, -0x88(%rbp)
   22ad5: 48 8b 85 e0 fe ff ff         	movq	-0x120(%rbp), %rax
   22adc: 48 89 45 80                  	movq	%rax, -0x80(%rbp)
   22ae0: 48 8b 85 e8 fe ff ff         	movq	-0x118(%rbp), %rax
   22ae7: 48 89 45 88                  	movq	%rax, -0x78(%rbp)
   22aeb: 48 8b 85 48 ff ff ff         	movq	-0xb8(%rbp), %rax
   22af2: 48 89 45 90                  	movq	%rax, -0x70(%rbp)
   22af6: 48 8b 85 58 ff ff ff         	movq	-0xa8(%rbp), %rax
   22afd: 48 89 45 98                  	movq	%rax, -0x68(%rbp)
   22b01: 4c 89 5d a0                  	movq	%r11, -0x60(%rbp)
   22b05: 4c 89 75 a8                  	movq	%r14, -0x58(%rbp)
   22b09: 48 8b 85 40 ff ff ff         	movq	-0xc0(%rbp), %rax
   22b10: 48 89 45 b0                  	movq	%rax, -0x50(%rbp)
   22b14: 4c 89 e0                     	movq	%r12, %rax
   22b17: 48 89 7d b8                  	movq	%rdi, -0x48(%rbp)
   22b1b: 4c 89 45 c0                  	movq	%r8, -0x40(%rbp)
   22b1f: 49 89 cb                     	movq	%rcx, %r11
   22b22: 48 ba 5c 36 e2 b2 0f e4 84 cf	movabsq	$-0x307b1bf04d1dc9a4, %rdx # imm = 0xCF84E40FB2E2365C
   22b2c: e9 fc 70 ff ff               	jmp	0x19c2d <.text+0xb4ad>
   22b31: 64 48 8b 04 25 28 00 00 00   	movq	%fs:0x28, %rax
   22b3a: 48 3b 45 d0                  	cmpq	-0x30(%rbp), %rax
   22b3e: 75 0f                        	jne	0x22b4f <.text+0x143cf>
   22b40: 48 8d 65 d8                  	leaq	-0x28(%rbp), %rsp
   22b44: 5b                           	popq	%rbx
   22b45: 41 5c                        	popq	%r12
   22b47: 41 5d                        	popq	%r13
   22b49: 41 5e                        	popq	%r14
   22b4b: 41 5f                        	popq	%r15
   22b4d: 5d                           	popq	%rbp
   22b4e: c3                           	retq
   22b4f: e8 cc fc 10 00               	callq	0x132820 <__stack_chk_fail@plt>
   22b54: 55                           	pushq	%rbp
