
adjust-android-signature-3.67.0/jni/arm64-v8a/libsigner.so:     file format elf64-littleaarch64


Disassembly of section .text:

000000000008746c <Java_com_adjust_sdk_sig_NativeLibHelper_nOnResume@@Base-0x44620>:
   8746c:	6db63bef 	stp	d15, d14, [sp, #-160]!
   87470:	6d0133ed 	stp	d13, d12, [sp, #16]
   87474:	6d022beb 	stp	d11, d10, [sp, #32]
   87478:	6d0323e9 	stp	d9, d8, [sp, #48]
   8747c:	a9047bfd 	stp	x29, x30, [sp, #64]
   87480:	a9056ffc 	stp	x28, x27, [sp, #80]
   87484:	a90667fa 	stp	x26, x25, [sp, #96]
   87488:	a9075ff8 	stp	x24, x23, [sp, #112]
   8748c:	a90857f6 	stp	x22, x21, [sp, #128]
   87490:	a9094ff4 	stp	x20, x19, [sp, #144]
   87494:	910103fd 	add	x29, sp, #0x40
   87498:	d115c3ff 	sub	sp, sp, #0x570
   8749c:	d11263a8 	sub	x8, x29, #0x498
   874a0:	d112c3a9 	sub	x9, x29, #0x4b0
   874a4:	d293b6a6 	mov	x6, #0x9db5                	// #40373
   874a8:	0f05e689 	movi	v9.8b, #0xb4
   874ac:	f2a572e6 	movk	x6, #0x2b97, lsl #16
   874b0:	0f01e62a 	movi	v10.8b, #0x31
   874b4:	f8100101 	stur	x1, [x8, #-256]
   874b8:	d10043a8 	sub	x8, x29, #0x10
   874bc:	0f03e4ab 	movi	v11.8b, #0x65
   874c0:	0f01e6ec 	movi	v12.8b, #0x37
   874c4:	0f02e54d 	movi	v13.8b, #0x4a
   874c8:	0f05e40e 	movi	v14.8b, #0xa0
   874cc:	f8100100 	stur	x0, [x8, #-256]
   874d0:	d53bd048 	mrs	x8, tpidr_el0
   874d4:	f8100128 	stur	x8, [x9, #-256]
   874d8:	d11283a9 	sub	x9, x29, #0x4a0
   874dc:	f9401508 	ldr	x8, [x8, #40]
   874e0:	0f00e4af 	movi	v15.8b, #0x5
   874e4:	0f00e6a8 	movi	v8.8b, #0x15
   874e8:	f2d27926 	movk	x6, #0x93c9, lsl #32
   874ec:	f2ea2086 	movk	x6, #0x5104, lsl #48
   874f0:	f81b03a8 	stur	x8, [x29, #-80]
   874f4:	91019048 	add	x8, x2, #0x64
   874f8:	f8100128 	stur	x8, [x9, #-256]
   874fc:	d10063a8 	sub	x8, x29, #0x18
   87500:	d112a3a9 	sub	x9, x29, #0x4a8
   87504:	f8100102 	stur	x2, [x8, #-256]
   87508:	91018048 	add	x8, x2, #0x60
   8750c:	f8100128 	stur	x8, [x9, #-256]
   87510:	a979e3b7 	ldp	x23, x24, [x29, #-104]
   87514:	d29900c8 	mov	x8, #0xc806                	// #51206
   87518:	aa0503fe 	mov	x30, x5
   8751c:	f2beb3c8 	movk	x8, #0xf59e, lsl #16
   87520:	aa0403e7 	mov	x7, x4
   87524:	aa0903e3 	mov	x3, x9
   87528:	aa0a03e1 	mov	x1, x10
   8752c:	aa1103f9 	mov	x25, x17
   87530:	aa1003f6 	mov	x22, x16
   87534:	aa0f03f5 	mov	x21, x15
   87538:	aa0e03fc 	mov	x28, x14
   8753c:	aa0d03fa 	mov	x26, x13
   87540:	2a0c03f4 	mov	w20, w12
   87544:	2a0b03fb 	mov	w27, w11
   87548:	f85a83b3 	ldur	x19, [x29, #-88]
   8754c:	f2db3308 	movk	x8, #0xd998, lsl #32
   87550:	f81903a2 	stur	x2, [x29, #-112]
   87554:	f2f01428 	movk	x8, #0x80a1, lsl #48
   87558:	eb0800df 	cmp	x6, x8
   8755c:	5403e240 	b.eq	8f1a4 <Java_com_adjust_sdk_sig_NativeLibHelper_nOnResume@@Base-0x3c8e8>  // b.none
   87560:	d29ccac8 	mov	x8, #0xe656                	// #58966
   87564:	aa0603e0 	mov	x0, x6
   87568:	f2bb2f68 	movk	x8, #0xd97b, lsl #16
   8756c:	f2db16e8 	movk	x8, #0xd8b7, lsl #32
   87570:	f2f03968 	movk	x8, #0x81cb, lsl #48
   87574:	eb0800df 	cmp	x6, x8
   87578:	5401f400 	b.eq	8b3f8 <Java_com_adjust_sdk_sig_NativeLibHelper_nOnResume@@Base-0x40694>  // b.none
   8757c:	d29acec6 	mov	x6, #0xd676                	// #54902
   87580:	aa0703e4 	mov	x4, x7
   87584:	f2a0c4a6 	movk	x6, #0x625, lsl #16
   87588:	aa0703e8 	mov	x8, x7
   8758c:	d29cdae7 	mov	x7, #0xe6d7                	// #59095
   87590:	f2d33c26 	movk	x6, #0x99e1, lsl #32
   87594:	f2a4ef87 	movk	x7, #0x277c, lsl #16
   87598:	2a1b03eb 	mov	w11, w27
   8759c:	2a1403ec 	mov	w12, w20
   875a0:	aa1a03ed 	mov	x13, x26
   875a4:	aa1c03ee 	mov	x14, x28
   875a8:	aa1503ef 	mov	x15, x21
   875ac:	aa1603f0 	mov	x16, x22
   875b0:	aa1903f1 	mov	x17, x25
   875b4:	aa0103ea 	mov	x10, x1
   875b8:	f85903a2 	ldur	x2, [x29, #-112]
   875bc:	aa0303e9 	mov	x9, x3
   875c0:	aa1e03e5 	mov	x5, x30
   875c4:	f2ee0dc6 	movk	x6, #0x706e, lsl #48
   875c8:	f2d688c7 	movk	x7, #0xb446, lsl #32
   875cc:	f2f05307 	movk	x7, #0x8298, lsl #48
   875d0:	a93a4fb8 	stp	x24, x19, [x29, #-96]
   875d4:	eb07001f 	cmp	x0, x7
   875d8:	f81983b7 	stur	x23, [x29, #-104]
   875dc:	54fff9a0 	b.eq	87510 <Java_com_adjust_sdk_sig_NativeLibHelper_nOnResume@@Base-0x4457c>  // b.none
   875e0:	d28e2506 	mov	x6, #0x7128                	// #28968
   875e4:	d28ea867 	mov	x7, #0x7543                	// #30019
   875e8:	f2b06f46 	movk	x6, #0x837a, lsl #16
   875ec:	f2a650e7 	movk	x7, #0x3287, lsl #16
   875f0:	f2c37d86 	movk	x6, #0x1bec, lsl #32
   875f4:	2a1b03eb 	mov	w11, w27
   875f8:	2a1403ec 	mov	w12, w20
   875fc:	aa1a03ed 	mov	x13, x26
   87600:	aa1c03ee 	mov	x14, x28
   87604:	aa1503ef 	mov	x15, x21
   87608:	aa1603f0 	mov	x16, x22
   8760c:	aa1903f1 	mov	x17, x25
   87610:	aa0103ea 	mov	x10, x1
   87614:	f85903a2 	ldur	x2, [x29, #-112]
   87618:	aa0303e9 	mov	x9, x3
   8761c:	aa0803e4 	mov	x4, x8
   87620:	aa1e03e5 	mov	x5, x30
   87624:	f2e5ea26 	movk	x6, #0x2f51, lsl #48
   87628:	f2ce7c27 	movk	x7, #0x73e1, lsl #32
   8762c:	a93a4fb8 	stp	x24, x19, [x29, #-96]
   87630:	f2f0dfe7 	movk	x7, #0x86ff, lsl #48
   87634:	f81983b7 	stur	x23, [x29, #-104]
   87638:	eb07001f 	cmp	x0, x7
   8763c:	54fff6a0 	b.eq	87510 <Java_com_adjust_sdk_sig_NativeLibHelper_nOnResume@@Base-0x4457c>  // b.none
   87640:	a93723be 	stp	x30, x8, [x29, #-144]
   87644:	d29847c8 	mov	x8, #0xc23e                	// #49726
   87648:	f2a805e8 	movk	x8, #0x402f, lsl #16
   8764c:	a9380fa1 	stp	x1, x3, [x29, #-128]
   87650:	f2cf7588 	movk	x8, #0x7bac, lsl #32
   87654:	f2f0fc08 	movk	x8, #0x87e0, lsl #48
   87658:	eb08001f 	cmp	x0, x8
   8765c:	54019e60 	b.eq	8aa28 <Java_com_adjust_sdk_sig_NativeLibHelper_nOnResume@@Base-0x41064>  // b.none
   87660:	d29de528 	mov	x8, #0xef29                	// #61225
   87664:	f2b9d428 	movk	x8, #0xcea1, lsl #16
   87668:	f2c76d68 	movk	x8, #0x3b6b, lsl #32
   8766c:	f2f106a8 	movk	x8, #0x8835, lsl #48
   87670:	eb08001f 	cmp	x0, x8
   87674:	5403ec60 	b.eq	8f400 <Java_com_adjust_sdk_sig_NativeLibHelper_nOnResume@@Base-0x3c68c>  // b.none
   87678:	d28f4fa8 	mov	x8, #0x7a7d                	// #31357
   8767c:	f85883a3 	ldur	x3, [x29, #-120]
   87680:	a977aba4 	ldp	x4, x10, [x29, #-136]
   87684:	f2a6f648 	movk	x8, #0x37b2, lsl #16
   87688:	f2c0fa08 	movk	x8, #0x7d0, lsl #32
   8768c:	f2f11868 	movk	x8, #0x88c3, lsl #48
   87690:	eb08001f 	cmp	x0, x8
   87694:	54020b00 	b.eq	8b7f4 <Java_com_adjust_sdk_sig_NativeLibHelper_nOnResume@@Base-0x40298>  // b.none
   87698:	d292bdc8 	mov	x8, #0x95ee                	// #38382
   8769c:	f2a45868 	movk	x8, #0x22c3, lsl #16
   876a0:	f2d0cbc8 	movk	x8, #0x865e, lsl #32
   876a4:	f2f127a8 	movk	x8, #0x893d, lsl #48
   876a8:	eb08001f 	cmp	x0, x8
   876ac:	5401f0a0 	b.eq	8b4c0 <Java_com_adjust_sdk_sig_NativeLibHelper_nOnResume@@Base-0x405cc>  // b.none
   876b0:	d29189c8 	mov	x8, #0x8c4e                	// #35918
   876b4:	f2a5a128 	movk	x8, #0x2d09, lsl #16
   876b8:	f2cabae8 	movk	x8, #0x55d7, lsl #32
   876bc:	f2f141a8 	movk	x8, #0x8a0d, lsl #48
   876c0:	eb08001f 	cmp	x0, x8
   876c4:	54036940 	b.eq	8e3ec <Java_com_adjust_sdk_sig_NativeLibHelper_nOnResume@@Base-0x3d6a0>  // b.none
   876c8:	d28bd726 	mov	x6, #0x5eb9                	// #24249
   876cc:	d28051c7 	mov	x7, #0x28e                 	// #654
   876d0:	f2a1c8a6 	movk	x6, #0xe45, lsl #16
   876d4:	f2a8a747 	movk	x7, #0x453a, lsl #16
   876d8:	f2d6c4a6 	movk	x6, #0xb625, lsl #32
   876dc:	b856c3ab 	ldur	w11, [x29, #-148]
   876e0:	2a1403ec 	mov	w12, w20
   876e4:	aa1a03ed 	mov	x13, x26
   876e8:	aa1c03ee 	mov	x14, x28
   876ec:	aa1503ef 	mov	x15, x21
   876f0:	aa1603f0 	mov	x16, x22
   876f4:	aa1903f1 	mov	x17, x25
   876f8:	f85903a2 	ldur	x2, [x29, #-112]
   876fc:	aa0303e9 	mov	x9, x3
   87700:	aa1e03e5 	mov	x5, x30
   87704:	f2f58e86 	movk	x6, #0xac74, lsl #48
   87708:	f2c0e947 	movk	x7, #0x74a, lsl #32
   8770c:	a93a4fb8 	stp	x24, x19, [x29, #-96]
   87710:	f2f157a7 	movk	x7, #0x8abd, lsl #48
   87714:	f81983b7 	stur	x23, [x29, #-104]
   87718:	eb07001f 	cmp	x0, x7
   8771c:	54ffefa0 	b.eq	87510 <Java_com_adjust_sdk_sig_NativeLibHelper_nOnResume@@Base-0x4457c>  // b.none
   87720:	d2900088 	mov	x8, #0x8004                	// #32772
   87724:	f2b44928 	movk	x8, #0xa249, lsl #16
   87728:	f2db2748 	movk	x8, #0xd93a, lsl #32
   8772c:	f2f16ce8 	movk	x8, #0x8b67, lsl #48
   87730:	eb08001f 	cmp	x0, x8
   87734:	5401d140 	b.eq	8b15c <Java_com_adjust_sdk_sig_NativeLibHelper_nOnResume@@Base-0x40930>  // b.none
   87738:	d294e188 	mov	x8, #0xa70c                	// #42764
   8773c:	d2821e0a 	mov	x10, #0x10f0                	// #4336
   87740:	f2b14788 	movk	x8, #0x8a3c, lsl #16
   87744:	f2b480aa 	movk	x10, #0xa405, lsl #16
   87748:	f2d21868 	movk	x8, #0x90c3, lsl #32
   8774c:	f2c47f4a 	movk	x10, #0x23fa, lsl #32
   87750:	f2f19368 	movk	x8, #0x8c9b, lsl #48
   87754:	f2f1aeaa 	movk	x10, #0x8d75, lsl #48
   87758:	eb08001f 	cmp	x0, x8
   8775c:	d292bba6 	mov	x6, #0x95dd                	// #38365
   87760:	fa4a1004 	ccmp	x0, x10, #0x4, ne	// ne = any
   87764:	f2b9a846 	movk	x6, #0xcd42, lsl #16
   87768:	a97827aa 	ldp	x10, x9, [x29, #-128]
   8776c:	f2cef4e6 	movk	x6, #0x77a7, lsl #32
   87770:	2a1b03eb 	mov	w11, w27
   87774:	2a1403ec 	mov	w12, w20
   87778:	aa1a03ed 	mov	x13, x26
   8777c:	aa1c03ee 	mov	x14, x28
   87780:	aa1503ef 	mov	x15, x21
   87784:	aa1603f0 	mov	x16, x22
   87788:	aa1903f1 	mov	x17, x25
   8778c:	f85903a2 	ldur	x2, [x29, #-112]
   87790:	aa1e03e5 	mov	x5, x30
   87794:	f85783a4 	ldur	x4, [x29, #-136]
   87798:	f2fedce6 	movk	x6, #0xf6e7, lsl #48
   8779c:	a93a4fb8 	stp	x24, x19, [x29, #-96]
   877a0:	f81983b7 	stur	x23, [x29, #-104]
   877a4:	54ffeb60 	b.eq	87510 <Java_com_adjust_sdk_sig_NativeLibHelper_nOnResume@@Base-0x4457c>  // b.none
   877a8:	d295fba8 	mov	x8, #0xafdd                	// #45021
   877ac:	f2b302a8 	movk	x8, #0x9815, lsl #16
   877b0:	f2c3b228 	movk	x8, #0x1d91, lsl #32
   877b4:	f2f1e0a8 	movk	x8, #0x8f05, lsl #48
   877b8:	eb08001f 	cmp	x0, x8
   877bc:	5403d960 	b.eq	8f2e8 <Java_com_adjust_sdk_sig_NativeLibHelper_nOnResume@@Base-0x3c7a4>  // b.none
   877c0:	d293e268 	mov	x8, #0x9f13                	// #40723
   877c4:	f2a6f388 	movk	x8, #0x379c, lsl #16
   877c8:	f2ddcac8 	movk	x8, #0xee56, lsl #32
   877cc:	f2f1e1e8 	movk	x8, #0x8f0f, lsl #48
   877d0:	eb08001f 	cmp	x0, x8
   877d4:	540180a0 	b.eq	8a7e8 <Java_com_adjust_sdk_sig_NativeLibHelper_nOnResume@@Base-0x412a4>  // b.none
   877d8:	d28f50a8 	mov	x8, #0x7a85                	// #31365
   877dc:	f2b42108 	movk	x8, #0xa108, lsl #16
   877e0:	f2c1f5e8 	movk	x8, #0xfaf, lsl #32
   877e4:	f2f1e2c8 	movk	x8, #0x8f16, lsl #48
   877e8:	eb08001f 	cmp	x0, x8
   877ec:	5401c7a0 	b.eq	8b0e0 <Java_com_adjust_sdk_sig_NativeLibHelper_nOnResume@@Base-0x409ac>  // b.none
   877f0:	a9780fa1 	ldp	x1, x3, [x29, #-128]
   877f4:	d288ea46 	mov	x6, #0x4752                	// #18258
   877f8:	d295b267 	mov	x7, #0xad93                	// #44435
   877fc:	f85783a8 	ldur	x8, [x29, #-136]
   87800:	f2a75ec6 	movk	x6, #0x3af6, lsl #16
   87804:	f2dff186 	movk	x6, #0xff8c, lsl #32
   87808:	f2a0d627 	movk	x7, #0x6b1, lsl #16
   8780c:	2a1b03eb 	mov	w11, w27
   87810:	2a1403ec 	mov	w12, w20
   87814:	aa1a03ed 	mov	x13, x26
   87818:	aa1c03ee 	mov	x14, x28
   8781c:	aa1503ef 	mov	x15, x21
   87820:	aa1603f0 	mov	x16, x22
   87824:	aa1903f1 	mov	x17, x25
   87828:	aa0103ea 	mov	x10, x1
   8782c:	f85903a2 	ldur	x2, [x29, #-112]
   87830:	aa0303e9 	mov	x9, x3
   87834:	aa0803e4 	mov	x4, x8
   87838:	aa1e03e5 	mov	x5, x30
   8783c:	f2fd7f26 	movk	x6, #0xebf9, lsl #48
   87840:	f2d9d8a7 	movk	x7, #0xcec5, lsl #32
   87844:	f2f22407 	movk	x7, #0x9120, lsl #48
   87848:	a93a4fb8 	stp	x24, x19, [x29, #-96]
   8784c:	eb07001f 	cmp	x0, x7
   87850:	f81983b7 	stur	x23, [x29, #-104]
   87854:	54ffe5e0 	b.eq	87510 <Java_com_adjust_sdk_sig_NativeLibHelper_nOnResume@@Base-0x4457c>  // b.none
   87858:	d28f0806 	mov	x6, #0x7840                	// #30784
   8785c:	d29f7ac7 	mov	x7, #0xfbd6                	// #64470
   87860:	f2ac48c6 	movk	x6, #0x6246, lsl #16
   87864:	f2ae10a7 	movk	x7, #0x7085, lsl #16
   87868:	f2decec6 	movk	x6, #0xf676, lsl #32
   8786c:	2a1b03eb 	mov	w11, w27
   87870:	2a1403ec 	mov	w12, w20
   87874:	aa1a03ed 	mov	x13, x26
   87878:	aa1c03ee 	mov	x14, x28
   8787c:	aa1503ef 	mov	x15, x21
   87880:	aa1603f0 	mov	x16, x22
   87884:	aa1903f1 	mov	x17, x25
   87888:	aa0103ea 	mov	x10, x1
   8788c:	f85903a2 	ldur	x2, [x29, #-112]
   87890:	aa0303e9 	mov	x9, x3
   87894:	aa0803e4 	mov	x4, x8
   87898:	aa1e03e5 	mov	x5, x30
   8789c:	f2e1f806 	movk	x6, #0xfc0, lsl #48
   878a0:	f2dd77e7 	movk	x7, #0xebbf, lsl #32
   878a4:	a93a4fb8 	stp	x24, x19, [x29, #-96]
   878a8:	f2f242a7 	movk	x7, #0x9215, lsl #48
   878ac:	f81983b7 	stur	x23, [x29, #-104]
   878b0:	eb07001f 	cmp	x0, x7
   878b4:	54ffe2e0 	b.eq	87510 <Java_com_adjust_sdk_sig_NativeLibHelper_nOnResume@@Base-0x4457c>  // b.none
   878b8:	d298f646 	mov	x6, #0xc7b2                	// #51122
   878bc:	d2984be7 	mov	x7, #0xc25f                	// #49759
   878c0:	f2a52546 	movk	x6, #0x292a, lsl #16
   878c4:	f2b3e467 	movk	x7, #0x9f23, lsl #16
   878c8:	f2c8b066 	movk	x6, #0x4583, lsl #32
   878cc:	2a1b03eb 	mov	w11, w27
   878d0:	2a1403ec 	mov	w12, w20
   878d4:	aa1a03ed 	mov	x13, x26
   878d8:	aa1c03ee 	mov	x14, x28
   878dc:	aa1503ef 	mov	x15, x21
   878e0:	aa1603f0 	mov	x16, x22
   878e4:	aa1903f1 	mov	x17, x25
   878e8:	aa0103ea 	mov	x10, x1
   878ec:	f85903a2 	ldur	x2, [x29, #-112]
   878f0:	aa0303e9 	mov	x9, x3
   878f4:	aa0803e4 	mov	x4, x8
   878f8:	aa1e03e5 	mov	x5, x30
   878fc:	f2f4f226 	movk	x6, #0xa791, lsl #48
   87900:	f2defec7 	movk	x7, #0xf7f6, lsl #32
   87904:	a93a4fb8 	stp	x24, x19, [x29, #-96]
   87908:	f2f244c7 	movk	x7, #0x9226, lsl #48
   8790c:	f81983b7 	stur	x23, [x29, #-104]
   87910:	eb07001f 	cmp	x0, x7
   87914:	54ffdfe0 	b.eq	87510 <Java_com_adjust_sdk_sig_NativeLibHelper_nOnResume@@Base-0x4457c>  // b.none
   87918:	d29ef866 	mov	x6, #0xf7c3                	// #63427
   8791c:	d2804947 	mov	x7, #0x24a                 	// #586
   87920:	f2bd0e46 	movk	x6, #0xe872, lsl #16
   87924:	f2b7a047 	movk	x7, #0xbd02, lsl #16
   87928:	f2cbc466 	movk	x6, #0x5e23, lsl #32
   8792c:	2a1b03eb 	mov	w11, w27
   87930:	2a1403ec 	mov	w12, w20
   87934:	aa1a03ed 	mov	x13, x26
   87938:	f85603ae 	ldur	x14, [x29, #-160]
   8793c:	aa1503ef 	mov	x15, x21
   87940:	aa1603f0 	mov	x16, x22
   87944:	aa1903f1 	mov	x17, x25
   87948:	aa0103ea 	mov	x10, x1
   8794c:	f85903a2 	ldur	x2, [x29, #-112]
   87950:	aa0303e9 	mov	x9, x3
   87954:	aa0803e4 	mov	x4, x8
   87958:	aa1e03e5 	mov	x5, x30
   8795c:	f2fd3b86 	movk	x6, #0xe9dc, lsl #48
   87960:	f2c830c7 	movk	x7, #0x4186, lsl #32
   87964:	a93a4fb8 	stp	x24, x19, [x29, #-96]
   87968:	f2f24ca7 	movk	x7, #0x9265, lsl #48
   8796c:	f81983b7 	stur	x23, [x29, #-104]
   87970:	eb07001f 	cmp	x0, x7
   87974:	54ffdce0 	b.eq	87510 <Java_com_adjust_sdk_sig_NativeLibHelper_nOnResume@@Base-0x4457c>  // b.none
   87978:	d286c728 	mov	x8, #0x3639                	// #13881
   8797c:	f2ab5148 	movk	x8, #0x5a8a, lsl #16
   87980:	f2ce37c8 	movk	x8, #0x71be, lsl #32
   87984:	f2f26468 	movk	x8, #0x9323, lsl #48
   87988:	eb08001f 	cmp	x0, x8
   8798c:	5403d940 	b.eq	8f4b4 <Java_com_adjust_sdk_sig_NativeLibHelper_nOnResume@@Base-0x3c5d8>  // b.none
   87990:	d28e24c8 	mov	x8, #0x7126                	// #28966
   87994:	f2abfb48 	movk	x8, #0x5fda, lsl #16
   87998:	f2cab988 	movk	x8, #0x55cc, lsl #32
   8799c:	f2f2a728 	movk	x8, #0x9539, lsl #48
   879a0:	eb08001f 	cmp	x0, x8
   879a4:	54019b60 	b.eq	8ad10 <Java_com_adjust_sdk_sig_NativeLibHelper_nOnResume@@Base-0x40d7c>  // b.none
   879a8:	d28f63e8 	mov	x8, #0x7b1f                	// #31519
   879ac:	f2a42be8 	movk	x8, #0x215f, lsl #16
   879b0:	f2dc0108 	movk	x8, #0xe008, lsl #32
   879b4:	f2f2cd48 	movk	x8, #0x966a, lsl #48
   879b8:	eb08001f 	cmp	x0, x8
   879bc:	5403cd00 	b.eq	8f35c <Java_com_adjust_sdk_sig_NativeLibHelper_nOnResume@@Base-0x3c730>  // b.none
   879c0:	d28b3ce8 	mov	x8, #0x59e7                	// #23015
   879c4:	f2b3e808 	movk	x8, #0x9f40, lsl #16
   879c8:	f2da07a8 	movk	x8, #0xd03d, lsl #32
   879cc:	f2f2dd68 	movk	x8, #0x96eb, lsl #48
   879d0:	eb08001f 	cmp	x0, x8
   879d4:	54033b60 	b.eq	8e140 <Java_com_adjust_sdk_sig_NativeLibHelper_nOnResume@@Base-0x3d94c>  // b.none
   879d8:	d2803588 	mov	x8, #0x1ac                 	// #428
   879dc:	f2a52268 	movk	x8, #0x2913, lsl #16
   879e0:	f2d0b528 	movk	x8, #0x85a9, lsl #32
   879e4:	f2f2e228 	movk	x8, #0x9711, lsl #48
   879e8:	eb08001f 	cmp	x0, x8
   879ec:	5403a840 	b.eq	8eef4 <Java_com_adjust_sdk_sig_NativeLibHelper_nOnResume@@Base-0x3cb98>  // b.none
   879f0:	d28b9688 	mov	x8, #0x5cb4                	// #23732
   879f4:	f85703be 	ldur	x30, [x29, #-144]
   879f8:	f2b90a68 	movk	x8, #0xc853, lsl #16
   879fc:	f85883a5 	ldur	x5, [x29, #-120]
   87a00:	f2d844a8 	movk	x8, #0xc225, lsl #32
   87a04:	f2f2e9e8 	movk	x8, #0x974f, lsl #48
   87a08:	eb08001f 	cmp	x0, x8
   87a0c:	540183c0 	b.eq	8aa84 <Java_com_adjust_sdk_sig_NativeLibHelper_nOnResume@@Base-0x41008>  // b.none
   87a10:	d28ad148 	mov	x8, #0x568a                	// #22154
   87a14:	f2ae8de8 	movk	x8, #0x746f, lsl #16
   87a18:	f2c46a08 	movk	x8, #0x2350, lsl #32
   87a1c:	f2f2f868 	movk	x8, #0x97c3, lsl #48
   87a20:	eb08001f 	cmp	x0, x8
   87a24:	540286e0 	b.eq	8cb00 <Java_com_adjust_sdk_sig_NativeLibHelper_nOnResume@@Base-0x3ef8c>  // b.none
   87a28:	d29dfe28 	mov	x8, #0xeff1                	// #61425
   87a2c:	f2b6a328 	movk	x8, #0xb519, lsl #16
   87a30:	f2d6ad28 	movk	x8, #0xb569, lsl #32
   87a34:	f2f329a8 	movk	x8, #0x994d, lsl #48
   87a38:	eb08001f 	cmp	x0, x8
   87a3c:	5402e6e0 	b.eq	8d718 <Java_com_adjust_sdk_sig_NativeLibHelper_nOnResume@@Base-0x3e374>  // b.none
   87a40:	d2851108 	mov	x8, #0x2888                	// #10376
   87a44:	f2b43448 	movk	x8, #0xa1a2, lsl #16
   87a48:	f2c40f48 	movk	x8, #0x207a, lsl #32
   87a4c:	f2f33048 	movk	x8, #0x9982, lsl #48
   87a50:	eb08001f 	cmp	x0, x8
   87a54:	f85783a8 	ldur	x8, [x29, #-136]
   87a58:	540179e0 	b.eq	8a994 <Java_com_adjust_sdk_sig_NativeLibHelper_nOnResume@@Base-0x410f8>  // b.none
   87a5c:	f85803a1 	ldur	x1, [x29, #-128]
   87a60:	d29359c6 	mov	x6, #0x9ace                	// #39630
   87a64:	f2b3ee66 	movk	x6, #0x9f73, lsl #16
   87a68:	d290aea7 	mov	x7, #0x8575                	// #34165
   87a6c:	f2d2e566 	movk	x6, #0x972b, lsl #32
   87a70:	f2ab5dc7 	movk	x7, #0x5aee, lsl #16
   87a74:	2a1b03eb 	mov	w11, w27
   87a78:	2a1403ec 	mov	w12, w20
   87a7c:	aa1a03ed 	mov	x13, x26
   87a80:	aa1c03ee 	mov	x14, x28
   87a84:	aa1503ef 	mov	x15, x21
   87a88:	aa1603f0 	mov	x16, x22
   87a8c:	aa1903f1 	mov	x17, x25
   87a90:	aa0103ea 	mov	x10, x1
   87a94:	f85903a2 	ldur	x2, [x29, #-112]
   87a98:	aa0503e9 	mov	x9, x5
   87a9c:	aa0803e4 	mov	x4, x8
   87aa0:	aa0503e3 	mov	x3, x5
   87aa4:	aa1e03e5 	mov	x5, x30
   87aa8:	f2ef7926 	movk	x6, #0x7bc9, lsl #48
   87aac:	f2c09ce7 	movk	x7, #0x4e7, lsl #32
   87ab0:	a93a4fb8 	stp	x24, x19, [x29, #-96]
   87ab4:	f2f34727 	movk	x7, #0x9a39, lsl #48
   87ab8:	f81983b7 	stur	x23, [x29, #-104]
   87abc:	eb07001f 	cmp	x0, x7
   87ac0:	54ffd280 	b.eq	87510 <Java_com_adjust_sdk_sig_NativeLibHelper_nOnResume@@Base-0x4457c>  // b.none
   87ac4:	d2803b06 	mov	x6, #0x1d8                 	// #472
   87ac8:	d28e7aa7 	mov	x7, #0x73d5                	// #29653
   87acc:	f2a35f06 	movk	x6, #0x1af8, lsl #16
   87ad0:	f2a1a9e7 	movk	x7, #0xd4f, lsl #16
   87ad4:	f2dfc506 	movk	x6, #0xfe28, lsl #32
   87ad8:	2a1b03eb 	mov	w11, w27
   87adc:	2a1403ec 	mov	w12, w20
   87ae0:	aa1a03ed 	mov	x13, x26
   87ae4:	aa1c03ee 	mov	x14, x28
   87ae8:	aa1503ef 	mov	x15, x21
   87aec:	aa1603f0 	mov	x16, x22
   87af0:	aa1903f1 	mov	x17, x25
   87af4:	aa0103ea 	mov	x10, x1
   87af8:	f85903a2 	ldur	x2, [x29, #-112]
   87afc:	aa0303e9 	mov	x9, x3
   87b00:	aa0803e4 	mov	x4, x8
   87b04:	aa1e03e5 	mov	x5, x30
   87b08:	f2f6c606 	movk	x6, #0xb630, lsl #48
   87b0c:	f2c98387 	movk	x7, #0x4c1c, lsl #32
   87b10:	a93a4fb8 	stp	x24, x19, [x29, #-96]
   87b14:	f2f368e7 	movk	x7, #0x9b47, lsl #48
   87b18:	f81983b7 	stur	x23, [x29, #-104]
   87b1c:	eb07001f 	cmp	x0, x7
   87b20:	54ffcf80 	b.eq	87510 <Java_com_adjust_sdk_sig_NativeLibHelper_nOnResume@@Base-0x4457c>  // b.none
   87b24:	d2964ba8 	mov	x8, #0xb25d                	// #45661
   87b28:	f2a14928 	movk	x8, #0xa49, lsl #16
   87b2c:	f2cc8148 	movk	x8, #0x640a, lsl #32
   87b30:	f2f36988 	movk	x8, #0x9b4c, lsl #48
   87b34:	eb08001f 	cmp	x0, x8
   87b38:	5403b7a0 	b.eq	8f22c <Java_com_adjust_sdk_sig_NativeLibHelper_nOnResume@@Base-0x3c860>  // b.none
   87b3c:	d2954b68 	mov	x8, #0xaa5b                	// #43611
   87b40:	f2a63828 	movk	x8, #0x31c1, lsl #16
   87b44:	f2c69728 	movk	x8, #0x34b9, lsl #32
   87b48:	f2f37708 	movk	x8, #0x9bb8, lsl #48
   87b4c:	eb08001f 	cmp	x0, x8
   87b50:	540318e0 	b.eq	8de6c <Java_com_adjust_sdk_sig_NativeLibHelper_nOnResume@@Base-0x3dc20>  // b.none
   87b54:	d293e266 	mov	x6, #0x9f13                	// #40723
   87b58:	d294d9c7 	mov	x7, #0xa6ce                	// #42702
   87b5c:	a97827aa 	ldp	x10, x9, [x29, #-128]
   87b60:	f2a6f386 	movk	x6, #0x379c, lsl #16
   87b64:	f2bd53e7 	movk	x7, #0xea9f, lsl #16
   87b68:	f2ddcac6 	movk	x6, #0xee56, lsl #32
   87b6c:	2a1b03eb 	mov	w11, w27
   87b70:	2a1403ec 	mov	w12, w20
   87b74:	aa1a03ed 	mov	x13, x26
   87b78:	aa1c03ee 	mov	x14, x28
   87b7c:	aa1503ef 	mov	x15, x21
   87b80:	aa1603f0 	mov	x16, x22
   87b84:	aa1903f1 	mov	x17, x25
   87b88:	f85903a2 	ldur	x2, [x29, #-112]
   87b8c:	aa1e03e5 	mov	x5, x30
   87b90:	f85783a4 	ldur	x4, [x29, #-136]
   87b94:	f2f1e1e6 	movk	x6, #0x8f0f, lsl #48
   87b98:	f2d81de7 	movk	x7, #0xc0ef, lsl #32
   87b9c:	a93a4fb8 	stp	x24, x19, [x29, #-96]
   87ba0:	f2f37947 	movk	x7, #0x9bca, lsl #48
   87ba4:	f81983b7 	stur	x23, [x29, #-104]
   87ba8:	eb07001f 	cmp	x0, x7
   87bac:	54ffcb20 	b.eq	87510 <Java_com_adjust_sdk_sig_NativeLibHelper_nOnResume@@Base-0x4457c>  // b.none
   87bb0:	d2836708 	mov	x8, #0x1b38                	// #6968
   87bb4:	f2a613c8 	movk	x8, #0x309e, lsl #16
   87bb8:	f2dc7848 	movk	x8, #0xe3c2, lsl #32
   87bbc:	f2f38048 	movk	x8, #0x9c02, lsl #48
   87bc0:	eb08001f 	cmp	x0, x8
   87bc4:	540365c0 	b.eq	8e87c <Java_com_adjust_sdk_sig_NativeLibHelper_nOnResume@@Base-0x3d210>  // b.none
   87bc8:	d28754c6 	mov	x6, #0x3aa6                	// #15014
   87bcc:	d28c2687 	mov	x7, #0x6134                	// #24884
   87bd0:	a97827aa 	ldp	x10, x9, [x29, #-128]
   87bd4:	f2af4886 	movk	x6, #0x7a44, lsl #16
   87bd8:	f2b86a87 	movk	x7, #0xc354, lsl #16
   87bdc:	f2dd4366 	movk	x6, #0xea1b, lsl #32
   87be0:	2a1b03eb 	mov	w11, w27
   87be4:	2a1403ec 	mov	w12, w20
   87be8:	aa1a03ed 	mov	x13, x26
   87bec:	aa1c03ee 	mov	x14, x28
   87bf0:	aa1503ef 	mov	x15, x21
   87bf4:	aa1603f0 	mov	x16, x22
   87bf8:	aa1903f1 	mov	x17, x25
   87bfc:	f85903a2 	ldur	x2, [x29, #-112]
   87c00:	aa1e03e5 	mov	x5, x30
   87c04:	f85783a4 	ldur	x4, [x29, #-136]
   87c08:	f2e15a06 	movk	x6, #0xad0, lsl #48
   87c0c:	f2d0dc67 	movk	x7, #0x86e3, lsl #32
   87c10:	a93a4fb8 	stp	x24, x19, [x29, #-96]
   87c14:	f2f38f07 	movk	x7, #0x9c78, lsl #48
   87c18:	f81983b7 	stur	x23, [x29, #-104]
   87c1c:	eb07001f 	cmp	x0, x7
   87c20:	54ffc780 	b.eq	87510 <Java_com_adjust_sdk_sig_NativeLibHelper_nOnResume@@Base-0x4457c>  // b.none
   87c24:	d28ff968 	mov	x8, #0x7fcb                	// #32715
   87c28:	f2b1ab48 	movk	x8, #0x8d5a, lsl #16
   87c2c:	f2c72c88 	movk	x8, #0x3964, lsl #32
   87c30:	f2f3b5e8 	movk	x8, #0x9daf, lsl #48
   87c34:	eb08001f 	cmp	x0, x8
   87c38:	540270c0 	b.eq	8ca50 <Java_com_adjust_sdk_sig_NativeLibHelper_nOnResume@@Base-0x3f03c>  // b.none
   87c3c:	d28c2288 	mov	x8, #0x6114                	// #24852
   87c40:	f2b2f548 	movk	x8, #0x97aa, lsl #16
   87c44:	f2d04068 	movk	x8, #0x8203, lsl #32
   87c48:	f2f453c8 	movk	x8, #0xa29e, lsl #48
   87c4c:	eb08001f 	cmp	x0, x8
   87c50:	54032140 	b.eq	8e078 <Java_com_adjust_sdk_sig_NativeLibHelper_nOnResume@@Base-0x3da14>  // b.none
   87c54:	d29fae28 	mov	x8, #0xfd71                	// #64881
   87c58:	f85883a9 	ldur	x9, [x29, #-120]
   87c5c:	a9778fa4 	ldp	x4, x3, [x29, #-136]
   87c60:	f2b0b048 	movk	x8, #0x8582, lsl #16
   87c64:	f2cba6a8 	movk	x8, #0x5d35, lsl #32
   87c68:	f2f470a8 	movk	x8, #0xa385, lsl #48
   87c6c:	eb08001f 	cmp	x0, x8
   87c70:	5402f220 	b.eq	8dab4 <Java_com_adjust_sdk_sig_NativeLibHelper_nOnResume@@Base-0x3dfd8>  // b.none
   87c74:	d28617c8 	mov	x8, #0x30be                	// #12478
   87c78:	f2a179e8 	movk	x8, #0xbcf, lsl #16
   87c7c:	f2d84fe8 	movk	x8, #0xc27f, lsl #32
   87c80:	f2f47ee8 	movk	x8, #0xa3f7, lsl #48
   87c84:	eb08001f 	cmp	x0, x8
   87c88:	54015d20 	b.eq	8a82c <Java_com_adjust_sdk_sig_NativeLibHelper_nOnResume@@Base-0x41260>  // b.none
   87c8c:	d29f5328 	mov	x8, #0xfa99                	// #64153
   87c90:	f2bfbf48 	movk	x8, #0xfdfa, lsl #16
   87c94:	f2c46188 	movk	x8, #0x230c, lsl #32
   87c98:	f2f48f88 	movk	x8, #0xa47c, lsl #48
   87c9c:	eb08001f 	cmp	x0, x8
   87ca0:	540377c0 	b.eq	8eb98 <Java_com_adjust_sdk_sig_NativeLibHelper_nOnResume@@Base-0x3cef4>  // b.none
   87ca4:	d28b9d08 	mov	x8, #0x5ce8                	// #23784
   87ca8:	f2bd7b28 	movk	x8, #0xebd9, lsl #16
   87cac:	f2c06e08 	movk	x8, #0x370, lsl #32
   87cb0:	f2f4ea68 	movk	x8, #0xa753, lsl #48
   87cb4:	eb08001f 	cmp	x0, x8
   87cb8:	540211e0 	b.eq	8bef4 <Java_com_adjust_sdk_sig_NativeLibHelper_nOnResume@@Base-0x3fb98>  // b.none
   87cbc:	d298f648 	mov	x8, #0xc7b2                	// #51122
   87cc0:	f2a52548 	movk	x8, #0x292a, lsl #16
   87cc4:	f2c8b068 	movk	x8, #0x4583, lsl #32
   87cc8:	f2f4f228 	movk	x8, #0xa791, lsl #48
   87ccc:	eb08001f 	cmp	x0, x8
   87cd0:	540162e0 	b.eq	8a92c <Java_com_adjust_sdk_sig_NativeLibHelper_nOnResume@@Base-0x41160>  // b.none
   87cd4:	d2946bc8 	mov	x8, #0xa35e                	// #41822
   87cd8:	f2a28988 	movk	x8, #0x144c, lsl #16
   87cdc:	f2c5b5a8 	movk	x8, #0x2dad, lsl #32
   87ce0:	f2f50488 	movk	x8, #0xa824, lsl #48
   87ce4:	eb08001f 	cmp	x0, x8
   87ce8:	54035a00 	b.eq	8e828 <Java_com_adjust_sdk_sig_NativeLibHelper_nOnResume@@Base-0x3d264>  // b.none
   87cec:	d28dd4e6 	mov	x6, #0x6ea7                	// #28327
   87cf0:	d2848b27 	mov	x7, #0x2459                	// #9305
   87cf4:	f2b256a6 	movk	x6, #0x92b5, lsl #16
   87cf8:	f2bfd507 	movk	x7, #0xfea8, lsl #16
   87cfc:	f2cb5a26 	movk	x6, #0x5ad1, lsl #32
   87d00:	2a1b03eb 	mov	w11, w27
   87d04:	2a1403ec 	mov	w12, w20
   87d08:	aa1a03ed 	mov	x13, x26
   87d0c:	aa1c03ee 	mov	x14, x28
   87d10:	aa1503ef 	mov	x15, x21
   87d14:	aa1603f0 	mov	x16, x22
   87d18:	aa1903f1 	mov	x17, x25
   87d1c:	aa0303ea 	mov	x10, x3
   87d20:	f85903a2 	ldur	x2, [x29, #-112]
   87d24:	aa1e03e5 	mov	x5, x30
   87d28:	f2fc3d46 	movk	x6, #0xe1ea, lsl #48
   87d2c:	f2cac467 	movk	x7, #0x5623, lsl #32
   87d30:	a93a4fb8 	stp	x24, x19, [x29, #-96]
   87d34:	f2f50627 	movk	x7, #0xa831, lsl #48
   87d38:	f81983b7 	stur	x23, [x29, #-104]
   87d3c:	eb07001f 	cmp	x0, x7
   87d40:	54ffbe80 	b.eq	87510 <Java_com_adjust_sdk_sig_NativeLibHelper_nOnResume@@Base-0x4457c>  // b.none
   87d44:	d29a8528 	mov	x8, #0xd429                	// #54313
   87d48:	f2b47948 	movk	x8, #0xa3ca, lsl #16
   87d4c:	f2ca9a28 	movk	x8, #0x54d1, lsl #32
   87d50:	f2f524e8 	movk	x8, #0xa927, lsl #48
   87d54:	eb08001f 	cmp	x0, x8
   87d58:	54039e40 	b.eq	8f120 <Java_com_adjust_sdk_sig_NativeLibHelper_nOnResume@@Base-0x3c96c>  // b.none
   87d5c:	d28c3288 	mov	x8, #0x6194                	// #24980
   87d60:	a9780faa 	ldp	x10, x3, [x29, #-128]
   87d64:	f2a4d128 	movk	x8, #0x2689, lsl #16
   87d68:	f2d62668 	movk	x8, #0xb133, lsl #32
   87d6c:	f2f53068 	movk	x8, #0xa983, lsl #48
   87d70:	eb08001f 	cmp	x0, x8
   87d74:	5403a8c0 	b.eq	8f28c <Java_com_adjust_sdk_sig_NativeLibHelper_nOnResume@@Base-0x3c800>  // b.none
   87d78:	d287b926 	mov	x6, #0x3dc9                	// #15817
   87d7c:	d299a227 	mov	x7, #0xcd11                	// #52497
   87d80:	f2a55f26 	movk	x6, #0x2af9, lsl #16
   87d84:	f2ba1327 	movk	x7, #0xd099, lsl #16
   87d88:	f2c88066 	movk	x6, #0x4403, lsl #32
   87d8c:	2a1b03eb 	mov	w11, w27
   87d90:	2a1403ec 	mov	w12, w20
   87d94:	aa1a03ed 	mov	x13, x26
   87d98:	aa1c03ee 	mov	x14, x28
   87d9c:	aa1503ef 	mov	x15, x21
   87da0:	aa1603f0 	mov	x16, x22
   87da4:	aa1903f1 	mov	x17, x25
   87da8:	f85903a2 	ldur	x2, [x29, #-112]
   87dac:	aa0303e9 	mov	x9, x3
   87db0:	f85783a4 	ldur	x4, [x29, #-136]
   87db4:	aa1e03e5 	mov	x5, x30
   87db8:	f2e40de6 	movk	x6, #0x206f, lsl #48
   87dbc:	f2c8b5a7 	movk	x7, #0x45ad, lsl #32
   87dc0:	f2f552e7 	movk	x7, #0xaa97, lsl #48
   87dc4:	a93a4fb8 	stp	x24, x19, [x29, #-96]
   87dc8:	eb07001f 	cmp	x0, x7
   87dcc:	f81983b7 	stur	x23, [x29, #-104]
   87dd0:	54ffba00 	b.eq	87510 <Java_com_adjust_sdk_sig_NativeLibHelper_nOnResume@@Base-0x4457c>  // b.none
   87dd4:	d28bd728 	mov	x8, #0x5eb9                	// #24249
   87dd8:	f2a1c8a8 	movk	x8, #0xe45, lsl #16
   87ddc:	f2d6c4a8 	movk	x8, #0xb625, lsl #32
   87de0:	f2f58e88 	movk	x8, #0xac74, lsl #48
   87de4:	eb08001f 	cmp	x0, x8
   87de8:	54037500 	b.eq	8ec88 <Java_com_adjust_sdk_sig_NativeLibHelper_nOnResume@@Base-0x3ce04>  // b.none
   87dec:	d28d9326 	mov	x6, #0x6c99                	// #27801
   87df0:	d2940ce7 	mov	x7, #0xa067                	// #41063
   87df4:	a97827aa 	ldp	x10, x9, [x29, #-128]
   87df8:	f2a21506 	movk	x6, #0x10a8, lsl #16
   87dfc:	f2b6bd07 	movk	x7, #0xb5e8, lsl #16
   87e00:	f2cc6d06 	movk	x6, #0x6368, lsl #32
   87e04:	2a1b03eb 	mov	w11, w27
   87e08:	b855c3ac 	ldur	w12, [x29, #-164]
   87e0c:	aa1a03ed 	mov	x13, x26
   87e10:	aa1c03ee 	mov	x14, x28
   87e14:	aa1503ef 	mov	x15, x21
   87e18:	aa1603f0 	mov	x16, x22
   87e1c:	aa1903f1 	mov	x17, x25
   87e20:	f85903a2 	ldur	x2, [x29, #-112]
   87e24:	aa1e03e5 	mov	x5, x30
   87e28:	f85783a4 	ldur	x4, [x29, #-136]
   87e2c:	f2e74366 	movk	x6, #0x3a1b, lsl #48
   87e30:	f2d7c0a7 	movk	x7, #0xbe05, lsl #32
   87e34:	a93a4fb8 	stp	x24, x19, [x29, #-96]
   87e38:	f2f59067 	movk	x7, #0xac83, lsl #48
   87e3c:	f81983b7 	stur	x23, [x29, #-104]
   87e40:	eb07001f 	cmp	x0, x7
   87e44:	54ffb660 	b.eq	87510 <Java_com_adjust_sdk_sig_NativeLibHelper_nOnResume@@Base-0x4457c>  // b.none
   87e48:	d2822d28 	mov	x8, #0x1169                	// #4457
   87e4c:	f2bf1028 	movk	x8, #0xf881, lsl #16
   87e50:	f2d8ee48 	movk	x8, #0xc772, lsl #32
   87e54:	f2f5e208 	movk	x8, #0xaf10, lsl #48
   87e58:	eb08001f 	cmp	x0, x8
   87e5c:	540320a0 	b.eq	8e270 <Java_com_adjust_sdk_sig_NativeLibHelper_nOnResume@@Base-0x3d81c>  // b.none
   87e60:	d29d21a6 	mov	x6, #0xe90d                	// #59661
   87e64:	d2920287 	mov	x7, #0x9014                	// #36884
   87e68:	a97827aa 	ldp	x10, x9, [x29, #-128]
   87e6c:	f2aea626 	movk	x6, #0x7531, lsl #16
   87e70:	f2b963a7 	movk	x7, #0xcb1d, lsl #16
   87e74:	f2da3a26 	movk	x6, #0xd1d1, lsl #32
   87e78:	2a1b03eb 	mov	w11, w27
   87e7c:	2a1403ec 	mov	w12, w20
   87e80:	aa1a03ed 	mov	x13, x26
   87e84:	aa1c03ee 	mov	x14, x28
   87e88:	aa1503ef 	mov	x15, x21
   87e8c:	aa1603f0 	mov	x16, x22
   87e90:	aa1903f1 	mov	x17, x25
   87e94:	f85903a2 	ldur	x2, [x29, #-112]
   87e98:	aa1e03e5 	mov	x5, x30
   87e9c:	f85783a4 	ldur	x4, [x29, #-136]
   87ea0:	f2e21d06 	movk	x6, #0x10e8, lsl #48
   87ea4:	f2cb1e47 	movk	x7, #0x58f2, lsl #32
   87ea8:	a93a4fb8 	stp	x24, x19, [x29, #-96]
   87eac:	f2f5fd87 	movk	x7, #0xafec, lsl #48
   87eb0:	f81983b7 	stur	x23, [x29, #-104]
   87eb4:	eb07001f 	cmp	x0, x7
   87eb8:	54ffb2c0 	b.eq	87510 <Java_com_adjust_sdk_sig_NativeLibHelper_nOnResume@@Base-0x4457c>  // b.none
   87ebc:	d2960988 	mov	x8, #0xb04c                	// #45132
   87ec0:	f2b83468 	movk	x8, #0xc1a3, lsl #16
   87ec4:	f2c92148 	movk	x8, #0x490a, lsl #32
   87ec8:	f2f60bc8 	movk	x8, #0xb05e, lsl #48
   87ecc:	eb08001f 	cmp	x0, x8
   87ed0:	540169a0 	b.eq	8ac04 <Java_com_adjust_sdk_sig_NativeLibHelper_nOnResume@@Base-0x40e88>  // b.none
   87ed4:	d29ea848 	mov	x8, #0xf542                	// #62786
   87ed8:	f85883a3 	ldur	x3, [x29, #-120]
   87edc:	a977aba4 	ldp	x4, x10, [x29, #-136]
   87ee0:	f2ab7928 	movk	x8, #0x5bc9, lsl #16
   87ee4:	f2c78748 	movk	x8, #0x3c3a, lsl #32
   87ee8:	f2f639e8 	movk	x8, #0xb1cf, lsl #48
   87eec:	eb08001f 	cmp	x0, x8
   87ef0:	5401c440 	b.eq	8b778 <Java_com_adjust_sdk_sig_NativeLibHelper_nOnResume@@Base-0x40314>  // b.none
   87ef4:	d28db4a6 	mov	x6, #0x6da5                	// #28069
   87ef8:	d29e0fa7 	mov	x7, #0xf07d                	// #61565
   87efc:	f2a7e946 	movk	x6, #0x3f4a, lsl #16
   87f00:	f2bedfa7 	movk	x7, #0xf6fd, lsl #16
   87f04:	f2dbb7a6 	movk	x6, #0xddbd, lsl #32
   87f08:	2a1b03eb 	mov	w11, w27
   87f0c:	2a1403ec 	mov	w12, w20
   87f10:	aa1a03ed 	mov	x13, x26
   87f14:	aa1c03ee 	mov	x14, x28
   87f18:	aa1503ef 	mov	x15, x21
   87f1c:	aa1603f0 	mov	x16, x22
   87f20:	aa1903f1 	mov	x17, x25
   87f24:	f85903a2 	ldur	x2, [x29, #-112]
   87f28:	aa0303e9 	mov	x9, x3
   87f2c:	f85503a5 	ldur	x5, [x29, #-176]
   87f30:	f2fcee66 	movk	x6, #0xe773, lsl #48
   87f34:	f2cf2027 	movk	x7, #0x7901, lsl #32
   87f38:	a93a4fb8 	stp	x24, x19, [x29, #-96]
   87f3c:	f2f69227 	movk	x7, #0xb491, lsl #48
   87f40:	f81983b7 	stur	x23, [x29, #-104]
   87f44:	eb07001f 	cmp	x0, x7
   87f48:	54ffae40 	b.eq	87510 <Java_com_adjust_sdk_sig_NativeLibHelper_nOnResume@@Base-0x4457c>  // b.none
   87f4c:	d2803b08 	mov	x8, #0x1d8                 	// #472
   87f50:	f2a35f08 	movk	x8, #0x1af8, lsl #16
   87f54:	f2dfc508 	movk	x8, #0xfe28, lsl #32
   87f58:	f2f6c608 	movk	x8, #0xb630, lsl #48
   87f5c:	eb08001f 	cmp	x0, x8
   87f60:	54018060 	b.eq	8af6c <Java_com_adjust_sdk_sig_NativeLibHelper_nOnResume@@Base-0x40b20>  // b.none
   87f64:	d2991048 	mov	x8, #0xc882                	// #51330
   87f68:	f2af8f28 	movk	x8, #0x7c79, lsl #16
   87f6c:	f2d5f9c8 	movk	x8, #0xafce, lsl #32
   87f70:	f2f6fd48 	movk	x8, #0xb7ea, lsl #48
   87f74:	eb08001f 	cmp	x0, x8
   87f78:	5401b9e0 	b.eq	8b6b4 <Java_com_adjust_sdk_sig_NativeLibHelper_nOnResume@@Base-0x403d8>  // b.none
   87f7c:	d29d2c48 	mov	x8, #0xe962                	// #59746
   87f80:	f85883a3 	ldur	x3, [x29, #-120]
   87f84:	a97787a4 	ldp	x4, x1, [x29, #-136]
   87f88:	f2b6de08 	movk	x8, #0xb6f0, lsl #16
   87f8c:	f2c0bb28 	movk	x8, #0x5d9, lsl #32
   87f90:	f2f73068 	movk	x8, #0xb983, lsl #48
   87f94:	eb08001f 	cmp	x0, x8
   87f98:	5402a740 	b.eq	8d480 <Java_com_adjust_sdk_sig_NativeLibHelper_nOnResume@@Base-0x3e60c>  // b.none
   87f9c:	d28492c8 	mov	x8, #0x2496                	// #9366
   87fa0:	f2bdd588 	movk	x8, #0xeeac, lsl #16
   87fa4:	f2c63fc8 	movk	x8, #0x31fe, lsl #32
   87fa8:	f2f73ba8 	movk	x8, #0xb9dd, lsl #48
   87fac:	eb08001f 	cmp	x0, x8
   87fb0:	54016ea0 	b.eq	8ad84 <Java_com_adjust_sdk_sig_NativeLibHelper_nOnResume@@Base-0x40d08>  // b.none
   87fb4:	d2814ce6 	mov	x6, #0xa67                 	// #2663
   87fb8:	d28df4c7 	mov	x7, #0x6fa6                	// #28582
   87fbc:	f2bd9606 	movk	x6, #0xecb0, lsl #16
   87fc0:	f2bfdf27 	movk	x7, #0xfef9, lsl #16
   87fc4:	f2ca7e66 	movk	x6, #0x53f3, lsl #32
   87fc8:	2a1b03eb 	mov	w11, w27
   87fcc:	2a1403ec 	mov	w12, w20
   87fd0:	aa1a03ed 	mov	x13, x26
   87fd4:	aa1c03ee 	mov	x14, x28
   87fd8:	aa1503ef 	mov	x15, x21
   87fdc:	aa1603f0 	mov	x16, x22
   87fe0:	aa1903f1 	mov	x17, x25
   87fe4:	aa0103ea 	mov	x10, x1
   87fe8:	f85903a2 	ldur	x2, [x29, #-112]
   87fec:	aa0303e9 	mov	x9, x3
   87ff0:	aa1e03e5 	mov	x5, x30
   87ff4:	f2fb6a06 	movk	x6, #0xdb50, lsl #48
   87ff8:	f2dd3987 	movk	x7, #0xe9cc, lsl #32
   87ffc:	f2f73d67 	movk	x7, #0xb9eb, lsl #48
   88000:	a93a4fb8 	stp	x24, x19, [x29, #-96]
   88004:	eb07001f 	cmp	x0, x7
   88008:	f81983b7 	stur	x23, [x29, #-104]
   8800c:	54ffa820 	b.eq	87510 <Java_com_adjust_sdk_sig_NativeLibHelper_nOnResume@@Base-0x4457c>  // b.none
   88010:	d29f4a08 	mov	x8, #0xfa50                	// #64080
   88014:	f2b3cf28 	movk	x8, #0x9e79, lsl #16
   88018:	f2d0eac8 	movk	x8, #0x8756, lsl #32
   8801c:	f2f74ec8 	movk	x8, #0xba76, lsl #48
   88020:	eb08001f 	cmp	x0, x8
   88024:	54016380 	b.eq	8ac94 <Java_com_adjust_sdk_sig_NativeLibHelper_nOnResume@@Base-0x40df8>  // b.none
   88028:	a9780fa1 	ldp	x1, x3, [x29, #-128]
   8802c:	d28ff2a6 	mov	x6, #0x7f95                	// #32661
   88030:	d29f78c7 	mov	x7, #0xfbc6                	// #64454
   88034:	f85783a8 	ldur	x8, [x29, #-136]
   88038:	f2bc19e6 	movk	x6, #0xe0cf, lsl #16
   8803c:	f2d47ce6 	movk	x6, #0xa3e7, lsl #32
   88040:	f2b46f47 	movk	x7, #0xa37a, lsl #16
   88044:	2a1b03eb 	mov	w11, w27
   88048:	2a1403ec 	mov	w12, w20
   8804c:	aa1a03ed 	mov	x13, x26
   88050:	aa1c03ee 	mov	x14, x28
   88054:	aa1503ef 	mov	x15, x21
   88058:	aa1603f0 	mov	x16, x22
   8805c:	aa1903f1 	mov	x17, x25
   88060:	aa0103ea 	mov	x10, x1
   88064:	f85903a2 	ldur	x2, [x29, #-112]
   88068:	aa0303e9 	mov	x9, x3
   8806c:	aa0803e4 	mov	x4, x8
   88070:	aa1e03e5 	mov	x5, x30
   88074:	f2fa58a6 	movk	x6, #0xd2c5, lsl #48
   88078:	f2d47a67 	movk	x7, #0xa3d3, lsl #32
   8807c:	f2f75c47 	movk	x7, #0xbae2, lsl #48
   88080:	a93a4fb8 	stp	x24, x19, [x29, #-96]
   88084:	eb07001f 	cmp	x0, x7
   88088:	f81983b7 	stur	x23, [x29, #-104]
   8808c:	54ffa420 	b.eq	87510 <Java_com_adjust_sdk_sig_NativeLibHelper_nOnResume@@Base-0x4457c>  // b.none
   88090:	d286e1e6 	mov	x6, #0x370f                	// #14095
   88094:	d2969567 	mov	x7, #0xb4ab                	// #46251
   88098:	f2b53e46 	movk	x6, #0xa9f2, lsl #16
   8809c:	f2a83fc7 	movk	x7, #0x41fe, lsl #16
   880a0:	f2da81e6 	movk	x6, #0xd40f, lsl #32
   880a4:	2a1b03eb 	mov	w11, w27
   880a8:	2a1403ec 	mov	w12, w20
   880ac:	aa1a03ed 	mov	x13, x26
   880b0:	aa1c03ee 	mov	x14, x28
   880b4:	aa1503ef 	mov	x15, x21
   880b8:	aa1603f0 	mov	x16, x22
   880bc:	aa1903f1 	mov	x17, x25
   880c0:	aa0103ea 	mov	x10, x1
   880c4:	f85903a2 	ldur	x2, [x29, #-112]
   880c8:	aa0303e9 	mov	x9, x3
   880cc:	aa0803e4 	mov	x4, x8
   880d0:	aa1e03e5 	mov	x5, x30
   880d4:	f2ea95e6 	movk	x6, #0x54af, lsl #48
   880d8:	f2dae8e7 	movk	x7, #0xd747, lsl #32
   880dc:	a93a4fb8 	stp	x24, x19, [x29, #-96]
   880e0:	f2f76ca7 	movk	x7, #0xbb65, lsl #48
   880e4:	f81983b7 	stur	x23, [x29, #-104]
   880e8:	eb07001f 	cmp	x0, x7
   880ec:	54ffa120 	b.eq	87510 <Java_com_adjust_sdk_sig_NativeLibHelper_nOnResume@@Base-0x4457c>  // b.none
   880f0:	d2996fe6 	mov	x6, #0xcb7f                	// #52095
   880f4:	d297f8c7 	mov	x7, #0xbfc6                	// #49094
   880f8:	f2a4b506 	movk	x6, #0x25a8, lsl #16
   880fc:	f2becca7 	movk	x7, #0xf665, lsl #16
   88100:	f2df93a6 	movk	x6, #0xfc9d, lsl #32
   88104:	2a1b03eb 	mov	w11, w27
   88108:	2a1403ec 	mov	w12, w20
   8810c:	aa1a03ed 	mov	x13, x26
   88110:	aa1c03ee 	mov	x14, x28
   88114:	aa1503ef 	mov	x15, x21
   88118:	aa1603f0 	mov	x16, x22
   8811c:	aa1903f1 	mov	x17, x25
   88120:	aa0103ea 	mov	x10, x1
   88124:	f85903a2 	ldur	x2, [x29, #-112]
   88128:	aa0303e9 	mov	x9, x3
   8812c:	aa0803e4 	mov	x4, x8
   88130:	aa1e03e5 	mov	x5, x30
   88134:	f2efd306 	movk	x6, #0x7e98, lsl #48
   88138:	f2dc8cc7 	movk	x7, #0xe466, lsl #32
   8813c:	a93a4fb8 	stp	x24, x19, [x29, #-96]
   88140:	f2f7aa47 	movk	x7, #0xbd52, lsl #48
   88144:	f81983b7 	stur	x23, [x29, #-104]
   88148:	eb07001f 	cmp	x0, x7
   8814c:	54ff9e20 	b.eq	87510 <Java_com_adjust_sdk_sig_NativeLibHelper_nOnResume@@Base-0x4457c>  // b.none
   88150:	d28e2506 	mov	x6, #0x7128                	// #28968
   88154:	d2839d47 	mov	x7, #0x1cea                	// #7402
   88158:	f2b06f46 	movk	x6, #0x837a, lsl #16
   8815c:	f2acdfe7 	movk	x7, #0x66ff, lsl #16
   88160:	f2c37d86 	movk	x6, #0x1bec, lsl #32
   88164:	2a1b03eb 	mov	w11, w27
   88168:	2a1403ec 	mov	w12, w20
   8816c:	aa1a03ed 	mov	x13, x26
   88170:	aa1c03ee 	mov	x14, x28
   88174:	aa1503ef 	mov	x15, x21
   88178:	aa1603f0 	mov	x16, x22
   8817c:	aa1903f1 	mov	x17, x25
   88180:	aa0103ea 	mov	x10, x1
   88184:	f85903a2 	ldur	x2, [x29, #-112]
   88188:	aa0303e9 	mov	x9, x3
   8818c:	aa0803e4 	mov	x4, x8
   88190:	aa1e03e5 	mov	x5, x30
   88194:	f2e5ea26 	movk	x6, #0x2f51, lsl #48
   88198:	f2d21347 	movk	x7, #0x909a, lsl #32
   8819c:	a93a4fb8 	stp	x24, x19, [x29, #-96]
   881a0:	f2f7c427 	movk	x7, #0xbe21, lsl #48
   881a4:	f81983b7 	stur	x23, [x29, #-104]
   881a8:	eb07001f 	cmp	x0, x7
   881ac:	54ff9b20 	b.eq	87510 <Java_com_adjust_sdk_sig_NativeLibHelper_nOnResume@@Base-0x4457c>  // b.none
   881b0:	d2836e26 	mov	x6, #0x1b71                	// #7025
   881b4:	d2953367 	mov	x7, #0xa99b                	// #43419
   881b8:	f2be9c86 	movk	x6, #0xf4e4, lsl #16
   881bc:	f2b74f07 	movk	x7, #0xba78, lsl #16
   881c0:	f2d931c6 	movk	x6, #0xc98e, lsl #32
   881c4:	2a1b03eb 	mov	w11, w27
   881c8:	2a1403ec 	mov	w12, w20
   881cc:	aa1a03ed 	mov	x13, x26
   881d0:	aa1c03ee 	mov	x14, x28
   881d4:	aa1503ef 	mov	x15, x21
   881d8:	aa1603f0 	mov	x16, x22
   881dc:	aa1903f1 	mov	x17, x25
   881e0:	aa0103ea 	mov	x10, x1
   881e4:	f85903a2 	ldur	x2, [x29, #-112]
   881e8:	aa0303e9 	mov	x9, x3
   881ec:	aa0803e4 	mov	x4, x8
   881f0:	aa1e03e5 	mov	x5, x30
   881f4:	f2f9baa6 	movk	x6, #0xcdd5, lsl #48
   881f8:	f2d00887 	movk	x7, #0x8044, lsl #32
   881fc:	a93a4fb8 	stp	x24, x19, [x29, #-96]
   88200:	f2f80227 	movk	x7, #0xc011, lsl #48
   88204:	f81983b7 	stur	x23, [x29, #-104]
   88208:	eb07001f 	cmp	x0, x7
   8820c:	54ff9820 	b.eq	87510 <Java_com_adjust_sdk_sig_NativeLibHelper_nOnResume@@Base-0x4457c>  // b.none
   88210:	d29a3548 	mov	x8, #0xd1aa                	// #53674
   88214:	f2ae8fa8 	movk	x8, #0x747d, lsl #16
   88218:	f2c3f008 	movk	x8, #0x1f80, lsl #32
   8821c:	f2f81b48 	movk	x8, #0xc0da, lsl #48
   88220:	eb08001f 	cmp	x0, x8
   88224:	5401a800 	b.eq	8b724 <Java_com_adjust_sdk_sig_NativeLibHelper_nOnResume@@Base-0x40368>  // b.none
   88228:	a9780fa1 	ldp	x1, x3, [x29, #-128]
   8822c:	d2847386 	mov	x6, #0x239c                	// #9116
   88230:	d28302e7 	mov	x7, #0x1817                	// #6167
   88234:	f85783a8 	ldur	x8, [x29, #-136]
   88238:	f2b66ba6 	movk	x6, #0xb35d, lsl #16
   8823c:	f2d8bc66 	movk	x6, #0xc5e3, lsl #32
   88240:	f2bd3467 	movk	x7, #0xe9a3, lsl #16
   88244:	2a1b03eb 	mov	w11, w27
   88248:	2a1403ec 	mov	w12, w20
   8824c:	aa1a03ed 	mov	x13, x26
   88250:	aa1c03ee 	mov	x14, x28
   88254:	aa1503ef 	mov	x15, x21
   88258:	aa1603f0 	mov	x16, x22
   8825c:	aa1903f1 	mov	x17, x25
   88260:	aa0103ea 	mov	x10, x1
   88264:	f85903a2 	ldur	x2, [x29, #-112]
   88268:	aa0303e9 	mov	x9, x3
   8826c:	aa0803e4 	mov	x4, x8
   88270:	aa1e03e5 	mov	x5, x30
   88274:	f2f9db46 	movk	x6, #0xceda, lsl #48
   88278:	f2cfc7e7 	movk	x7, #0x7e3f, lsl #32
   8827c:	f2f85ea7 	movk	x7, #0xc2f5, lsl #48
   88280:	a93a4fb8 	stp	x24, x19, [x29, #-96]
   88284:	eb07001f 	cmp	x0, x7
   88288:	f81983b7 	stur	x23, [x29, #-104]
   8828c:	54ff9420 	b.eq	87510 <Java_com_adjust_sdk_sig_NativeLibHelper_nOnResume@@Base-0x4457c>  // b.none
   88290:	d29d9b86 	mov	x6, #0xecdc                	// #60636
   88294:	d29b6a87 	mov	x7, #0xdb54                	// #56148
   88298:	f2a20b46 	movk	x6, #0x105a, lsl #16
   8829c:	f2b8ba27 	movk	x7, #0xc5d1, lsl #16
   882a0:	f2d7dde6 	movk	x6, #0xbeef, lsl #32
   882a4:	2a1b03eb 	mov	w11, w27
   882a8:	2a1403ec 	mov	w12, w20
   882ac:	aa1a03ed 	mov	x13, x26
   882b0:	aa1c03ee 	mov	x14, x28
   882b4:	aa1503ef 	mov	x15, x21
   882b8:	aa1603f0 	mov	x16, x22
   882bc:	aa1903f1 	mov	x17, x25
   882c0:	aa0103ea 	mov	x10, x1
   882c4:	f85903a2 	ldur	x2, [x29, #-112]
   882c8:	aa0303e9 	mov	x9, x3
   882cc:	aa0803e4 	mov	x4, x8
   882d0:	aa1e03e5 	mov	x5, x30
   882d4:	f2e220e6 	movk	x6, #0x1107, lsl #48
   882d8:	f2d52ac7 	movk	x7, #0xa956, lsl #32
   882dc:	a93a4fb8 	stp	x24, x19, [x29, #-96]
   882e0:	f2f87027 	movk	x7, #0xc381, lsl #48
   882e4:	f81983b7 	stur	x23, [x29, #-104]
   882e8:	eb07001f 	cmp	x0, x7
   882ec:	54ff9120 	b.eq	87510 <Java_com_adjust_sdk_sig_NativeLibHelper_nOnResume@@Base-0x4457c>  // b.none
   882f0:	d29f5288 	mov	x8, #0xfa94                	// #64148
   882f4:	f2b80928 	movk	x8, #0xc049, lsl #16
   882f8:	f2dbd608 	movk	x8, #0xdeb0, lsl #32
   882fc:	f2f87908 	movk	x8, #0xc3c8, lsl #48
   88300:	eb08001f 	cmp	x0, x8
   88304:	540355e0 	b.eq	8edc0 <Java_com_adjust_sdk_sig_NativeLibHelper_nOnResume@@Base-0x3cccc>  // b.none
   88308:	d29ec268 	mov	x8, #0xf613                	// #62995
   8830c:	f2beede8 	movk	x8, #0xf76f, lsl #16
   88310:	f2d7bf68 	movk	x8, #0xbdfb, lsl #32
   88314:	f2f88ee8 	movk	x8, #0xc477, lsl #48
   88318:	eb08001f 	cmp	x0, x8
   8831c:	54012ba0 	b.eq	8a890 <Java_com_adjust_sdk_sig_NativeLibHelper_nOnResume@@Base-0x411fc>  // b.none
   88320:	d2925248 	mov	x8, #0x9292                	// #37522
   88324:	a9780fa1 	ldp	x1, x3, [x29, #-128]
   88328:	f2bb2c08 	movk	x8, #0xd960, lsl #16
   8832c:	f2c04928 	movk	x8, #0x249, lsl #32
   88330:	f2f8c028 	movk	x8, #0xc601, lsl #48
   88334:	eb08001f 	cmp	x0, x8
   88338:	54034e20 	b.eq	8ecfc <Java_com_adjust_sdk_sig_NativeLibHelper_nOnResume@@Base-0x3cd90>  // b.none
   8833c:	d29df948 	mov	x8, #0xefca                	// #61386
   88340:	f2b2e548 	movk	x8, #0x972a, lsl #16
   88344:	f2c78c88 	movk	x8, #0x3c64, lsl #32
   88348:	f2f8c208 	movk	x8, #0xc610, lsl #48
   8834c:	eb08001f 	cmp	x0, x8
   88350:	54031e80 	b.eq	8e720 <Java_com_adjust_sdk_sig_NativeLibHelper_nOnResume@@Base-0x3d36c>  // b.none
   88354:	d284ca48 	mov	x8, #0x2652                	// #9810
   88358:	f2b035c8 	movk	x8, #0x81ae, lsl #16
   8835c:	f2c2bac8 	movk	x8, #0x15d6, lsl #32
   88360:	f2f8eb88 	movk	x8, #0xc75c, lsl #48
   88364:	eb08001f 	cmp	x0, x8
   88368:	54029640 	b.eq	8d630 <Java_com_adjust_sdk_sig_NativeLibHelper_nOnResume@@Base-0x3e45c>  // b.none
   8836c:	d28bb4c6 	mov	x6, #0x5da6                	// #23974
   88370:	d294ba47 	mov	x7, #0xa5d2                	// #42450
   88374:	f2a995e6 	movk	x6, #0x4caf, lsl #16
   88378:	f2bd0407 	movk	x7, #0xe820, lsl #16
   8837c:	f2d46186 	movk	x6, #0xa30c, lsl #32
   88380:	2a1b03eb 	mov	w11, w27
   88384:	2a1403ec 	mov	w12, w20
   88388:	aa1a03ed 	mov	x13, x26
   8838c:	aa1c03ee 	mov	x14, x28
   88390:	aa1503ef 	mov	x15, x21
   88394:	aa1603f0 	mov	x16, x22
   88398:	aa1903f1 	mov	x17, x25
   8839c:	aa0103ea 	mov	x10, x1
   883a0:	f85903a2 	ldur	x2, [x29, #-112]
   883a4:	aa0303e9 	mov	x9, x3
   883a8:	f85483a4 	ldur	x4, [x29, #-184]
   883ac:	aa1e03e5 	mov	x5, x30
   883b0:	f2e6d506 	movk	x6, #0x36a8, lsl #48
   883b4:	f2c887e7 	movk	x7, #0x443f, lsl #32
   883b8:	a93a4fb8 	stp	x24, x19, [x29, #-96]
   883bc:	f2f90a27 	movk	x7, #0xc851, lsl #48
   883c0:	f81983b7 	stur	x23, [x29, #-104]
   883c4:	eb07001f 	cmp	x0, x7
   883c8:	54ff8a40 	b.eq	87510 <Java_com_adjust_sdk_sig_NativeLibHelper_nOnResume@@Base-0x4457c>  // b.none
   883cc:	d2923188 	mov	x8, #0x918c                	// #37260
   883d0:	f2a9bda8 	movk	x8, #0x4ded, lsl #16
   883d4:	f2d85c68 	movk	x8, #0xc2e3, lsl #32
   883d8:	f2f94888 	movk	x8, #0xca44, lsl #48
   883dc:	eb08001f 	cmp	x0, x8
   883e0:	54017e80 	b.eq	8b3b0 <Java_com_adjust_sdk_sig_NativeLibHelper_nOnResume@@Base-0x406dc>  // b.none
   883e4:	a9780fa1 	ldp	x1, x3, [x29, #-128]
   883e8:	d28e0066 	mov	x6, #0x7003                	// #28675
   883ec:	d2806a67 	mov	x7, #0x353                 	// #851
   883f0:	f85783a8 	ldur	x8, [x29, #-136]
   883f4:	f2a74c46 	movk	x6, #0x3a62, lsl #16
   883f8:	f2dd4366 	movk	x6, #0xea1b, lsl #32
   883fc:	f2b530c7 	movk	x7, #0xa986, lsl #16
   88400:	2a1b03eb 	mov	w11, w27
   88404:	2a1403ec 	mov	w12, w20
   88408:	aa1a03ed 	mov	x13, x26
   8840c:	aa1c03ee 	mov	x14, x28
   88410:	aa1503ef 	mov	x15, x21
   88414:	aa1603f0 	mov	x16, x22
   88418:	aa1903f1 	mov	x17, x25
   8841c:	aa0103ea 	mov	x10, x1
   88420:	f85903a2 	ldur	x2, [x29, #-112]
   88424:	aa0303e9 	mov	x9, x3
   88428:	aa0803e4 	mov	x4, x8
   8842c:	aa1e03e5 	mov	x5, x30
   88430:	f2e55926 	movk	x6, #0x2ac9, lsl #48
   88434:	f2daf0a7 	movk	x7, #0xd785, lsl #32
   88438:	f2f94c27 	movk	x7, #0xca61, lsl #48
   8843c:	a93a4fb8 	stp	x24, x19, [x29, #-96]
   88440:	eb07001f 	cmp	x0, x7
   88444:	f81983b7 	stur	x23, [x29, #-104]
   88448:	54ff8640 	b.eq	87510 <Java_com_adjust_sdk_sig_NativeLibHelper_nOnResume@@Base-0x4457c>  // b.none
   8844c:	d2803a26 	mov	x6, #0x1d1                 	// #465
   88450:	d2816127 	mov	x7, #0xb09                 	// #2825
   88454:	f2ac4b26 	movk	x6, #0x6259, lsl #16
   88458:	f2b49e87 	movk	x7, #0xa4f4, lsl #16
   8845c:	f2c4a786 	movk	x6, #0x253c, lsl #32
   88460:	2a1b03eb 	mov	w11, w27
   88464:	2a1403ec 	mov	w12, w20
   88468:	aa1a03ed 	mov	x13, x26
   8846c:	aa1c03ee 	mov	x14, x28
   88470:	aa1503ef 	mov	x15, x21
   88474:	aa1603f0 	mov	x16, x22
   88478:	aa1903f1 	mov	x17, x25
   8847c:	aa0103ea 	mov	x10, x1
   88480:	f85903a2 	ldur	x2, [x29, #-112]
   88484:	aa0303e9 	mov	x9, x3
   88488:	aa0803e4 	mov	x4, x8
   8848c:	aa1e03e5 	mov	x5, x30
   88490:	f2fcc666 	movk	x6, #0xe633, lsl #48
   88494:	f2cdf527 	movk	x7, #0x6fa9, lsl #32
   88498:	a93a4fb8 	stp	x24, x19, [x29, #-96]
   8849c:	f2f95187 	movk	x7, #0xca8c, lsl #48
   884a0:	f81983b7 	stur	x23, [x29, #-104]
   884a4:	eb07001f 	cmp	x0, x7
   884a8:	54ff8340 	b.eq	87510 <Java_com_adjust_sdk_sig_NativeLibHelper_nOnResume@@Base-0x4457c>  // b.none
   884ac:	d2967bc8 	mov	x8, #0xb3de                	// #46046
   884b0:	f2ab8588 	movk	x8, #0x5c2c, lsl #16
   884b4:	f2c34028 	movk	x8, #0x1a01, lsl #32
   884b8:	f2f967a8 	movk	x8, #0xcb3d, lsl #48
   884bc:	eb08001f 	cmp	x0, x8
   884c0:	54035740 	b.eq	8efa8 <Java_com_adjust_sdk_sig_NativeLibHelper_nOnResume@@Base-0x3cae4>  // b.none
   884c4:	d28dcea8 	mov	x8, #0x6e75                	// #28277
   884c8:	a9780fa9 	ldp	x9, x3, [x29, #-128]
   884cc:	f2bf58c8 	movk	x8, #0xfac6, lsl #16
   884d0:	f2c3ad88 	movk	x8, #0x1d6c, lsl #32
   884d4:	f2f96c88 	movk	x8, #0xcb64, lsl #48
   884d8:	eb08001f 	cmp	x0, x8
   884dc:	540156a0 	b.eq	8afb0 <Java_com_adjust_sdk_sig_NativeLibHelper_nOnResume@@Base-0x40adc>  // b.none
   884e0:	d29cd508 	mov	x8, #0xe6a8                	// #59048
   884e4:	f85783a4 	ldur	x4, [x29, #-136]
   884e8:	f2b9fb68 	movk	x8, #0xcfdb, lsl #16
   884ec:	f2c39828 	movk	x8, #0x1cc1, lsl #32
   884f0:	f2f989e8 	movk	x8, #0xcc4f, lsl #48
   884f4:	eb08001f 	cmp	x0, x8
   884f8:	5402e920 	b.eq	8e21c <Java_com_adjust_sdk_sig_NativeLibHelper_nOnResume@@Base-0x3d870>  // b.none
   884fc:	d298f646 	mov	x6, #0xc7b2                	// #51122
   88500:	d297bcc7 	mov	x7, #0xbde6                	// #48614
   88504:	f2a52546 	movk	x6, #0x292a, lsl #16
   88508:	f2a50f67 	movk	x7, #0x287b, lsl #16
   8850c:	f2c8b066 	movk	x6, #0x4583, lsl #32
   88510:	2a1b03eb 	mov	w11, w27
   88514:	2a1403ec 	mov	w12, w20
   88518:	aa1a03ed 	mov	x13, x26
   8851c:	aa1c03ee 	mov	x14, x28
   88520:	aa1503ef 	mov	x15, x21
   88524:	aa1603f0 	mov	x16, x22
   88528:	aa1903f1 	mov	x17, x25
   8852c:	aa0903ea 	mov	x10, x9
   88530:	f85903a2 	ldur	x2, [x29, #-112]
   88534:	aa0303e9 	mov	x9, x3
   88538:	aa1e03e5 	mov	x5, x30
   8853c:	f2f4f226 	movk	x6, #0xa791, lsl #48
   88540:	f2dd4907 	movk	x7, #0xea48, lsl #32
   88544:	f2f98b67 	movk	x7, #0xcc5b, lsl #48
   88548:	a93a4fb8 	stp	x24, x19, [x29, #-96]
   8854c:	eb07001f 	cmp	x0, x7
   88550:	f81983b7 	stur	x23, [x29, #-104]
   88554:	54ff7de0 	b.eq	87510 <Java_com_adjust_sdk_sig_NativeLibHelper_nOnResume@@Base-0x4457c>  // b.none
   88558:	d280f288 	mov	x8, #0x794                 	// #1940
   8855c:	f2a77a48 	movk	x8, #0x3bd2, lsl #16
   88560:	f2ccbf68 	movk	x8, #0x65fb, lsl #32
   88564:	f2f9a568 	movk	x8, #0xcd2b, lsl #48
   88568:	eb08001f 	cmp	x0, x8
   8856c:	54025820 	b.eq	8d070 <Java_com_adjust_sdk_sig_NativeLibHelper_nOnResume@@Base-0x3ea1c>  // b.none
   88570:	d2836e28 	mov	x8, #0x1b71                	// #7025
   88574:	a9780fa5 	ldp	x5, x3, [x29, #-128]
   88578:	f2be9c88 	movk	x8, #0xf4e4, lsl #16
   8857c:	f2d931c8 	movk	x8, #0xc98e, lsl #32
   88580:	f2f9baa8 	movk	x8, #0xcdd5, lsl #48
   88584:	eb08001f 	cmp	x0, x8
   88588:	54027380 	b.eq	8d3f8 <Java_com_adjust_sdk_sig_NativeLibHelper_nOnResume@@Base-0x3e694>  // b.none
   8858c:	f85783a8 	ldur	x8, [x29, #-136]
   88590:	d28f0806 	mov	x6, #0x7840                	// #30784
   88594:	f2ac48c6 	movk	x6, #0x6246, lsl #16
   88598:	d29cf4e7 	mov	x7, #0xe7a7                	// #59303
   8859c:	f2decec6 	movk	x6, #0xf676, lsl #32
   885a0:	f2aefa87 	movk	x7, #0x77d4, lsl #16
   885a4:	2a1b03eb 	mov	w11, w27
   885a8:	2a1403ec 	mov	w12, w20
   885ac:	aa1a03ed 	mov	x13, x26
   885b0:	aa1c03ee 	mov	x14, x28
   885b4:	aa1503ef 	mov	x15, x21
   885b8:	aa1603f0 	mov	x16, x22
   885bc:	aa1903f1 	mov	x17, x25
   885c0:	aa0503ea 	mov	x10, x5
   885c4:	f85903a2 	ldur	x2, [x29, #-112]
   885c8:	aa0303e9 	mov	x9, x3
   885cc:	aa0803e4 	mov	x4, x8
   885d0:	aa0503e1 	mov	x1, x5
   885d4:	aa1e03e5 	mov	x5, x30
   885d8:	f2e1f806 	movk	x6, #0xfc0, lsl #48
   885dc:	f2dc80e7 	movk	x7, #0xe407, lsl #32
   885e0:	a93a4fb8 	stp	x24, x19, [x29, #-96]
   885e4:	f2f9d787 	movk	x7, #0xcebc, lsl #48
   885e8:	f81983b7 	stur	x23, [x29, #-104]
   885ec:	eb07001f 	cmp	x0, x7
   885f0:	54ff7900 	b.eq	87510 <Java_com_adjust_sdk_sig_NativeLibHelper_nOnResume@@Base-0x4457c>  // b.none
   885f4:	d29d4186 	mov	x6, #0xea0c                	// #59916
   885f8:	d28bea87 	mov	x7, #0x5f54                	// #24404
   885fc:	f2b19266 	movk	x6, #0x8c93, lsl #16
   88600:	f2acf807 	movk	x7, #0x67c0, lsl #16
   88604:	f2d81946 	movk	x6, #0xc0ca, lsl #32
   88608:	2a1b03eb 	mov	w11, w27
   8860c:	2a1403ec 	mov	w12, w20
   88610:	aa1a03ed 	mov	x13, x26
   88614:	aa1c03ee 	mov	x14, x28
   88618:	aa1503ef 	mov	x15, x21
   8861c:	aa1603f0 	mov	x16, x22
   88620:	aa1903f1 	mov	x17, x25
   88624:	aa0103ea 	mov	x10, x1
   88628:	f85903a2 	ldur	x2, [x29, #-112]
   8862c:	aa0303e9 	mov	x9, x3
   88630:	aa0803e4 	mov	x4, x8
   88634:	aa1e03e5 	mov	x5, x30
   88638:	f2eab366 	movk	x6, #0x559b, lsl #48
   8863c:	f2da8007 	movk	x7, #0xd400, lsl #32
   88640:	a93a4fb8 	stp	x24, x19, [x29, #-96]
   88644:	f2f9d927 	movk	x7, #0xcec9, lsl #48
   88648:	f81983b7 	stur	x23, [x29, #-104]
   8864c:	eb07001f 	cmp	x0, x7
   88650:	54ff7600 	b.eq	87510 <Java_com_adjust_sdk_sig_NativeLibHelper_nOnResume@@Base-0x4457c>  // b.none
   88654:	d2847388 	mov	x8, #0x239c                	// #9116
   88658:	f2b66ba8 	movk	x8, #0xb35d, lsl #16
   8865c:	f2d8bc68 	movk	x8, #0xc5e3, lsl #32
   88660:	f2f9db48 	movk	x8, #0xceda, lsl #48
   88664:	eb08001f 	cmp	x0, x8
   88668:	54035200 	b.eq	8f0a8 <Java_com_adjust_sdk_sig_NativeLibHelper_nOnResume@@Base-0x3c9e4>  // b.none
   8866c:	d28f4fa6 	mov	x6, #0x7a7d                	// #31357
   88670:	d28c6b67 	mov	x7, #0x635b                	// #25435
   88674:	a97827aa 	ldp	x10, x9, [x29, #-128]
   88678:	f2a6f646 	movk	x6, #0x37b2, lsl #16
   8867c:	f2a4e247 	movk	x7, #0x2712, lsl #16
   88680:	f2c0fa06 	movk	x6, #0x7d0, lsl #32
   88684:	f85403a8 	ldur	x8, [x29, #-192]
   88688:	2a1b03eb 	mov	w11, w27
   8868c:	2a1403ec 	mov	w12, w20
   88690:	aa1a03ed 	mov	x13, x26
   88694:	aa1c03ee 	mov	x14, x28
   88698:	aa1503ef 	mov	x15, x21
   8869c:	aa1603f0 	mov	x16, x22
   886a0:	aa1903f1 	mov	x17, x25
   886a4:	f85903a2 	ldur	x2, [x29, #-112]
   886a8:	f85783a4 	ldur	x4, [x29, #-136]
   886ac:	aa1e03e5 	mov	x5, x30
   886b0:	f2f11866 	movk	x6, #0x88c3, lsl #48
   886b4:	f2c7f287 	movk	x7, #0x3f94, lsl #32
   886b8:	f2f9e6c7 	movk	x7, #0xcf36, lsl #48
   886bc:	a93a4fb8 	stp	x24, x19, [x29, #-96]
   886c0:	eb07001f 	cmp	x0, x7
   886c4:	f81983a8 	stur	x8, [x29, #-104]
   886c8:	54ff7240 	b.eq	87510 <Java_com_adjust_sdk_sig_NativeLibHelper_nOnResume@@Base-0x4457c>  // b.none
   886cc:	d29f9ec8 	mov	x8, #0xfcf6                	// #64758
   886d0:	f2a2b248 	movk	x8, #0x1592, lsl #16
   886d4:	f2c48428 	movk	x8, #0x2421, lsl #32
   886d8:	f2f9ec28 	movk	x8, #0xcf61, lsl #48
   886dc:	eb08001f 	cmp	x0, x8
   886e0:	54014dc0 	b.eq	8b098 <Java_com_adjust_sdk_sig_NativeLibHelper_nOnResume@@Base-0x409f4>  // b.none
   886e4:	d2929848 	mov	x8, #0x94c2                	// #38082
   886e8:	f2ae10c8 	movk	x8, #0x7086, lsl #16
   886ec:	f2cfc9c8 	movk	x8, #0x7e4e, lsl #32
   886f0:	a977aba4 	ldp	x4, x10, [x29, #-136]
   886f4:	f2fa31a8 	movk	x8, #0xd18d, lsl #48
   886f8:	eb08001f 	cmp	x0, x8
   886fc:	f85883a8 	ldur	x8, [x29, #-120]
   88700:	54019780 	b.eq	8b9f0 <Java_com_adjust_sdk_sig_NativeLibHelper_nOnResume@@Base-0x4009c>  // b.none
   88704:	d2847386 	mov	x6, #0x239c                	// #9116
   88708:	d28ff2a7 	mov	x7, #0x7f95                	// #32661
   8870c:	f2b66ba6 	movk	x6, #0xb35d, lsl #16
   88710:	f2bc19e7 	movk	x7, #0xe0cf, lsl #16
   88714:	f2d8bc66 	movk	x6, #0xc5e3, lsl #32
   88718:	2a1b03eb 	mov	w11, w27
   8871c:	2a1403ec 	mov	w12, w20
   88720:	aa1a03ed 	mov	x13, x26
   88724:	aa1c03ee 	mov	x14, x28
   88728:	aa1503ef 	mov	x15, x21
   8872c:	aa1603f0 	mov	x16, x22
   88730:	aa1903f1 	mov	x17, x25
   88734:	f85903a2 	ldur	x2, [x29, #-112]
   88738:	aa0803e9 	mov	x9, x8
   8873c:	aa1e03e5 	mov	x5, x30
   88740:	f2f9db46 	movk	x6, #0xceda, lsl #48
   88744:	f2d47ce7 	movk	x7, #0xa3e7, lsl #32
   88748:	a93a4fb8 	stp	x24, x19, [x29, #-96]
   8874c:	f2fa58a7 	movk	x7, #0xd2c5, lsl #48
   88750:	f81983b7 	stur	x23, [x29, #-104]
   88754:	eb07001f 	cmp	x0, x7
   88758:	54ff6dc0 	b.eq	87510 <Java_com_adjust_sdk_sig_NativeLibHelper_nOnResume@@Base-0x4457c>  // b.none
   8875c:	d2923088 	mov	x8, #0x9184                	// #37252
   88760:	f2aa9488 	movk	x8, #0x54a4, lsl #16
   88764:	f2c10328 	movk	x8, #0x819, lsl #32
   88768:	f2fa6048 	movk	x8, #0xd302, lsl #48
   8876c:	eb08001f 	cmp	x0, x8
   88770:	540134c0 	b.eq	8ae08 <Java_com_adjust_sdk_sig_NativeLibHelper_nOnResume@@Base-0x40c84>  // b.none
   88774:	d2938548 	mov	x8, #0x9c2a                	// #39978
   88778:	f2af7008 	movk	x8, #0x7b80, lsl #16
   8877c:	f2d55768 	movk	x8, #0xaabb, lsl #32
   88780:	a977aba4 	ldp	x4, x10, [x29, #-136]
   88784:	f2fa6d88 	movk	x8, #0xd36c, lsl #48
   88788:	eb08001f 	cmp	x0, x8
   8878c:	f85883a8 	ldur	x8, [x29, #-120]
   88790:	54011fe0 	b.eq	8ab8c <Java_com_adjust_sdk_sig_NativeLibHelper_nOnResume@@Base-0x40f00>  // b.none
   88794:	d28ba346 	mov	x6, #0x5d1a                	// #23834
   88798:	d28a73a7 	mov	x7, #0x539d                	// #21405
   8879c:	f2bb7486 	movk	x6, #0xdba4, lsl #16
   887a0:	f2a6e447 	movk	x7, #0x3722, lsl #16
   887a4:	f2d54826 	movk	x6, #0xaa41, lsl #32
   887a8:	2a1b03eb 	mov	w11, w27
   887ac:	2a1403ec 	mov	w12, w20
   887b0:	aa1a03ed 	mov	x13, x26
   887b4:	aa1c03ee 	mov	x14, x28
   887b8:	aa1503ef 	mov	x15, x21
   887bc:	aa1603f0 	mov	x16, x22
   887c0:	aa1903f1 	mov	x17, x25
   887c4:	f85903a2 	ldur	x2, [x29, #-112]
   887c8:	aa0803e9 	mov	x9, x8
   887cc:	aa1e03e5 	mov	x5, x30
   887d0:	f2e1e646 	movk	x6, #0xf32, lsl #48
   887d4:	f2dd5ae7 	movk	x7, #0xead7, lsl #32
   887d8:	a93a4fb8 	stp	x24, x19, [x29, #-96]
   887dc:	f2fa9067 	movk	x7, #0xd483, lsl #48
   887e0:	f81983b7 	stur	x23, [x29, #-104]
   887e4:	eb07001f 	cmp	x0, x7
   887e8:	54ff6940 	b.eq	87510 <Java_com_adjust_sdk_sig_NativeLibHelper_nOnResume@@Base-0x4457c>  // b.none
   887ec:	d29e6b68 	mov	x8, #0xf35b                	// #62299
   887f0:	f2ad0408 	movk	x8, #0x6820, lsl #16
   887f4:	f2ccee28 	movk	x8, #0x6771, lsl #32
   887f8:	f2fa9748 	movk	x8, #0xd4ba, lsl #48
   887fc:	eb08001f 	cmp	x0, x8
   88800:	5402bfe0 	b.eq	8dffc <Java_com_adjust_sdk_sig_NativeLibHelper_nOnResume@@Base-0x3da90>  // b.none
   88804:	d29c60a8 	mov	x8, #0xe305                	// #58117
   88808:	f2b434c8 	movk	x8, #0xa1a6, lsl #16
   8880c:	f2ccd6a8 	movk	x8, #0x66b5, lsl #32
   88810:	f2fab5c8 	movk	x8, #0xd5ae, lsl #48
   88814:	eb08001f 	cmp	x0, x8
   88818:	54019d40 	b.eq	8bbc0 <Java_com_adjust_sdk_sig_NativeLibHelper_nOnResume@@Base-0x3fecc>  // b.none
   8881c:	d298ffa8 	mov	x8, #0xc7fd                	// #51197
   88820:	f85783a5 	ldur	x5, [x29, #-136]
   88824:	f2abef48 	movk	x8, #0x5f7a, lsl #16
   88828:	f2c378e8 	movk	x8, #0x1bc7, lsl #32
   8882c:	f2faf708 	movk	x8, #0xd7b8, lsl #48
   88830:	eb08001f 	cmp	x0, x8
   88834:	54031ea0 	b.eq	8ec08 <Java_com_adjust_sdk_sig_NativeLibHelper_nOnResume@@Base-0x3ce84>  // b.none
   88838:	d287b926 	mov	x6, #0x3dc9                	// #15817
   8883c:	d29e62a7 	mov	x7, #0xf315                	// #62229
   88840:	a97827aa 	ldp	x10, x9, [x29, #-128]
   88844:	f2a55f26 	movk	x6, #0x2af9, lsl #16
   88848:	f2bf62c7 	movk	x7, #0xfb16, lsl #16
   8884c:	f2c88066 	movk	x6, #0x4403, lsl #32
   88850:	2a1b03eb 	mov	w11, w27
   88854:	2a1403ec 	mov	w12, w20
   88858:	aa1a03ed 	mov	x13, x26
   8885c:	aa1c03ee 	mov	x14, x28
   88860:	aa1503ef 	mov	x15, x21
   88864:	aa1603f0 	mov	x16, x22
   88868:	aa1903f1 	mov	x17, x25
   8886c:	f85903a2 	ldur	x2, [x29, #-112]
   88870:	aa0503e4 	mov	x4, x5
   88874:	aa1e03e5 	mov	x5, x30
   88878:	f2e40de6 	movk	x6, #0x206f, lsl #48
   8887c:	f2d3d607 	movk	x7, #0x9eb0, lsl #32
   88880:	a93a4fb8 	stp	x24, x19, [x29, #-96]
   88884:	f2faf747 	movk	x7, #0xd7ba, lsl #48
   88888:	f81983b7 	stur	x23, [x29, #-104]
   8888c:	eb07001f 	cmp	x0, x7
   88890:	54ff6400 	b.eq	87510 <Java_com_adjust_sdk_sig_NativeLibHelper_nOnResume@@Base-0x4457c>  // b.none
   88894:	d2814ce8 	mov	x8, #0xa67                 	// #2663
   88898:	f2bd9608 	movk	x8, #0xecb0, lsl #16
   8889c:	f2ca7e68 	movk	x8, #0x53f3, lsl #32
   888a0:	f2fb6a08 	movk	x8, #0xdb50, lsl #48
   888a4:	eb08001f 	cmp	x0, x8
   888a8:	54016ac0 	b.eq	8b600 <Java_com_adjust_sdk_sig_NativeLibHelper_nOnResume@@Base-0x4048c>  // b.none
   888ac:	d2965406 	mov	x6, #0xb2a0                	// #45728
   888b0:	d2848567 	mov	x7, #0x242b                	// #9259
   888b4:	a97827aa 	ldp	x10, x9, [x29, #-128]
   888b8:	f2b47766 	movk	x6, #0xa3bb, lsl #16
   888bc:	f2b9afe7 	movk	x7, #0xcd7f, lsl #16
   888c0:	f2d7bca6 	movk	x6, #0xbde5, lsl #32
   888c4:	2a1b03eb 	mov	w11, w27
   888c8:	2a1403ec 	mov	w12, w20
   888cc:	aa1a03ed 	mov	x13, x26
   888d0:	aa1c03ee 	mov	x14, x28
   888d4:	aa1503ef 	mov	x15, x21
   888d8:	aa1603f0 	mov	x16, x22
   888dc:	aa1903f1 	mov	x17, x25
   888e0:	f85903a2 	ldur	x2, [x29, #-112]
   888e4:	aa1e03e5 	mov	x5, x30
   888e8:	f85783a4 	ldur	x4, [x29, #-136]
   888ec:	f2fd96a6 	movk	x6, #0xecb5, lsl #48
   888f0:	f2c023a7 	movk	x7, #0x11d, lsl #32
   888f4:	a93a4fb8 	stp	x24, x19, [x29, #-96]
   888f8:	f2fb6ea7 	movk	x7, #0xdb75, lsl #48
   888fc:	f81983b7 	stur	x23, [x29, #-104]
   88900:	eb07001f 	cmp	x0, x7
   88904:	54ff6060 	b.eq	87510 <Java_com_adjust_sdk_sig_NativeLibHelper_nOnResume@@Base-0x4457c>  // b.none
   88908:	d29c6be8 	mov	x8, #0xe35f                	// #58207
   8890c:	f2bb8388 	movk	x8, #0xdc1c, lsl #16
   88910:	f2cf4e28 	movk	x8, #0x7a71, lsl #32
   88914:	f2fb72e8 	movk	x8, #0xdb97, lsl #48
   88918:	eb08001f 	cmp	x0, x8
   8891c:	5402a560 	b.eq	8ddc8 <Java_com_adjust_sdk_sig_NativeLibHelper_nOnResume@@Base-0x3dcc4>  // b.none
   88920:	a9780fa1 	ldp	x1, x3, [x29, #-128]
   88924:	d29f5286 	mov	x6, #0xfa94                	// #64148
   88928:	d294e327 	mov	x7, #0xa719                	// #42777
   8892c:	f85783a8 	ldur	x8, [x29, #-136]
   88930:	f2b80926 	movk	x6, #0xc049, lsl #16
   88934:	f2dbd606 	movk	x6, #0xdeb0, lsl #32
   88938:	f2a5e347 	movk	x7, #0x2f1a, lsl #16
   8893c:	2a1b03eb 	mov	w11, w27
   88940:	2a1403ec 	mov	w12, w20
   88944:	aa1a03ed 	mov	x13, x26
   88948:	aa1c03ee 	mov	x14, x28
   8894c:	aa1503ef 	mov	x15, x21
   88950:	aa1603f0 	mov	x16, x22
   88954:	aa1903f1 	mov	x17, x25
   88958:	aa0103ea 	mov	x10, x1
   8895c:	f85903a2 	ldur	x2, [x29, #-112]
   88960:	aa0303e9 	mov	x9, x3
   88964:	aa0803e4 	mov	x4, x8
   88968:	aa1e03e5 	mov	x5, x30
   8896c:	f2f87906 	movk	x6, #0xc3c8, lsl #48
   88970:	f2d51aa7 	movk	x7, #0xa8d5, lsl #32
   88974:	f2fb9aa7 	movk	x7, #0xdcd5, lsl #48
   88978:	a93a4fb8 	stp	x24, x19, [x29, #-96]
   8897c:	eb07001f 	cmp	x0, x7
   88980:	f81983b7 	stur	x23, [x29, #-104]
   88984:	54ff5c60 	b.eq	87510 <Java_com_adjust_sdk_sig_NativeLibHelper_nOnResume@@Base-0x4457c>  // b.none
   88988:	d2954b66 	mov	x6, #0xaa5b                	// #43611
   8898c:	d29966c7 	mov	x7, #0xcb36                	// #52022
   88990:	f2a63826 	movk	x6, #0x31c1, lsl #16
   88994:	f2a51ea7 	movk	x7, #0x28f5, lsl #16
   88998:	f2c69726 	movk	x6, #0x34b9, lsl #32
   8899c:	2a1b03eb 	mov	w11, w27
   889a0:	2a1403ec 	mov	w12, w20
   889a4:	aa1a03ed 	mov	x13, x26
   889a8:	aa1c03ee 	mov	x14, x28
   889ac:	aa1503ef 	mov	x15, x21
   889b0:	aa1603f0 	mov	x16, x22
   889b4:	aa1903f1 	mov	x17, x25
   889b8:	aa0103ea 	mov	x10, x1
   889bc:	f85903a2 	ldur	x2, [x29, #-112]
   889c0:	aa0303e9 	mov	x9, x3
   889c4:	aa0803e4 	mov	x4, x8
   889c8:	aa1e03e5 	mov	x5, x30
   889cc:	f2f37706 	movk	x6, #0x9bb8, lsl #48
   889d0:	f2d21de7 	movk	x7, #0x90ef, lsl #32
   889d4:	a93a4fb8 	stp	x24, x19, [x29, #-96]
   889d8:	f2fbc947 	movk	x7, #0xde4a, lsl #48
   889dc:	f81983b7 	stur	x23, [x29, #-104]
   889e0:	eb07001f 	cmp	x0, x7
   889e4:	54ff5960 	b.eq	87510 <Java_com_adjust_sdk_sig_NativeLibHelper_nOnResume@@Base-0x4457c>  // b.none
   889e8:	d29e78c8 	mov	x8, #0xf3c6                	// #62406
   889ec:	f2af4428 	movk	x8, #0x7a21, lsl #16
   889f0:	f2ca6808 	movk	x8, #0x5340, lsl #32
   889f4:	f2fbdb88 	movk	x8, #0xdedc, lsl #48
   889f8:	eb08001f 	cmp	x0, x8
   889fc:	54032040 	b.eq	8ee04 <Java_com_adjust_sdk_sig_NativeLibHelper_nOnResume@@Base-0x3cc88>  // b.none
   88a00:	d297b368 	mov	x8, #0xbd9b                	// #48539
   88a04:	f85883a3 	ldur	x3, [x29, #-120]
   88a08:	a97787a4 	ldp	x4, x1, [x29, #-136]
   88a0c:	f2b9bda8 	movk	x8, #0xcded, lsl #16
   88a10:	f2d04d28 	movk	x8, #0x8269, lsl #32
   88a14:	f2fbe128 	movk	x8, #0xdf09, lsl #48
   88a18:	eb08001f 	cmp	x0, x8
   88a1c:	540105e0 	b.eq	8aad8 <Java_com_adjust_sdk_sig_NativeLibHelper_nOnResume@@Base-0x40fb4>  // b.none
   88a20:	d294d6c6 	mov	x6, #0xa6b6                	// #42678
   88a24:	d2981547 	mov	x7, #0xc0aa                	// #49322
   88a28:	f2a5f246 	movk	x6, #0x2f92, lsl #16
   88a2c:	f2b2f867 	movk	x7, #0x97c3, lsl #16
   88a30:	f2c46426 	movk	x6, #0x2321, lsl #32
   88a34:	2a1b03eb 	mov	w11, w27
   88a38:	2a1403ec 	mov	w12, w20
   88a3c:	aa1a03ed 	mov	x13, x26
   88a40:	aa1c03ee 	mov	x14, x28
   88a44:	aa1503ef 	mov	x15, x21
   88a48:	aa1603f0 	mov	x16, x22
   88a4c:	aa1903f1 	mov	x17, x25
   88a50:	aa0103ea 	mov	x10, x1
   88a54:	f85903a2 	ldur	x2, [x29, #-112]
   88a58:	aa0303e9 	mov	x9, x3
   88a5c:	aa1e03e5 	mov	x5, x30
   88a60:	f2e29186 	movk	x6, #0x148c, lsl #48
   88a64:	f2c81307 	movk	x7, #0x4098, lsl #32
   88a68:	f2fbea07 	movk	x7, #0xdf50, lsl #48
   88a6c:	a93a4fb8 	stp	x24, x19, [x29, #-96]
   88a70:	eb07001f 	cmp	x0, x7
   88a74:	f81983b7 	stur	x23, [x29, #-104]
   88a78:	54ff54c0 	b.eq	87510 <Java_com_adjust_sdk_sig_NativeLibHelper_nOnResume@@Base-0x4457c>  // b.none
   88a7c:	d2930888 	mov	x8, #0x9844                	// #38980
   88a80:	f2a26ac8 	movk	x8, #0x1356, lsl #16
   88a84:	f2d13b88 	movk	x8, #0x89dc, lsl #32
   88a88:	f2fc0ca8 	movk	x8, #0xe065, lsl #48
   88a8c:	eb08001f 	cmp	x0, x8
   88a90:	540154a0 	b.eq	8b524 <Java_com_adjust_sdk_sig_NativeLibHelper_nOnResume@@Base-0x40568>  // b.none
   88a94:	d28dd4e8 	mov	x8, #0x6ea7                	// #28327
   88a98:	f2b256a8 	movk	x8, #0x92b5, lsl #16
   88a9c:	f2cb5a28 	movk	x8, #0x5ad1, lsl #32
   88aa0:	f2fc3d48 	movk	x8, #0xe1ea, lsl #48
   88aa4:	eb08001f 	cmp	x0, x8
   88aa8:	540316a0 	b.eq	8ed7c <Java_com_adjust_sdk_sig_NativeLibHelper_nOnResume@@Base-0x3cd10>  // b.none
   88aac:	d28eeb46 	mov	x6, #0x775a                	// #30554
   88ab0:	d29e7fe7 	mov	x7, #0xf3ff                	// #62463
   88ab4:	a97827aa 	ldp	x10, x9, [x29, #-128]
   88ab8:	f2b09ae6 	movk	x6, #0x84d7, lsl #16
   88abc:	f2a08507 	movk	x7, #0x428, lsl #16
   88ac0:	f2d695e6 	movk	x6, #0xb4af, lsl #32
   88ac4:	f85383a8 	ldur	x8, [x29, #-200]
   88ac8:	2a1b03eb 	mov	w11, w27
   88acc:	2a1403ec 	mov	w12, w20
   88ad0:	aa1a03ed 	mov	x13, x26
   88ad4:	aa1c03ee 	mov	x14, x28
   88ad8:	aa1503ef 	mov	x15, x21
   88adc:	aa1603f0 	mov	x16, x22
   88ae0:	aa1903f1 	mov	x17, x25
   88ae4:	f85903a2 	ldur	x2, [x29, #-112]
   88ae8:	f85783a4 	ldur	x4, [x29, #-136]
   88aec:	aa1e03e5 	mov	x5, x30
   88af0:	f2e303c6 	movk	x6, #0x181e, lsl #48
   88af4:	f2c87c87 	movk	x7, #0x43e4, lsl #32
   88af8:	f2fc4367 	movk	x7, #0xe21b, lsl #48
   88afc:	a93a4fa8 	stp	x8, x19, [x29, #-96]
   88b00:	eb07001f 	cmp	x0, x7
   88b04:	f81983b7 	stur	x23, [x29, #-104]
   88b08:	54ff5040 	b.eq	87510 <Java_com_adjust_sdk_sig_NativeLibHelper_nOnResume@@Base-0x4457c>  // b.none
   88b0c:	d2928ae8 	mov	x8, #0x9457                	// #37975
   88b10:	f2af9788 	movk	x8, #0x7cbc, lsl #16
   88b14:	f2c433c8 	movk	x8, #0x219e, lsl #32
   88b18:	f2fc4ca8 	movk	x8, #0xe265, lsl #48
   88b1c:	eb08001f 	cmp	x0, x8
   88b20:	5402f780 	b.eq	8ea10 <Java_com_adjust_sdk_sig_NativeLibHelper_nOnResume@@Base-0x3d07c>  // b.none
   88b24:	d28b6e88 	mov	x8, #0x5b74                	// #23412
   88b28:	f2a42ec8 	movk	x8, #0x2176, lsl #16
   88b2c:	f2c3b7c8 	movk	x8, #0x1dbe, lsl #32
   88b30:	f2fc5ee8 	movk	x8, #0xe2f7, lsl #48
   88b34:	eb08001f 	cmp	x0, x8
   88b38:	5401ed80 	b.eq	8c8e8 <Java_com_adjust_sdk_sig_NativeLibHelper_nOnResume@@Base-0x3f1a4>  // b.none
   88b3c:	d287afa8 	mov	x8, #0x3d7d                	// #15741
   88b40:	f2bd22a8 	movk	x8, #0xe915, lsl #16
   88b44:	f2c02d68 	movk	x8, #0x16b, lsl #32
   88b48:	f2fcc508 	movk	x8, #0xe628, lsl #48
   88b4c:	eb08001f 	cmp	x0, x8
   88b50:	54016b80 	b.eq	8b8c0 <Java_com_adjust_sdk_sig_NativeLibHelper_nOnResume@@Base-0x401cc>  // b.none
   88b54:	d2803a28 	mov	x8, #0x1d1                 	// #465
   88b58:	f2ac4b28 	movk	x8, #0x6259, lsl #16
   88b5c:	f2c4a788 	movk	x8, #0x253c, lsl #32
   88b60:	f2fcc668 	movk	x8, #0xe633, lsl #48
   88b64:	eb08001f 	cmp	x0, x8
   88b68:	54031880 	b.eq	8ee78 <Java_com_adjust_sdk_sig_NativeLibHelper_nOnResume@@Base-0x3cc14>  // b.none
   88b6c:	d28db4a8 	mov	x8, #0x6da5                	// #28069
   88b70:	f2a7e948 	movk	x8, #0x3f4a, lsl #16
   88b74:	f2dbb7a8 	movk	x8, #0xddbd, lsl #32
   88b78:	f2fcee68 	movk	x8, #0xe773, lsl #48
   88b7c:	eb08001f 	cmp	x0, x8
   88b80:	54012520 	b.eq	8b024 <Java_com_adjust_sdk_sig_NativeLibHelper_nOnResume@@Base-0x40a68>  // b.none
   88b84:	a9780fa1 	ldp	x1, x3, [x29, #-128]
   88b88:	d29efa06 	mov	x6, #0xf7d0                	// #63440
   88b8c:	d29cf867 	mov	x7, #0xe7c3                	// #59331
   88b90:	a97723be 	ldp	x30, x8, [x29, #-144]
   88b94:	f2bb1286 	movk	x6, #0xd894, lsl #16
   88b98:	f2b34427 	movk	x7, #0x9a21, lsl #16
   88b9c:	f2dc52e6 	movk	x6, #0xe297, lsl #32
   88ba0:	2a1b03eb 	mov	w11, w27
   88ba4:	2a1403ec 	mov	w12, w20
   88ba8:	aa1a03ed 	mov	x13, x26
   88bac:	aa1c03ee 	mov	x14, x28
   88bb0:	aa1503ef 	mov	x15, x21
   88bb4:	aa1603f0 	mov	x16, x22
   88bb8:	aa1903f1 	mov	x17, x25
   88bbc:	aa0103ea 	mov	x10, x1
   88bc0:	f85903a2 	ldur	x2, [x29, #-112]
   88bc4:	aa0303e9 	mov	x9, x3
   88bc8:	aa0803e4 	mov	x4, x8
   88bcc:	aa1e03e5 	mov	x5, x30
   88bd0:	f2e0e9e6 	movk	x6, #0x74f, lsl #48
   88bd4:	f2c41be7 	movk	x7, #0x20df, lsl #32
   88bd8:	a93a4fb8 	stp	x24, x19, [x29, #-96]
   88bdc:	f2fd1327 	movk	x7, #0xe899, lsl #48
   88be0:	f81983b7 	stur	x23, [x29, #-104]
   88be4:	eb07001f 	cmp	x0, x7
   88be8:	54ff4940 	b.eq	87510 <Java_com_adjust_sdk_sig_NativeLibHelper_nOnResume@@Base-0x4457c>  // b.none
   88bec:	d28be1a6 	mov	x6, #0x5f0d                	// #24333
   88bf0:	d29c0147 	mov	x7, #0xe00a                	// #57354
   88bf4:	f2a12de6 	movk	x6, #0x96f, lsl #16
   88bf8:	f2aaea07 	movk	x7, #0x5750, lsl #16
   88bfc:	f2d035c6 	movk	x6, #0x81ae, lsl #32
   88c00:	2a1b03eb 	mov	w11, w27
   88c04:	2a1403ec 	mov	w12, w20
   88c08:	aa1a03ed 	mov	x13, x26
   88c0c:	aa1c03ee 	mov	x14, x28
   88c10:	aa1503ef 	mov	x15, x21
   88c14:	aa1603f0 	mov	x16, x22
   88c18:	aa1903f1 	mov	x17, x25
   88c1c:	aa0103ea 	mov	x10, x1
   88c20:	f85903a2 	ldur	x2, [x29, #-112]
   88c24:	aa0303e9 	mov	x9, x3
   88c28:	aa0803e4 	mov	x4, x8
   88c2c:	aa1e03e5 	mov	x5, x30
   88c30:	f2ee8546 	movk	x6, #0x742a, lsl #48
   88c34:	f2ca3c87 	movk	x7, #0x51e4, lsl #32
   88c38:	a93a4fb8 	stp	x24, x19, [x29, #-96]
   88c3c:	f2fd3887 	movk	x7, #0xe9c4, lsl #48
   88c40:	f81983b7 	stur	x23, [x29, #-104]
   88c44:	eb07001f 	cmp	x0, x7
   88c48:	54ff4640 	b.eq	87510 <Java_com_adjust_sdk_sig_NativeLibHelper_nOnResume@@Base-0x4457c>  // b.none
   88c4c:	d29ef868 	mov	x8, #0xf7c3                	// #63427
   88c50:	f2bd0e48 	movk	x8, #0xe872, lsl #16
   88c54:	f2cbc468 	movk	x8, #0x5e23, lsl #32
   88c58:	f2fd3b88 	movk	x8, #0xe9dc, lsl #48
   88c5c:	eb08001f 	cmp	x0, x8
   88c60:	54031700 	b.eq	8ef40 <Java_com_adjust_sdk_sig_NativeLibHelper_nOnResume@@Base-0x3cb4c>  // b.none
   88c64:	d282b748 	mov	x8, #0x15ba                	// #5562
   88c68:	f85883a3 	ldur	x3, [x29, #-120]
   88c6c:	a97787a4 	ldp	x4, x1, [x29, #-136]
   88c70:	f2b7e0e8 	movk	x8, #0xbf07, lsl #16
   88c74:	f2c85728 	movk	x8, #0x42b9, lsl #32
   88c78:	f2fd4f08 	movk	x8, #0xea78, lsl #48
   88c7c:	eb08001f 	cmp	x0, x8
   88c80:	54031d60 	b.eq	8f02c <Java_com_adjust_sdk_sig_NativeLibHelper_nOnResume@@Base-0x3ca60>  // b.none
   88c84:	d29c15a8 	mov	x8, #0xe0ad                	// #57517
   88c88:	f2b71d48 	movk	x8, #0xb8ea, lsl #16
   88c8c:	f2c58c68 	movk	x8, #0x2c63, lsl #32
   88c90:	f2fd5de8 	movk	x8, #0xeaef, lsl #48
   88c94:	eb08001f 	cmp	x0, x8
   88c98:	5402eea0 	b.eq	8ea6c <Java_com_adjust_sdk_sig_NativeLibHelper_nOnResume@@Base-0x3d020>  // b.none
   88c9c:	d2896688 	mov	x8, #0x4b34                	// #19252
   88ca0:	f2bb30a8 	movk	x8, #0xd985, lsl #16
   88ca4:	f2de62c8 	movk	x8, #0xf316, lsl #32
   88ca8:	f2fd5e68 	movk	x8, #0xeaf3, lsl #48
   88cac:	eb08001f 	cmp	x0, x8
   88cb0:	54012840 	b.eq	8b1b8 <Java_com_adjust_sdk_sig_NativeLibHelper_nOnResume@@Base-0x408d4>  // b.none
   88cb4:	d29fd448 	mov	x8, #0xfea2                	// #65186
   88cb8:	f2bf0848 	movk	x8, #0xf842, lsl #16
   88cbc:	f2c4eea8 	movk	x8, #0x2775, lsl #32
   88cc0:	f2fd6fc8 	movk	x8, #0xeb7e, lsl #48
   88cc4:	eb08001f 	cmp	x0, x8
   88cc8:	5402c700 	b.eq	8e5a8 <Java_com_adjust_sdk_sig_NativeLibHelper_nOnResume@@Base-0x3d4e4>  // b.none
   88ccc:	d286c726 	mov	x6, #0x3639                	// #13881
   88cd0:	d290b027 	mov	x7, #0x8581                	// #34177
   88cd4:	f2ab5146 	movk	x6, #0x5a8a, lsl #16
   88cd8:	f2ab1aa7 	movk	x7, #0x58d5, lsl #16
   88cdc:	f2ce37c6 	movk	x6, #0x71be, lsl #32
   88ce0:	2a1b03eb 	mov	w11, w27
   88ce4:	2a1403ec 	mov	w12, w20
   88ce8:	aa1a03ed 	mov	x13, x26
   88cec:	aa1c03ee 	mov	x14, x28
   88cf0:	aa1503ef 	mov	x15, x21
   88cf4:	aa1603f0 	mov	x16, x22
   88cf8:	aa1903f1 	mov	x17, x25
   88cfc:	aa0103ea 	mov	x10, x1
   88d00:	f85903a2 	ldur	x2, [x29, #-112]
   88d04:	aa0303e9 	mov	x9, x3
   88d08:	aa1e03e5 	mov	x5, x30
   88d0c:	f2f26466 	movk	x6, #0x9323, lsl #48
   88d10:	f2dc1707 	movk	x7, #0xe0b8, lsl #32
   88d14:	f2fd7de7 	movk	x7, #0xebef, lsl #48
   88d18:	a93a4fb8 	stp	x24, x19, [x29, #-96]
   88d1c:	eb07001f 	cmp	x0, x7
   88d20:	f81983b7 	stur	x23, [x29, #-104]
   88d24:	54ff3f60 	b.eq	87510 <Java_com_adjust_sdk_sig_NativeLibHelper_nOnResume@@Base-0x4457c>  // b.none
   88d28:	d288ea48 	mov	x8, #0x4752                	// #18258
   88d2c:	f2a75ec8 	movk	x8, #0x3af6, lsl #16
   88d30:	f2dff188 	movk	x8, #0xff8c, lsl #32
   88d34:	f2fd7f28 	movk	x8, #0xebf9, lsl #48
   88d38:	eb08001f 	cmp	x0, x8
   88d3c:	5401c600 	b.eq	8c5fc <Java_com_adjust_sdk_sig_NativeLibHelper_nOnResume@@Base-0x3f490>  // b.none
   88d40:	a9780fa1 	ldp	x1, x3, [x29, #-128]
   88d44:	d295fba6 	mov	x6, #0xafdd                	// #45021
   88d48:	d2926e67 	mov	x7, #0x9373                	// #37747
   88d4c:	f85783a8 	ldur	x8, [x29, #-136]
   88d50:	f2b302a6 	movk	x6, #0x9815, lsl #16
   88d54:	f2c3b226 	movk	x6, #0x1d91, lsl #32
   88d58:	f2b8ace7 	movk	x7, #0xc567, lsl #16
   88d5c:	2a1b03eb 	mov	w11, w27
   88d60:	2a1403ec 	mov	w12, w20
   88d64:	aa1a03ed 	mov	x13, x26
   88d68:	aa1c03ee 	mov	x14, x28
   88d6c:	aa1503ef 	mov	x15, x21
   88d70:	aa1603f0 	mov	x16, x22
   88d74:	aa1903f1 	mov	x17, x25
   88d78:	aa0103ea 	mov	x10, x1
   88d7c:	f85903a2 	ldur	x2, [x29, #-112]
   88d80:	aa0303e9 	mov	x9, x3
   88d84:	aa0803e4 	mov	x4, x8
   88d88:	aa1e03e5 	mov	x5, x30
   88d8c:	f2f1e0a6 	movk	x6, #0x8f05, lsl #48
   88d90:	f2d44627 	movk	x7, #0xa231, lsl #32
   88d94:	f2fd9367 	movk	x7, #0xec9b, lsl #48
   88d98:	a93a4fb8 	stp	x24, x19, [x29, #-96]
   88d9c:	eb07001f 	cmp	x0, x7
   88da0:	f81983b7 	stur	x23, [x29, #-104]
   88da4:	54ff3b60 	b.eq	87510 <Java_com_adjust_sdk_sig_NativeLibHelper_nOnResume@@Base-0x4457c>  // b.none
   88da8:	d2990f06 	mov	x6, #0xc878                	// #51320
   88dac:	d296e4a7 	mov	x7, #0xb725                	// #46885
   88db0:	f2bc2d06 	movk	x6, #0xe168, lsl #16
   88db4:	f2a64907 	movk	x7, #0x3248, lsl #16
   88db8:	f2db26e6 	movk	x6, #0xd937, lsl #32
   88dbc:	2a1b03eb 	mov	w11, w27
   88dc0:	2a1403ec 	mov	w12, w20
   88dc4:	aa1a03ed 	mov	x13, x26
   88dc8:	aa1c03ee 	mov	x14, x28
   88dcc:	aa1503ef 	mov	x15, x21
   88dd0:	aa1603f0 	mov	x16, x22
   88dd4:	aa1903f1 	mov	x17, x25
   88dd8:	aa0103ea 	mov	x10, x1
   88ddc:	f85303a2 	ldur	x2, [x29, #-208]
   88de0:	aa0303e9 	mov	x9, x3
   88de4:	aa0803e4 	mov	x4, x8
   88de8:	aa1e03e5 	mov	x5, x30
   88dec:	f2e1ea46 	movk	x6, #0xf52, lsl #48
   88df0:	f2ce6f67 	movk	x7, #0x737b, lsl #32
   88df4:	a93a4fb8 	stp	x24, x19, [x29, #-96]
   88df8:	f2fd9427 	movk	x7, #0xeca1, lsl #48
   88dfc:	f81983b7 	stur	x23, [x29, #-104]
   88e00:	eb07001f 	cmp	x0, x7
   88e04:	54ff3860 	b.eq	87510 <Java_com_adjust_sdk_sig_NativeLibHelper_nOnResume@@Base-0x4457c>  // b.none
   88e08:	d2965408 	mov	x8, #0xb2a0                	// #45728
   88e0c:	f2b47768 	movk	x8, #0xa3bb, lsl #16
   88e10:	f2d7bca8 	movk	x8, #0xbde5, lsl #32
   88e14:	f2fd96a8 	movk	x8, #0xecb5, lsl #48
   88e18:	eb08001f 	cmp	x0, x8
   88e1c:	5400f1a0 	b.eq	8ac50 <Java_com_adjust_sdk_sig_NativeLibHelper_nOnResume@@Base-0x40e3c>  // b.none
   88e20:	d28e8648 	mov	x8, #0x7432                	// #29746
   88e24:	f2b9e948 	movk	x8, #0xcf4a, lsl #16
   88e28:	f2cd40a8 	movk	x8, #0x6a05, lsl #32
   88e2c:	f2fdb7c8 	movk	x8, #0xedbe, lsl #48
   88e30:	eb08001f 	cmp	x0, x8
   88e34:	54016600 	b.eq	8baf4 <Java_com_adjust_sdk_sig_NativeLibHelper_nOnResume@@Base-0x3ff98>  // b.none
   88e38:	d2944f48 	mov	x8, #0xa27a                	// #41594
   88e3c:	f2b5b948 	movk	x8, #0xadca, lsl #16
   88e40:	f2cb4888 	movk	x8, #0x5a44, lsl #32
   88e44:	a977a7a4 	ldp	x4, x9, [x29, #-136]
   88e48:	f2fdc888 	movk	x8, #0xee44, lsl #48
   88e4c:	eb08001f 	cmp	x0, x8
   88e50:	f85883a8 	ldur	x8, [x29, #-120]
   88e54:	5402e5a0 	b.eq	8eb08 <Java_com_adjust_sdk_sig_NativeLibHelper_nOnResume@@Base-0x3cf84>  // b.none
   88e58:	d29c60a6 	mov	x6, #0xe305                	// #58117
   88e5c:	d2889287 	mov	x7, #0x4494                	// #17556
   88e60:	f2b434c6 	movk	x6, #0xa1a6, lsl #16
   88e64:	f2ab6b07 	movk	x7, #0x5b58, lsl #16
   88e68:	f2ccd6a6 	movk	x6, #0x66b5, lsl #32
   88e6c:	2a1b03eb 	mov	w11, w27
   88e70:	2a1403ec 	mov	w12, w20
   88e74:	aa1a03ed 	mov	x13, x26
   88e78:	aa1c03ee 	mov	x14, x28
   88e7c:	aa1503ef 	mov	x15, x21
   88e80:	aa1603f0 	mov	x16, x22
   88e84:	f85283b1 	ldur	x17, [x29, #-216]
   88e88:	aa0903ea 	mov	x10, x9
   88e8c:	f85903a2 	ldur	x2, [x29, #-112]
   88e90:	aa0803e9 	mov	x9, x8
   88e94:	aa1e03e5 	mov	x5, x30
   88e98:	f2fab5c6 	movk	x6, #0xd5ae, lsl #48
   88e9c:	f2db2c87 	movk	x7, #0xd964, lsl #32
   88ea0:	f2fdd5e7 	movk	x7, #0xeeaf, lsl #48
   88ea4:	a93a4fb8 	stp	x24, x19, [x29, #-96]
   88ea8:	eb07001f 	cmp	x0, x7
   88eac:	f81983b7 	stur	x23, [x29, #-104]
   88eb0:	54ff3300 	b.eq	87510 <Java_com_adjust_sdk_sig_NativeLibHelper_nOnResume@@Base-0x4457c>  // b.none
   88eb4:	d28e0908 	mov	x8, #0x7048                	// #28744
   88eb8:	f2be5428 	movk	x8, #0xf2a1, lsl #16
   88ebc:	f2c22508 	movk	x8, #0x1128, lsl #32
   88ec0:	f2fe0728 	movk	x8, #0xf039, lsl #48
   88ec4:	eb08001f 	cmp	x0, x8
   88ec8:	5401ff60 	b.eq	8ceb4 <Java_com_adjust_sdk_sig_NativeLibHelper_nOnResume@@Base-0x3ebd8>  // b.none
   88ecc:	d2817788 	mov	x8, #0xbbc                 	// #3004
   88ed0:	f85883a3 	ldur	x3, [x29, #-120]
   88ed4:	f2b767e8 	movk	x8, #0xbb3f, lsl #16
   88ed8:	f2d25288 	movk	x8, #0x9294, lsl #32
   88edc:	f2fe0de8 	movk	x8, #0xf06f, lsl #48
   88ee0:	eb08001f 	cmp	x0, x8
   88ee4:	54027ec0 	b.eq	8debc <Java_com_adjust_sdk_sig_NativeLibHelper_nOnResume@@Base-0x3dbd0>  // b.none
   88ee8:	a97787a8 	ldp	x8, x1, [x29, #-136]
   88eec:	d292bdc6 	mov	x6, #0x95ee                	// #38382
   88ef0:	d287b727 	mov	x7, #0x3db9                	// #15801
   88ef4:	f2a45866 	movk	x6, #0x22c3, lsl #16
   88ef8:	f2a81d27 	movk	x7, #0x40e9, lsl #16
   88efc:	f2d0cbc6 	movk	x6, #0x865e, lsl #32
   88f00:	2a1b03eb 	mov	w11, w27
   88f04:	2a1403ec 	mov	w12, w20
   88f08:	aa1a03ed 	mov	x13, x26
   88f0c:	aa1c03ee 	mov	x14, x28
   88f10:	aa1503ef 	mov	x15, x21
   88f14:	aa1603f0 	mov	x16, x22
   88f18:	aa1903f1 	mov	x17, x25
   88f1c:	f85203aa 	ldur	x10, [x29, #-224]
   88f20:	aa0303e9 	mov	x9, x3
   88f24:	f85903a2 	ldur	x2, [x29, #-112]
   88f28:	aa0803e4 	mov	x4, x8
   88f2c:	aa1e03e5 	mov	x5, x30
   88f30:	f2f127a6 	movk	x6, #0x893d, lsl #48
   88f34:	f2c53927 	movk	x7, #0x29c9, lsl #32
   88f38:	a93a4fb8 	stp	x24, x19, [x29, #-96]
   88f3c:	f2fe1907 	movk	x7, #0xf0c8, lsl #48
   88f40:	f81983b7 	stur	x23, [x29, #-104]
   88f44:	eb07001f 	cmp	x0, x7
   88f48:	54ff2e40 	b.eq	87510 <Java_com_adjust_sdk_sig_NativeLibHelper_nOnResume@@Base-0x4457c>  // b.none
   88f4c:	d2997386 	mov	x6, #0xcb9c                	// #52124
   88f50:	d293c167 	mov	x7, #0x9e0b                	// #40459
   88f54:	f2b11426 	movk	x6, #0x88a1, lsl #16
   88f58:	f2b907a7 	movk	x7, #0xc83d, lsl #16
   88f5c:	f2cceee6 	movk	x6, #0x6777, lsl #32
   88f60:	2a1b03eb 	mov	w11, w27
   88f64:	2a1403ec 	mov	w12, w20
   88f68:	aa1a03ed 	mov	x13, x26
   88f6c:	aa1c03ee 	mov	x14, x28
   88f70:	aa1503ef 	mov	x15, x21
   88f74:	aa1603f0 	mov	x16, x22
   88f78:	aa1903f1 	mov	x17, x25
   88f7c:	aa0103ea 	mov	x10, x1
   88f80:	f85903a2 	ldur	x2, [x29, #-112]
   88f84:	aa0303e9 	mov	x9, x3
   88f88:	aa0803e4 	mov	x4, x8
   88f8c:	aa1e03e5 	mov	x5, x30
   88f90:	f2e4bd86 	movk	x6, #0x25ec, lsl #48
   88f94:	f2d07287 	movk	x7, #0x8394, lsl #32
   88f98:	a93a4fb8 	stp	x24, x19, [x29, #-96]
   88f9c:	f2fe2267 	movk	x7, #0xf113, lsl #48
   88fa0:	f81983b7 	stur	x23, [x29, #-104]
   88fa4:	eb07001f 	cmp	x0, x7
   88fa8:	54ff2b40 	b.eq	87510 <Java_com_adjust_sdk_sig_NativeLibHelper_nOnResume@@Base-0x4457c>  // b.none
   88fac:	d2859148 	mov	x8, #0x2c8a                	// #11402
   88fb0:	f2bdbae8 	movk	x8, #0xedd7, lsl #16
   88fb4:	f2d9aee8 	movk	x8, #0xcd77, lsl #32
   88fb8:	f2fe2388 	movk	x8, #0xf11c, lsl #48
   88fbc:	eb08001f 	cmp	x0, x8
   88fc0:	5402cb40 	b.eq	8e928 <Java_com_adjust_sdk_sig_NativeLibHelper_nOnResume@@Base-0x3d164>  // b.none
   88fc4:	d293a568 	mov	x8, #0x9d2b                	// #40235
   88fc8:	f2b500e8 	movk	x8, #0xa807, lsl #16
   88fcc:	f2c81468 	movk	x8, #0x40a3, lsl #32
   88fd0:	f2fe32e8 	movk	x8, #0xf197, lsl #48
   88fd4:	eb08001f 	cmp	x0, x8
   88fd8:	5402ce60 	b.eq	8e9a4 <Java_com_adjust_sdk_sig_NativeLibHelper_nOnResume@@Base-0x3d0e8>  // b.none
   88fdc:	d28a2d28 	mov	x8, #0x5169                	// #20841
   88fe0:	f2ad3a28 	movk	x8, #0x69d1, lsl #16
   88fe4:	f2c00468 	movk	x8, #0x23, lsl #32
   88fe8:	f2fe6f48 	movk	x8, #0xf37a, lsl #48
   88fec:	eb08001f 	cmp	x0, x8
   88ff0:	540117e0 	b.eq	8b2ec <Java_com_adjust_sdk_sig_NativeLibHelper_nOnResume@@Base-0x407a0>  // b.none
   88ff4:	d299db08 	mov	x8, #0xced8                	// #52952
   88ff8:	f2be3288 	movk	x8, #0xf194, lsl #16
   88ffc:	f2d55ac8 	movk	x8, #0xaad6, lsl #32
   89000:	f2febc48 	movk	x8, #0xf5e2, lsl #48
   89004:	eb08001f 	cmp	x0, x8
   89008:	5402a8c0 	b.eq	8e520 <Java_com_adjust_sdk_sig_NativeLibHelper_nOnResume@@Base-0x3d56c>  // b.none
   8900c:	d292bba8 	mov	x8, #0x95dd                	// #38365
   89010:	f2b9a848 	movk	x8, #0xcd42, lsl #16
   89014:	f2cef4e8 	movk	x8, #0x77a7, lsl #32
   89018:	f2fedce8 	movk	x8, #0xf6e7, lsl #48
   8901c:	eb08001f 	cmp	x0, x8
   89020:	5401a660 	b.eq	8c4ec <Java_com_adjust_sdk_sig_NativeLibHelper_nOnResume@@Base-0x3f5a0>  // b.none
   89024:	d29c6368 	mov	x8, #0xe31b                	// #58139
   89028:	f2aa8248 	movk	x8, #0x5412, lsl #16
   8902c:	f2cd0388 	movk	x8, #0x681c, lsl #32
   89030:	f2feeaa8 	movk	x8, #0xf755, lsl #48
   89034:	eb08001f 	cmp	x0, x8
   89038:	5402b340 	b.eq	8e6a0 <Java_com_adjust_sdk_sig_NativeLibHelper_nOnResume@@Base-0x3d3ec>  // b.none
   8903c:	d299b2a8 	mov	x8, #0xcd95                	// #52629
   89040:	f85703be 	ldur	x30, [x29, #-144]
   89044:	a9780fa5 	ldp	x5, x3, [x29, #-128]
   89048:	f2b443a8 	movk	x8, #0xa21d, lsl #16
   8904c:	f2c4b928 	movk	x8, #0x25c9, lsl #32
   89050:	f2feec88 	movk	x8, #0xf764, lsl #48
   89054:	eb08001f 	cmp	x0, x8
   89058:	540180a0 	b.eq	8c06c <Java_com_adjust_sdk_sig_NativeLibHelper_nOnResume@@Base-0x3fa20>  // b.none
   8905c:	d298f948 	mov	x8, #0xc7ca                	// #51146
   89060:	f85783a7 	ldur	x7, [x29, #-136]
   89064:	f2af6288 	movk	x8, #0x7b14, lsl #16
   89068:	f2d89468 	movk	x8, #0xc4a3, lsl #32
   8906c:	f2fef328 	movk	x8, #0xf799, lsl #48
   89070:	eb08001f 	cmp	x0, x8
   89074:	540277e0 	b.eq	8df70 <Java_com_adjust_sdk_sig_NativeLibHelper_nOnResume@@Base-0x3db1c>  // b.none
   89078:	d28e1c08 	mov	x8, #0x70e0                	// #28896
   8907c:	f2b61208 	movk	x8, #0xb090, lsl #16
   89080:	f2d208e8 	movk	x8, #0x9047, lsl #32
   89084:	f2ff1408 	movk	x8, #0xf8a0, lsl #48
   89088:	eb08001f 	cmp	x0, x8
   8908c:	54010c40 	b.eq	8b214 <Java_com_adjust_sdk_sig_NativeLibHelper_nOnResume@@Base-0x40878>  // b.none
   89090:	d298f646 	mov	x6, #0xc7b2                	// #51122
   89094:	aa0703e4 	mov	x4, x7
   89098:	f2a52546 	movk	x6, #0x292a, lsl #16
   8909c:	aa0703e8 	mov	x8, x7
   890a0:	d2876da7 	mov	x7, #0x3b6d                	// #15213
   890a4:	f2c8b066 	movk	x6, #0x4583, lsl #32
   890a8:	f2af9647 	movk	x7, #0x7cb2, lsl #16
   890ac:	2a1b03eb 	mov	w11, w27
   890b0:	2a1403ec 	mov	w12, w20
   890b4:	aa1a03ed 	mov	x13, x26
   890b8:	aa1c03ee 	mov	x14, x28
   890bc:	aa1503ef 	mov	x15, x21
   890c0:	aa1603f0 	mov	x16, x22
   890c4:	aa1903f1 	mov	x17, x25
   890c8:	aa0503ea 	mov	x10, x5
   890cc:	f85903a2 	ldur	x2, [x29, #-112]
   890d0:	aa0303e9 	mov	x9, x3
   890d4:	aa0503e1 	mov	x1, x5
   890d8:	aa1e03e5 	mov	x5, x30
   890dc:	f2f4f226 	movk	x6, #0xa791, lsl #48
   890e0:	f2d22bc7 	movk	x7, #0x915e, lsl #32
   890e4:	a93a4fb8 	stp	x24, x19, [x29, #-96]
   890e8:	f2ff2cc7 	movk	x7, #0xf966, lsl #48
   890ec:	f81983b7 	stur	x23, [x29, #-104]
   890f0:	eb07001f 	cmp	x0, x7
   890f4:	54ff20e0 	b.eq	87510 <Java_com_adjust_sdk_sig_NativeLibHelper_nOnResume@@Base-0x4457c>  // b.none
   890f8:	d29cdae6 	mov	x6, #0xe6d7                	// #59095
   890fc:	d282f0a7 	mov	x7, #0x1785                	// #6021
   89100:	f2a4ef86 	movk	x6, #0x277c, lsl #16
   89104:	f2b34087 	movk	x7, #0x9a04, lsl #16
   89108:	f2d688c6 	movk	x6, #0xb446, lsl #32
   8910c:	2a1b03eb 	mov	w11, w27
   89110:	2a1403ec 	mov	w12, w20
   89114:	aa1a03ed 	mov	x13, x26
   89118:	aa1c03ee 	mov	x14, x28
   8911c:	aa1503ef 	mov	x15, x21
   89120:	aa1603f0 	mov	x16, x22
   89124:	aa1903f1 	mov	x17, x25
   89128:	aa0103ea 	mov	x10, x1
   8912c:	f85903a2 	ldur	x2, [x29, #-112]
   89130:	aa0303e9 	mov	x9, x3
   89134:	aa0803e4 	mov	x4, x8
   89138:	aa1e03e5 	mov	x5, x30
   8913c:	f2f05306 	movk	x6, #0x8298, lsl #48
   89140:	f2c08007 	movk	x7, #0x400, lsl #32
   89144:	a93a4fb8 	stp	x24, x19, [x29, #-96]
   89148:	f2ff3427 	movk	x7, #0xf9a1, lsl #48
   8914c:	f81983b7 	stur	x23, [x29, #-104]
   89150:	eb07001f 	cmp	x0, x7
   89154:	54ff1de0 	b.eq	87510 <Java_com_adjust_sdk_sig_NativeLibHelper_nOnResume@@Base-0x4457c>  // b.none
   89158:	d28dcea6 	mov	x6, #0x6e75                	// #28277
   8915c:	d2975947 	mov	x7, #0xbaca                	// #47818
   89160:	f2bf58c6 	movk	x6, #0xfac6, lsl #16
   89164:	f2b8d087 	movk	x7, #0xc684, lsl #16
   89168:	f2c3ad86 	movk	x6, #0x1d6c, lsl #32
   8916c:	2a1b03eb 	mov	w11, w27
   89170:	2a1403ec 	mov	w12, w20
   89174:	aa1a03ed 	mov	x13, x26
   89178:	aa1c03ee 	mov	x14, x28
   8917c:	aa1503ef 	mov	x15, x21
   89180:	aa1603f0 	mov	x16, x22
   89184:	aa1903f1 	mov	x17, x25
   89188:	aa0103ea 	mov	x10, x1
   8918c:	f85903a2 	ldur	x2, [x29, #-112]
   89190:	aa0303e9 	mov	x9, x3
   89194:	aa0803e4 	mov	x4, x8
   89198:	aa1e03e5 	mov	x5, x30
   8919c:	f2f96c86 	movk	x6, #0xcb64, lsl #48
   891a0:	f2dbdd47 	movk	x7, #0xdeea, lsl #32
   891a4:	a93a4fb8 	stp	x24, x19, [x29, #-96]
   891a8:	f2ff6027 	movk	x7, #0xfb01, lsl #48
   891ac:	f81983b7 	stur	x23, [x29, #-104]
   891b0:	eb07001f 	cmp	x0, x7
   891b4:	54ff1ae0 	b.eq	87510 <Java_com_adjust_sdk_sig_NativeLibHelper_nOnResume@@Base-0x4457c>  // b.none
   891b8:	d29f7a48 	mov	x8, #0xfbd2                	// #64466
   891bc:	f2b1c708 	movk	x8, #0x8e38, lsl #16
   891c0:	f2dfd828 	movk	x8, #0xfec1, lsl #32
   891c4:	f2ff7468 	movk	x8, #0xfba3, lsl #48
   891c8:	eb08001f 	cmp	x0, x8
   891cc:	5401a560 	b.eq	8c678 <Java_com_adjust_sdk_sig_NativeLibHelper_nOnResume@@Base-0x3f414>  // b.none
   891d0:	a97787a8 	ldp	x8, x1, [x29, #-136]
   891d4:	d2991046 	mov	x6, #0xc882                	// #51330
   891d8:	d2929467 	mov	x7, #0x94a3                	// #38051
   891dc:	a9788ba3 	ldp	x3, x2, [x29, #-120]
   891e0:	f2af8f26 	movk	x6, #0x7c79, lsl #16
   891e4:	f2b70a47 	movk	x7, #0xb852, lsl #16
   891e8:	f2d5f9c6 	movk	x6, #0xafce, lsl #32
   891ec:	2a1b03eb 	mov	w11, w27
   891f0:	2a1403ec 	mov	w12, w20
   891f4:	aa1a03ed 	mov	x13, x26
   891f8:	aa1c03ee 	mov	x14, x28
   891fc:	aa1503ef 	mov	x15, x21
   89200:	aa1603f0 	mov	x16, x22
   89204:	aa1903f1 	mov	x17, x25
   89208:	aa0103ea 	mov	x10, x1
   8920c:	f85183a9 	ldur	x9, [x29, #-232]
   89210:	aa0803e4 	mov	x4, x8
   89214:	aa1e03e5 	mov	x5, x30
   89218:	f2f6fd46 	movk	x6, #0xb7ea, lsl #48
   8921c:	f2d10f67 	movk	x7, #0x887b, lsl #32
   89220:	f2ffa647 	movk	x7, #0xfd32, lsl #48
   89224:	a93a4fb8 	stp	x24, x19, [x29, #-96]
   89228:	eb07001f 	cmp	x0, x7
   8922c:	f81983b7 	stur	x23, [x29, #-104]
   89230:	54ff1700 	b.eq	87510 <Java_com_adjust_sdk_sig_NativeLibHelper_nOnResume@@Base-0x4457c>  // b.none
   89234:	d29d21a6 	mov	x6, #0xe90d                	// #59661
   89238:	d29c5087 	mov	x7, #0xe284                	// #57988
   8923c:	f2aea626 	movk	x6, #0x7531, lsl #16
   89240:	f2bdf727 	movk	x7, #0xefb9, lsl #16
   89244:	f2da3a26 	movk	x6, #0xd1d1, lsl #32
   89248:	2a1b03eb 	mov	w11, w27
   8924c:	2a1403ec 	mov	w12, w20
   89250:	aa1a03ed 	mov	x13, x26
   89254:	aa1c03ee 	mov	x14, x28
   89258:	aa1503ef 	mov	x15, x21
   8925c:	aa1603f0 	mov	x16, x22
   89260:	aa1903f1 	mov	x17, x25
   89264:	aa0103ea 	mov	x10, x1
   89268:	f85903a2 	ldur	x2, [x29, #-112]
   8926c:	aa0303e9 	mov	x9, x3
   89270:	aa0803e4 	mov	x4, x8
   89274:	aa1e03e5 	mov	x5, x30
   89278:	f2e21d06 	movk	x6, #0x10e8, lsl #48
   8927c:	f2cd83a7 	movk	x7, #0x6c1d, lsl #32
   89280:	a93a4fb8 	stp	x24, x19, [x29, #-96]
   89284:	f2ffd867 	movk	x7, #0xfec3, lsl #48
   89288:	f81983b7 	stur	x23, [x29, #-104]
   8928c:	eb07001f 	cmp	x0, x7
   89290:	54ff1400 	b.eq	87510 <Java_com_adjust_sdk_sig_NativeLibHelper_nOnResume@@Base-0x4457c>  // b.none
   89294:	d295fba6 	mov	x6, #0xafdd                	// #45021
   89298:	d29a0427 	mov	x7, #0xd021                	// #53281
   8929c:	f2b302a6 	movk	x6, #0x9815, lsl #16
   892a0:	f2ba06c7 	movk	x7, #0xd036, lsl #16
   892a4:	f2c3b226 	movk	x6, #0x1d91, lsl #32
   892a8:	2a1b03eb 	mov	w11, w27
   892ac:	2a1403ec 	mov	w12, w20
   892b0:	aa1a03ed 	mov	x13, x26
   892b4:	aa1c03ee 	mov	x14, x28
   892b8:	aa1503ef 	mov	x15, x21
   892bc:	aa1603f0 	mov	x16, x22
   892c0:	aa1903f1 	mov	x17, x25
   892c4:	aa0103ea 	mov	x10, x1
   892c8:	f85903a2 	ldur	x2, [x29, #-112]
   892cc:	aa0303e9 	mov	x9, x3
   892d0:	aa0803e4 	mov	x4, x8
   892d4:	aa1e03e5 	mov	x5, x30
   892d8:	f2f1e0a6 	movk	x6, #0x8f05, lsl #48
   892dc:	f2dea327 	movk	x7, #0xf519, lsl #32
   892e0:	a93a4fb8 	stp	x24, x19, [x29, #-96]
   892e4:	f2fff7c7 	movk	x7, #0xffbe, lsl #48
   892e8:	f81983b7 	stur	x23, [x29, #-104]
   892ec:	eb07001f 	cmp	x0, x7
   892f0:	54ff1100 	b.eq	87510 <Java_com_adjust_sdk_sig_NativeLibHelper_nOnResume@@Base-0x4457c>  // b.none
   892f4:	d29cb788 	mov	x8, #0xe5bc                	// #58812
   892f8:	f2bd44a8 	movk	x8, #0xea25, lsl #16
   892fc:	f2d60408 	movk	x8, #0xb020, lsl #32
   89300:	f2e00368 	movk	x8, #0x1b, lsl #48
   89304:	eb08001f 	cmp	x0, x8
   89308:	540274c0 	b.eq	8e1a0 <Java_com_adjust_sdk_sig_NativeLibHelper_nOnResume@@Base-0x3d8ec>  // b.none
   8930c:	d28f6168 	mov	x8, #0x7b0b                	// #31499
   89310:	a9780fa9 	ldp	x9, x3, [x29, #-128]
   89314:	f2bcec68 	movk	x8, #0xe763, lsl #16
   89318:	f2cc1108 	movk	x8, #0x6088, lsl #32
   8931c:	f2e00cc8 	movk	x8, #0x66, lsl #48
   89320:	eb08001f 	cmp	x0, x8
   89324:	54018640 	b.eq	8c3ec <Java_com_adjust_sdk_sig_NativeLibHelper_nOnResume@@Base-0x3f6a0>  // b.none
   89328:	d2850d86 	mov	x6, #0x286c                	// #10348
   8932c:	d2801dc7 	mov	x7, #0xee                  	// #238
   89330:	f2a13306 	movk	x6, #0x998, lsl #16
   89334:	f2b3a7a7 	movk	x7, #0x9d3d, lsl #16
   89338:	f2ce0d46 	movk	x6, #0x706a, lsl #32
   8933c:	2a1b03eb 	mov	w11, w27
   89340:	2a1403ec 	mov	w12, w20
   89344:	aa1a03ed 	mov	x13, x26
   89348:	aa1c03ee 	mov	x14, x28
   8934c:	aa1503ef 	mov	x15, x21
   89350:	aa1603f0 	mov	x16, x22
   89354:	aa1903f1 	mov	x17, x25
   89358:	aa0903ea 	mov	x10, x9
   8935c:	f85903a2 	ldur	x2, [x29, #-112]
   89360:	aa0303e9 	mov	x9, x3
   89364:	f85783a4 	ldur	x4, [x29, #-136]
   89368:	aa1e03e5 	mov	x5, x30
   8936c:	f2ee9e66 	movk	x6, #0x74f3, lsl #48
   89370:	f2d3fdc7 	movk	x7, #0x9fee, lsl #32
   89374:	a93a4fb8 	stp	x24, x19, [x29, #-96]
   89378:	f2e08687 	movk	x7, #0x434, lsl #48
   8937c:	f81983b7 	stur	x23, [x29, #-104]
   89380:	eb07001f 	cmp	x0, x7
   89384:	54ff0c60 	b.eq	87510 <Java_com_adjust_sdk_sig_NativeLibHelper_nOnResume@@Base-0x4457c>  // b.none
   89388:	d29e7648 	mov	x8, #0xf3b2                	// #62386
   8938c:	f2a0c5e8 	movk	x8, #0x62f, lsl #16
   89390:	f2d165c8 	movk	x8, #0x8b2e, lsl #32
   89394:	f2e087e8 	movk	x8, #0x43f, lsl #48
   89398:	eb08001f 	cmp	x0, x8
   8939c:	54027c80 	b.eq	8e32c <Java_com_adjust_sdk_sig_NativeLibHelper_nOnResume@@Base-0x3d760>  // b.none
   893a0:	a9780fa1 	ldp	x1, x3, [x29, #-128]
   893a4:	d29ea846 	mov	x6, #0xf542                	// #62786
   893a8:	d29bec87 	mov	x7, #0xdf64                	// #57188
   893ac:	f85783a8 	ldur	x8, [x29, #-136]
   893b0:	f2ab7926 	movk	x6, #0x5bc9, lsl #16
   893b4:	f2c78746 	movk	x6, #0x3c3a, lsl #32
   893b8:	f2a032e7 	movk	x7, #0x197, lsl #16
   893bc:	2a1b03eb 	mov	w11, w27
   893c0:	2a1403ec 	mov	w12, w20
   893c4:	aa1a03ed 	mov	x13, x26
   893c8:	aa1c03ee 	mov	x14, x28
   893cc:	aa1503ef 	mov	x15, x21
   893d0:	aa1603f0 	mov	x16, x22
   893d4:	aa1903f1 	mov	x17, x25
   893d8:	aa0103ea 	mov	x10, x1
   893dc:	f85903a2 	ldur	x2, [x29, #-112]
   893e0:	aa0303e9 	mov	x9, x3
   893e4:	aa0803e4 	mov	x4, x8
   893e8:	aa1e03e5 	mov	x5, x30
   893ec:	f2f639e6 	movk	x6, #0xb1cf, lsl #48
   893f0:	f2dc2bc7 	movk	x7, #0xe15e, lsl #32
   893f4:	f2e09d67 	movk	x7, #0x4eb, lsl #48
   893f8:	a93a4fb8 	stp	x24, x19, [x29, #-96]
   893fc:	eb07001f 	cmp	x0, x7
   89400:	f81983b7 	stur	x23, [x29, #-104]
   89404:	54ff0860 	b.eq	87510 <Java_com_adjust_sdk_sig_NativeLibHelper_nOnResume@@Base-0x4457c>  // b.none
   89408:	d29d9e26 	mov	x6, #0xecf1                	// #60657
   8940c:	d2921bc7 	mov	x7, #0x90de                	// #37086
   89410:	f2a357e6 	movk	x6, #0x1abf, lsl #16
   89414:	f2be0a67 	movk	x7, #0xf053, lsl #16
   89418:	f2d160e6 	movk	x6, #0x8b07, lsl #32
   8941c:	2a1b03eb 	mov	w11, w27
   89420:	2a1403ec 	mov	w12, w20
   89424:	aa1a03ed 	mov	x13, x26
   89428:	aa1c03ee 	mov	x14, x28
   8942c:	aa1503ef 	mov	x15, x21
   89430:	aa1603f0 	mov	x16, x22
   89434:	aa1903f1 	mov	x17, x25
   89438:	aa0103ea 	mov	x10, x1
   8943c:	f85903a2 	ldur	x2, [x29, #-112]
   89440:	aa0303e9 	mov	x9, x3
   89444:	aa0803e4 	mov	x4, x8
   89448:	aa1e03e5 	mov	x5, x30
   8944c:	f2e87486 	movk	x6, #0x43a4, lsl #48
   89450:	f2cb96c7 	movk	x7, #0x5cb6, lsl #32
   89454:	a93a4fb8 	stp	x24, x19, [x29, #-96]
   89458:	f2e0a1e7 	movk	x7, #0x50f, lsl #48
   8945c:	f81983b7 	stur	x23, [x29, #-104]
   89460:	eb07001f 	cmp	x0, x7
   89464:	54ff0560 	b.eq	87510 <Java_com_adjust_sdk_sig_NativeLibHelper_nOnResume@@Base-0x4457c>  // b.none
   89468:	d2820e88 	mov	x8, #0x1074                	// #4212
   8946c:	f2b8bcc8 	movk	x8, #0xc5e6, lsl #16
   89470:	f2cd3688 	movk	x8, #0x69b4, lsl #32
   89474:	f2e0e2a8 	movk	x8, #0x715, lsl #48
   89478:	eb08001f 	cmp	x0, x8
   8947c:	54027e60 	b.eq	8e448 <Java_com_adjust_sdk_sig_NativeLibHelper_nOnResume@@Base-0x3d644>  // b.none
   89480:	d29efa08 	mov	x8, #0xf7d0                	// #63440
   89484:	f85783a5 	ldur	x5, [x29, #-136]
   89488:	f2bb1288 	movk	x8, #0xd894, lsl #16
   8948c:	f2dc52e8 	movk	x8, #0xe297, lsl #32
   89490:	f2e0e9e8 	movk	x8, #0x74f, lsl #48
   89494:	eb08001f 	cmp	x0, x8
   89498:	54010760 	b.eq	8b584 <Java_com_adjust_sdk_sig_NativeLibHelper_nOnResume@@Base-0x40508>  // b.none
   8949c:	d2942608 	mov	x8, #0xa130                	// #41264
   894a0:	f2b9f448 	movk	x8, #0xcfa2, lsl #16
   894a4:	f2ca1348 	movk	x8, #0x509a, lsl #32
   894a8:	f2e128c8 	movk	x8, #0x946, lsl #48
   894ac:	eb08001f 	cmp	x0, x8
   894b0:	54025300 	b.eq	8df10 <Java_com_adjust_sdk_sig_NativeLibHelper_nOnResume@@Base-0x3db7c>  // b.none
   894b4:	d2850808 	mov	x8, #0x2840                	// #10304
   894b8:	f2b7d5a8 	movk	x8, #0xbead, lsl #16
   894bc:	f2c31e28 	movk	x8, #0x18f1, lsl #32
   894c0:	f2e12d08 	movk	x8, #0x968, lsl #48
   894c4:	eb08001f 	cmp	x0, x8
   894c8:	54016360 	b.eq	8c134 <Java_com_adjust_sdk_sig_NativeLibHelper_nOnResume@@Base-0x3f958>  // b.none
   894cc:	d28754c8 	mov	x8, #0x3aa6                	// #15014
   894d0:	f2af4888 	movk	x8, #0x7a44, lsl #16
   894d4:	f2dd4368 	movk	x8, #0xea1b, lsl #32
   894d8:	f2e15a08 	movk	x8, #0xad0, lsl #48
   894dc:	eb08001f 	cmp	x0, x8
   894e0:	5400cbe0 	b.eq	8ae5c <Java_com_adjust_sdk_sig_NativeLibHelper_nOnResume@@Base-0x40c30>  // b.none
   894e4:	d28ba348 	mov	x8, #0x5d1a                	// #23834
   894e8:	f2bb7488 	movk	x8, #0xdba4, lsl #16
   894ec:	f2d54828 	movk	x8, #0xaa41, lsl #32
   894f0:	f2e1e648 	movk	x8, #0xf32, lsl #48
   894f4:	eb08001f 	cmp	x0, x8
   894f8:	540123e0 	b.eq	8b974 <Java_com_adjust_sdk_sig_NativeLibHelper_nOnResume@@Base-0x40118>  // b.none
   894fc:	d2990f08 	mov	x8, #0xc878                	// #51320
   89500:	f2bc2d08 	movk	x8, #0xe168, lsl #16
   89504:	f2db26e8 	movk	x8, #0xd937, lsl #32
   89508:	f2e1ea48 	movk	x8, #0xf52, lsl #48
   8950c:	eb08001f 	cmp	x0, x8
   89510:	54026d20 	b.eq	8e2b4 <Java_com_adjust_sdk_sig_NativeLibHelper_nOnResume@@Base-0x3d7d8>  // b.none
   89514:	d28f0808 	mov	x8, #0x7840                	// #30784
   89518:	f2ac48c8 	movk	x8, #0x6246, lsl #16
   8951c:	f2decec8 	movk	x8, #0xf676, lsl #32
   89520:	f2e1f808 	movk	x8, #0xfc0, lsl #48
   89524:	eb08001f 	cmp	x0, x8
   89528:	54011fa0 	b.eq	8b91c <Java_com_adjust_sdk_sig_NativeLibHelper_nOnResume@@Base-0x40170>  // b.none
   8952c:	d29cdae6 	mov	x6, #0xe6d7                	// #59095
   89530:	d2885fe7 	mov	x7, #0x42ff                	// #17151
   89534:	a97827aa 	ldp	x10, x9, [x29, #-128]
   89538:	f2a4ef86 	movk	x6, #0x277c, lsl #16
   8953c:	f2b22027 	movk	x7, #0x9101, lsl #16
   89540:	f2d688c6 	movk	x6, #0xb446, lsl #32
   89544:	2a1b03eb 	mov	w11, w27
   89548:	2a1403ec 	mov	w12, w20
   8954c:	aa1a03ed 	mov	x13, x26
   89550:	aa1c03ee 	mov	x14, x28
   89554:	aa1503ef 	mov	x15, x21
   89558:	aa1603f0 	mov	x16, x22
   8955c:	aa1903f1 	mov	x17, x25
   89560:	f85903a2 	ldur	x2, [x29, #-112]
   89564:	aa0503e4 	mov	x4, x5
   89568:	aa1e03e5 	mov	x5, x30
   8956c:	f2f05306 	movk	x6, #0x8298, lsl #48
   89570:	f2c40207 	movk	x7, #0x2010, lsl #32
   89574:	a93a4fb8 	stp	x24, x19, [x29, #-96]
   89578:	f2e20da7 	movk	x7, #0x106d, lsl #48
   8957c:	f81983b7 	stur	x23, [x29, #-104]
   89580:	eb07001f 	cmp	x0, x7
   89584:	54fefc60 	b.eq	87510 <Java_com_adjust_sdk_sig_NativeLibHelper_nOnResume@@Base-0x4457c>  // b.none
   89588:	d29d21a8 	mov	x8, #0xe90d                	// #59661
   8958c:	f2aea628 	movk	x8, #0x7531, lsl #16
   89590:	f2da3a28 	movk	x8, #0xd1d1, lsl #32
   89594:	f2e21d08 	movk	x8, #0x10e8, lsl #48
   89598:	eb08001f 	cmp	x0, x8
   8959c:	540222e0 	b.eq	8d9f8 <Java_com_adjust_sdk_sig_NativeLibHelper_nOnResume@@Base-0x3e094>  // b.none
   895a0:	d29d9b88 	mov	x8, #0xecdc                	// #60636
   895a4:	f2a20b48 	movk	x8, #0x105a, lsl #16
   895a8:	f2d7dde8 	movk	x8, #0xbeef, lsl #32
   895ac:	f2e220e8 	movk	x8, #0x1107, lsl #48
   895b0:	eb08001f 	cmp	x0, x8
   895b4:	5401a2c0 	b.eq	8ca0c <Java_com_adjust_sdk_sig_NativeLibHelper_nOnResume@@Base-0x3f080>  // b.none
   895b8:	d29f5326 	mov	x6, #0xfa99                	// #64153
   895bc:	d29eec07 	mov	x7, #0xf760                	// #63328
   895c0:	a97827aa 	ldp	x10, x9, [x29, #-128]
   895c4:	f2bfbf46 	movk	x6, #0xfdfa, lsl #16
   895c8:	f2a13207 	movk	x7, #0x990, lsl #16
   895cc:	f2c46186 	movk	x6, #0x230c, lsl #32
   895d0:	2a1b03eb 	mov	w11, w27
   895d4:	2a1403ec 	mov	w12, w20
   895d8:	aa1a03ed 	mov	x13, x26
   895dc:	aa1c03ee 	mov	x14, x28
   895e0:	aa1503ef 	mov	x15, x21
   895e4:	f85103b0 	ldur	x16, [x29, #-240]
   895e8:	aa1903f1 	mov	x17, x25
   895ec:	f85903a2 	ldur	x2, [x29, #-112]
   895f0:	aa1e03e5 	mov	x5, x30
   895f4:	f85783a4 	ldur	x4, [x29, #-136]
   895f8:	f2f48f86 	movk	x6, #0xa47c, lsl #48
   895fc:	f2c79ee7 	movk	x7, #0x3cf7, lsl #32
   89600:	a93a4fb8 	stp	x24, x19, [x29, #-96]
   89604:	f2e26087 	movk	x7, #0x1304, lsl #48
   89608:	f81983b7 	stur	x23, [x29, #-104]
   8960c:	eb07001f 	cmp	x0, x7
   89610:	54fef800 	b.eq	87510 <Java_com_adjust_sdk_sig_NativeLibHelper_nOnResume@@Base-0x4457c>  // b.none
   89614:	d2852628 	mov	x8, #0x2931                	// #10545
   89618:	f2a5b408 	movk	x8, #0x2da0, lsl #16
   8961c:	f2d0e208 	movk	x8, #0x8710, lsl #32
   89620:	f2e26908 	movk	x8, #0x1348, lsl #48
   89624:	eb08001f 	cmp	x0, x8
   89628:	54027fe0 	b.eq	8e624 <Java_com_adjust_sdk_sig_NativeLibHelper_nOnResume@@Base-0x3d468>  // b.none
   8962c:	a9780fa1 	ldp	x1, x3, [x29, #-128]
   89630:	d29d9b86 	mov	x6, #0xecdc                	// #60636
   89634:	d281f4c7 	mov	x7, #0xfa6                 	// #4006
   89638:	f85783a8 	ldur	x8, [x29, #-136]
   8963c:	f2a20b46 	movk	x6, #0x105a, lsl #16
   89640:	f2d7dde6 	movk	x6, #0xbeef, lsl #32
   89644:	f2a9aa67 	movk	x7, #0x4d53, lsl #16
   89648:	2a1b03eb 	mov	w11, w27
   8964c:	2a1403ec 	mov	w12, w20
   89650:	aa1a03ed 	mov	x13, x26
   89654:	aa1c03ee 	mov	x14, x28
   89658:	aa1503ef 	mov	x15, x21
   8965c:	aa1603f0 	mov	x16, x22
   89660:	aa1903f1 	mov	x17, x25
   89664:	aa0103ea 	mov	x10, x1
   89668:	f85903a2 	ldur	x2, [x29, #-112]
   8966c:	aa0303e9 	mov	x9, x3
   89670:	aa0803e4 	mov	x4, x8
   89674:	aa1e03e5 	mov	x5, x30
   89678:	f2e220e6 	movk	x6, #0x1107, lsl #48
   8967c:	f2d89127 	movk	x7, #0xc489, lsl #32
   89680:	f2e26e07 	movk	x7, #0x1370, lsl #48
   89684:	a93a4fb8 	stp	x24, x19, [x29, #-96]
   89688:	eb07001f 	cmp	x0, x7
   8968c:	f81983b7 	stur	x23, [x29, #-104]
   89690:	54fef400 	b.eq	87510 <Java_com_adjust_sdk_sig_NativeLibHelper_nOnResume@@Base-0x4457c>  // b.none
   89694:	d29f78c6 	mov	x6, #0xfbc6                	// #64454
   89698:	d294d6c7 	mov	x7, #0xa6b6                	// #42678
   8969c:	f2b46f46 	movk	x6, #0xa37a, lsl #16
   896a0:	f2a5f247 	movk	x7, #0x2f92, lsl #16
   896a4:	f2d47a66 	movk	x6, #0xa3d3, lsl #32
   896a8:	2a1b03eb 	mov	w11, w27
   896ac:	2a1403ec 	mov	w12, w20
   896b0:	aa1a03ed 	mov	x13, x26
   896b4:	aa1c03ee 	mov	x14, x28
   896b8:	aa1503ef 	mov	x15, x21
   896bc:	aa1603f0 	mov	x16, x22
   896c0:	aa1903f1 	mov	x17, x25
   896c4:	aa0103ea 	mov	x10, x1
   896c8:	f85903a2 	ldur	x2, [x29, #-112]
   896cc:	aa0303e9 	mov	x9, x3
   896d0:	aa0803e4 	mov	x4, x8
   896d4:	aa1e03e5 	mov	x5, x30
   896d8:	f2f75c46 	movk	x6, #0xbae2, lsl #48
   896dc:	f2c46427 	movk	x7, #0x2321, lsl #32
   896e0:	a93a4fb8 	stp	x24, x19, [x29, #-96]
   896e4:	f2e29187 	movk	x7, #0x148c, lsl #48
   896e8:	f81983b7 	stur	x23, [x29, #-104]
   896ec:	eb07001f 	cmp	x0, x7
   896f0:	54fef100 	b.eq	87510 <Java_com_adjust_sdk_sig_NativeLibHelper_nOnResume@@Base-0x4457c>  // b.none
   896f4:	d2996fe6 	mov	x6, #0xcb7f                	// #52095
   896f8:	d286c3c7 	mov	x7, #0x361e                	// #13854
   896fc:	f2a4b506 	movk	x6, #0x25a8, lsl #16
   89700:	f2b3a947 	movk	x7, #0x9d4a, lsl #16
   89704:	f2df93a6 	movk	x6, #0xfc9d, lsl #32
   89708:	2a1b03eb 	mov	w11, w27
   8970c:	2a1403ec 	mov	w12, w20
   89710:	aa1a03ed 	mov	x13, x26
   89714:	aa1c03ee 	mov	x14, x28
   89718:	aa1503ef 	mov	x15, x21
   8971c:	aa1603f0 	mov	x16, x22
   89720:	aa1903f1 	mov	x17, x25
   89724:	aa0103ea 	mov	x10, x1
   89728:	f85903a2 	ldur	x2, [x29, #-112]
   8972c:	aa0303e9 	mov	x9, x3
   89730:	aa0803e4 	mov	x4, x8
   89734:	aa1e03e5 	mov	x5, x30
   89738:	f2efd306 	movk	x6, #0x7e98, lsl #48
   8973c:	f2d5dd47 	movk	x7, #0xaeea, lsl #32
   89740:	a93a4fb8 	stp	x24, x19, [x29, #-96]
   89744:	f2e2b0a7 	movk	x7, #0x1585, lsl #48
   89748:	f81983b7 	stur	x23, [x29, #-104]
   8974c:	eb07001f 	cmp	x0, x7
   89750:	54feee00 	b.eq	87510 <Java_com_adjust_sdk_sig_NativeLibHelper_nOnResume@@Base-0x4457c>  // b.none
   89754:	d28e1c06 	mov	x6, #0x70e0                	// #28896
   89758:	d289f107 	mov	x7, #0x4f88                	// #20360
   8975c:	f2b61206 	movk	x6, #0xb090, lsl #16
   89760:	f2b27c27 	movk	x7, #0x93e1, lsl #16
   89764:	f2d208e6 	movk	x6, #0x9047, lsl #32
   89768:	2a1b03eb 	mov	w11, w27
   8976c:	2a1403ec 	mov	w12, w20
   89770:	aa1a03ed 	mov	x13, x26
   89774:	aa1c03ee 	mov	x14, x28
   89778:	aa1503ef 	mov	x15, x21
   8977c:	aa1603f0 	mov	x16, x22
   89780:	aa1903f1 	mov	x17, x25
   89784:	aa0103ea 	mov	x10, x1
   89788:	f85903a2 	ldur	x2, [x29, #-112]
   8978c:	aa0303e9 	mov	x9, x3
   89790:	aa0803e4 	mov	x4, x8
   89794:	aa1e03e5 	mov	x5, x30
   89798:	f2ff1406 	movk	x6, #0xf8a0, lsl #48
   8979c:	f2c4ca27 	movk	x7, #0x2651, lsl #32
   897a0:	a93a4fb8 	stp	x24, x19, [x29, #-96]
   897a4:	f2e2be87 	movk	x7, #0x15f4, lsl #48
   897a8:	f81983b7 	stur	x23, [x29, #-104]
   897ac:	eb07001f 	cmp	x0, x7
   897b0:	54feeb00 	b.eq	87510 <Java_com_adjust_sdk_sig_NativeLibHelper_nOnResume@@Base-0x4457c>  // b.none
   897b4:	d2974968 	mov	x8, #0xba4b                	// #47691
   897b8:	f2bf1388 	movk	x8, #0xf89c, lsl #16
   897bc:	f2d33628 	movk	x8, #0x99b1, lsl #32
   897c0:	f2e2de88 	movk	x8, #0x16f4, lsl #48
   897c4:	eb08001f 	cmp	x0, x8
   897c8:	54013200 	b.eq	8be08 <Java_com_adjust_sdk_sig_NativeLibHelper_nOnResume@@Base-0x3fc84>  // b.none
   897cc:	d284c788 	mov	x8, #0x263c                	// #9788
   897d0:	a9780faa 	ldp	x10, x3, [x29, #-128]
   897d4:	f2a07b88 	movk	x8, #0x3dc, lsl #16
   897d8:	f2c278c8 	movk	x8, #0x13c6, lsl #32
   897dc:	f2e30168 	movk	x8, #0x180b, lsl #48
   897e0:	eb08001f 	cmp	x0, x8
   897e4:	54028720 	b.eq	8e8c8 <Java_com_adjust_sdk_sig_NativeLibHelper_nOnResume@@Base-0x3d1c4>  // b.none
   897e8:	d28eeb48 	mov	x8, #0x775a                	// #30554
   897ec:	f85783a4 	ldur	x4, [x29, #-136]
   897f0:	f2b09ae8 	movk	x8, #0x84d7, lsl #16
   897f4:	f2d695e8 	movk	x8, #0xb4af, lsl #32
   897f8:	f2e303c8 	movk	x8, #0x181e, lsl #48
   897fc:	eb08001f 	cmp	x0, x8
   89800:	54026580 	b.eq	8e4b0 <Java_com_adjust_sdk_sig_NativeLibHelper_nOnResume@@Base-0x3d5dc>  // b.none
   89804:	d29f78c6 	mov	x6, #0xfbc6                	// #64454
   89808:	d2995867 	mov	x7, #0xcac3                	// #51907
   8980c:	f2b46f46 	movk	x6, #0xa37a, lsl #16
   89810:	f2ad1a47 	movk	x7, #0x68d2, lsl #16
   89814:	f2d47a66 	movk	x6, #0xa3d3, lsl #32
   89818:	2a1b03eb 	mov	w11, w27
   8981c:	2a1403ec 	mov	w12, w20
   89820:	aa1a03ed 	mov	x13, x26
   89824:	aa1c03ee 	mov	x14, x28
   89828:	aa1503ef 	mov	x15, x21
   8982c:	aa1603f0 	mov	x16, x22
   89830:	aa1903f1 	mov	x17, x25
   89834:	f85903a2 	ldur	x2, [x29, #-112]
   89838:	aa0303e9 	mov	x9, x3
   8983c:	aa1e03e5 	mov	x5, x30
   89840:	f2f75c46 	movk	x6, #0xbae2, lsl #48
   89844:	f2cc0e27 	movk	x7, #0x6071, lsl #32
   89848:	a93a4fb8 	stp	x24, x19, [x29, #-96]
   8984c:	f2e350a7 	movk	x7, #0x1a85, lsl #48
   89850:	f81983b7 	stur	x23, [x29, #-104]
   89854:	eb07001f 	cmp	x0, x7
   89858:	54fee5c0 	b.eq	87510 <Java_com_adjust_sdk_sig_NativeLibHelper_nOnResume@@Base-0x4457c>  // b.none
   8985c:	d28284e8 	mov	x8, #0x1427                	// #5159
   89860:	f2bbce08 	movk	x8, #0xde70, lsl #16
   89864:	f2c24d68 	movk	x8, #0x126b, lsl #32
   89868:	f2e3a948 	movk	x8, #0x1d4a, lsl #48
   8986c:	eb08001f 	cmp	x0, x8
   89870:	54018a00 	b.eq	8c9b0 <Java_com_adjust_sdk_sig_NativeLibHelper_nOnResume@@Base-0x3f0dc>  // b.none
   89874:	d29311a6 	mov	x6, #0x988d                	// #39053
   89878:	d283c2c7 	mov	x7, #0x1e16                	// #7702
   8987c:	a97827aa 	ldp	x10, x9, [x29, #-128]
   89880:	f2b13b66 	movk	x6, #0x89db, lsl #16
   89884:	f2ba9907 	movk	x7, #0xd4c8, lsl #16
   89888:	f2dfe446 	movk	x6, #0xff22, lsl #32
   8988c:	2a1b03eb 	mov	w11, w27
   89890:	2a1403ec 	mov	w12, w20
   89894:	aa1a03ed 	mov	x13, x26
   89898:	aa1c03ee 	mov	x14, x28
   8989c:	aa1503ef 	mov	x15, x21
   898a0:	aa1603f0 	mov	x16, x22
   898a4:	aa1903f1 	mov	x17, x25
   898a8:	f85903a2 	ldur	x2, [x29, #-112]
   898ac:	aa1e03e5 	mov	x5, x30
   898b0:	f85783a4 	ldur	x4, [x29, #-136]
   898b4:	f2eb0d46 	movk	x6, #0x586a, lsl #48
   898b8:	f2d1fd27 	movk	x7, #0x8fe9, lsl #32
   898bc:	a93a4fb8 	stp	x24, x19, [x29, #-96]
   898c0:	f2e3ac27 	movk	x7, #0x1d61, lsl #48
   898c4:	f81983b7 	stur	x23, [x29, #-104]
   898c8:	eb07001f 	cmp	x0, x7
   898cc:	54fee220 	b.eq	87510 <Java_com_adjust_sdk_sig_NativeLibHelper_nOnResume@@Base-0x4457c>  // b.none
   898d0:	d2844508 	mov	x8, #0x2228                	// #8744
   898d4:	f2b1c008 	movk	x8, #0x8e00, lsl #16
   898d8:	f2d471c8 	movk	x8, #0xa38e, lsl #32
   898dc:	f2e40be8 	movk	x8, #0x205f, lsl #48
   898e0:	eb08001f 	cmp	x0, x8
   898e4:	540255e0 	b.eq	8e3a0 <Java_com_adjust_sdk_sig_NativeLibHelper_nOnResume@@Base-0x3d6ec>  // b.none
   898e8:	d287b928 	mov	x8, #0x3dc9                	// #15817
   898ec:	f2a55f28 	movk	x8, #0x2af9, lsl #16
   898f0:	f2c88068 	movk	x8, #0x4403, lsl #32
   898f4:	f2e40de8 	movk	x8, #0x206f, lsl #48
   898f8:	eb08001f 	cmp	x0, x8
   898fc:	5401da00 	b.eq	8d43c <Java_com_adjust_sdk_sig_NativeLibHelper_nOnResume@@Base-0x3e650>  // b.none
   89900:	d2938208 	mov	x8, #0x9c10                	// #39952
   89904:	f2b40cc8 	movk	x8, #0xa066, lsl #16
   89908:	f2c64428 	movk	x8, #0x3221, lsl #32
   8990c:	f2e44288 	movk	x8, #0x2214, lsl #48
   89910:	eb08001f 	cmp	x0, x8
   89914:	54021100 	b.eq	8db34 <Java_com_adjust_sdk_sig_NativeLibHelper_nOnResume@@Base-0x3df58>  // b.none
   89918:	d2870806 	mov	x6, #0x3840                	// #14400
   8991c:	d29bf947 	mov	x7, #0xdfca                	// #57290
   89920:	a97827aa 	ldp	x10, x9, [x29, #-128]
   89924:	f2a4f006 	movk	x6, #0x2780, lsl #16
   89928:	f2abc987 	movk	x7, #0x5e4c, lsl #16
   8992c:	f2d4bb66 	movk	x6, #0xa5db, lsl #32
   89930:	2a1b03eb 	mov	w11, w27
   89934:	2a1403ec 	mov	w12, w20
   89938:	aa1a03ed 	mov	x13, x26
   8993c:	aa1c03ee 	mov	x14, x28
   89940:	aa1503ef 	mov	x15, x21
   89944:	aa1603f0 	mov	x16, x22
   89948:	aa1903f1 	mov	x17, x25
   8994c:	f85903a2 	ldur	x2, [x29, #-112]
   89950:	aa1e03e5 	mov	x5, x30
   89954:	f85783a4 	ldur	x4, [x29, #-136]
   89958:	f2e6a806 	movk	x6, #0x3540, lsl #48
   8995c:	f2c87347 	movk	x7, #0x439a, lsl #32
   89960:	a93a4fb8 	stp	x24, x19, [x29, #-96]
   89964:	f2e44807 	movk	x7, #0x2240, lsl #48
   89968:	f81983b7 	stur	x23, [x29, #-104]
   8996c:	eb07001f 	cmp	x0, x7
   89970:	54fedd00 	b.eq	87510 <Java_com_adjust_sdk_sig_NativeLibHelper_nOnResume@@Base-0x4457c>  // b.none
   89974:	d2863be8 	mov	x8, #0x31df                	// #12767
   89978:	f2b3ad08 	movk	x8, #0x9d68, lsl #16
   8997c:	f2d54208 	movk	x8, #0xaa10, lsl #32
   89980:	f2e461c8 	movk	x8, #0x230e, lsl #48
   89984:	eb08001f 	cmp	x0, x8
   89988:	5401cde0 	b.eq	8d344 <Java_com_adjust_sdk_sig_NativeLibHelper_nOnResume@@Base-0x3e748>  // b.none
   8998c:	d2997388 	mov	x8, #0xcb9c                	// #52124
   89990:	a9780fa2 	ldp	x2, x3, [x29, #-128]
   89994:	f2b11428 	movk	x8, #0x88a1, lsl #16
   89998:	f2cceee8 	movk	x8, #0x6777, lsl #32
   8999c:	f2e4bd88 	movk	x8, #0x25ec, lsl #48
   899a0:	eb08001f 	cmp	x0, x8
   899a4:	5400cc80 	b.eq	8b334 <Java_com_adjust_sdk_sig_NativeLibHelper_nOnResume@@Base-0x40758>  // b.none
   899a8:	d29be1a8 	mov	x8, #0xdf0d                	// #57101
   899ac:	f2b0de28 	movk	x8, #0x86f1, lsl #16
   899b0:	f2d05928 	movk	x8, #0x82c9, lsl #32
   899b4:	f2e4f988 	movk	x8, #0x27cc, lsl #48
   899b8:	eb08001f 	cmp	x0, x8
   899bc:	5401f9c0 	b.eq	8d8f4 <Java_com_adjust_sdk_sig_NativeLibHelper_nOnResume@@Base-0x3e198>  // b.none
   899c0:	d2863dc8 	mov	x8, #0x31ee                	// #12782
   899c4:	f2b68d88 	movk	x8, #0xb46c, lsl #16
   899c8:	f2ddc7a8 	movk	x8, #0xee3d, lsl #32
   899cc:	f2e50308 	movk	x8, #0x2818, lsl #48
   899d0:	eb08001f 	cmp	x0, x8
   899d4:	5400c600 	b.eq	8b294 <Java_com_adjust_sdk_sig_NativeLibHelper_nOnResume@@Base-0x407f8>  // b.none
   899d8:	d2836e26 	mov	x6, #0x1b71                	// #7025
   899dc:	d292cd87 	mov	x7, #0x966c                	// #38508
   899e0:	f2be9c86 	movk	x6, #0xf4e4, lsl #16
   899e4:	f2b76567 	movk	x7, #0xbb2b, lsl #16
   899e8:	f2d931c6 	movk	x6, #0xc98e, lsl #32
   899ec:	2a1b03eb 	mov	w11, w27
   899f0:	2a1403ec 	mov	w12, w20
   899f4:	aa1a03ed 	mov	x13, x26
   899f8:	aa1c03ee 	mov	x14, x28
   899fc:	aa1503ef 	mov	x15, x21
   89a00:	aa1603f0 	mov	x16, x22
   89a04:	aa1903f1 	mov	x17, x25
   89a08:	aa0203ea 	mov	x10, x2
   89a0c:	f85903a2 	ldur	x2, [x29, #-112]
   89a10:	aa0303e9 	mov	x9, x3
   89a14:	f85783a4 	ldur	x4, [x29, #-136]
   89a18:	aa1e03e5 	mov	x5, x30
   89a1c:	f2f9baa6 	movk	x6, #0xcdd5, lsl #48
   89a20:	f2d6cfa7 	movk	x7, #0xb67d, lsl #32
   89a24:	a93a4fb8 	stp	x24, x19, [x29, #-96]
   89a28:	f2e50ca7 	movk	x7, #0x2865, lsl #48
   89a2c:	f81983b7 	stur	x23, [x29, #-104]
   89a30:	eb07001f 	cmp	x0, x7
   89a34:	54fed6e0 	b.eq	87510 <Java_com_adjust_sdk_sig_NativeLibHelper_nOnResume@@Base-0x4457c>  // b.none
   89a38:	d28672a8 	mov	x8, #0x3395                	// #13205
   89a3c:	f2a39968 	movk	x8, #0x1ccb, lsl #16
   89a40:	f2d05368 	movk	x8, #0x829b, lsl #32
   89a44:	f2e52ea8 	movk	x8, #0x2975, lsl #48
   89a48:	eb08001f 	cmp	x0, x8
   89a4c:	540148e0 	b.eq	8c368 <Java_com_adjust_sdk_sig_NativeLibHelper_nOnResume@@Base-0x3f724>  // b.none
   89a50:	d28e0068 	mov	x8, #0x7003                	// #28675
   89a54:	f2a74c48 	movk	x8, #0x3a62, lsl #16
   89a58:	f2dd4368 	movk	x8, #0xea1b, lsl #32
   89a5c:	f2e55928 	movk	x8, #0x2ac9, lsl #48
   89a60:	eb08001f 	cmp	x0, x8
   89a64:	5401b7a0 	b.eq	8d158 <Java_com_adjust_sdk_sig_NativeLibHelper_nOnResume@@Base-0x3e934>  // b.none
   89a68:	d29b2128 	mov	x8, #0xd909                	// #55561
   89a6c:	f2b7b7a8 	movk	x8, #0xbdbd, lsl #16
   89a70:	f2c732e8 	movk	x8, #0x3997, lsl #32
   89a74:	f2e578e8 	movk	x8, #0x2bc7, lsl #48
   89a78:	eb08001f 	cmp	x0, x8
   89a7c:	5401eb00 	b.eq	8d7dc <Java_com_adjust_sdk_sig_NativeLibHelper_nOnResume@@Base-0x3e2b0>  // b.none
   89a80:	d299cfe8 	mov	x8, #0xce7f                	// #52863
   89a84:	a9780fa5 	ldp	x5, x3, [x29, #-128]
   89a88:	f2bbe148 	movk	x8, #0xdf0a, lsl #16
   89a8c:	f2d41708 	movk	x8, #0xa0b8, lsl #32
   89a90:	f2e5a0c8 	movk	x8, #0x2d06, lsl #48
   89a94:	eb08001f 	cmp	x0, x8
   89a98:	5401a500 	b.eq	8cf38 <Java_com_adjust_sdk_sig_NativeLibHelper_nOnResume@@Base-0x3eb54>  // b.none
   89a9c:	d2958028 	mov	x8, #0xac01                	// #44033
   89aa0:	f2bd4de8 	movk	x8, #0xea6f, lsl #16
   89aa4:	f2db4be8 	movk	x8, #0xda5f, lsl #32
   89aa8:	f2e5b408 	movk	x8, #0x2da0, lsl #48
   89aac:	eb08001f 	cmp	x0, x8
   89ab0:	54026780 	b.eq	8e7a0 <Java_com_adjust_sdk_sig_NativeLibHelper_nOnResume@@Base-0x3d2ec>  // b.none
   89ab4:	d28e2508 	mov	x8, #0x7128                	// #28968
   89ab8:	f2b06f48 	movk	x8, #0x837a, lsl #16
   89abc:	f2c37d88 	movk	x8, #0x1bec, lsl #32
   89ac0:	f2e5ea28 	movk	x8, #0x2f51, lsl #48
   89ac4:	eb08001f 	cmp	x0, x8
   89ac8:	54021b00 	b.eq	8de28 <Java_com_adjust_sdk_sig_NativeLibHelper_nOnResume@@Base-0x3dc64>  // b.none
   89acc:	f85783a8 	ldur	x8, [x29, #-136]
   89ad0:	d293e266 	mov	x6, #0x9f13                	// #40723
   89ad4:	f2a6f386 	movk	x6, #0x379c, lsl #16
   89ad8:	d2885127 	mov	x7, #0x4289                	// #17033
   89adc:	f2ddcac6 	movk	x6, #0xee56, lsl #32
   89ae0:	f2ac4147 	movk	x7, #0x620a, lsl #16
   89ae4:	2a1b03eb 	mov	w11, w27
   89ae8:	2a1403ec 	mov	w12, w20
   89aec:	aa1a03ed 	mov	x13, x26
   89af0:	aa1c03ee 	mov	x14, x28
   89af4:	aa1503ef 	mov	x15, x21
   89af8:	aa1603f0 	mov	x16, x22
   89afc:	aa1903f1 	mov	x17, x25
   89b00:	aa0503ea 	mov	x10, x5
   89b04:	f85903a2 	ldur	x2, [x29, #-112]
   89b08:	aa0303e9 	mov	x9, x3
   89b0c:	aa0803e4 	mov	x4, x8
   89b10:	aa0503e1 	mov	x1, x5
   89b14:	aa1e03e5 	mov	x5, x30
   89b18:	f2f1e1e6 	movk	x6, #0x8f0f, lsl #48
   89b1c:	f2d640e7 	movk	x7, #0xb207, lsl #32
   89b20:	a93a4fb8 	stp	x24, x19, [x29, #-96]
   89b24:	f2e5f287 	movk	x7, #0x2f94, lsl #48
   89b28:	f81983b7 	stur	x23, [x29, #-104]
   89b2c:	eb07001f 	cmp	x0, x7
   89b30:	54fecf00 	b.eq	87510 <Java_com_adjust_sdk_sig_NativeLibHelper_nOnResume@@Base-0x4457c>  // b.none
   89b34:	d288ea46 	mov	x6, #0x4752                	// #18258
   89b38:	d290d127 	mov	x7, #0x8689                	// #34441
   89b3c:	f2a75ec6 	movk	x6, #0x3af6, lsl #16
   89b40:	f2a8d0e7 	movk	x7, #0x4687, lsl #16
   89b44:	f2dff186 	movk	x6, #0xff8c, lsl #32
   89b48:	2a1b03eb 	mov	w11, w27
   89b4c:	2a1403ec 	mov	w12, w20
   89b50:	aa1a03ed 	mov	x13, x26
   89b54:	aa1c03ee 	mov	x14, x28
   89b58:	aa1503ef 	mov	x15, x21
   89b5c:	aa1603f0 	mov	x16, x22
   89b60:	aa1903f1 	mov	x17, x25
   89b64:	aa0103ea 	mov	x10, x1
   89b68:	f85903a2 	ldur	x2, [x29, #-112]
   89b6c:	aa0303e9 	mov	x9, x3
   89b70:	aa0803e4 	mov	x4, x8
   89b74:	aa1e03e5 	mov	x5, x30
   89b78:	f2fd7f26 	movk	x6, #0xebf9, lsl #48
   89b7c:	f2d488c7 	movk	x7, #0xa446, lsl #32
   89b80:	a93a4fb8 	stp	x24, x19, [x29, #-96]
   89b84:	f2e60727 	movk	x7, #0x3039, lsl #48
   89b88:	f81983b7 	stur	x23, [x29, #-104]
   89b8c:	eb07001f 	cmp	x0, x7
   89b90:	54fecc00 	b.eq	87510 <Java_com_adjust_sdk_sig_NativeLibHelper_nOnResume@@Base-0x4457c>  // b.none
   89b94:	d28f5d68 	mov	x8, #0x7aeb                	// #31467
   89b98:	f2a4d3e8 	movk	x8, #0x269f, lsl #16
   89b9c:	f2deeb68 	movk	x8, #0xf75b, lsl #32
   89ba0:	f2e63f48 	movk	x8, #0x31fa, lsl #48
   89ba4:	eb08001f 	cmp	x0, x8
   89ba8:	5400fca0 	b.eq	8bb3c <Java_com_adjust_sdk_sig_NativeLibHelper_nOnResume@@Base-0x3ff50>  // b.none
   89bac:	d29827a8 	mov	x8, #0xc13d                	// #49469
   89bb0:	f2b3bbe8 	movk	x8, #0x9ddf, lsl #16
   89bb4:	f2cbe9e8 	movk	x8, #0x5f4f, lsl #32
   89bb8:	f2e64de8 	movk	x8, #0x326f, lsl #48
   89bbc:	eb08001f 	cmp	x0, x8
   89bc0:	5400e520 	b.eq	8b864 <Java_com_adjust_sdk_sig_NativeLibHelper_nOnResume@@Base-0x40228>  // b.none
   89bc4:	d282c1a8 	mov	x8, #0x160d                	// #5645
   89bc8:	f2b90f48 	movk	x8, #0xc87a, lsl #16
   89bcc:	f2d7d428 	movk	x8, #0xbea1, lsl #32
   89bd0:	f2e66148 	movk	x8, #0x330a, lsl #48
   89bd4:	eb08001f 	cmp	x0, x8
   89bd8:	54010f20 	b.eq	8bdbc <Java_com_adjust_sdk_sig_NativeLibHelper_nOnResume@@Base-0x3fcd0>  // b.none
   89bdc:	d29ee468 	mov	x8, #0xf723                	// #63267
   89be0:	a9780fa5 	ldp	x5, x3, [x29, #-128]
   89be4:	f2aaf268 	movk	x8, #0x5793, lsl #16
   89be8:	f2d0bf48 	movk	x8, #0x85fa, lsl #32
   89bec:	f2e6a768 	movk	x8, #0x353b, lsl #48
   89bf0:	eb08001f 	cmp	x0, x8
   89bf4:	540163a0 	b.eq	8c868 <Java_com_adjust_sdk_sig_NativeLibHelper_nOnResume@@Base-0x3f224>  // b.none
   89bf8:	d2870808 	mov	x8, #0x3840                	// #14400
   89bfc:	f2a4f008 	movk	x8, #0x2780, lsl #16
   89c00:	f2d4bb68 	movk	x8, #0xa5db, lsl #32
   89c04:	f2e6a808 	movk	x8, #0x3540, lsl #48
   89c08:	eb08001f 	cmp	x0, x8
   89c0c:	5400d320 	b.eq	8b670 <Java_com_adjust_sdk_sig_NativeLibHelper_nOnResume@@Base-0x4041c>  // b.none
   89c10:	d28bb4c8 	mov	x8, #0x5da6                	// #23974
   89c14:	f2a995e8 	movk	x8, #0x4caf, lsl #16
   89c18:	f2d46188 	movk	x8, #0xa30c, lsl #32
   89c1c:	f2e6d508 	movk	x8, #0x36a8, lsl #48
   89c20:	eb08001f 	cmp	x0, x8
   89c24:	54020960 	b.eq	8dd50 <Java_com_adjust_sdk_sig_NativeLibHelper_nOnResume@@Base-0x3dd3c>  // b.none
   89c28:	d298f888 	mov	x8, #0xc7c4                	// #51140
   89c2c:	f85783a4 	ldur	x4, [x29, #-136]
   89c30:	f2a1ada8 	movk	x8, #0xd6d, lsl #16
   89c34:	f2d21368 	movk	x8, #0x909b, lsl #32
   89c38:	f2e6e048 	movk	x8, #0x3702, lsl #48
   89c3c:	eb08001f 	cmp	x0, x8
   89c40:	5400f000 	b.eq	8ba40 <Java_com_adjust_sdk_sig_NativeLibHelper_nOnResume@@Base-0x4004c>  // b.none
   89c44:	d29f5286 	mov	x6, #0xfa94                	// #64148
   89c48:	d2900ee7 	mov	x7, #0x8077                	// #32887
   89c4c:	f2b80926 	movk	x6, #0xc049, lsl #16
   89c50:	f2a041c7 	movk	x7, #0x20e, lsl #16
   89c54:	f2dbd606 	movk	x6, #0xdeb0, lsl #32
   89c58:	2a1b03eb 	mov	w11, w27
   89c5c:	2a1403ec 	mov	w12, w20
   89c60:	aa1a03ed 	mov	x13, x26
   89c64:	aa1c03ee 	mov	x14, x28
   89c68:	aa1503ef 	mov	x15, x21
   89c6c:	aa1603f0 	mov	x16, x22
   89c70:	aa1903f1 	mov	x17, x25
   89c74:	aa0503ea 	mov	x10, x5
   89c78:	f85903a2 	ldur	x2, [x29, #-112]
   89c7c:	aa0303e9 	mov	x9, x3
   89c80:	aa1e03e5 	mov	x5, x30
   89c84:	f2f87906 	movk	x6, #0xc3c8, lsl #48
   89c88:	f2d342e7 	movk	x7, #0x9a17, lsl #32
   89c8c:	f2e71ca7 	movk	x7, #0x38e5, lsl #48
   89c90:	a93a4fb8 	stp	x24, x19, [x29, #-96]
   89c94:	eb07001f 	cmp	x0, x7
   89c98:	f81983b7 	stur	x23, [x29, #-104]
   89c9c:	54fec3a0 	b.eq	87510 <Java_com_adjust_sdk_sig_NativeLibHelper_nOnResume@@Base-0x4457c>  // b.none
   89ca0:	d2886868 	mov	x8, #0x4343                	// #17219
   89ca4:	f2b36048 	movk	x8, #0x9b02, lsl #16
   89ca8:	f2c2ff48 	movk	x8, #0x17fa, lsl #32
   89cac:	f2e78208 	movk	x8, #0x3c10, lsl #48
   89cb0:	eb08001f 	cmp	x0, x8
   89cb4:	540178a0 	b.eq	8cbc8 <Java_com_adjust_sdk_sig_NativeLibHelper_nOnResume@@Base-0x3eec4>  // b.none
   89cb8:	d29b0388 	mov	x8, #0xd81c                	// #55324
   89cbc:	f85883a9 	ldur	x9, [x29, #-120]
   89cc0:	a977aba4 	ldp	x4, x10, [x29, #-136]
   89cc4:	f2b10948 	movk	x8, #0x884a, lsl #16
   89cc8:	f2cb77e8 	movk	x8, #0x5bbf, lsl #32
   89ccc:	f2e7d908 	movk	x8, #0x3ec8, lsl #48
   89cd0:	eb08001f 	cmp	x0, x8
   89cd4:	5401f880 	b.eq	8dbe4 <Java_com_adjust_sdk_sig_NativeLibHelper_nOnResume@@Base-0x3dea8>  // b.none
   89cd8:	d29359c6 	mov	x6, #0x9ace                	// #39630
   89cdc:	d29cbb87 	mov	x7, #0xe5dc                	// #58844
   89ce0:	f2b3ee66 	movk	x6, #0x9f73, lsl #16
   89ce4:	f2aa28c7 	movk	x7, #0x5146, lsl #16
   89ce8:	f2d2e566 	movk	x6, #0x972b, lsl #32
   89cec:	2a1b03eb 	mov	w11, w27
   89cf0:	2a1403ec 	mov	w12, w20
   89cf4:	aa1a03ed 	mov	x13, x26
   89cf8:	aa1c03ee 	mov	x14, x28
   89cfc:	aa1503ef 	mov	x15, x21
   89d00:	aa1603f0 	mov	x16, x22
   89d04:	aa1903f1 	mov	x17, x25
   89d08:	f85903a2 	ldur	x2, [x29, #-112]
   89d0c:	aa1e03e5 	mov	x5, x30
   89d10:	f2ef7926 	movk	x6, #0x7bc9, lsl #48
   89d14:	f2d46b47 	movk	x7, #0xa35a, lsl #32
   89d18:	f2e7f167 	movk	x7, #0x3f8b, lsl #48
   89d1c:	a93a4fb8 	stp	x24, x19, [x29, #-96]
   89d20:	eb07001f 	cmp	x0, x7
   89d24:	f81983b7 	stur	x23, [x29, #-104]
   89d28:	54febf40 	b.eq	87510 <Java_com_adjust_sdk_sig_NativeLibHelper_nOnResume@@Base-0x4457c>  // b.none
   89d2c:	d2934308 	mov	x8, #0x9a18                	// #39448
   89d30:	f2a17508 	movk	x8, #0xba8, lsl #16
   89d34:	f2cfdbe8 	movk	x8, #0x7edf, lsl #32
   89d38:	f2e80fe8 	movk	x8, #0x407f, lsl #48
   89d3c:	eb08001f 	cmp	x0, x8
   89d40:	54010a20 	b.eq	8be84 <Java_com_adjust_sdk_sig_NativeLibHelper_nOnResume@@Base-0x3fc08>  // b.none
   89d44:	d2866388 	mov	x8, #0x331c                	// #13084
   89d48:	f2b92328 	movk	x8, #0xc919, lsl #16
   89d4c:	f2c61508 	movk	x8, #0x30a8, lsl #32
   89d50:	f2e836a8 	movk	x8, #0x41b5, lsl #48
   89d54:	eb08001f 	cmp	x0, x8
   89d58:	5400f620 	b.eq	8bc1c <Java_com_adjust_sdk_sig_NativeLibHelper_nOnResume@@Base-0x3fe70>  // b.none
   89d5c:	d28dcfe8 	mov	x8, #0x6e7f                	// #28287
   89d60:	f2b9b748 	movk	x8, #0xcdba, lsl #16
   89d64:	f2c5e788 	movk	x8, #0x2f3c, lsl #32
   89d68:	f2e864e8 	movk	x8, #0x4327, lsl #48
   89d6c:	eb08001f 	cmp	x0, x8
   89d70:	5401f100 	b.eq	8db90 <Java_com_adjust_sdk_sig_NativeLibHelper_nOnResume@@Base-0x3defc>  // b.none
   89d74:	d29530a8 	mov	x8, #0xa985                	// #43397
   89d78:	f2a38848 	movk	x8, #0x1c42, lsl #16
   89d7c:	f2dea428 	movk	x8, #0xf521, lsl #32
   89d80:	f2e86648 	movk	x8, #0x4332, lsl #48
   89d84:	eb08001f 	cmp	x0, x8
   89d88:	54012760 	b.eq	8c274 <Java_com_adjust_sdk_sig_NativeLibHelper_nOnResume@@Base-0x3f818>  // b.none
   89d8c:	d29d9e28 	mov	x8, #0xecf1                	// #60657
   89d90:	f2a357e8 	movk	x8, #0x1abf, lsl #16
   89d94:	f2d160e8 	movk	x8, #0x8b07, lsl #32
   89d98:	f2e87488 	movk	x8, #0x43a4, lsl #48
   89d9c:	eb08001f 	cmp	x0, x8
   89da0:	5401d6e0 	b.eq	8d87c <Java_com_adjust_sdk_sig_NativeLibHelper_nOnResume@@Base-0x3e210>  // b.none
   89da4:	d287f9e8 	mov	x8, #0x3fcf                	// #16335
   89da8:	f2ae03c8 	movk	x8, #0x701e, lsl #16
   89dac:	f2ce9308 	movk	x8, #0x7498, lsl #32
   89db0:	f2e889c8 	movk	x8, #0x444e, lsl #48
   89db4:	eb08001f 	cmp	x0, x8
   89db8:	a97713be 	ldp	x30, x4, [x29, #-144]
   89dbc:	a97823a9 	ldp	x9, x8, [x29, #-128]
   89dc0:	5401c640 	b.eq	8d688 <Java_com_adjust_sdk_sig_NativeLibHelper_nOnResume@@Base-0x3e404>  // b.none
   89dc4:	d28dd4e6 	mov	x6, #0x6ea7                	// #28327
   89dc8:	d28e5647 	mov	x7, #0x72b2                	// #29362
   89dcc:	f2b256a6 	movk	x6, #0x92b5, lsl #16
   89dd0:	f2aa5b07 	movk	x7, #0x52d8, lsl #16
   89dd4:	f2cb5a26 	movk	x6, #0x5ad1, lsl #32
   89dd8:	2a1b03eb 	mov	w11, w27
   89ddc:	2a1403ec 	mov	w12, w20
   89de0:	aa1a03ed 	mov	x13, x26
   89de4:	aa1c03ee 	mov	x14, x28
   89de8:	aa1503ef 	mov	x15, x21
   89dec:	aa1603f0 	mov	x16, x22
   89df0:	aa1903f1 	mov	x17, x25
   89df4:	aa0903ea 	mov	x10, x9
   89df8:	f85903a2 	ldur	x2, [x29, #-112]
   89dfc:	aa0803e9 	mov	x9, x8
   89e00:	aa1e03e5 	mov	x5, x30
   89e04:	f2fc3d46 	movk	x6, #0xe1ea, lsl #48
   89e08:	f2df0ea7 	movk	x7, #0xf875, lsl #32
   89e0c:	f2e89e27 	movk	x7, #0x44f1, lsl #48
   89e10:	a93a4fb8 	stp	x24, x19, [x29, #-96]
   89e14:	eb07001f 	cmp	x0, x7
   89e18:	f81983b7 	stur	x23, [x29, #-104]
   89e1c:	54feb7a0 	b.eq	87510 <Java_com_adjust_sdk_sig_NativeLibHelper_nOnResume@@Base-0x4457c>  // b.none
   89e20:	d2991f08 	mov	x8, #0xc8f8                	// #51448
   89e24:	f2b3d7a8 	movk	x8, #0x9ebd, lsl #16
   89e28:	f2d0aca8 	movk	x8, #0x8565, lsl #32
   89e2c:	f2e8bee8 	movk	x8, #0x45f7, lsl #48
   89e30:	eb08001f 	cmp	x0, x8
   89e34:	540214c0 	b.eq	8e0cc <Java_com_adjust_sdk_sig_NativeLibHelper_nOnResume@@Base-0x3d9c0>  // b.none
   89e38:	d28d1be8 	mov	x8, #0x68df                	// #26847
   89e3c:	f85883a3 	ldur	x3, [x29, #-120]
   89e40:	a977a7a4 	ldp	x4, x9, [x29, #-136]
   89e44:	f2bac888 	movk	x8, #0xd644, lsl #16
   89e48:	f2d4de48 	movk	x8, #0xa6f2, lsl #32
   89e4c:	f2e8d2a8 	movk	x8, #0x4695, lsl #48
   89e50:	eb08001f 	cmp	x0, x8
   89e54:	54018080 	b.eq	8ce64 <Java_com_adjust_sdk_sig_NativeLibHelper_nOnResume@@Base-0x3ec28>  // b.none
   89e58:	d2912448 	mov	x8, #0x8922                	// #35106
   89e5c:	f2be3ac8 	movk	x8, #0xf1d6, lsl #16
   89e60:	f2d8b1e8 	movk	x8, #0xc58f, lsl #32
   89e64:	f2e8dae8 	movk	x8, #0x46d7, lsl #48
   89e68:	eb08001f 	cmp	x0, x8
   89e6c:	5401eec0 	b.eq	8dc44 <Java_com_adjust_sdk_sig_NativeLibHelper_nOnResume@@Base-0x3de48>  // b.none
   89e70:	d28c0ae6 	mov	x6, #0x6057                	// #24663
   89e74:	d288f767 	mov	x7, #0x47bb                	// #18363
   89e78:	f2ba96a6 	movk	x6, #0xd4b5, lsl #16
   89e7c:	f2b32247 	movk	x7, #0x9912, lsl #16
   89e80:	f2c5d0a6 	movk	x6, #0x2e85, lsl #32
   89e84:	2a1b03eb 	mov	w11, w27
   89e88:	2a1403ec 	mov	w12, w20
   89e8c:	f85083ad 	ldur	x13, [x29, #-248]
   89e90:	aa1c03ee 	mov	x14, x28
   89e94:	aa1503ef 	mov	x15, x21
   89e98:	aa1603f0 	mov	x16, x22
   89e9c:	aa1903f1 	mov	x17, x25
   89ea0:	aa0903ea 	mov	x10, x9
   89ea4:	f85903a2 	ldur	x2, [x29, #-112]
   89ea8:	aa0303e9 	mov	x9, x3
   89eac:	aa1e03e5 	mov	x5, x30
   89eb0:	f2ecb066 	movk	x6, #0x6583, lsl #48
   89eb4:	f2d9cf27 	movk	x7, #0xce79, lsl #32
   89eb8:	f2e950c7 	movk	x7, #0x4a86, lsl #48
   89ebc:	a93a4fb8 	stp	x24, x19, [x29, #-96]
   89ec0:	eb07001f 	cmp	x0, x7
   89ec4:	f81983b7 	stur	x23, [x29, #-104]
   89ec8:	54feb240 	b.eq	87510 <Java_com_adjust_sdk_sig_NativeLibHelper_nOnResume@@Base-0x4457c>  // b.none
   89ecc:	d29f41e8 	mov	x8, #0xfa0f                	// #64015
   89ed0:	f2ae98c8 	movk	x8, #0x74c6, lsl #16
   89ed4:	f2c5a848 	movk	x8, #0x2d42, lsl #32
   89ed8:	f2e95ec8 	movk	x8, #0x4af6, lsl #48
   89edc:	eb08001f 	cmp	x0, x8
   89ee0:	5401dae0 	b.eq	8da3c <Java_com_adjust_sdk_sig_NativeLibHelper_nOnResume@@Base-0x3e050>  // b.none
   89ee4:	d2868248 	mov	x8, #0x3412                	// #13330
   89ee8:	f2b089e8 	movk	x8, #0x844f, lsl #16
   89eec:	f2c72aa8 	movk	x8, #0x3955, lsl #32
   89ef0:	f2e96188 	movk	x8, #0x4b0c, lsl #48
   89ef4:	eb08001f 	cmp	x0, x8
   89ef8:	54010220 	b.eq	8bf3c <Java_com_adjust_sdk_sig_NativeLibHelper_nOnResume@@Base-0x3fb50>  // b.none
   89efc:	d2859fa6 	mov	x6, #0x2cfd                	// #11517
   89f00:	d2980b87 	mov	x7, #0xc05c                	// #49244
   89f04:	a97827aa 	ldp	x10, x9, [x29, #-128]
   89f08:	f2b140c6 	movk	x6, #0x8a06, lsl #16
   89f0c:	f2afc127 	movk	x7, #0x7e09, lsl #16
   89f10:	f2de92e6 	movk	x6, #0xf497, lsl #32
   89f14:	2a1b03eb 	mov	w11, w27
   89f18:	2a1403ec 	mov	w12, w20
   89f1c:	aa1a03ed 	mov	x13, x26
   89f20:	aa1c03ee 	mov	x14, x28
   89f24:	f85003af 	ldur	x15, [x29, #-256]
   89f28:	aa1603f0 	mov	x16, x22
   89f2c:	aa1903f1 	mov	x17, x25
   89f30:	f85903a2 	ldur	x2, [x29, #-112]
   89f34:	aa1e03e5 	mov	x5, x30
   89f38:	f85783a4 	ldur	x4, [x29, #-136]
   89f3c:	f2eb0846 	movk	x6, #0x5842, lsl #48
   89f40:	f2c3f147 	movk	x7, #0x1f8a, lsl #32
   89f44:	a93a4fb8 	stp	x24, x19, [x29, #-96]
   89f48:	f2e976a7 	movk	x7, #0x4bb5, lsl #48
   89f4c:	f81983b7 	stur	x23, [x29, #-104]
   89f50:	eb07001f 	cmp	x0, x7
   89f54:	54feade0 	b.eq	87510 <Java_com_adjust_sdk_sig_NativeLibHelper_nOnResume@@Base-0x4457c>  // b.none
   89f58:	d29be508 	mov	x8, #0xdf28                	// #57128
   89f5c:	f2b62ce8 	movk	x8, #0xb167, lsl #16
   89f60:	f2cff4e8 	movk	x8, #0x7fa7, lsl #32
   89f64:	f2ea0a28 	movk	x8, #0x5051, lsl #48
   89f68:	eb08001f 	cmp	x0, x8
   89f6c:	5401ae00 	b.eq	8d52c <Java_com_adjust_sdk_sig_NativeLibHelper_nOnResume@@Base-0x3e560>  // b.none
   89f70:	a9780fa1 	ldp	x1, x3, [x29, #-128]
   89f74:	d2965406 	mov	x6, #0xb2a0                	// #45728
   89f78:	d293b6a7 	mov	x7, #0x9db5                	// #40373
   89f7c:	f85783a8 	ldur	x8, [x29, #-136]
   89f80:	f2b47766 	movk	x6, #0xa3bb, lsl #16
   89f84:	f2d7bca6 	movk	x6, #0xbde5, lsl #32
   89f88:	f2a572e7 	movk	x7, #0x2b97, lsl #16
   89f8c:	2a1b03eb 	mov	w11, w27
   89f90:	2a1403ec 	mov	w12, w20
   89f94:	aa1a03ed 	mov	x13, x26
   89f98:	aa1c03ee 	mov	x14, x28
   89f9c:	aa1503ef 	mov	x15, x21
   89fa0:	aa1603f0 	mov	x16, x22
   89fa4:	aa1903f1 	mov	x17, x25
   89fa8:	aa0103ea 	mov	x10, x1
   89fac:	f85903a2 	ldur	x2, [x29, #-112]
   89fb0:	aa0303e9 	mov	x9, x3
   89fb4:	aa0803e4 	mov	x4, x8
   89fb8:	aa1e03e5 	mov	x5, x30
   89fbc:	f2fd96a6 	movk	x6, #0xecb5, lsl #48
   89fc0:	f2d27927 	movk	x7, #0x93c9, lsl #32
   89fc4:	f2ea2087 	movk	x7, #0x5104, lsl #48
   89fc8:	a93a4fb8 	stp	x24, x19, [x29, #-96]
   89fcc:	eb07001f 	cmp	x0, x7
   89fd0:	f81983b7 	stur	x23, [x29, #-104]
   89fd4:	54fea9e0 	b.eq	87510 <Java_com_adjust_sdk_sig_NativeLibHelper_nOnResume@@Base-0x4457c>  // b.none
   89fd8:	d28f0806 	mov	x6, #0x7840                	// #30784
   89fdc:	d2856fe7 	mov	x7, #0x2b7f                	// #11135
   89fe0:	f2ac48c6 	movk	x6, #0x6246, lsl #16
   89fe4:	f2a0e047 	movk	x7, #0x702, lsl #16
   89fe8:	f2decec6 	movk	x6, #0xf676, lsl #32
   89fec:	2a1b03eb 	mov	w11, w27
   89ff0:	2a1403ec 	mov	w12, w20
   89ff4:	aa1a03ed 	mov	x13, x26
   89ff8:	aa1c03ee 	mov	x14, x28
   89ffc:	aa1503ef 	mov	x15, x21
   8a000:	aa1603f0 	mov	x16, x22
   8a004:	aa1903f1 	mov	x17, x25
   8a008:	aa0103ea 	mov	x10, x1
   8a00c:	f85903a2 	ldur	x2, [x29, #-112]
   8a010:	aa0303e9 	mov	x9, x3
   8a014:	aa0803e4 	mov	x4, x8
   8a018:	aa1e03e5 	mov	x5, x30
   8a01c:	f2e1f806 	movk	x6, #0xfc0, lsl #48
   8a020:	f2d03967 	movk	x7, #0x81cb, lsl #32
   8a024:	a93a4fb8 	stp	x24, x19, [x29, #-96]
   8a028:	f2ea4787 	movk	x7, #0x523c, lsl #48
   8a02c:	f81983b7 	stur	x23, [x29, #-104]
   8a030:	eb07001f 	cmp	x0, x7
   8a034:	54fea6e0 	b.eq	87510 <Java_com_adjust_sdk_sig_NativeLibHelper_nOnResume@@Base-0x4457c>  // b.none
   8a038:	d286e1e8 	mov	x8, #0x370f                	// #14095
   8a03c:	f2b53e48 	movk	x8, #0xa9f2, lsl #16
   8a040:	f2da81e8 	movk	x8, #0xd40f, lsl #32
   8a044:	f2ea95e8 	movk	x8, #0x54af, lsl #48
   8a048:	eb08001f 	cmp	x0, x8
   8a04c:	54010360 	b.eq	8c0b8 <Java_com_adjust_sdk_sig_NativeLibHelper_nOnResume@@Base-0x3f9d4>  // b.none
   8a050:	d2983208 	mov	x8, #0xc190                	// #49552
   8a054:	f2b55c48 	movk	x8, #0xaae2, lsl #16
   8a058:	f2daada8 	movk	x8, #0xd56d, lsl #32
   8a05c:	f2eaa108 	movk	x8, #0x5508, lsl #48
   8a060:	eb08001f 	cmp	x0, x8
   8a064:	5400e180 	b.eq	8bc94 <Java_com_adjust_sdk_sig_NativeLibHelper_nOnResume@@Base-0x3fdf8>  // b.none
   8a068:	d2870806 	mov	x6, #0x3840                	// #14400
   8a06c:	d2900ca7 	mov	x7, #0x8065                	// #32869
   8a070:	a97827aa 	ldp	x10, x9, [x29, #-128]
   8a074:	f2a4f006 	movk	x6, #0x2780, lsl #16
   8a078:	f2a6bc27 	movk	x7, #0x35e1, lsl #16
   8a07c:	f2d4bb66 	movk	x6, #0xa5db, lsl #32
   8a080:	2a1b03eb 	mov	w11, w27
   8a084:	2a1403ec 	mov	w12, w20
   8a088:	aa1a03ed 	mov	x13, x26
   8a08c:	aa1c03ee 	mov	x14, x28
   8a090:	aa1503ef 	mov	x15, x21
   8a094:	aa1603f0 	mov	x16, x22
   8a098:	aa1903f1 	mov	x17, x25
   8a09c:	f85903a2 	ldur	x2, [x29, #-112]
   8a0a0:	aa1e03e5 	mov	x5, x30
   8a0a4:	f85783a4 	ldur	x4, [x29, #-136]
   8a0a8:	f2e6a806 	movk	x6, #0x3540, lsl #48
   8a0ac:	f2d90ee7 	movk	x7, #0xc877, lsl #32
   8a0b0:	a93a4fb8 	stp	x24, x19, [x29, #-96]
   8a0b4:	f2eaa1a7 	movk	x7, #0x550d, lsl #48
   8a0b8:	f81983b7 	stur	x23, [x29, #-104]
   8a0bc:	eb07001f 	cmp	x0, x7
   8a0c0:	54fea280 	b.eq	87510 <Java_com_adjust_sdk_sig_NativeLibHelper_nOnResume@@Base-0x4457c>  // b.none
   8a0c4:	d29d4188 	mov	x8, #0xea0c                	// #59916
   8a0c8:	f2b19268 	movk	x8, #0x8c93, lsl #16
   8a0cc:	f2d81948 	movk	x8, #0xc0ca, lsl #32
   8a0d0:	f2eab368 	movk	x8, #0x559b, lsl #48
   8a0d4:	eb08001f 	cmp	x0, x8
   8a0d8:	5401dfc0 	b.eq	8dcd0 <Java_com_adjust_sdk_sig_NativeLibHelper_nOnResume@@Base-0x3ddbc>  // b.none
   8a0dc:	d29b0388 	mov	x8, #0xd81c                	// #55324
   8a0e0:	f2b94908 	movk	x8, #0xca48, lsl #16
   8a0e4:	f2ddd908 	movk	x8, #0xeec8, lsl #32
   8a0e8:	f2eaca08 	movk	x8, #0x5650, lsl #48
   8a0ec:	eb08001f 	cmp	x0, x8
   8a0f0:	54013960 	b.eq	8c81c <Java_com_adjust_sdk_sig_NativeLibHelper_nOnResume@@Base-0x3f270>  // b.none
   8a0f4:	d28627c8 	mov	x8, #0x313e                	// #12606
   8a0f8:	f85883a5 	ldur	x5, [x29, #-120]
   8a0fc:	f2b2e988 	movk	x8, #0x974c, lsl #16
   8a100:	f2c979a8 	movk	x8, #0x4bcd, lsl #32
   8a104:	f2eaeca8 	movk	x8, #0x5765, lsl #48
   8a108:	eb08001f 	cmp	x0, x8
   8a10c:	54015960 	b.eq	8cc38 <Java_com_adjust_sdk_sig_NativeLibHelper_nOnResume@@Base-0x3ee54>  // b.none
   8a110:	d29ab748 	mov	x8, #0xd5ba                	// #54714
   8a114:	f2b240a8 	movk	x8, #0x9205, lsl #16
   8a118:	f2d4c608 	movk	x8, #0xa630, lsl #32
   8a11c:	f2eaff68 	movk	x8, #0x57fb, lsl #48
   8a120:	eb08001f 	cmp	x0, x8
   8a124:	5400e0e0 	b.eq	8bd40 <Java_com_adjust_sdk_sig_NativeLibHelper_nOnResume@@Base-0x3fd4c>  // b.none
   8a128:	d2859fa8 	mov	x8, #0x2cfd                	// #11517
   8a12c:	f2b140c8 	movk	x8, #0x8a06, lsl #16
   8a130:	f2de92e8 	movk	x8, #0xf497, lsl #32
   8a134:	f2eb0848 	movk	x8, #0x5842, lsl #48
   8a138:	eb08001f 	cmp	x0, x8
   8a13c:	54012280 	b.eq	8c58c <Java_com_adjust_sdk_sig_NativeLibHelper_nOnResume@@Base-0x3f500>  // b.none
   8a140:	d29311a8 	mov	x8, #0x988d                	// #39053
   8a144:	a97713be 	ldp	x30, x4, [x29, #-144]
   8a148:	f2b13b68 	movk	x8, #0x89db, lsl #16
   8a14c:	f2dfe448 	movk	x8, #0xff22, lsl #32
   8a150:	f2eb0d48 	movk	x8, #0x586a, lsl #48
   8a154:	eb08001f 	cmp	x0, x8
   8a158:	5401c120 	b.eq	8d97c <Java_com_adjust_sdk_sig_NativeLibHelper_nOnResume@@Base-0x3e110>  // b.none
   8a15c:	d2803b06 	mov	x6, #0x1d8                 	// #472
   8a160:	d28b7a87 	mov	x7, #0x5bd4                	// #23508
   8a164:	f2a35f06 	movk	x6, #0x1af8, lsl #16
   8a168:	f2a11ec7 	movk	x7, #0x8f6, lsl #16
   8a16c:	f2dfc506 	movk	x6, #0xfe28, lsl #32
   8a170:	2a1b03eb 	mov	w11, w27
   8a174:	2a1403ec 	mov	w12, w20
   8a178:	aa1a03ed 	mov	x13, x26
   8a17c:	aa1c03ee 	mov	x14, x28
   8a180:	aa1503ef 	mov	x15, x21
   8a184:	aa1603f0 	mov	x16, x22
   8a188:	aa1903f1 	mov	x17, x25
   8a18c:	f85803aa 	ldur	x10, [x29, #-128]
   8a190:	aa0503e9 	mov	x9, x5
   8a194:	f85903a2 	ldur	x2, [x29, #-112]
   8a198:	aa1e03e5 	mov	x5, x30
   8a19c:	f2f6c606 	movk	x6, #0xb630, lsl #48
   8a1a0:	f2dc0f67 	movk	x7, #0xe07b, lsl #32
   8a1a4:	f2eb23a7 	movk	x7, #0x591d, lsl #48
   8a1a8:	a93a4fb8 	stp	x24, x19, [x29, #-96]
   8a1ac:	eb07001f 	cmp	x0, x7
   8a1b0:	f81983b7 	stur	x23, [x29, #-104]
   8a1b4:	54fe9ae0 	b.eq	87510 <Java_com_adjust_sdk_sig_NativeLibHelper_nOnResume@@Base-0x4457c>  // b.none
   8a1b8:	d2845cc8 	mov	x8, #0x22e6                	// #8934
   8a1bc:	f2b6d7c8 	movk	x8, #0xb6be, lsl #16
   8a1c0:	f2db1408 	movk	x8, #0xd8a0, lsl #32
   8a1c4:	f2eb3aa8 	movk	x8, #0x59d5, lsl #48
   8a1c8:	eb08001f 	cmp	x0, x8
   8a1cc:	54016e20 	b.eq	8cf90 <Java_com_adjust_sdk_sig_NativeLibHelper_nOnResume@@Base-0x3eafc>  // b.none
   8a1d0:	d2912446 	mov	x6, #0x8922                	// #35106
   8a1d4:	d29b7fa7 	mov	x7, #0xdbfd                	// #56317
   8a1d8:	a97827aa 	ldp	x10, x9, [x29, #-128]
   8a1dc:	f2be3ac6 	movk	x6, #0xf1d6, lsl #16
   8a1e0:	f2a6d267 	movk	x7, #0x3693, lsl #16
   8a1e4:	f2d8b1e6 	movk	x6, #0xc58f, lsl #32
   8a1e8:	2a1b03eb 	mov	w11, w27
   8a1ec:	2a1403ec 	mov	w12, w20
   8a1f0:	aa1a03ed 	mov	x13, x26
   8a1f4:	aa1c03ee 	mov	x14, x28
   8a1f8:	aa1503ef 	mov	x15, x21
   8a1fc:	aa1603f0 	mov	x16, x22
   8a200:	aa1903f1 	mov	x17, x25
   8a204:	f85903a2 	ldur	x2, [x29, #-112]
   8a208:	aa1e03e5 	mov	x5, x30
   8a20c:	f85783a4 	ldur	x4, [x29, #-136]
   8a210:	f2e8dae6 	movk	x6, #0x46d7, lsl #48
   8a214:	f2d7e767 	movk	x7, #0xbf3b, lsl #32
   8a218:	a93a4fb8 	stp	x24, x19, [x29, #-96]
   8a21c:	f2eb6527 	movk	x7, #0x5b29, lsl #48
   8a220:	f81983b7 	stur	x23, [x29, #-104]
   8a224:	eb07001f 	cmp	x0, x7
   8a228:	54fe9740 	b.eq	87510 <Java_com_adjust_sdk_sig_NativeLibHelper_nOnResume@@Base-0x4457c>  // b.none
   8a22c:	d2800e48 	mov	x8, #0x72                  	// #114
   8a230:	f2bc56a8 	movk	x8, #0xe2b5, lsl #16
   8a234:	f2d74a28 	movk	x8, #0xba51, lsl #32
   8a238:	f2eb7028 	movk	x8, #0x5b81, lsl #48
   8a23c:	eb08001f 	cmp	x0, x8
   8a240:	54012400 	b.eq	8c6c0 <Java_com_adjust_sdk_sig_NativeLibHelper_nOnResume@@Base-0x3f3cc>  // b.none
   8a244:	d28bcd68 	mov	x8, #0x5e6b                	// #24171
   8a248:	a97827aa 	ldp	x10, x9, [x29, #-128]
   8a24c:	f2a295c8 	movk	x8, #0x14ae, lsl #16
   8a250:	f2c5fd08 	movk	x8, #0x2fe8, lsl #32
   8a254:	f2eb7548 	movk	x8, #0x5baa, lsl #48
   8a258:	eb08001f 	cmp	x0, x8
   8a25c:	540110c0 	b.eq	8c474 <Java_com_adjust_sdk_sig_NativeLibHelper_nOnResume@@Base-0x3f618>  // b.none
   8a260:	d29acec6 	mov	x6, #0xd676                	// #54902
   8a264:	d28528e7 	mov	x7, #0x2947                	// #10567
   8a268:	f2a0c4a6 	movk	x6, #0x625, lsl #16
   8a26c:	f2ba90a7 	movk	x7, #0xd485, lsl #16
   8a270:	f2d33c26 	movk	x6, #0x99e1, lsl #32
   8a274:	2a1b03eb 	mov	w11, w27
   8a278:	2a1403ec 	mov	w12, w20
   8a27c:	aa1a03ed 	mov	x13, x26
   8a280:	aa1c03ee 	mov	x14, x28
   8a284:	aa1503ef 	mov	x15, x21
   8a288:	aa1603f0 	mov	x16, x22
   8a28c:	aa1903f1 	mov	x17, x25
   8a290:	f85903a2 	ldur	x2, [x29, #-112]
   8a294:	aa1e03e5 	mov	x5, x30
   8a298:	f85783a4 	ldur	x4, [x29, #-136]
   8a29c:	f2ee0dc6 	movk	x6, #0x706e, lsl #48
   8a2a0:	f2d8cf47 	movk	x7, #0xc67a, lsl #32
   8a2a4:	a93a4fb8 	stp	x24, x19, [x29, #-96]
   8a2a8:	f2eb8207 	movk	x7, #0x5c10, lsl #48
   8a2ac:	f81983b7 	stur	x23, [x29, #-104]
   8a2b0:	eb07001f 	cmp	x0, x7
   8a2b4:	54fe92e0 	b.eq	87510 <Java_com_adjust_sdk_sig_NativeLibHelper_nOnResume@@Base-0x4457c>  // b.none
   8a2b8:	d2819528 	mov	x8, #0xca9                 	// #3241
   8a2bc:	f2b15888 	movk	x8, #0x8ac4, lsl #16
   8a2c0:	f2d6d9e8 	movk	x8, #0xb6cf, lsl #32
   8a2c4:	f2eb8228 	movk	x8, #0x5c11, lsl #48
   8a2c8:	eb08001f 	cmp	x0, x8
   8a2cc:	540155a0 	b.eq	8cd80 <Java_com_adjust_sdk_sig_NativeLibHelper_nOnResume@@Base-0x3ed0c>  // b.none
   8a2d0:	d28cd628 	mov	x8, #0x66b1                	// #26289
   8a2d4:	f85883a9 	ldur	x9, [x29, #-120]
   8a2d8:	a977aba4 	ldp	x4, x10, [x29, #-136]
   8a2dc:	f2ac80c8 	movk	x8, #0x6406, lsl #16
   8a2e0:	f2db3c08 	movk	x8, #0xd9e0, lsl #32
   8a2e4:	f2ebc2c8 	movk	x8, #0x5e16, lsl #48
   8a2e8:	eb08001f 	cmp	x0, x8
   8a2ec:	5400f940 	b.eq	8c214 <Java_com_adjust_sdk_sig_NativeLibHelper_nOnResume@@Base-0x3f878>  // b.none
   8a2f0:	d2859146 	mov	x6, #0x2c8a                	// #11402
   8a2f4:	d29b4767 	mov	x7, #0xda3b                	// #55867
   8a2f8:	f2bdbae6 	movk	x6, #0xedd7, lsl #16
   8a2fc:	f2b3cb07 	movk	x7, #0x9e58, lsl #16
   8a300:	f2d9aee6 	movk	x6, #0xcd77, lsl #32
   8a304:	2a1b03eb 	mov	w11, w27
   8a308:	2a1403ec 	mov	w12, w20
   8a30c:	aa1a03ed 	mov	x13, x26
   8a310:	aa1c03ee 	mov	x14, x28
   8a314:	aa1503ef 	mov	x15, x21
   8a318:	aa1603f0 	mov	x16, x22
   8a31c:	aa1903f1 	mov	x17, x25
   8a320:	f85903a2 	ldur	x2, [x29, #-112]
   8a324:	aa1e03e5 	mov	x5, x30
   8a328:	f2fe2386 	movk	x6, #0xf11c, lsl #48
   8a32c:	f2d80847 	movk	x7, #0xc042, lsl #32
   8a330:	f2ec1907 	movk	x7, #0x60c8, lsl #48
   8a334:	a93a4fb8 	stp	x24, x19, [x29, #-96]
   8a338:	eb07001f 	cmp	x0, x7
   8a33c:	f81983b7 	stur	x23, [x29, #-104]
   8a340:	54fe8e80 	b.eq	87510 <Java_com_adjust_sdk_sig_NativeLibHelper_nOnResume@@Base-0x4457c>  // b.none
   8a344:	d2902ce8 	mov	x8, #0x8167                	// #33127
   8a348:	f2b08d28 	movk	x8, #0x8469, lsl #16
   8a34c:	f2d67428 	movk	x8, #0xb3a1, lsl #32
   8a350:	f2ec7148 	movk	x8, #0x638a, lsl #48
   8a354:	eb08001f 	cmp	x0, x8
   8a358:	54010ec0 	b.eq	8c530 <Java_com_adjust_sdk_sig_NativeLibHelper_nOnResume@@Base-0x3f55c>  // b.none
   8a35c:	d2921888 	mov	x8, #0x90c4                	// #37060
   8a360:	f2b81ea8 	movk	x8, #0xc0f5, lsl #16
   8a364:	f2d29f68 	movk	x8, #0x94fb, lsl #32
   8a368:	f2eca088 	movk	x8, #0x6504, lsl #48
   8a36c:	eb08001f 	cmp	x0, x8
   8a370:	5400e460 	b.eq	8bffc <Java_com_adjust_sdk_sig_NativeLibHelper_nOnResume@@Base-0x3fa90>  // b.none
   8a374:	d28c0ae8 	mov	x8, #0x6057                	// #24663
   8a378:	f85883a3 	ldur	x3, [x29, #-120]
   8a37c:	a977a7a4 	ldp	x4, x9, [x29, #-136]
   8a380:	f2ba96a8 	movk	x8, #0xd4b5, lsl #16
   8a384:	f2c5d0a8 	movk	x8, #0x2e85, lsl #32
   8a388:	f2ecb068 	movk	x8, #0x6583, lsl #48
   8a38c:	eb08001f 	cmp	x0, x8
   8a390:	5400f0e0 	b.eq	8c1ac <Java_com_adjust_sdk_sig_NativeLibHelper_nOnResume@@Base-0x3f8e0>  // b.none
   8a394:	d29ce1a8 	mov	x8, #0xe70d                	// #59149
   8a398:	f2a47808 	movk	x8, #0x23c0, lsl #16
   8a39c:	f2df6208 	movk	x8, #0xfb10, lsl #32
   8a3a0:	f2ecf408 	movk	x8, #0x67a0, lsl #48
   8a3a4:	eb08001f 	cmp	x0, x8
   8a3a8:	54019020 	b.eq	8d5ac <Java_com_adjust_sdk_sig_NativeLibHelper_nOnResume@@Base-0x3e4e0>  // b.none
   8a3ac:	d29f9e06 	mov	x6, #0xfcf0                	// #64752
   8a3b0:	d28764e7 	mov	x7, #0x3b27                	// #15143
   8a3b4:	f2a90886 	movk	x6, #0x4844, lsl #16
   8a3b8:	f2a5a587 	movk	x7, #0x2d2c, lsl #16
   8a3bc:	f2c8fc26 	movk	x6, #0x47e1, lsl #32
   8a3c0:	2a1b03eb 	mov	w11, w27
   8a3c4:	2a1403ec 	mov	w12, w20
   8a3c8:	aa1a03ed 	mov	x13, x26
   8a3cc:	aa1c03ee 	mov	x14, x28
   8a3d0:	aa1503ef 	mov	x15, x21
   8a3d4:	aa1603f0 	mov	x16, x22
   8a3d8:	aa1903f1 	mov	x17, x25
   8a3dc:	aa0903ea 	mov	x10, x9
   8a3e0:	f85903a2 	ldur	x2, [x29, #-112]
   8a3e4:	aa0303e9 	mov	x9, x3
   8a3e8:	aa1e03e5 	mov	x5, x30
   8a3ec:	f2ed5686 	movk	x6, #0x6ab4, lsl #48
   8a3f0:	f2d2f547 	movk	x7, #0x97aa, lsl #32
   8a3f4:	f2ed2d47 	movk	x7, #0x696a, lsl #48
   8a3f8:	a93a4fb8 	stp	x24, x19, [x29, #-96]
   8a3fc:	eb07001f 	cmp	x0, x7
   8a400:	f81983b7 	stur	x23, [x29, #-104]
   8a404:	54fe8860 	b.eq	87510 <Java_com_adjust_sdk_sig_NativeLibHelper_nOnResume@@Base-0x4457c>  // b.none
   8a408:	d29f9e08 	mov	x8, #0xfcf0                	// #64752
   8a40c:	f2a90888 	movk	x8, #0x4844, lsl #16
   8a410:	f2c8fc28 	movk	x8, #0x47e1, lsl #32
   8a414:	f2ed5688 	movk	x8, #0x6ab4, lsl #48
   8a418:	eb08001f 	cmp	x0, x8
   8a41c:	5400dc60 	b.eq	8bfa8 <Java_com_adjust_sdk_sig_NativeLibHelper_nOnResume@@Base-0x3fae4>  // b.none
   8a420:	d29ab746 	mov	x6, #0xd5ba                	// #54714
   8a424:	d298de07 	mov	x7, #0xc6f0                	// #50928
   8a428:	a97827aa 	ldp	x10, x9, [x29, #-128]
   8a42c:	f2b240a6 	movk	x6, #0x9205, lsl #16
   8a430:	f2b01607 	movk	x7, #0x80b0, lsl #16
   8a434:	f2d4c606 	movk	x6, #0xa630, lsl #32
   8a438:	2a1b03eb 	mov	w11, w27
   8a43c:	2a1403ec 	mov	w12, w20
   8a440:	aa1a03ed 	mov	x13, x26
   8a444:	aa1c03ee 	mov	x14, x28
   8a448:	aa1503ef 	mov	x15, x21
   8a44c:	aa1603f0 	mov	x16, x22
   8a450:	aa1903f1 	mov	x17, x25
   8a454:	f85903a2 	ldur	x2, [x29, #-112]
   8a458:	aa1e03e5 	mov	x5, x30
   8a45c:	f85783a4 	ldur	x4, [x29, #-136]
   8a460:	f2eaff66 	movk	x6, #0x57fb, lsl #48
   8a464:	f2c8f867 	movk	x7, #0x47c3, lsl #32
   8a468:	a93a4fb8 	stp	x24, x19, [x29, #-96]
   8a46c:	f2ed7bc7 	movk	x7, #0x6bde, lsl #48
   8a470:	f81983b7 	stur	x23, [x29, #-104]
   8a474:	eb07001f 	cmp	x0, x7
   8a478:	54fe84c0 	b.eq	87510 <Java_com_adjust_sdk_sig_NativeLibHelper_nOnResume@@Base-0x4457c>  // b.none
   8a47c:	d298be28 	mov	x8, #0xc5f1                	// #50673
   8a480:	f2a44448 	movk	x8, #0x2222, lsl #16
   8a484:	f2dedfe8 	movk	x8, #0xf6ff, lsl #32
   8a488:	f2ed7ce8 	movk	x8, #0x6be7, lsl #48
   8a48c:	eb08001f 	cmp	x0, x8
   8a490:	54016320 	b.eq	8d0f4 <Java_com_adjust_sdk_sig_NativeLibHelper_nOnResume@@Base-0x3e998>  // b.none
   8a494:	d29be506 	mov	x6, #0xdf28                	// #57128
   8a498:	d2835f67 	mov	x7, #0x1afb                	// #6907
   8a49c:	a97827aa 	ldp	x10, x9, [x29, #-128]
   8a4a0:	f2b62ce6 	movk	x6, #0xb167, lsl #16
   8a4a4:	f2b41a27 	movk	x7, #0xa0d1, lsl #16
   8a4a8:	f2cff4e6 	movk	x6, #0x7fa7, lsl #32
   8a4ac:	2a1b03eb 	mov	w11, w27
   8a4b0:	2a1403ec 	mov	w12, w20
   8a4b4:	aa1a03ed 	mov	x13, x26
   8a4b8:	aa1c03ee 	mov	x14, x28
   8a4bc:	aa1503ef 	mov	x15, x21
   8a4c0:	aa1603f0 	mov	x16, x22
   8a4c4:	aa1903f1 	mov	x17, x25
   8a4c8:	f85903a2 	ldur	x2, [x29, #-112]
   8a4cc:	aa1e03e5 	mov	x5, x30
   8a4d0:	f85783a4 	ldur	x4, [x29, #-136]
   8a4d4:	f2ea0a26 	movk	x6, #0x5051, lsl #48
   8a4d8:	f2c710a7 	movk	x7, #0x3885, lsl #32
   8a4dc:	a93a4fb8 	stp	x24, x19, [x29, #-96]
   8a4e0:	f2eda2c7 	movk	x7, #0x6d16, lsl #48
   8a4e4:	f81983b7 	stur	x23, [x29, #-104]
   8a4e8:	eb07001f 	cmp	x0, x7
   8a4ec:	54fe8120 	b.eq	87510 <Java_com_adjust_sdk_sig_NativeLibHelper_nOnResume@@Base-0x4457c>  // b.none
   8a4f0:	d29a0ce8 	mov	x8, #0xd067                	// #53351
   8a4f4:	f2a0f6c8 	movk	x8, #0x7b6, lsl #16
   8a4f8:	f2d93488 	movk	x8, #0xc9a4, lsl #32
   8a4fc:	f2edb0e8 	movk	x8, #0x6d87, lsl #48
   8a500:	eb08001f 	cmp	x0, x8
   8a504:	540111c0 	b.eq	8c73c <Java_com_adjust_sdk_sig_NativeLibHelper_nOnResume@@Base-0x3f350>  // b.none
   8a508:	d294d6c6 	mov	x6, #0xa6b6                	// #42678
   8a50c:	d29acec7 	mov	x7, #0xd676                	// #54902
   8a510:	a97827aa 	ldp	x10, x9, [x29, #-128]
   8a514:	f2a5f246 	movk	x6, #0x2f92, lsl #16
   8a518:	f2a0c4a7 	movk	x7, #0x625, lsl #16
   8a51c:	f2c46426 	movk	x6, #0x2321, lsl #32
   8a520:	2a1b03eb 	mov	w11, w27
   8a524:	2a1403ec 	mov	w12, w20
   8a528:	aa1a03ed 	mov	x13, x26
   8a52c:	aa1c03ee 	mov	x14, x28
   8a530:	aa1503ef 	mov	x15, x21
   8a534:	aa1603f0 	mov	x16, x22
   8a538:	aa1903f1 	mov	x17, x25
   8a53c:	f85903a2 	ldur	x2, [x29, #-112]
   8a540:	aa1e03e5 	mov	x5, x30
   8a544:	f85783a4 	ldur	x4, [x29, #-136]
   8a548:	f2e29186 	movk	x6, #0x148c, lsl #48
   8a54c:	f2d33c27 	movk	x7, #0x99e1, lsl #32
   8a550:	a93a4fb8 	stp	x24, x19, [x29, #-96]
   8a554:	f2ee0dc7 	movk	x7, #0x706e, lsl #48
   8a558:	f81983b7 	stur	x23, [x29, #-104]
   8a55c:	eb07001f 	cmp	x0, x7
   8a560:	54fe7d80 	b.eq	87510 <Java_com_adjust_sdk_sig_NativeLibHelper_nOnResume@@Base-0x4457c>  // b.none
   8a564:	d2987ee8 	mov	x8, #0xc3f7                	// #50167
   8a568:	f2b43d88 	movk	x8, #0xa1ec, lsl #16
   8a56c:	f2cec9e8 	movk	x8, #0x764f, lsl #32
   8a570:	f2ee11e8 	movk	x8, #0x708f, lsl #48
   8a574:	eb08001f 	cmp	x0, x8
   8a578:	54010640 	b.eq	8c640 <Java_com_adjust_sdk_sig_NativeLibHelper_nOnResume@@Base-0x3f44c>  // b.none
   8a57c:	d299cc68 	mov	x8, #0xce63                	// #52835
   8a580:	f2a2a428 	movk	x8, #0x1521, lsl #16
   8a584:	f2d224a8 	movk	x8, #0x9125, lsl #32
   8a588:	a977aba4 	ldp	x4, x10, [x29, #-136]
   8a58c:	f2ee8008 	movk	x8, #0x7400, lsl #48
   8a590:	eb08001f 	cmp	x0, x8
   8a594:	f85883a8 	ldur	x8, [x29, #-120]
   8a598:	54013880 	b.eq	8cca8 <Java_com_adjust_sdk_sig_NativeLibHelper_nOnResume@@Base-0x3ede4>  // b.none
   8a59c:	d2934306 	mov	x6, #0x9a18                	// #39448
   8a5a0:	d282b847 	mov	x7, #0x15c2                	// #5570
   8a5a4:	f2a17506 	movk	x6, #0xba8, lsl #16
   8a5a8:	f2bdefc7 	movk	x7, #0xef7e, lsl #16
   8a5ac:	f2cfdbe6 	movk	x6, #0x7edf, lsl #32
   8a5b0:	2a1b03eb 	mov	w11, w27
   8a5b4:	2a1403ec 	mov	w12, w20
   8a5b8:	aa1a03ed 	mov	x13, x26
   8a5bc:	aa1c03ee 	mov	x14, x28
   8a5c0:	aa1503ef 	mov	x15, x21
   8a5c4:	aa1603f0 	mov	x16, x22
   8a5c8:	aa1903f1 	mov	x17, x25
   8a5cc:	f85903a2 	ldur	x2, [x29, #-112]
   8a5d0:	aa0803e9 	mov	x9, x8
   8a5d4:	aa1e03e5 	mov	x5, x30
   8a5d8:	f2e80fe6 	movk	x6, #0x407f, lsl #48
   8a5dc:	f2d6aba7 	movk	x7, #0xb55d, lsl #32
   8a5e0:	a93a4fb8 	stp	x24, x19, [x29, #-96]
   8a5e4:	f2ee8147 	movk	x7, #0x740a, lsl #48
   8a5e8:	f81983b7 	stur	x23, [x29, #-104]
   8a5ec:	eb07001f 	cmp	x0, x7
   8a5f0:	54fe7900 	b.eq	87510 <Java_com_adjust_sdk_sig_NativeLibHelper_nOnResume@@Base-0x4457c>  // b.none
   8a5f4:	d28be1a8 	mov	x8, #0x5f0d                	// #24333
   8a5f8:	f2a12de8 	movk	x8, #0x96f, lsl #16
   8a5fc:	f2d035c8 	movk	x8, #0x81ae, lsl #32
   8a600:	f2ee8548 	movk	x8, #0x742a, lsl #48
   8a604:	eb08001f 	cmp	x0, x8
   8a608:	54016600 	b.eq	8d2c8 <Java_com_adjust_sdk_sig_NativeLibHelper_nOnResume@@Base-0x3e7c4>  // b.none
   8a60c:	d2850d88 	mov	x8, #0x286c                	// #10348
   8a610:	f2a13308 	movk	x8, #0x998, lsl #16
   8a614:	f2ce0d48 	movk	x8, #0x706a, lsl #32
   8a618:	f2ee9e68 	movk	x8, #0x74f3, lsl #48
   8a61c:	eb08001f 	cmp	x0, x8
   8a620:	5400e640 	b.eq	8c2e8 <Java_com_adjust_sdk_sig_NativeLibHelper_nOnResume@@Base-0x3f7a4>  // b.none
   8a624:	d2908748 	mov	x8, #0x843a                	// #33850
   8a628:	f2b28c48 	movk	x8, #0x9462, lsl #16
   8a62c:	f2da7ba8 	movk	x8, #0xd3dd, lsl #32
   8a630:	f2eedb88 	movk	x8, #0x76dc, lsl #48
   8a634:	eb08001f 	cmp	x0, x8
   8a638:	54014ee0 	b.eq	8d014 <Java_com_adjust_sdk_sig_NativeLibHelper_nOnResume@@Base-0x3ea78>  // b.none
   8a63c:	d288bcc8 	mov	x8, #0x45e6                	// #17894
   8a640:	f2a146e8 	movk	x8, #0xa37, lsl #16
   8a644:	f2ce9488 	movk	x8, #0x74a4, lsl #32
   8a648:	f2eee768 	movk	x8, #0x773b, lsl #48
   8a64c:	eb08001f 	cmp	x0, x8
   8a650:	54010a60 	b.eq	8c79c <Java_com_adjust_sdk_sig_NativeLibHelper_nOnResume@@Base-0x3f2f0>  // b.none
   8a654:	d28da0e8 	mov	x8, #0x6d07                	// #27911
   8a658:	f2aed3e8 	movk	x8, #0x769f, lsl #16
   8a65c:	f2df5728 	movk	x8, #0xfab9, lsl #32
   8a660:	f2eeff08 	movk	x8, #0x77f8, lsl #48
   8a664:	eb08001f 	cmp	x0, x8
   8a668:	a97713be 	ldp	x30, x4, [x29, #-144]
   8a66c:	a97823a9 	ldp	x9, x8, [x29, #-128]
   8a670:	54013b20 	b.eq	8cdd4 <Java_com_adjust_sdk_sig_NativeLibHelper_nOnResume@@Base-0x3ecb8>  // b.none
   8a674:	d28ff2a6 	mov	x6, #0x7f95                	// #32661
   8a678:	d2805b47 	mov	x7, #0x2da                 	// #730
   8a67c:	f2bc19e6 	movk	x6, #0xe0cf, lsl #16
   8a680:	f2b8c827 	movk	x7, #0xc641, lsl #16
   8a684:	f2d47ce6 	movk	x6, #0xa3e7, lsl #32
   8a688:	2a1b03eb 	mov	w11, w27
   8a68c:	2a1403ec 	mov	w12, w20
   8a690:	aa1a03ed 	mov	x13, x26
   8a694:	aa1c03ee 	mov	x14, x28
   8a698:	aa1503ef 	mov	x15, x21
   8a69c:	aa1603f0 	mov	x16, x22
   8a6a0:	aa1903f1 	mov	x17, x25
   8a6a4:	aa0903ea 	mov	x10, x9
   8a6a8:	f85903a2 	ldur	x2, [x29, #-112]
   8a6ac:	aa0803e9 	mov	x9, x8
   8a6b0:	aa1e03e5 	mov	x5, x30
   8a6b4:	f2fa58a6 	movk	x6, #0xd2c5, lsl #48
   8a6b8:	f2dea707 	movk	x7, #0xf538, lsl #32
   8a6bc:	f2ef1b87 	movk	x7, #0x78dc, lsl #48
   8a6c0:	a93a4fb8 	stp	x24, x19, [x29, #-96]
   8a6c4:	eb07001f 	cmp	x0, x7
   8a6c8:	f81983b7 	stur	x23, [x29, #-104]
   8a6cc:	54fe7220 	b.eq	87510 <Java_com_adjust_sdk_sig_NativeLibHelper_nOnResume@@Base-0x4457c>  // b.none
   8a6d0:	d29359c8 	mov	x8, #0x9ace                	// #39630
   8a6d4:	f2b3ee68 	movk	x8, #0x9f73, lsl #16
   8a6d8:	f2d2e568 	movk	x8, #0x972b, lsl #32
   8a6dc:	f2ef7928 	movk	x8, #0x7bc9, lsl #48
   8a6e0:	eb08001f 	cmp	x0, x8
   8a6e4:	54012500 	b.eq	8cb84 <Java_com_adjust_sdk_sig_NativeLibHelper_nOnResume@@Base-0x3ef08>  // b.none
   8a6e8:	d10163a8 	sub	x8, x29, #0x58
   8a6ec:	d2886866 	mov	x6, #0x4343                	// #17219
   8a6f0:	a97827aa 	ldp	x10, x9, [x29, #-128]
   8a6f4:	f2b36046 	movk	x6, #0x9b02, lsl #16
   8a6f8:	d2827c07 	mov	x7, #0x13e0                	// #5088
   8a6fc:	f2c2ff46 	movk	x6, #0x17fa, lsl #32
   8a700:	f2aa4c27 	movk	x7, #0x5261, lsl #16
   8a704:	f8500108 	ldur	x8, [x8, #-256]
   8a708:	2a1b03eb 	mov	w11, w27
   8a70c:	2a1403ec 	mov	w12, w20
   8a710:	aa1a03ed 	mov	x13, x26
   8a714:	aa1c03ee 	mov	x14, x28
   8a718:	aa1503ef 	mov	x15, x21
   8a71c:	aa1603f0 	mov	x16, x22
   8a720:	aa1903f1 	mov	x17, x25
   8a724:	f85903a2 	ldur	x2, [x29, #-112]
   8a728:	aa1e03e5 	mov	x5, x30
   8a72c:	f85783a4 	ldur	x4, [x29, #-136]
   8a730:	f2e78206 	movk	x6, #0x3c10, lsl #48
   8a734:	f2d43e47 	movk	x7, #0xa1f2, lsl #32
   8a738:	a93a23b8 	stp	x24, x8, [x29, #-96]
   8a73c:	f2ef8807 	movk	x7, #0x7c40, lsl #48
   8a740:	f81983b7 	stur	x23, [x29, #-104]
   8a744:	eb07001f 	cmp	x0, x7
   8a748:	54fe6e40 	b.eq	87510 <Java_com_adjust_sdk_sig_NativeLibHelper_nOnResume@@Base-0x4457c>  // b.none
   8a74c:	d285f4a8 	mov	x8, #0x2fa5                	// #12197
   8a750:	f2ac4388 	movk	x8, #0x621c, lsl #16
   8a754:	f2c8ef28 	movk	x8, #0x4779, lsl #32
   8a758:	f2ef8968 	movk	x8, #0x7c4b, lsl #48
   8a75c:	eb08001f 	cmp	x0, x8
   8a760:	54010e80 	b.eq	8c930 <Java_com_adjust_sdk_sig_NativeLibHelper_nOnResume@@Base-0x3f15c>  // b.none
   8a764:	d28a42e8 	mov	x8, #0x5217                	// #21015
   8a768:	a97827aa 	ldp	x10, x9, [x29, #-128]
   8a76c:	f2b1e4a8 	movk	x8, #0x8f25, lsl #16
   8a770:	f2d48848 	movk	x8, #0xa442, lsl #32
   8a774:	f2efc768 	movk	x8, #0x7e3b, lsl #48
   8a778:	eb08001f 	cmp	x0, x8
   8a77c:	54012d20 	b.eq	8cd20 <Java_com_adjust_sdk_sig_NativeLibHelper_nOnResume@@Base-0x3ed6c>  // b.none
   8a780:	d2996fe8 	mov	x8, #0xcb7f                	// #52095
   8a784:	f2a4b508 	movk	x8, #0x25a8, lsl #16
   8a788:	f2df93a8 	movk	x8, #0xfc9d, lsl #32
   8a78c:	f2efd308 	movk	x8, #0x7e98, lsl #48
   8a790:	eb08001f 	cmp	x0, x8
   8a794:	54011940 	b.eq	8cabc <Java_com_adjust_sdk_sig_NativeLibHelper_nOnResume@@Base-0x3efd0>  // b.none
   8a798:	d28d9327 	mov	x7, #0x6c99                	// #27801
   8a79c:	2a1b03eb 	mov	w11, w27
   8a7a0:	f2a21507 	movk	x7, #0x10a8, lsl #16
   8a7a4:	2a1403ec 	mov	w12, w20
   8a7a8:	aa1a03ed 	mov	x13, x26
   8a7ac:	aa1c03ee 	mov	x14, x28
   8a7b0:	aa1503ef 	mov	x15, x21
   8a7b4:	aa1603f0 	mov	x16, x22
   8a7b8:	aa1903f1 	mov	x17, x25
   8a7bc:	f85903a2 	ldur	x2, [x29, #-112]
   8a7c0:	f85783a4 	ldur	x4, [x29, #-136]
   8a7c4:	aa1e03e5 	mov	x5, x30
   8a7c8:	aa0003e6 	mov	x6, x0
   8a7cc:	f2cc6d07 	movk	x7, #0x6368, lsl #32
   8a7d0:	f2e74367 	movk	x7, #0x3a1b, lsl #48
   8a7d4:	a93a4fb8 	stp	x24, x19, [x29, #-96]
   8a7d8:	eb07001f 	cmp	x0, x7
   8a7dc:	f81983b7 	stur	x23, [x29, #-104]
   8a7e0:	54fe6981 	b.ne	87510 <Java_com_adjust_sdk_sig_NativeLibHelper_nOnResume@@Base-0x4457c>  // b.any
   8a7e4:	1400134e 	b	8f51c <Java_com_adjust_sdk_sig_NativeLibHelper_nOnResume@@Base-0x3c570>
   8a7e8:	2a1f03e0 	mov	w0, wzr
   8a7ec:	52800021 	mov	w1, #0x1                   	// #1
   8a7f0:	d503201f 	nop
   8a7f4:	105dd222 	adr	x2, 146238 <getauxval@plt+0xc0d8>
   8a7f8:	9402bc02 	bl	139800 <Java_com_adjust_sdk_sig_NativeLibHelper_nSign@@Base+0x6d1fc>
   8a7fc:	d288512b 	mov	x11, #0x4289                	// #17033
   8a800:	d2946bcc 	mov	x12, #0xa35e                	// #41822
   8a804:	f2ac414b 	movk	x11, #0x620a, lsl #16
   8a808:	f2a2898c 	movk	x12, #0x144c, lsl #16
   8a80c:	f2d640eb 	movk	x11, #0xb207, lsl #32
   8a810:	f2c5b5ac 	movk	x12, #0x2dad, lsl #32
   8a814:	a93a4fb8 	stp	x24, x19, [x29, #-96]
   8a818:	7100001f 	cmp	w0, #0x0
   8a81c:	f81983b7 	stur	x23, [x29, #-104]
   8a820:	f2e5f28b 	movk	x11, #0x2f94, lsl #48
   8a824:	f2f5048c 	movk	x12, #0xa824, lsl #48
   8a828:	140012c0 	b	8f328 <Java_com_adjust_sdk_sig_NativeLibHelper_nOnResume@@Base-0x3c764>
   8a82c:	d10143a8 	sub	x8, x29, #0x50
   8a830:	f8500108 	ldur	x8, [x8, #-256]
   8a834:	f9400101 	ldr	x1, [x8]
   8a838:	d10043a8 	sub	x8, x29, #0x10
   8a83c:	f8500100 	ldur	x0, [x8, #-256]
   8a840:	d10bc3a8 	sub	x8, x29, #0x2f0
   8a844:	f8500102 	ldur	x2, [x8, #-256]
   8a848:	940029f6 	bl	95020 <Java_com_adjust_sdk_sig_NativeLibHelper_nOnResume@@Base-0x36a6c>
   8a84c:	a97827aa 	ldp	x10, x9, [x29, #-128]
   8a850:	d28f0806 	mov	x6, #0x7840                	// #30784
   8a854:	a93a4fb8 	stp	x24, x19, [x29, #-96]
   8a858:	a97713a5 	ldp	x5, x4, [x29, #-144]
   8a85c:	f2ac48c6 	movk	x6, #0x6246, lsl #16
   8a860:	f81983b7 	stur	x23, [x29, #-104]
   8a864:	f85903a2 	ldur	x2, [x29, #-112]
   8a868:	f2decec6 	movk	x6, #0xf676, lsl #32
   8a86c:	2a1b03eb 	mov	w11, w27
   8a870:	2a1403ec 	mov	w12, w20
   8a874:	aa1a03ed 	mov	x13, x26
   8a878:	aa1c03ee 	mov	x14, x28
   8a87c:	aa1503ef 	mov	x15, x21
   8a880:	aa1603f0 	mov	x16, x22
   8a884:	aa1903f1 	mov	x17, x25
   8a888:	f2e1f806 	movk	x6, #0xfc0, lsl #48
   8a88c:	17fff321 	b	87510 <Java_com_adjust_sdk_sig_NativeLibHelper_nOnResume@@Base-0x4457c>
   8a890:	d503201f 	nop
   8a894:	105cfde0 	adr	x0, 144850 <getauxval@plt+0xa6f0>
   8a898:	52800cac 	mov	w12, #0x65                  	// #101
   8a89c:	d29be506 	mov	x6, #0xdf28                	// #57128
   8a8a0:	900005e7 	adrp	x7, 146000 <getauxval@plt+0xbea0>
   8a8a4:	f85903a2 	ldur	x2, [x29, #-112]
   8a8a8:	39402008 	ldrb	w8, [x0, #8]
   8a8ac:	f2b62ce6 	movk	x6, #0xb167, lsl #16
   8a8b0:	39402409 	ldrb	w9, [x0, #9]
   8a8b4:	f2cff4e6 	movk	x6, #0x7fa7, lsl #32
   8a8b8:	3940280a 	ldrb	w10, [x0, #10]
   8a8bc:	a93a4fb8 	stp	x24, x19, [x29, #-96]
   8a8c0:	4a0c0108 	eor	w8, w8, w12
   8a8c4:	39402c0b 	ldrb	w11, [x0, #11]
   8a8c8:	4a0c0129 	eor	w9, w9, w12
   8a8cc:	fd400000 	ldr	d0, [x0]
   8a8d0:	f85783a4 	ldur	x4, [x29, #-136]
   8a8d4:	f81983b7 	stur	x23, [x29, #-104]
   8a8d8:	39002008 	strb	w8, [x0, #8]
   8a8dc:	4a0c0148 	eor	w8, w10, w12
   8a8e0:	4a0c016a 	eor	w10, w11, w12
   8a8e4:	39002409 	strb	w9, [x0, #9]
   8a8e8:	2e2b1c00 	eor	v0.8b, v0.8b, v11.8b
   8a8ec:	2a1b03eb 	mov	w11, w27
   8a8f0:	39002808 	strb	w8, [x0, #10]
   8a8f4:	2a1403ec 	mov	w12, w20
   8a8f8:	39002c0a 	strb	w10, [x0, #11]
   8a8fc:	aa1a03ed 	mov	x13, x26
   8a900:	a97827aa 	ldp	x10, x9, [x29, #-128]
   8a904:	fd000000 	str	d0, [x0]
   8a908:	52800020 	mov	w0, #0x1                   	// #1
   8a90c:	aa1c03ee 	mov	x14, x28
   8a910:	aa1503ef 	mov	x15, x21
   8a914:	aa1603f0 	mov	x16, x22
   8a918:	aa1903f1 	mov	x17, x25
   8a91c:	aa1e03e5 	mov	x5, x30
   8a920:	f2ea0a26 	movk	x6, #0x5051, lsl #48
   8a924:	391918e0 	strb	w0, [x7, #1606]
   8a928:	17fff2fa 	b	87510 <Java_com_adjust_sdk_sig_NativeLibHelper_nOnResume@@Base-0x4457c>
   8a92c:	d100e3a8 	sub	x8, x29, #0x38
   8a930:	d28df4d0 	mov	x16, #0x6fa6                	// #28582
   8a934:	d29a0cf1 	mov	x17, #0xd067                	// #53351
   8a938:	f2bfdf30 	movk	x16, #0xfef9, lsl #16
   8a93c:	f2a0f6d1 	movk	x17, #0x7b6, lsl #16
   8a940:	f2dd3990 	movk	x16, #0xe9cc, lsl #32
   8a944:	f8500108 	ldur	x8, [x8, #-256]
   8a948:	f2d93491 	movk	x17, #0xc9a4, lsl #32
   8a94c:	f2f73d70 	movk	x16, #0xb9eb, lsl #48
   8a950:	f2edb0f1 	movk	x17, #0x6d87, lsl #48
   8a954:	a93a4fb8 	stp	x24, x19, [x29, #-96]
   8a958:	2a1403ec 	mov	w12, w20
   8a95c:	f940010a 	ldr	x10, [x8]
   8a960:	d10cc3a8 	sub	x8, x29, #0x330
   8a964:	f81983b7 	stur	x23, [x29, #-104]
   8a968:	aa1a03ed 	mov	x13, x26
   8a96c:	aa1c03ee 	mov	x14, x28
   8a970:	aa1503ef 	mov	x15, x21
   8a974:	f810010a 	stur	x10, [x8, #-256]
   8a978:	d10043a8 	sub	x8, x29, #0x10
   8a97c:	f100015f 	cmp	x10, #0x0
   8a980:	f850010b 	ldur	x11, [x8, #-256]
   8a984:	fa401964 	ccmp	x11, #0x0, #0x4, ne	// ne = any
   8a988:	2a1b03eb 	mov	w11, w27
   8a98c:	9a901226 	csel	x6, x17, x16, ne	// ne = any
   8a990:	14000fb9 	b	8e874 <Java_com_adjust_sdk_sig_NativeLibHelper_nOnResume@@Base-0x3d218>
   8a994:	d10723a9 	sub	x9, x29, #0x1c8
   8a998:	d294e18a 	mov	x10, #0xa70c                	// #42764
   8a99c:	d28672ab 	mov	x11, #0x3395                	// #13205
   8a9a0:	f2b1478a 	movk	x10, #0x8a3c, lsl #16
   8a9a4:	f2a3996b 	movk	x11, #0x1ccb, lsl #16
   8a9a8:	f2d2186a 	movk	x10, #0x90c3, lsl #32
   8a9ac:	f8500130 	ldur	x16, [x9, #-256]
   8a9b0:	d10e03a9 	sub	x9, x29, #0x380
   8a9b4:	f2d0536b 	movk	x11, #0x829b, lsl #32
   8a9b8:	f2f1936a 	movk	x10, #0x8c9b, lsl #48
   8a9bc:	f2e52eab 	movk	x11, #0x2975, lsl #48
   8a9c0:	f85903a2 	ldur	x2, [x29, #-112]
   8a9c4:	f8100130 	stur	x16, [x9, #-256]
   8a9c8:	d106e3a9 	sub	x9, x29, #0x1b8
   8a9cc:	f100021f 	cmp	x16, #0x0
   8a9d0:	a93a4fb8 	stp	x24, x19, [x29, #-96]
   8a9d4:	9a8b0146 	csel	x6, x10, x11, eq	// eq = none
   8a9d8:	f85803aa 	ldur	x10, [x29, #-128]
   8a9dc:	f8500130 	ldur	x16, [x9, #-256]
   8a9e0:	d10e23a9 	sub	x9, x29, #0x388
   8a9e4:	f81983b7 	stur	x23, [x29, #-104]
   8a9e8:	2a1b03eb 	mov	w11, w27
   8a9ec:	2a1403ec 	mov	w12, w20
   8a9f0:	aa1a03ed 	mov	x13, x26
   8a9f4:	f8100130 	stur	x16, [x9, #-256]
   8a9f8:	d106c3a9 	sub	x9, x29, #0x1b0
   8a9fc:	aa1c03ee 	mov	x14, x28
   8aa00:	aa1503ef 	mov	x15, x21
   8aa04:	aa1903f1 	mov	x17, x25
   8aa08:	aa0803e4 	mov	x4, x8
   8aa0c:	f8500130 	ldur	x16, [x9, #-256]
   8aa10:	d10e43a9 	sub	x9, x29, #0x390
   8aa14:	f8100130 	stur	x16, [x9, #-256]
   8aa18:	aa1603f0 	mov	x16, x22
   8aa1c:	aa0503e9 	mov	x9, x5
   8aa20:	aa1e03e5 	mov	x5, x30
   8aa24:	17fff2bb 	b	87510 <Java_com_adjust_sdk_sig_NativeLibHelper_nOnResume@@Base-0x4457c>
   8aa28:	d100c3a8 	sub	x8, x29, #0x30
   8aa2c:	d10e63a9 	sub	x9, x29, #0x398
   8aa30:	f8500108 	ldur	x8, [x8, #-256]
   8aa34:	f8500129 	ldur	x9, [x9, #-256]
   8aa38:	cb080128 	sub	x8, x9, x8
   8aa3c:	d109e3a9 	sub	x9, x29, #0x278
   8aa40:	91000500 	add	x0, x8, #0x1
   8aa44:	f8100128 	stur	x8, [x9, #-256]
   8aa48:	9402bcf6 	bl	139e20 <malloc@plt>
   8aa4c:	d10463a8 	sub	x8, x29, #0x118
   8aa50:	d28f50ab 	mov	x11, #0x7a85                	// #31365
   8aa54:	d29cd50c 	mov	x12, #0xe6a8                	// #59048
   8aa58:	f2b4210b 	movk	x11, #0xa108, lsl #16
   8aa5c:	f2b9fb6c 	movk	x12, #0xcfdb, lsl #16
   8aa60:	f2c1f5eb 	movk	x11, #0xfaf, lsl #32
   8aa64:	f2c3982c 	movk	x12, #0x1cc1, lsl #32
   8aa68:	a93a4fb8 	stp	x24, x19, [x29, #-96]
   8aa6c:	f8100100 	stur	x0, [x8, #-256]
   8aa70:	f100001f 	cmp	x0, #0x0
   8aa74:	f81983b7 	stur	x23, [x29, #-104]
   8aa78:	f2f1e2cb 	movk	x11, #0x8f16, lsl #48
   8aa7c:	f2f989ec 	movk	x12, #0xcc4f, lsl #48
   8aa80:	1400122a 	b	8f328 <Java_com_adjust_sdk_sig_NativeLibHelper_nOnResume@@Base-0x3c764>
   8aa84:	d10063a8 	sub	x8, x29, #0x18
   8aa88:	d28d9326 	mov	x6, #0x6c99                	// #27801
   8aa8c:	a977aba4 	ldp	x4, x10, [x29, #-136]
   8aa90:	f2a21506 	movk	x6, #0x10a8, lsl #16
   8aa94:	a93a4fb8 	stp	x24, x19, [x29, #-96]
   8aa98:	f8500100 	ldur	x0, [x8, #-256]
   8aa9c:	f2cc6d06 	movk	x6, #0x6368, lsl #32
   8aaa0:	f85903a2 	ldur	x2, [x29, #-112]
   8aaa4:	f81983b7 	stur	x23, [x29, #-104]
   8aaa8:	2a1b03eb 	mov	w11, w27
   8aaac:	5280004c 	mov	w12, #0x2                   	// #2
   8aab0:	aa1a03ed 	mov	x13, x26
   8aab4:	aa1c03ee 	mov	x14, x28
   8aab8:	aa1503ef 	mov	x15, x21
   8aabc:	aa1603f0 	mov	x16, x22
   8aac0:	aa1903f1 	mov	x17, x25
   8aac4:	aa0503e9 	mov	x9, x5
   8aac8:	aa1e03e5 	mov	x5, x30
   8aacc:	f2e74366 	movk	x6, #0x3a1b, lsl #48
   8aad0:	f900201f 	str	xzr, [x0, #64]
   8aad4:	17fff28f 	b	87510 <Java_com_adjust_sdk_sig_NativeLibHelper_nOnResume@@Base-0x4457c>
   8aad8:	d503201f 	nop
   8aadc:	105c5c60 	adr	x0, 143668 <getauxval@plt+0x9508>
   8aae0:	528006ed 	mov	w13, #0x37                  	// #55
   8aae4:	d28e0066 	mov	x6, #0x7003                	// #28675
   8aae8:	900005e7 	adrp	x7, 146000 <getauxval@plt+0xbea0>
   8aaec:	f85903a2 	ldur	x2, [x29, #-112]
   8aaf0:	39402008 	ldrb	w8, [x0, #8]
   8aaf4:	f2a74c46 	movk	x6, #0x3a62, lsl #16
   8aaf8:	39402409 	ldrb	w9, [x0, #9]
   8aafc:	f2dd4366 	movk	x6, #0xea1b, lsl #32
   8ab00:	3940280a 	ldrb	w10, [x0, #10]
   8ab04:	a93a4fb8 	stp	x24, x19, [x29, #-96]
   8ab08:	4a0d0108 	eor	w8, w8, w13
   8ab0c:	39402c0b 	ldrb	w11, [x0, #11]
   8ab10:	4a0d0129 	eor	w9, w9, w13
   8ab14:	3940300c 	ldrb	w12, [x0, #12]
   8ab18:	4a0d014a 	eor	w10, w10, w13
   8ab1c:	fd400000 	ldr	d0, [x0]
   8ab20:	39002008 	strb	w8, [x0, #8]
   8ab24:	39403408 	ldrb	w8, [x0, #13]
   8ab28:	39002409 	strb	w9, [x0, #9]
   8ab2c:	4a0d0169 	eor	w9, w11, w13
   8ab30:	3900280a 	strb	w10, [x0, #10]
   8ab34:	4a0d018a 	eor	w10, w12, w13
   8ab38:	4a0d0108 	eor	w8, w8, w13
   8ab3c:	2e2c1c00 	eor	v0.8b, v0.8b, v12.8b
   8ab40:	39002c09 	strb	w9, [x0, #11]
   8ab44:	2a1b03eb 	mov	w11, w27
   8ab48:	3900300a 	strb	w10, [x0, #12]
   8ab4c:	2a1403ec 	mov	w12, w20
   8ab50:	39003408 	strb	w8, [x0, #13]
   8ab54:	aa1a03ed 	mov	x13, x26
   8ab58:	fd000000 	str	d0, [x0]
   8ab5c:	52800020 	mov	w0, #0x1                   	// #1
   8ab60:	f81983b7 	stur	x23, [x29, #-104]
   8ab64:	aa1c03ee 	mov	x14, x28
   8ab68:	aa1503ef 	mov	x15, x21
   8ab6c:	aa1603f0 	mov	x16, x22
   8ab70:	aa1903f1 	mov	x17, x25
   8ab74:	aa0103ea 	mov	x10, x1
   8ab78:	aa0303e9 	mov	x9, x3
   8ab7c:	aa1e03e5 	mov	x5, x30
   8ab80:	f2e55926 	movk	x6, #0x2ac9, lsl #48
   8ab84:	391bfce0 	strb	w0, [x7, #1791]
   8ab88:	17fff262 	b	87510 <Java_com_adjust_sdk_sig_NativeLibHelper_nOnResume@@Base-0x4457c>
   8ab8c:	d503201f 	nop
   8ab90:	105c5b80 	adr	x0, 143700 <getauxval@plt+0x95a0>
   8ab94:	4f05e681 	movi	v1.16b, #0xb4
   8ab98:	5280168e 	mov	w14, #0xb4                  	// #180
   8ab9c:	d29311a6 	mov	x6, #0x988d                	// #39053
   8aba0:	900005e7 	adrp	x7, 146000 <getauxval@plt+0xbea0>
   8aba4:	3940400d 	ldrb	w13, [x0, #16]
   8aba8:	f2b13b66 	movk	x6, #0x89db, lsl #16
   8abac:	3dc00000 	ldr	q0, [x0]
   8abb0:	f2dfe446 	movk	x6, #0xff22, lsl #32
   8abb4:	f85903a2 	ldur	x2, [x29, #-112]
   8abb8:	a93a4fb8 	stp	x24, x19, [x29, #-96]
   8abbc:	4a0e01b1 	eor	w17, w13, w14
   8abc0:	f81983b7 	stur	x23, [x29, #-104]
   8abc4:	6e211c00 	eor	v0.16b, v0.16b, v1.16b
   8abc8:	2a1b03eb 	mov	w11, w27
   8abcc:	3d800000 	str	q0, [x0]
   8abd0:	2a1403ec 	mov	w12, w20
   8abd4:	39004011 	strb	w17, [x0, #16]
   8abd8:	52800020 	mov	w0, #0x1                   	// #1
   8abdc:	aa1a03ed 	mov	x13, x26
   8abe0:	aa1c03ee 	mov	x14, x28
   8abe4:	aa1503ef 	mov	x15, x21
   8abe8:	aa1603f0 	mov	x16, x22
   8abec:	aa1903f1 	mov	x17, x25
   8abf0:	aa0803e9 	mov	x9, x8
   8abf4:	aa1e03e5 	mov	x5, x30
   8abf8:	f2eb0d46 	movk	x6, #0x586a, lsl #48
   8abfc:	391c24e0 	strb	w0, [x7, #1801]
   8ac00:	17fff244 	b	87510 <Java_com_adjust_sdk_sig_NativeLibHelper_nOnResume@@Base-0x4457c>
   8ac04:	d28f0806 	mov	x6, #0x7840                	// #30784
   8ac08:	2a1b03eb 	mov	w11, w27
   8ac0c:	a97827aa 	ldp	x10, x9, [x29, #-128]
   8ac10:	f2ac48c6 	movk	x6, #0x6246, lsl #16
   8ac14:	2a1403ec 	mov	w12, w20
   8ac18:	f2decec6 	movk	x6, #0xf676, lsl #32
   8ac1c:	aa1a03ed 	mov	x13, x26
   8ac20:	aa1c03ee 	mov	x14, x28
   8ac24:	aa1503ef 	mov	x15, x21
   8ac28:	aa1603f0 	mov	x16, x22
   8ac2c:	aa1903f1 	mov	x17, x25
   8ac30:	f85903a2 	ldur	x2, [x29, #-112]
   8ac34:	aa1e03e5 	mov	x5, x30
   8ac38:	f85783a4 	ldur	x4, [x29, #-136]
   8ac3c:	f2e1f806 	movk	x6, #0xfc0, lsl #48
   8ac40:	52800480 	mov	w0, #0x24                  	// #36
   8ac44:	a93a4fb8 	stp	x24, x19, [x29, #-96]
   8ac48:	f81983b7 	stur	x23, [x29, #-104]
   8ac4c:	1400043b 	b	8bd38 <Java_com_adjust_sdk_sig_NativeLibHelper_nOnResume@@Base-0x3fd54>
   8ac50:	2a1f03e0 	mov	w0, wzr
   8ac54:	52800021 	mov	w1, #0x1                   	// #1
   8ac58:	d503201f 	nop
   8ac5c:	105dc702 	adr	x2, 14653c <getauxval@plt+0xc3dc>
   8ac60:	9402bae8 	bl	139800 <Java_com_adjust_sdk_sig_NativeLibHelper_nSign@@Base+0x6d1fc>
   8ac64:	d284856b 	mov	x11, #0x242b                	// #9259
   8ac68:	d29b038c 	mov	x12, #0xd81c                	// #55324
   8ac6c:	f2b9afeb 	movk	x11, #0xcd7f, lsl #16
   8ac70:	f2b9490c 	movk	x12, #0xca48, lsl #16
   8ac74:	f2c023ab 	movk	x11, #0x11d, lsl #32
   8ac78:	f2ddd90c 	movk	x12, #0xeec8, lsl #32
   8ac7c:	f2fb6eab 	movk	x11, #0xdb75, lsl #48
   8ac80:	f2eaca0c 	movk	x12, #0x5650, lsl #48
   8ac84:	7100001f 	cmp	w0, #0x0
   8ac88:	a93a4fb8 	stp	x24, x19, [x29, #-96]
   8ac8c:	f81983b7 	stur	x23, [x29, #-104]
   8ac90:	140011a6 	b	8f328 <Java_com_adjust_sdk_sig_NativeLibHelper_nOnResume@@Base-0x3c764>
   8ac94:	d10023a8 	sub	x8, x29, #0x8
   8ac98:	d2921886 	mov	x6, #0x90c4                	// #37060
   8ac9c:	a97827aa 	ldp	x10, x9, [x29, #-128]
   8aca0:	f2b81ea6 	movk	x6, #0xc0f5, lsl #16
   8aca4:	a93a4fb8 	stp	x24, x19, [x29, #-96]
   8aca8:	f8500100 	ldur	x0, [x8, #-256]
   8acac:	d108a3a8 	sub	x8, x29, #0x228
   8acb0:	f85903a2 	ldur	x2, [x29, #-112]
   8acb4:	f2d29f66 	movk	x6, #0x94fb, lsl #32
   8acb8:	f85783a4 	ldur	x4, [x29, #-136]
   8acbc:	f81983b7 	stur	x23, [x29, #-104]
   8acc0:	f8100100 	stur	x0, [x8, #-256]
   8acc4:	d103a3a8 	sub	x8, x29, #0xe8
   8acc8:	2a1b03eb 	mov	w11, w27
   8accc:	2a1403ec 	mov	w12, w20
   8acd0:	aa1a03ed 	mov	x13, x26
   8acd4:	aa1c03ee 	mov	x14, x28
   8acd8:	f8500107 	ldur	x7, [x8, #-256]
   8acdc:	d108c3a8 	sub	x8, x29, #0x230
   8ace0:	aa1503ef 	mov	x15, x21
   8ace4:	aa1603f0 	mov	x16, x22
   8ace8:	aa1903f1 	mov	x17, x25
   8acec:	aa1e03e5 	mov	x5, x30
   8acf0:	f8100107 	stur	x7, [x8, #-256]
   8acf4:	d10923a8 	sub	x8, x29, #0x248
   8acf8:	f2eca086 	movk	x6, #0x6504, lsl #48
   8acfc:	f8500100 	ldur	x0, [x8, #-256]
   8ad00:	d10903a8 	sub	x8, x29, #0x240
   8ad04:	f8100100 	stur	x0, [x8, #-256]
   8ad08:	382068ff 	strb	wzr, [x7, x0]
   8ad0c:	17fff201 	b	87510 <Java_com_adjust_sdk_sig_NativeLibHelper_nOnResume@@Base-0x4457c>
   8ad10:	d10143a8 	sub	x8, x29, #0x50
   8ad14:	f8500108 	ldur	x8, [x8, #-256]
   8ad18:	f9400102 	ldr	x2, [x8]
   8ad1c:	d10083a8 	sub	x8, x29, #0x20
   8ad20:	f8500100 	ldur	x0, [x8, #-256]
   8ad24:	d10043a8 	sub	x8, x29, #0x10
   8ad28:	f8500101 	ldur	x1, [x8, #-256]
   8ad2c:	d101a3a8 	sub	x8, x29, #0x68
   8ad30:	f8500103 	ldur	x3, [x8, #-256]
   8ad34:	d10223a8 	sub	x8, x29, #0x88
   8ad38:	f8500104 	ldur	x4, [x8, #-256]
   8ad3c:	94001f7a 	bl	92b24 <Java_com_adjust_sdk_sig_NativeLibHelper_nOnResume@@Base-0x38f68>
   8ad40:	d10083a8 	sub	x8, x29, #0x20
   8ad44:	d298154f 	mov	x15, #0xc0aa                	// #49322
   8ad48:	d28ff970 	mov	x16, #0x7fcb                	// #32715
   8ad4c:	f2b2f86f 	movk	x15, #0x97c3, lsl #16
   8ad50:	f2b1ab50 	movk	x16, #0x8d5a, lsl #16
   8ad54:	f2c8130f 	movk	x15, #0x4098, lsl #32
   8ad58:	f8500108 	ldur	x8, [x8, #-256]
   8ad5c:	f2c72c90 	movk	x16, #0x3964, lsl #32
   8ad60:	a93a4fb8 	stp	x24, x19, [x29, #-96]
   8ad64:	2a1b03eb 	mov	w11, w27
   8ad68:	f81983b7 	stur	x23, [x29, #-104]
   8ad6c:	2a1403ec 	mov	w12, w20
   8ad70:	b940010e 	ldr	w14, [x8]
   8ad74:	aa1a03ed 	mov	x13, x26
   8ad78:	f2fbea0f 	movk	x15, #0xdf50, lsl #48
   8ad7c:	f2f3b5f0 	movk	x16, #0x9daf, lsl #48
   8ad80:	14000fbe 	b	8ec78 <Java_com_adjust_sdk_sig_NativeLibHelper_nOnResume@@Base-0x3ce14>
   8ad84:	d10dc3a8 	sub	x8, x29, #0x370
   8ad88:	d10763a9 	sub	x9, x29, #0x1d8
   8ad8c:	d29ce1a6 	mov	x6, #0xe70d                	// #59149
   8ad90:	f85903a2 	ldur	x2, [x29, #-112]
   8ad94:	f2a47806 	movk	x6, #0x23c0, lsl #16
   8ad98:	a93a4fb8 	stp	x24, x19, [x29, #-96]
   8ad9c:	f850010a 	ldur	x10, [x8, #-256]
   8ada0:	d10da3a8 	sub	x8, x29, #0x368
   8ada4:	f2df6206 	movk	x6, #0xfb10, lsl #32
   8ada8:	f81983b7 	stur	x23, [x29, #-104]
   8adac:	2a1b03eb 	mov	w11, w27
   8adb0:	2a1403ec 	mov	w12, w20
   8adb4:	f8500107 	ldur	x7, [x8, #-256]
   8adb8:	d10d83a8 	sub	x8, x29, #0x360
   8adbc:	38401540 	ldrb	w0, [x10], #1
   8adc0:	aa1a03ed 	mov	x13, x26
   8adc4:	aa1c03ee 	mov	x14, x28
   8adc8:	f8500108 	ldur	x8, [x8, #-256]
   8adcc:	aa1503ef 	mov	x15, x21
   8add0:	aa1603f0 	mov	x16, x22
   8add4:	aa1903f1 	mov	x17, x25
   8add8:	aa1e03e5 	mov	x5, x30
   8addc:	f2ecf406 	movk	x6, #0x67a0, lsl #48
   8ade0:	d1000508 	sub	x8, x8, #0x1
   8ade4:	380014e0 	strb	w0, [x7], #1
   8ade8:	f8100128 	stur	x8, [x9, #-256]
   8adec:	d10703a8 	sub	x8, x29, #0x1c0
   8adf0:	aa0303e9 	mov	x9, x3
   8adf4:	f810010a 	stur	x10, [x8, #-256]
   8adf8:	d10743a8 	sub	x8, x29, #0x1d0
   8adfc:	aa0103ea 	mov	x10, x1
   8ae00:	f8100107 	stur	x7, [x8, #-256]
   8ae04:	17fff1c3 	b	87510 <Java_com_adjust_sdk_sig_NativeLibHelper_nOnResume@@Base-0x4457c>
   8ae08:	d10063a8 	sub	x8, x29, #0x18
   8ae0c:	d28d9326 	mov	x6, #0x6c99                	// #27801
   8ae10:	a97827aa 	ldp	x10, x9, [x29, #-128]
   8ae14:	f2a21506 	movk	x6, #0x10a8, lsl #16
   8ae18:	a93a4fb8 	stp	x24, x19, [x29, #-96]
   8ae1c:	f8500100 	ldur	x0, [x8, #-256]
   8ae20:	f2cc6d06 	movk	x6, #0x6368, lsl #32
   8ae24:	f85903a2 	ldur	x2, [x29, #-112]
   8ae28:	f81983b7 	stur	x23, [x29, #-104]
   8ae2c:	f85783a4 	ldur	x4, [x29, #-136]
   8ae30:	2a1b03eb 	mov	w11, w27
   8ae34:	5280004c 	mov	w12, #0x2                   	// #2
   8ae38:	aa1a03ed 	mov	x13, x26
   8ae3c:	aa1c03ee 	mov	x14, x28
   8ae40:	aa1503ef 	mov	x15, x21
   8ae44:	aa1603f0 	mov	x16, x22
   8ae48:	aa1903f1 	mov	x17, x25
   8ae4c:	aa1e03e5 	mov	x5, x30
   8ae50:	f2e74366 	movk	x6, #0x3a1b, lsl #48
   8ae54:	f9001c1f 	str	xzr, [x0, #56]
   8ae58:	17fff1ae 	b	87510 <Java_com_adjust_sdk_sig_NativeLibHelper_nOnResume@@Base-0x4457c>
   8ae5c:	d503201f 	nop
   8ae60:	105d9f08 	adr	x8, 146240 <getauxval@plt+0xc0e0>
   8ae64:	d105c3a9 	sub	x9, x29, #0x170
   8ae68:	d503201f 	nop
   8ae6c:	105ccea3 	adr	x3, 144840 <getauxval@plt+0xa6e0>
   8ae70:	089ffd1f 	stlrb	wzr, [x8]
   8ae74:	d10063a8 	sub	x8, x29, #0x18
   8ae78:	f8500129 	ldur	x9, [x9, #-256]
   8ae7c:	f8500108 	ldur	x8, [x8, #-256]
   8ae80:	f9003509 	str	x9, [x8, #104]
   8ae84:	d10083a8 	sub	x8, x29, #0x20
   8ae88:	d10083a9 	sub	x9, x29, #0x20
   8ae8c:	f8500108 	ldur	x8, [x8, #-256]
   8ae90:	b900011f 	str	wzr, [x8]
   8ae94:	aa0803e0 	mov	x0, x8
   8ae98:	f8100128 	stur	x8, [x9, #-256]
   8ae9c:	d101e3a8 	sub	x8, x29, #0x78
   8aea0:	f8500104 	ldur	x4, [x8, #-256]
   8aea4:	d10103a8 	sub	x8, x29, #0x40
   8aea8:	f8500108 	ldur	x8, [x8, #-256]
   8aeac:	f900009f 	str	xzr, [x4]
   8aeb0:	f900011f 	str	xzr, [x8]
   8aeb4:	d10263a8 	sub	x8, x29, #0x98
   8aeb8:	f8500108 	ldur	x8, [x8, #-256]
   8aebc:	b900011f 	str	wzr, [x8]
   8aec0:	d10123a8 	sub	x8, x29, #0x48
   8aec4:	f8500108 	ldur	x8, [x8, #-256]
   8aec8:	f900011f 	str	xzr, [x8]
   8aecc:	d10143a8 	sub	x8, x29, #0x50
   8aed0:	f8500108 	ldur	x8, [x8, #-256]
   8aed4:	f900011f 	str	xzr, [x8]
   8aed8:	d10183a8 	sub	x8, x29, #0x60
   8aedc:	f8500108 	ldur	x8, [x8, #-256]
   8aee0:	f900011f 	str	xzr, [x8]
   8aee4:	d101a3a8 	sub	x8, x29, #0x68
   8aee8:	f8500108 	ldur	x8, [x8, #-256]
   8aeec:	f900011f 	str	xzr, [x8]
   8aef0:	d10223a8 	sub	x8, x29, #0x88
   8aef4:	f8500108 	ldur	x8, [x8, #-256]
   8aef8:	f900011f 	str	xzr, [x8]
   8aefc:	d101c3a8 	sub	x8, x29, #0x70
   8af00:	f8500108 	ldur	x8, [x8, #-256]
   8af04:	f900011f 	str	xzr, [x8]
   8af08:	d10243a8 	sub	x8, x29, #0x90
   8af0c:	f8500108 	ldur	x8, [x8, #-256]
   8af10:	f900011f 	str	xzr, [x8]
   8af14:	d10043a8 	sub	x8, x29, #0x10
   8af18:	f8500101 	ldur	x1, [x8, #-256]
   8af1c:	d11263a8 	sub	x8, x29, #0x498
   8af20:	f8500102 	ldur	x2, [x8, #-256]
   8af24:	9400aa41 	bl	b5828 <Java_com_adjust_sdk_sig_NativeLibHelper_nOnResume@@Base-0x16264>
   8af28:	d10083a8 	sub	x8, x29, #0x20
   8af2c:	d296098f 	mov	x15, #0xb04c                	// #45132
   8af30:	d28627d0 	mov	x16, #0x313e                	// #12606
   8af34:	f2b8346f 	movk	x15, #0xc1a3, lsl #16
   8af38:	f2b2e990 	movk	x16, #0x974c, lsl #16
   8af3c:	f2c9214f 	movk	x15, #0x490a, lsl #32
   8af40:	f8500108 	ldur	x8, [x8, #-256]
   8af44:	f2c979b0 	movk	x16, #0x4bcd, lsl #32
   8af48:	a93a4fb8 	stp	x24, x19, [x29, #-96]
   8af4c:	2a1b03eb 	mov	w11, w27
   8af50:	f81983b7 	stur	x23, [x29, #-104]
   8af54:	2a1403ec 	mov	w12, w20
   8af58:	b940010e 	ldr	w14, [x8]
   8af5c:	aa1a03ed 	mov	x13, x26
   8af60:	f2f60bcf 	movk	x15, #0xb05e, lsl #48
   8af64:	f2eaecb0 	movk	x16, #0x5765, lsl #48
   8af68:	14000f44 	b	8ec78 <Java_com_adjust_sdk_sig_NativeLibHelper_nOnResume@@Base-0x3ce14>
   8af6c:	2a1f03e0 	mov	w0, wzr
   8af70:	52800021 	mov	w1, #0x1                   	// #1
   8af74:	d503201f 	nop
   8af78:	105d95e2 	adr	x2, 146234 <getauxval@plt+0xc0d4>
   8af7c:	9402ba21 	bl	139800 <Java_com_adjust_sdk_sig_NativeLibHelper_nSign@@Base+0x6d1fc>
   8af80:	d28b9d0b 	mov	x11, #0x5ce8                	// #23784
   8af84:	d28b7a8c 	mov	x12, #0x5bd4                	// #23508
   8af88:	f2bd7b2b 	movk	x11, #0xebd9, lsl #16
   8af8c:	f2a11ecc 	movk	x12, #0x8f6, lsl #16
   8af90:	f2c06e0b 	movk	x11, #0x370, lsl #32
   8af94:	f2dc0f6c 	movk	x12, #0xe07b, lsl #32
   8af98:	a93a4fb8 	stp	x24, x19, [x29, #-96]
   8af9c:	7100001f 	cmp	w0, #0x0
   8afa0:	f81983b7 	stur	x23, [x29, #-104]
   8afa4:	f2f4ea6b 	movk	x11, #0xa753, lsl #48
   8afa8:	f2eb23ac 	movk	x12, #0x591d, lsl #48
   8afac:	140010b6 	b	8f284 <Java_com_adjust_sdk_sig_NativeLibHelper_nOnResume@@Base-0x3c808>
   8afb0:	d10143a8 	sub	x8, x29, #0x50
   8afb4:	d29b7fb0 	mov	x16, #0xdbfd                	// #56317
   8afb8:	d28cd631 	mov	x17, #0x66b1                	// #26289
   8afbc:	f2a6d270 	movk	x16, #0x3693, lsl #16
   8afc0:	f2ac80d1 	movk	x17, #0x6406, lsl #16
   8afc4:	f2d7e770 	movk	x16, #0xbf3b, lsl #32
   8afc8:	f8500108 	ldur	x8, [x8, #-256]
   8afcc:	f2db3c11 	movk	x17, #0xd9e0, lsl #32
   8afd0:	f85903a2 	ldur	x2, [x29, #-112]
   8afd4:	f2eb6530 	movk	x16, #0x5b29, lsl #48
   8afd8:	f85783a4 	ldur	x4, [x29, #-136]
   8afdc:	f2ebc2d1 	movk	x17, #0x5e16, lsl #48
   8afe0:	f940010a 	ldr	x10, [x8]
   8afe4:	d10c63a8 	sub	x8, x29, #0x318
   8afe8:	a93a4fb8 	stp	x24, x19, [x29, #-96]
   8afec:	2a1403ec 	mov	w12, w20
   8aff0:	f81983b7 	stur	x23, [x29, #-104]
   8aff4:	aa1a03ed 	mov	x13, x26
   8aff8:	f810010a 	stur	x10, [x8, #-256]
   8affc:	d10043a8 	sub	x8, x29, #0x10
   8b000:	f100015f 	cmp	x10, #0x0
   8b004:	aa1c03ee 	mov	x14, x28
   8b008:	aa1503ef 	mov	x15, x21
   8b00c:	aa0903ea 	mov	x10, x9
   8b010:	f850010b 	ldur	x11, [x8, #-256]
   8b014:	aa0303e9 	mov	x9, x3
   8b018:	aa1e03e5 	mov	x5, x30
   8b01c:	d10123a8 	sub	x8, x29, #0x48
   8b020:	14000a31 	b	8d8e4 <Java_com_adjust_sdk_sig_NativeLibHelper_nOnResume@@Base-0x3e1a8>
   8b024:	f85703a5 	ldur	x5, [x29, #-144]
   8b028:	d29e0fb0 	mov	x16, #0xf07d                	// #61565
   8b02c:	d2866391 	mov	x17, #0x331c                	// #13084
   8b030:	d10a03a8 	sub	x8, x29, #0x280
   8b034:	a97827aa 	ldp	x10, x9, [x29, #-128]
   8b038:	aa0503eb 	mov	x11, x5
   8b03c:	f2bedfb0 	movk	x16, #0xf6fd, lsl #16
   8b040:	f2b92331 	movk	x17, #0xc919, lsl #16
   8b044:	f2cf2030 	movk	x16, #0x7901, lsl #32
   8b048:	f2c61511 	movk	x17, #0x30a8, lsl #32
   8b04c:	f85903a2 	ldur	x2, [x29, #-112]
   8b050:	3840156f 	ldrb	w15, [x11], #1
   8b054:	f85783a4 	ldur	x4, [x29, #-136]
   8b058:	f2f69230 	movk	x16, #0xb491, lsl #48
   8b05c:	f2e836b1 	movk	x17, #0x41b5, lsl #48
   8b060:	a93a4fb8 	stp	x24, x19, [x29, #-96]
   8b064:	710001ff 	cmp	w15, #0x0
   8b068:	f81983b7 	stur	x23, [x29, #-104]
   8b06c:	f81503ab 	stur	x11, [x29, #-176]
   8b070:	2a1b03eb 	mov	w11, w27
   8b074:	2a1403ec 	mov	w12, w20
   8b078:	f8100105 	stur	x5, [x8, #-256]
   8b07c:	aa1a03ed 	mov	x13, x26
   8b080:	aa1c03ee 	mov	x14, x28
   8b084:	aa1503ef 	mov	x15, x21
   8b088:	9a900226 	csel	x6, x17, x16, eq	// eq = none
   8b08c:	aa1603f0 	mov	x16, x22
   8b090:	aa1903f1 	mov	x17, x25
   8b094:	17fff11f 	b	87510 <Java_com_adjust_sdk_sig_NativeLibHelper_nOnResume@@Base-0x4457c>
   8b098:	f00005c8 	adrp	x8, 146000 <getauxval@plt+0xbea0>
   8b09c:	d298f88f 	mov	x15, #0xc7c4                	// #51140
   8b0a0:	d29b4770 	mov	x16, #0xda3b                	// #55867
   8b0a4:	f2a1adaf 	movk	x15, #0xd6d, lsl #16
   8b0a8:	f2b3cb10 	movk	x16, #0x9e58, lsl #16
   8b0ac:	f2d2136f 	movk	x15, #0x909b, lsl #32
   8b0b0:	395bf10e 	ldrb	w14, [x8, #1788]
   8b0b4:	f2d80850 	movk	x16, #0xc042, lsl #32
   8b0b8:	a93a4fb8 	stp	x24, x19, [x29, #-96]
   8b0bc:	2a1b03eb 	mov	w11, w27
   8b0c0:	f81983b7 	stur	x23, [x29, #-104]
   8b0c4:	2a1403ec 	mov	w12, w20
   8b0c8:	aa1a03ed 	mov	x13, x26
   8b0cc:	710001df 	cmp	w14, #0x0
   8b0d0:	aa1c03ee 	mov	x14, x28
   8b0d4:	f2e6e04f 	movk	x15, #0x3702, lsl #48
   8b0d8:	f2ec1910 	movk	x16, #0x60c8, lsl #48
   8b0dc:	14000349 	b	8be00 <Java_com_adjust_sdk_sig_NativeLibHelper_nOnResume@@Base-0x3fc8c>
   8b0e0:	d10023a8 	sub	x8, x29, #0x8
   8b0e4:	d2852626 	mov	x6, #0x2931                	// #10545
   8b0e8:	a97827aa 	ldp	x10, x9, [x29, #-128]
   8b0ec:	f2a5b406 	movk	x6, #0x2da0, lsl #16
   8b0f0:	a93a4fb8 	stp	x24, x19, [x29, #-96]
   8b0f4:	f8500110 	ldur	x16, [x8, #-256]
   8b0f8:	d10663a8 	sub	x8, x29, #0x198
   8b0fc:	f85903a2 	ldur	x2, [x29, #-112]
   8b100:	f2d0e206 	movk	x6, #0x8710, lsl #32
   8b104:	f85783a4 	ldur	x4, [x29, #-136]
   8b108:	f81983b7 	stur	x23, [x29, #-104]
   8b10c:	f8100110 	stur	x16, [x8, #-256]
   8b110:	d10463a8 	sub	x8, x29, #0x118
   8b114:	2a1b03eb 	mov	w11, w27
   8b118:	2a1403ec 	mov	w12, w20
   8b11c:	aa1a03ed 	mov	x13, x26
   8b120:	aa1c03ee 	mov	x14, x28
   8b124:	f8500107 	ldur	x7, [x8, #-256]
   8b128:	d10683a8 	sub	x8, x29, #0x1a0
   8b12c:	aa1503ef 	mov	x15, x21
   8b130:	aa1603f0 	mov	x16, x22
   8b134:	aa1903f1 	mov	x17, x25
   8b138:	aa1e03e5 	mov	x5, x30
   8b13c:	f8100107 	stur	x7, [x8, #-256]
   8b140:	d109e3a8 	sub	x8, x29, #0x278
   8b144:	f2e26906 	movk	x6, #0x1348, lsl #48
   8b148:	f8500100 	ldur	x0, [x8, #-256]
   8b14c:	d106a3a8 	sub	x8, x29, #0x1a8
   8b150:	f8100100 	stur	x0, [x8, #-256]
   8b154:	382068ff 	strb	wzr, [x7, x0]
   8b158:	17fff0ee 	b	87510 <Java_com_adjust_sdk_sig_NativeLibHelper_nOnResume@@Base-0x4457c>
   8b15c:	d100c3a8 	sub	x8, x29, #0x30
   8b160:	d10e83a9 	sub	x9, x29, #0x3a0
   8b164:	f8500108 	ldur	x8, [x8, #-256]
   8b168:	f8500129 	ldur	x9, [x9, #-256]
   8b16c:	cb080128 	sub	x8, x9, x8
   8b170:	d10a23a9 	sub	x9, x29, #0x288
   8b174:	91000500 	add	x0, x8, #0x1
   8b178:	f8100128 	stur	x8, [x9, #-256]
   8b17c:	9402bb29 	bl	139e20 <malloc@plt>
   8b180:	d10483a8 	sub	x8, x29, #0x120
   8b184:	d29ee46b 	mov	x11, #0xf723                	// #63267
   8b188:	d292984c 	mov	x12, #0x94c2                	// #38082
   8b18c:	f2aaf26b 	movk	x11, #0x5793, lsl #16
   8b190:	f2ae10cc 	movk	x12, #0x7086, lsl #16
   8b194:	f2d0bf4b 	movk	x11, #0x85fa, lsl #32
   8b198:	f2cfc9cc 	movk	x12, #0x7e4e, lsl #32
   8b19c:	a93a4fb8 	stp	x24, x19, [x29, #-96]
   8b1a0:	f8100100 	stur	x0, [x8, #-256]
   8b1a4:	f100001f 	cmp	x0, #0x0
   8b1a8:	f81983b7 	stur	x23, [x29, #-104]
   8b1ac:	f2e6a76b 	movk	x11, #0x353b, lsl #48
   8b1b0:	f2fa31ac 	movk	x12, #0xd18d, lsl #48
   8b1b4:	1400105d 	b	8f328 <Java_com_adjust_sdk_sig_NativeLibHelper_nOnResume@@Base-0x3c764>
   8b1b8:	f00005c8 	adrp	x8, 146000 <getauxval@plt+0xbea0>
   8b1bc:	d29d2c4f 	mov	x15, #0xe962                	// #59746
   8b1c0:	d29c0150 	mov	x16, #0xe00a                	// #57354
   8b1c4:	f2b6de0f 	movk	x15, #0xb6f0, lsl #16
   8b1c8:	f2aaea10 	movk	x16, #0x5750, lsl #16
   8b1cc:	f2c0bb2f 	movk	x15, #0x5d9, lsl #32
   8b1d0:	395c510e 	ldrb	w14, [x8, #1812]
   8b1d4:	f2ca3c90 	movk	x16, #0x51e4, lsl #32
   8b1d8:	f2f7306f 	movk	x15, #0xb983, lsl #48
   8b1dc:	f2fd3890 	movk	x16, #0xe9c4, lsl #48
   8b1e0:	a93a4fb8 	stp	x24, x19, [x29, #-96]
   8b1e4:	2a1b03eb 	mov	w11, w27
   8b1e8:	710001df 	cmp	w14, #0x0
   8b1ec:	f81983b7 	stur	x23, [x29, #-104]
   8b1f0:	2a1403ec 	mov	w12, w20
   8b1f4:	aa1a03ed 	mov	x13, x26
   8b1f8:	aa1c03ee 	mov	x14, x28
   8b1fc:	9a8f1206 	csel	x6, x16, x15, ne	// ne = any
   8b200:	aa1503ef 	mov	x15, x21
   8b204:	aa1603f0 	mov	x16, x22
   8b208:	aa1903f1 	mov	x17, x25
   8b20c:	aa0103ea 	mov	x10, x1
   8b210:	14000aea 	b	8ddb8 <Java_com_adjust_sdk_sig_NativeLibHelper_nOnResume@@Base-0x3dcd4>
   8b214:	d503201f 	nop
   8b218:	105d9988 	adr	x8, 146548 <getauxval@plt+0xc3e8>
   8b21c:	d103a3a9 	sub	x9, x29, #0xe8
   8b220:	d503201f 	nop
   8b224:	105c2360 	adr	x0, 143690 <getauxval@plt+0x9530>
   8b228:	089ffd1f 	stlrb	wzr, [x8]
   8b22c:	d10063a8 	sub	x8, x29, #0x18
   8b230:	f8500129 	ldur	x9, [x9, #-256]
   8b234:	f8500108 	ldur	x8, [x8, #-256]
   8b238:	f9002509 	str	x9, [x8, #72]
   8b23c:	d10023a8 	sub	x8, x29, #0x8
   8b240:	f8500101 	ldur	x1, [x8, #-256]
   8b244:	9401250d 	bl	d4678 <Java_com_adjust_sdk_sig_NativeLibHelper_nSign@@Base+0x8074>
   8b248:	d10023a8 	sub	x8, x29, #0x8
   8b24c:	d28bb4c6 	mov	x6, #0x5da6                	// #23974
   8b250:	a97827aa 	ldp	x10, x9, [x29, #-128]
   8b254:	f2a995e6 	movk	x6, #0x4caf, lsl #16
   8b258:	a93a4fb8 	stp	x24, x19, [x29, #-96]
   8b25c:	f85903a2 	ldur	x2, [x29, #-112]
   8b260:	f2d46186 	movk	x6, #0xa30c, lsl #32
   8b264:	f8500104 	ldur	x4, [x8, #-256]
   8b268:	f81983b7 	stur	x23, [x29, #-104]
   8b26c:	f85703a5 	ldur	x5, [x29, #-144]
   8b270:	2a1b03eb 	mov	w11, w27
   8b274:	2a1403ec 	mov	w12, w20
   8b278:	aa1a03ed 	mov	x13, x26
   8b27c:	aa1c03ee 	mov	x14, x28
   8b280:	aa1503ef 	mov	x15, x21
   8b284:	aa1603f0 	mov	x16, x22
   8b288:	aa1903f1 	mov	x17, x25
   8b28c:	f2e6d506 	movk	x6, #0x36a8, lsl #48
   8b290:	17fff0a0 	b	87510 <Java_com_adjust_sdk_sig_NativeLibHelper_nOnResume@@Base-0x4457c>
   8b294:	d10063a8 	sub	x8, x29, #0x18
   8b298:	d28d9326 	mov	x6, #0x6c99                	// #27801
   8b29c:	aa0203ea 	mov	x10, x2
   8b2a0:	f85903a2 	ldur	x2, [x29, #-112]
   8b2a4:	f85783a4 	ldur	x4, [x29, #-136]
   8b2a8:	f2a21506 	movk	x6, #0x10a8, lsl #16
   8b2ac:	f8500100 	ldur	x0, [x8, #-256]
   8b2b0:	f2cc6d06 	movk	x6, #0x6368, lsl #32
   8b2b4:	a93a4fb8 	stp	x24, x19, [x29, #-96]
   8b2b8:	2a1b03eb 	mov	w11, w27
   8b2bc:	f81983b7 	stur	x23, [x29, #-104]
   8b2c0:	5280004c 	mov	w12, #0x2                   	// #2
   8b2c4:	aa1a03ed 	mov	x13, x26
   8b2c8:	aa1c03ee 	mov	x14, x28
   8b2cc:	aa1503ef 	mov	x15, x21
   8b2d0:	aa1603f0 	mov	x16, x22
   8b2d4:	aa1903f1 	mov	x17, x25
   8b2d8:	aa0303e9 	mov	x9, x3
   8b2dc:	aa1e03e5 	mov	x5, x30
   8b2e0:	f2e74366 	movk	x6, #0x3a1b, lsl #48
   8b2e4:	f900041f 	str	xzr, [x0, #8]
   8b2e8:	17fff08a 	b	87510 <Java_com_adjust_sdk_sig_NativeLibHelper_nOnResume@@Base-0x4457c>
   8b2ec:	f00005c8 	adrp	x8, 146000 <getauxval@plt+0xbea0>
   8b2f0:	d29cf86f 	mov	x15, #0xe7c3                	// #59331
   8b2f4:	d2820e90 	mov	x16, #0x1074                	// #4212
   8b2f8:	f2b3442f 	movk	x15, #0x9a21, lsl #16
   8b2fc:	f2b8bcd0 	movk	x16, #0xc5e6, lsl #16
   8b300:	f2c41bef 	movk	x15, #0x20df, lsl #32
   8b304:	395c450e 	ldrb	w14, [x8, #1809]
   8b308:	f2cd3690 	movk	x16, #0x69b4, lsl #32
   8b30c:	a93a4fb8 	stp	x24, x19, [x29, #-96]
   8b310:	2a1b03eb 	mov	w11, w27
   8b314:	f81983b7 	stur	x23, [x29, #-104]
   8b318:	2a1403ec 	mov	w12, w20
   8b31c:	aa1a03ed 	mov	x13, x26
   8b320:	710001df 	cmp	w14, #0x0
   8b324:	aa1c03ee 	mov	x14, x28
   8b328:	f2fd132f 	movk	x15, #0xe899, lsl #48
   8b32c:	f2e0e2b0 	movk	x16, #0x715, lsl #48
   8b330:	1400054c 	b	8c860 <Java_com_adjust_sdk_sig_NativeLibHelper_nOnResume@@Base-0x3f22c>
   8b334:	d503201f 	nop
   8b338:	105d77e8 	adr	x8, 146234 <getauxval@plt+0xc0d4>
   8b33c:	d10523a9 	sub	x9, x29, #0x148
   8b340:	d503201f 	nop
   8b344:	105ca660 	adr	x0, 144810 <getauxval@plt+0xa6b0>
   8b348:	089ffd1f 	stlrb	wzr, [x8]
   8b34c:	d10063a8 	sub	x8, x29, #0x18
   8b350:	f8500129 	ldur	x9, [x9, #-256]
   8b354:	f8500108 	ldur	x8, [x8, #-256]
   8b358:	f9000909 	str	x9, [x8, #16]
   8b35c:	d10023a8 	sub	x8, x29, #0x8
   8b360:	f8500113 	ldur	x19, [x8, #-256]
   8b364:	aa1303e1 	mov	x1, x19
   8b368:	940124c4 	bl	d4678 <Java_com_adjust_sdk_sig_NativeLibHelper_nSign@@Base+0x8074>
   8b36c:	a97827aa 	ldp	x10, x9, [x29, #-128]
   8b370:	d2886866 	mov	x6, #0x4343                	// #17219
   8b374:	a93a4fb8 	stp	x24, x19, [x29, #-96]
   8b378:	a97713a5 	ldp	x5, x4, [x29, #-144]
   8b37c:	f2b36046 	movk	x6, #0x9b02, lsl #16
   8b380:	f81983b7 	stur	x23, [x29, #-104]
   8b384:	f85903a2 	ldur	x2, [x29, #-112]
   8b388:	f2c2ff46 	movk	x6, #0x17fa, lsl #32
   8b38c:	2a1b03eb 	mov	w11, w27
   8b390:	2a1403ec 	mov	w12, w20
   8b394:	aa1a03ed 	mov	x13, x26
   8b398:	aa1c03ee 	mov	x14, x28
   8b39c:	aa1503ef 	mov	x15, x21
   8b3a0:	aa1603f0 	mov	x16, x22
   8b3a4:	aa1903f1 	mov	x17, x25
   8b3a8:	f2e78206 	movk	x6, #0x3c10, lsl #48
   8b3ac:	17fff059 	b	87510 <Java_com_adjust_sdk_sig_NativeLibHelper_nOnResume@@Base-0x4457c>
   8b3b0:	f00005c8 	adrp	x8, 146000 <getauxval@plt+0xbea0>
   8b3b4:	d28f63ef 	mov	x15, #0x7b1f                	// #31519
   8b3b8:	d2801dd0 	mov	x16, #0xee                  	// #238
   8b3bc:	f2a42bef 	movk	x15, #0x215f, lsl #16
   8b3c0:	f2b3a7b0 	movk	x16, #0x9d3d, lsl #16
   8b3c4:	f2dc010f 	movk	x15, #0xe008, lsl #32
   8b3c8:	39591d0e 	ldrb	w14, [x8, #1607]
   8b3cc:	f2d3fdd0 	movk	x16, #0x9fee, lsl #32
   8b3d0:	2a1b03eb 	mov	w11, w27
   8b3d4:	2a1403ec 	mov	w12, w20
   8b3d8:	aa1a03ed 	mov	x13, x26
   8b3dc:	f2f2cd4f 	movk	x15, #0x966a, lsl #48
   8b3e0:	710001df 	cmp	w14, #0x0
   8b3e4:	aa1c03ee 	mov	x14, x28
   8b3e8:	f2e08690 	movk	x16, #0x434, lsl #48
   8b3ec:	a93a4fb8 	stp	x24, x19, [x29, #-96]
   8b3f0:	f81983b7 	stur	x23, [x29, #-104]
   8b3f4:	14000283 	b	8be00 <Java_com_adjust_sdk_sig_NativeLibHelper_nOnResume@@Base-0x3fc8c>
   8b3f8:	d503201f 	nop
   8b3fc:	105ca220 	adr	x0, 144840 <getauxval@plt+0xa6e0>
   8b400:	52800b6d 	mov	w13, #0x5b                  	// #91
   8b404:	0f02e761 	movi	v1.8b, #0x5b
   8b408:	aa0703e4 	mov	x4, x7
   8b40c:	d28754c6 	mov	x6, #0x3aa6                	// #15014
   8b410:	39402008 	ldrb	w8, [x0, #8]
   8b414:	f00005c7 	adrp	x7, 146000 <getauxval@plt+0xbea0>
   8b418:	39402409 	ldrb	w9, [x0, #9]
   8b41c:	f2af4886 	movk	x6, #0x7a44, lsl #16
   8b420:	3940280a 	ldrb	w10, [x0, #10]
   8b424:	f2dd4366 	movk	x6, #0xea1b, lsl #32
   8b428:	4a0d0108 	eor	w8, w8, w13
   8b42c:	39402c0b 	ldrb	w11, [x0, #11]
   8b430:	4a0d0129 	eor	w9, w9, w13
   8b434:	3940300c 	ldrb	w12, [x0, #12]
   8b438:	4a0d014a 	eor	w10, w10, w13
   8b43c:	fd400000 	ldr	d0, [x0]
   8b440:	39002008 	strb	w8, [x0, #8]
   8b444:	39403408 	ldrb	w8, [x0, #13]
   8b448:	39002409 	strb	w9, [x0, #9]
   8b44c:	39403809 	ldrb	w9, [x0, #14]
   8b450:	4a0d016b 	eor	w11, w11, w13
   8b454:	3900280a 	strb	w10, [x0, #10]
   8b458:	4a0d018a 	eor	w10, w12, w13
   8b45c:	4a0d0108 	eor	w8, w8, w13
   8b460:	4a0d0129 	eor	w9, w9, w13
   8b464:	2e211c00 	eor	v0.8b, v0.8b, v1.8b
   8b468:	39002c0b 	strb	w11, [x0, #11]
   8b46c:	f85903a2 	ldur	x2, [x29, #-112]
   8b470:	3900300a 	strb	w10, [x0, #12]
   8b474:	2a1b03eb 	mov	w11, w27
   8b478:	39003408 	strb	w8, [x0, #13]
   8b47c:	2a1403ec 	mov	w12, w20
   8b480:	39003809 	strb	w9, [x0, #14]
   8b484:	aa1a03ed 	mov	x13, x26
   8b488:	fd000000 	str	d0, [x0]
   8b48c:	52800020 	mov	w0, #0x1                   	// #1
   8b490:	a93a4fb8 	stp	x24, x19, [x29, #-96]
   8b494:	aa1c03ee 	mov	x14, x28
   8b498:	f81983b7 	stur	x23, [x29, #-104]
   8b49c:	aa1503ef 	mov	x15, x21
   8b4a0:	aa1603f0 	mov	x16, x22
   8b4a4:	aa1903f1 	mov	x17, x25
   8b4a8:	aa0103ea 	mov	x10, x1
   8b4ac:	aa0303e9 	mov	x9, x3
   8b4b0:	aa1e03e5 	mov	x5, x30
   8b4b4:	f2e15a06 	movk	x6, #0xad0, lsl #48
   8b4b8:	391914e0 	strb	w0, [x7, #1605]
   8b4bc:	17fff015 	b	87510 <Java_com_adjust_sdk_sig_NativeLibHelper_nOnResume@@Base-0x4457c>
   8b4c0:	aa0a03eb 	mov	x11, x10
   8b4c4:	d28c3291 	mov	x17, #0x6194                	// #24980
   8b4c8:	d10d63a8 	sub	x8, x29, #0x358
   8b4cc:	f2a4d131 	movk	x17, #0x2689, lsl #16
   8b4d0:	f2d62671 	movk	x17, #0xb133, lsl #32
   8b4d4:	a93a4fb8 	stp	x24, x19, [x29, #-96]
   8b4d8:	38401570 	ldrb	w16, [x11], #1
   8b4dc:	f2f53071 	movk	x17, #0xa983, lsl #48
   8b4e0:	f81983b7 	stur	x23, [x29, #-104]
   8b4e4:	f81203ab 	stur	x11, [x29, #-224]
   8b4e8:	2a1b03eb 	mov	w11, w27
   8b4ec:	7100021f 	cmp	w16, #0x0
   8b4f0:	d287b730 	mov	x16, #0x3db9                	// #15801
   8b4f4:	f2a81d30 	movk	x16, #0x40e9, lsl #16
   8b4f8:	2a1403ec 	mov	w12, w20
   8b4fc:	f2c53930 	movk	x16, #0x29c9, lsl #32
   8b500:	aa1a03ed 	mov	x13, x26
   8b504:	f2fe1910 	movk	x16, #0xf0c8, lsl #48
   8b508:	aa1c03ee 	mov	x14, x28
   8b50c:	aa1503ef 	mov	x15, x21
   8b510:	f810010a 	stur	x10, [x8, #-256]
   8b514:	9a900226 	csel	x6, x17, x16, eq	// eq = none
   8b518:	aa1603f0 	mov	x16, x22
   8b51c:	aa1903f1 	mov	x17, x25
   8b520:	14000a26 	b	8ddb8 <Java_com_adjust_sdk_sig_NativeLibHelper_nOnResume@@Base-0x3dcd4>
   8b524:	d10043a8 	sub	x8, x29, #0x10
   8b528:	d10d03a9 	sub	x9, x29, #0x340
   8b52c:	f8500100 	ldur	x0, [x8, #-256]
   8b530:	f8500121 	ldur	x1, [x9, #-256]
   8b534:	f9400008 	ldr	x8, [x0]
   8b538:	f9405d08 	ldr	x8, [x8, #184]
   8b53c:	d63f0100 	blr	x8
   8b540:	a97827aa 	ldp	x10, x9, [x29, #-128]
   8b544:	d2954b66 	mov	x6, #0xaa5b                	// #43611
   8b548:	a93a4fb8 	stp	x24, x19, [x29, #-96]
   8b54c:	a97713a5 	ldp	x5, x4, [x29, #-144]
   8b550:	f2a63826 	movk	x6, #0x31c1, lsl #16
   8b554:	f81983b7 	stur	x23, [x29, #-104]
   8b558:	f85903a2 	ldur	x2, [x29, #-112]
   8b55c:	f2c69726 	movk	x6, #0x34b9, lsl #32
   8b560:	2a1b03eb 	mov	w11, w27
   8b564:	2a1403ec 	mov	w12, w20
   8b568:	aa1a03ed 	mov	x13, x26
   8b56c:	aa1c03ee 	mov	x14, x28
   8b570:	aa1503ef 	mov	x15, x21
   8b574:	aa1603f0 	mov	x16, x22
   8b578:	aa1903f1 	mov	x17, x25
   8b57c:	f2f37706 	movk	x6, #0x9bb8, lsl #48
   8b580:	17ffefe4 	b	87510 <Java_com_adjust_sdk_sig_NativeLibHelper_nOnResume@@Base-0x4457c>
   8b584:	d503201f 	nop
   8b588:	105d7fe8 	adr	x8, 146584 <getauxval@plt+0xc424>
   8b58c:	d10423a9 	sub	x9, x29, #0x108
   8b590:	d503201f 	nop
   8b594:	105c0fe0 	adr	x0, 143790 <getauxval@plt+0x9630>
   8b598:	089ffd1f 	stlrb	wzr, [x8]
   8b59c:	d10063a8 	sub	x8, x29, #0x18
   8b5a0:	f8500129 	ldur	x9, [x9, #-256]
   8b5a4:	f8500108 	ldur	x8, [x8, #-256]
   8b5a8:	f9001509 	str	x9, [x8, #40]
   8b5ac:	d10023a8 	sub	x8, x29, #0x8
   8b5b0:	f8500119 	ldur	x25, [x8, #-256]
   8b5b4:	aa1903e1 	mov	x1, x25
   8b5b8:	94012430 	bl	d4678 <Java_com_adjust_sdk_sig_NativeLibHelper_nSign@@Base+0x8074>
   8b5bc:	a97827aa 	ldp	x10, x9, [x29, #-128]
   8b5c0:	d29c60a6 	mov	x6, #0xe305                	// #58117
   8b5c4:	a93a4fb8 	stp	x24, x19, [x29, #-96]
   8b5c8:	a97713a5 	ldp	x5, x4, [x29, #-144]
   8b5cc:	f2b434c6 	movk	x6, #0xa1a6, lsl #16
   8b5d0:	f81983b7 	stur	x23, [x29, #-104]
   8b5d4:	f85903a2 	ldur	x2, [x29, #-112]
   8b5d8:	f2ccd6a6 	movk	x6, #0x66b5, lsl #32
   8b5dc:	2a1b03eb 	mov	w11, w27
   8b5e0:	2a1403ec 	mov	w12, w20
   8b5e4:	aa1a03ed 	mov	x13, x26
   8b5e8:	aa1c03ee 	mov	x14, x28
   8b5ec:	aa1503ef 	mov	x15, x21
   8b5f0:	aa1603f0 	mov	x16, x22
   8b5f4:	aa1903f1 	mov	x17, x25
   8b5f8:	f2fab5c6 	movk	x6, #0xd5ae, lsl #48
   8b5fc:	17ffefc5 	b	87510 <Java_com_adjust_sdk_sig_NativeLibHelper_nOnResume@@Base-0x4457c>
   8b600:	d10203a8 	sub	x8, x29, #0x80
   8b604:	d29966d0 	mov	x16, #0xcb36                	// #52022
   8b608:	d2930891 	mov	x17, #0x9844                	// #38980
   8b60c:	f2a51eb0 	movk	x16, #0x28f5, lsl #16
   8b610:	f2a26ad1 	movk	x17, #0x1356, lsl #16
   8b614:	f2d21df0 	movk	x16, #0x90ef, lsl #32
   8b618:	f8500108 	ldur	x8, [x8, #-256]
   8b61c:	f2d13b91 	movk	x17, #0x89dc, lsl #32
   8b620:	f85903a2 	ldur	x2, [x29, #-112]
   8b624:	f2fbc950 	movk	x16, #0xde4a, lsl #48
   8b628:	f85783a4 	ldur	x4, [x29, #-136]
   8b62c:	f2fc0cb1 	movk	x17, #0xe065, lsl #48
   8b630:	f940010a 	ldr	x10, [x8]
   8b634:	d10d03a8 	sub	x8, x29, #0x340
   8b638:	a93a4fb8 	stp	x24, x19, [x29, #-96]
   8b63c:	2a1403ec 	mov	w12, w20
   8b640:	f81983b7 	stur	x23, [x29, #-104]
   8b644:	aa1a03ed 	mov	x13, x26
   8b648:	f810010a 	stur	x10, [x8, #-256]
   8b64c:	d10043a8 	sub	x8, x29, #0x10
   8b650:	f100015f 	cmp	x10, #0x0
   8b654:	aa1c03ee 	mov	x14, x28
   8b658:	a97827aa 	ldp	x10, x9, [x29, #-128]
   8b65c:	aa1503ef 	mov	x15, x21
   8b660:	aa1e03e5 	mov	x5, x30
   8b664:	f850010b 	ldur	x11, [x8, #-256]
   8b668:	d100e3a8 	sub	x8, x29, #0x38
   8b66c:	1400089e 	b	8d8e4 <Java_com_adjust_sdk_sig_NativeLibHelper_nOnResume@@Base-0x3e1a8>
   8b670:	2a1f03e0 	mov	w0, wzr
   8b674:	52800021 	mov	w1, #0x1                   	// #1
   8b678:	d503201f 	nop
   8b67c:	105d7522 	adr	x2, 146520 <getauxval@plt+0xc3c0>
   8b680:	9402b860 	bl	139800 <Java_com_adjust_sdk_sig_NativeLibHelper_nSign@@Base+0x6d1fc>
   8b684:	d284450b 	mov	x11, #0x2228                	// #8744
   8b688:	d29bf94c 	mov	x12, #0xdfca                	// #57290
   8b68c:	f2b1c00b 	movk	x11, #0x8e00, lsl #16
   8b690:	f2abc98c 	movk	x12, #0x5e4c, lsl #16
   8b694:	f2d471cb 	movk	x11, #0xa38e, lsl #32
   8b698:	f2c8734c 	movk	x12, #0x439a, lsl #32
   8b69c:	a93a4fb8 	stp	x24, x19, [x29, #-96]
   8b6a0:	7100001f 	cmp	w0, #0x0
   8b6a4:	f81983b7 	stur	x23, [x29, #-104]
   8b6a8:	f2e40beb 	movk	x11, #0x205f, lsl #48
   8b6ac:	f2e4480c 	movk	x12, #0x2240, lsl #48
   8b6b0:	14000ef5 	b	8f284 <Java_com_adjust_sdk_sig_NativeLibHelper_nOnResume@@Base-0x3c808>
   8b6b4:	f85883a9 	ldur	x9, [x29, #-120]
   8b6b8:	d29189d0 	mov	x16, #0x8c4e                	// #35918
   8b6bc:	d2929471 	mov	x17, #0x94a3                	// #38051
   8b6c0:	d10ba3a8 	sub	x8, x29, #0x2e8
   8b6c4:	f2a5a130 	movk	x16, #0x2d09, lsl #16
   8b6c8:	f2b70a51 	movk	x17, #0xb852, lsl #16
   8b6cc:	aa0903eb 	mov	x11, x9
   8b6d0:	f2cabaf0 	movk	x16, #0x55d7, lsl #32
   8b6d4:	f2d10f71 	movk	x17, #0x887b, lsl #32
   8b6d8:	f85803aa 	ldur	x10, [x29, #-128]
   8b6dc:	f85903a2 	ldur	x2, [x29, #-112]
   8b6e0:	f2f141b0 	movk	x16, #0x8a0d, lsl #48
   8b6e4:	3840156f 	ldrb	w15, [x11], #1
   8b6e8:	f2ffa651 	movk	x17, #0xfd32, lsl #48
   8b6ec:	a93a4fb8 	stp	x24, x19, [x29, #-96]
   8b6f0:	f81983b7 	stur	x23, [x29, #-104]
   8b6f4:	2a1403ec 	mov	w12, w20
   8b6f8:	710001ff 	cmp	w15, #0x0
   8b6fc:	f81183ab 	stur	x11, [x29, #-232]
   8b700:	2a1b03eb 	mov	w11, w27
   8b704:	aa1a03ed 	mov	x13, x26
   8b708:	f8100109 	stur	x9, [x8, #-256]
   8b70c:	aa1c03ee 	mov	x14, x28
   8b710:	aa1503ef 	mov	x15, x21
   8b714:	9a910206 	csel	x6, x16, x17, eq	// eq = none
   8b718:	aa1603f0 	mov	x16, x22
   8b71c:	aa1903f1 	mov	x17, x25
   8b720:	14000e7d 	b	8f114 <Java_com_adjust_sdk_sig_NativeLibHelper_nOnResume@@Base-0x3c978>
   8b724:	d10063a8 	sub	x8, x29, #0x18
   8b728:	d28d9326 	mov	x6, #0x6c99                	// #27801
   8b72c:	a97827aa 	ldp	x10, x9, [x29, #-128]
   8b730:	f2a21506 	movk	x6, #0x10a8, lsl #16
   8b734:	a93a4fb8 	stp	x24, x19, [x29, #-96]
   8b738:	f8500100 	ldur	x0, [x8, #-256]
   8b73c:	f2cc6d06 	movk	x6, #0x6368, lsl #32
   8b740:	f85903a2 	ldur	x2, [x29, #-112]
   8b744:	f81983b7 	stur	x23, [x29, #-104]
   8b748:	f85783a4 	ldur	x4, [x29, #-136]
   8b74c:	2a1b03eb 	mov	w11, w27
   8b750:	5280004c 	mov	w12, #0x2                   	// #2
   8b754:	aa1a03ed 	mov	x13, x26
   8b758:	aa1c03ee 	mov	x14, x28
   8b75c:	aa1503ef 	mov	x15, x21
   8b760:	aa1603f0 	mov	x16, x22
   8b764:	aa1903f1 	mov	x17, x25
   8b768:	aa1e03e5 	mov	x5, x30
   8b76c:	f2e74366 	movk	x6, #0x3a1b, lsl #48
   8b770:	f9000c1f 	str	xzr, [x0, #24]
   8b774:	17ffef67 	b	87510 <Java_com_adjust_sdk_sig_NativeLibHelper_nOnResume@@Base-0x4457c>
   8b778:	d503201f 	nop
   8b77c:	105d55a8 	adr	x8, 146230 <getauxval@plt+0xc0d0>
   8b780:	d10483a9 	sub	x9, x29, #0x120
   8b784:	d503201f 	nop
   8b788:	105c83c0 	adr	x0, 144800 <getauxval@plt+0xa6a0>
   8b78c:	089ffd1f 	stlrb	wzr, [x8]
   8b790:	d10063a8 	sub	x8, x29, #0x18
   8b794:	f8500129 	ldur	x9, [x9, #-256]
   8b798:	f8500108 	ldur	x8, [x8, #-256]
   8b79c:	f9001909 	str	x9, [x8, #48]
   8b7a0:	d10023a8 	sub	x8, x29, #0x8
   8b7a4:	f850011c 	ldur	x28, [x8, #-256]
   8b7a8:	aa1c03e1 	mov	x1, x28
   8b7ac:	940123b3 	bl	d4678 <Java_com_adjust_sdk_sig_NativeLibHelper_nSign@@Base+0x8074>
   8b7b0:	a97827aa 	ldp	x10, x9, [x29, #-128]
   8b7b4:	d29ef866 	mov	x6, #0xf7c3                	// #63427
   8b7b8:	a93a4fb8 	stp	x24, x19, [x29, #-96]
   8b7bc:	a97713a5 	ldp	x5, x4, [x29, #-144]
   8b7c0:	f2bd0e46 	movk	x6, #0xe872, lsl #16
   8b7c4:	f81983b7 	stur	x23, [x29, #-104]
   8b7c8:	f85903a2 	ldur	x2, [x29, #-112]
   8b7cc:	f2cbc466 	movk	x6, #0x5e23, lsl #32
   8b7d0:	2a1b03eb 	mov	w11, w27
   8b7d4:	2a1403ec 	mov	w12, w20
   8b7d8:	aa1a03ed 	mov	x13, x26
   8b7dc:	aa1c03ee 	mov	x14, x28
   8b7e0:	aa1503ef 	mov	x15, x21
   8b7e4:	aa1603f0 	mov	x16, x22
   8b7e8:	aa1903f1 	mov	x17, x25
   8b7ec:	f2fd3b86 	movk	x6, #0xe9dc, lsl #48
   8b7f0:	17ffef48 	b	87510 <Java_com_adjust_sdk_sig_NativeLibHelper_nOnResume@@Base-0x4457c>
   8b7f4:	aa1703eb 	mov	x11, x23
   8b7f8:	d28c6b71 	mov	x17, #0x635b                	// #25435
   8b7fc:	d2938200 	mov	x0, #0x9c10                	// #39952
   8b800:	f2a4e251 	movk	x17, #0x2712, lsl #16
   8b804:	f2b40cc0 	movk	x0, #0xa066, lsl #16
   8b808:	d11083a8 	sub	x8, x29, #0x420
   8b80c:	38401570 	ldrb	w16, [x11], #1
   8b810:	f2c7f291 	movk	x17, #0x3f94, lsl #32
   8b814:	f2c64420 	movk	x0, #0x3221, lsl #32
   8b818:	f85903a2 	ldur	x2, [x29, #-112]
   8b81c:	f2f9e6d1 	movk	x17, #0xcf36, lsl #48
   8b820:	7100021f 	cmp	w16, #0x0
   8b824:	f2e44280 	movk	x0, #0x2214, lsl #48
   8b828:	a93a4fb8 	stp	x24, x19, [x29, #-96]
   8b82c:	2a1403ec 	mov	w12, w20
   8b830:	f81983b7 	stur	x23, [x29, #-104]
   8b834:	aa1a03ed 	mov	x13, x26
   8b838:	f81403ab 	stur	x11, [x29, #-192]
   8b83c:	2a1b03eb 	mov	w11, w27
   8b840:	aa1c03ee 	mov	x14, x28
   8b844:	aa1503ef 	mov	x15, x21
   8b848:	aa1603f0 	mov	x16, x22
   8b84c:	9a910006 	csel	x6, x0, x17, eq	// eq = none
   8b850:	aa1903f1 	mov	x17, x25
   8b854:	aa0303e9 	mov	x9, x3
   8b858:	f8100117 	stur	x23, [x8, #-256]
   8b85c:	aa1e03e5 	mov	x5, x30
   8b860:	17ffef2c 	b	87510 <Java_com_adjust_sdk_sig_NativeLibHelper_nOnResume@@Base-0x4457c>
   8b864:	d100c3a8 	sub	x8, x29, #0x30
   8b868:	d10f03a9 	sub	x9, x29, #0x3c0
   8b86c:	f8500108 	ldur	x8, [x8, #-256]
   8b870:	f8500129 	ldur	x9, [x9, #-256]
   8b874:	cb080128 	sub	x8, x9, x8
   8b878:	d10a83a9 	sub	x9, x29, #0x2a0
   8b87c:	91000500 	add	x0, x8, #0x1
   8b880:	f8100128 	stur	x8, [x9, #-256]
   8b884:	9402b967 	bl	139e20 <malloc@plt>
   8b888:	d104e3a8 	sub	x8, x29, #0x138
   8b88c:	d292308b 	mov	x11, #0x9184                	// #37252
   8b890:	d2800e4c 	mov	x12, #0x72                  	// #114
   8b894:	f2aa948b 	movk	x11, #0x54a4, lsl #16
   8b898:	f2bc56ac 	movk	x12, #0xe2b5, lsl #16
   8b89c:	f2c1032b 	movk	x11, #0x819, lsl #32
   8b8a0:	f2d74a2c 	movk	x12, #0xba51, lsl #32
   8b8a4:	a93a4fb8 	stp	x24, x19, [x29, #-96]
   8b8a8:	f8100100 	stur	x0, [x8, #-256]
   8b8ac:	f100001f 	cmp	x0, #0x0
   8b8b0:	f81983b7 	stur	x23, [x29, #-104]
   8b8b4:	f2fa604b 	movk	x11, #0xd302, lsl #48
   8b8b8:	f2eb702c 	movk	x12, #0x5b81, lsl #48
   8b8bc:	14000e72 	b	8f284 <Java_com_adjust_sdk_sig_NativeLibHelper_nOnResume@@Base-0x3c808>
   8b8c0:	d100c3a8 	sub	x8, x29, #0x30
   8b8c4:	d10de3a9 	sub	x9, x29, #0x378
   8b8c8:	f8500108 	ldur	x8, [x8, #-256]
   8b8cc:	f8500129 	ldur	x9, [x9, #-256]
   8b8d0:	cb080128 	sub	x8, x9, x8
   8b8d4:	d109c3a9 	sub	x9, x29, #0x270
   8b8d8:	91000500 	add	x0, x8, #0x1
   8b8dc:	f8100128 	stur	x8, [x9, #-256]
   8b8e0:	9402b950 	bl	139e20 <malloc@plt>
   8b8e4:	d10443a8 	sub	x8, x29, #0x110
   8b8e8:	d283670b 	mov	x11, #0x1b38                	// #6968
   8b8ec:	d297496c 	mov	x12, #0xba4b                	// #47691
   8b8f0:	f2a613cb 	movk	x11, #0x309e, lsl #16
   8b8f4:	f2bf138c 	movk	x12, #0xf89c, lsl #16
   8b8f8:	f2dc784b 	movk	x11, #0xe3c2, lsl #32
   8b8fc:	f2d3362c 	movk	x12, #0x99b1, lsl #32
   8b900:	a93a4fb8 	stp	x24, x19, [x29, #-96]
   8b904:	f8100100 	stur	x0, [x8, #-256]
   8b908:	f100001f 	cmp	x0, #0x0
   8b90c:	f81983b7 	stur	x23, [x29, #-104]
   8b910:	f2f3804b 	movk	x11, #0x9c02, lsl #48
   8b914:	f2e2de8c 	movk	x12, #0x16f4, lsl #48
   8b918:	14000e5b 	b	8f284 <Java_com_adjust_sdk_sig_NativeLibHelper_nOnResume@@Base-0x3c808>
   8b91c:	d101c3a8 	sub	x8, x29, #0x70
   8b920:	d298be2f 	mov	x15, #0xc5f1                	// #50673
   8b924:	d290b030 	mov	x16, #0x8581                	// #34177
   8b928:	f2a4444f 	movk	x15, #0x2222, lsl #16
   8b92c:	f2ab1ab0 	movk	x16, #0x58d5, lsl #16
   8b930:	f2dedfef 	movk	x15, #0xf6ff, lsl #32
   8b934:	f8500108 	ldur	x8, [x8, #-256]
   8b938:	f2dc1710 	movk	x16, #0xe0b8, lsl #32
   8b93c:	f2ed7cef 	movk	x15, #0x6be7, lsl #48
   8b940:	f2fd7df0 	movk	x16, #0xebef, lsl #48
   8b944:	a93a4fb8 	stp	x24, x19, [x29, #-96]
   8b948:	2a1b03eb 	mov	w11, w27
   8b94c:	f940010e 	ldr	x14, [x8]
   8b950:	d10be3a8 	sub	x8, x29, #0x2f8
   8b954:	f81983b7 	stur	x23, [x29, #-104]
   8b958:	2a1403ec 	mov	w12, w20
   8b95c:	aa1a03ed 	mov	x13, x26
   8b960:	f10001df 	cmp	x14, #0x0
   8b964:	f810010e 	stur	x14, [x8, #-256]
   8b968:	aa1c03ee 	mov	x14, x28
   8b96c:	9a8f0206 	csel	x6, x16, x15, eq	// eq = none
   8b970:	1400097a 	b	8df58 <Java_com_adjust_sdk_sig_NativeLibHelper_nOnResume@@Base-0x3db34>
   8b974:	d503201f 	nop
   8b978:	105d5d48 	adr	x8, 146520 <getauxval@plt+0xc3c0>
   8b97c:	d10543a9 	sub	x9, x29, #0x150
   8b980:	d503201f 	nop
   8b984:	105be520 	adr	x0, 143628 <getauxval@plt+0x94c8>
   8b988:	089ffd1f 	stlrb	wzr, [x8]
   8b98c:	d10063a8 	sub	x8, x29, #0x18
   8b990:	f8500129 	ldur	x9, [x9, #-256]
   8b994:	f8500108 	ldur	x8, [x8, #-256]
   8b998:	f9002909 	str	x9, [x8, #80]
   8b99c:	d10023a8 	sub	x8, x29, #0x8
   8b9a0:	f8500118 	ldur	x24, [x8, #-256]
   8b9a4:	aa1803e1 	mov	x1, x24
   8b9a8:	94012334 	bl	d4678 <Java_com_adjust_sdk_sig_NativeLibHelper_nSign@@Base+0x8074>
   8b9ac:	a97827aa 	ldp	x10, x9, [x29, #-128]
   8b9b0:	d28eeb46 	mov	x6, #0x775a                	// #30554
   8b9b4:	a93a4fb8 	stp	x24, x19, [x29, #-96]
   8b9b8:	a97713a5 	ldp	x5, x4, [x29, #-144]
   8b9bc:	f2b09ae6 	movk	x6, #0x84d7, lsl #16
   8b9c0:	f81983b7 	stur	x23, [x29, #-104]
   8b9c4:	f85903a2 	ldur	x2, [x29, #-112]
   8b9c8:	f2d695e6 	movk	x6, #0xb4af, lsl #32
   8b9cc:	2a1b03eb 	mov	w11, w27
   8b9d0:	2a1403ec 	mov	w12, w20
   8b9d4:	aa1a03ed 	mov	x13, x26
   8b9d8:	aa1c03ee 	mov	x14, x28
   8b9dc:	aa1503ef 	mov	x15, x21
   8b9e0:	aa1603f0 	mov	x16, x22
   8b9e4:	aa1903f1 	mov	x17, x25
   8b9e8:	f2e303c6 	movk	x6, #0x181e, lsl #48
   8b9ec:	17ffeec9 	b	87510 <Java_com_adjust_sdk_sig_NativeLibHelper_nOnResume@@Base-0x4457c>
   8b9f0:	aa0803e9 	mov	x9, x8
   8b9f4:	d10063a8 	sub	x8, x29, #0x18
   8b9f8:	d28d9326 	mov	x6, #0x6c99                	// #27801
   8b9fc:	f85903a2 	ldur	x2, [x29, #-112]
   8ba00:	f2a21506 	movk	x6, #0x10a8, lsl #16
   8ba04:	a93a4fb8 	stp	x24, x19, [x29, #-96]
   8ba08:	f8500100 	ldur	x0, [x8, #-256]
   8ba0c:	f2cc6d06 	movk	x6, #0x6368, lsl #32
   8ba10:	f81983b7 	stur	x23, [x29, #-104]
   8ba14:	2a1b03eb 	mov	w11, w27
   8ba18:	5280004c 	mov	w12, #0x2                   	// #2
   8ba1c:	aa1a03ed 	mov	x13, x26
   8ba20:	aa1c03ee 	mov	x14, x28
   8ba24:	aa1503ef 	mov	x15, x21
   8ba28:	aa1603f0 	mov	x16, x22
   8ba2c:	aa1903f1 	mov	x17, x25
   8ba30:	aa1e03e5 	mov	x5, x30
   8ba34:	f2e74366 	movk	x6, #0x3a1b, lsl #48
   8ba38:	f900181f 	str	xzr, [x0, #48]
   8ba3c:	17ffeeb5 	b	87510 <Java_com_adjust_sdk_sig_NativeLibHelper_nOnResume@@Base-0x4457c>
   8ba40:	d503201f 	nop
   8ba44:	105be020 	adr	x0, 143648 <getauxval@plt+0x94e8>
   8ba48:	528002ad 	mov	w13, #0x15                  	// #21
   8ba4c:	d2859146 	mov	x6, #0x2c8a                	// #11402
   8ba50:	f00005c7 	adrp	x7, 146000 <getauxval@plt+0xbea0>
   8ba54:	f85903a2 	ldur	x2, [x29, #-112]
   8ba58:	39402008 	ldrb	w8, [x0, #8]
   8ba5c:	f2bdbae6 	movk	x6, #0xedd7, lsl #16
   8ba60:	39402409 	ldrb	w9, [x0, #9]
   8ba64:	f2d9aee6 	movk	x6, #0xcd77, lsl #32
   8ba68:	3940280a 	ldrb	w10, [x0, #10]
   8ba6c:	a93a4fb8 	stp	x24, x19, [x29, #-96]
   8ba70:	4a0d0108 	eor	w8, w8, w13
   8ba74:	39402c0b 	ldrb	w11, [x0, #11]
   8ba78:	4a0d0129 	eor	w9, w9, w13
   8ba7c:	3940300c 	ldrb	w12, [x0, #12]
   8ba80:	4a0d014a 	eor	w10, w10, w13
   8ba84:	fd400000 	ldr	d0, [x0]
   8ba88:	39002008 	strb	w8, [x0, #8]
   8ba8c:	39403408 	ldrb	w8, [x0, #13]
   8ba90:	39002409 	strb	w9, [x0, #9]
   8ba94:	4a0d0169 	eor	w9, w11, w13
   8ba98:	3900280a 	strb	w10, [x0, #10]
   8ba9c:	4a0d018a 	eor	w10, w12, w13
   8baa0:	4a0d0108 	eor	w8, w8, w13
   8baa4:	2e281c00 	eor	v0.8b, v0.8b, v8.8b
   8baa8:	39002c09 	strb	w9, [x0, #11]
   8baac:	2a1b03eb 	mov	w11, w27
   8bab0:	3900300a 	strb	w10, [x0, #12]
   8bab4:	2a1403ec 	mov	w12, w20
   8bab8:	39003408 	strb	w8, [x0, #13]
   8babc:	aa1a03ed 	mov	x13, x26
   8bac0:	fd000000 	str	d0, [x0]
   8bac4:	52800020 	mov	w0, #0x1                   	// #1
   8bac8:	f81983b7 	stur	x23, [x29, #-104]
   8bacc:	aa1c03ee 	mov	x14, x28
   8bad0:	aa1503ef 	mov	x15, x21
   8bad4:	aa1603f0 	mov	x16, x22
   8bad8:	aa1903f1 	mov	x17, x25
   8badc:	aa0503ea 	mov	x10, x5
   8bae0:	aa0303e9 	mov	x9, x3
   8bae4:	aa1e03e5 	mov	x5, x30
   8bae8:	f2fe2386 	movk	x6, #0xf11c, lsl #48
   8baec:	391bf0e0 	strb	w0, [x7, #1788]
   8baf0:	17ffee88 	b	87510 <Java_com_adjust_sdk_sig_NativeLibHelper_nOnResume@@Base-0x4457c>
   8baf4:	f00005c8 	adrp	x8, 146000 <getauxval@plt+0xbea0>
   8baf8:	d281612f 	mov	x15, #0xb09                 	// #2825
   8bafc:	d29b2130 	mov	x16, #0xd909                	// #55561
   8bb00:	f2b49e8f 	movk	x15, #0xa4f4, lsl #16
   8bb04:	f2b7b7b0 	movk	x16, #0xbdbd, lsl #16
   8bb08:	f2cdf52f 	movk	x15, #0x6fa9, lsl #32
   8bb0c:	395c950e 	ldrb	w14, [x8, #1829]
   8bb10:	f2c732f0 	movk	x16, #0x3997, lsl #32
   8bb14:	a93a4fb8 	stp	x24, x19, [x29, #-96]
   8bb18:	2a1b03eb 	mov	w11, w27
   8bb1c:	f81983b7 	stur	x23, [x29, #-104]
   8bb20:	2a1403ec 	mov	w12, w20
   8bb24:	aa1a03ed 	mov	x13, x26
   8bb28:	710001df 	cmp	w14, #0x0
   8bb2c:	aa1c03ee 	mov	x14, x28
   8bb30:	f2f9518f 	movk	x15, #0xca8c, lsl #48
   8bb34:	f2e578f0 	movk	x16, #0x2bc7, lsl #48
   8bb38:	14000a2b 	b	8e3e4 <Java_com_adjust_sdk_sig_NativeLibHelper_nOnResume@@Base-0x3d6a8>
   8bb3c:	d10603a8 	sub	x8, x29, #0x180
   8bb40:	d290aeaa 	mov	x10, #0x8575                	// #34165
   8bb44:	d29fae2b 	mov	x11, #0xfd71                	// #64881
   8bb48:	f2ab5dca 	movk	x10, #0x5aee, lsl #16
   8bb4c:	f2b0b04b 	movk	x11, #0x8582, lsl #16
   8bb50:	f2c09cea 	movk	x10, #0x4e7, lsl #32
   8bb54:	f8500100 	ldur	x0, [x8, #-256]
   8bb58:	d10f23a8 	sub	x8, x29, #0x3c8
   8bb5c:	f2cba6ab 	movk	x11, #0x5d35, lsl #32
   8bb60:	f2f3472a 	movk	x10, #0x9a39, lsl #48
   8bb64:	f2f470ab 	movk	x11, #0xa385, lsl #48
   8bb68:	a93a4fb8 	stp	x24, x19, [x29, #-96]
   8bb6c:	f8100100 	stur	x0, [x8, #-256]
   8bb70:	d105a3a8 	sub	x8, x29, #0x168
   8bb74:	f100001f 	cmp	x0, #0x0
   8bb78:	f81983b7 	stur	x23, [x29, #-104]
   8bb7c:	9a8b0146 	csel	x6, x10, x11, eq	// eq = none
   8bb80:	f85803aa 	ldur	x10, [x29, #-128]
   8bb84:	f8500100 	ldur	x0, [x8, #-256]
   8bb88:	d10f43a8 	sub	x8, x29, #0x3d0
   8bb8c:	2a1b03eb 	mov	w11, w27
   8bb90:	2a1403ec 	mov	w12, w20
   8bb94:	aa1a03ed 	mov	x13, x26
   8bb98:	aa1c03ee 	mov	x14, x28
   8bb9c:	f8100100 	stur	x0, [x8, #-256]
   8bba0:	d10563a8 	sub	x8, x29, #0x158
   8bba4:	aa1503ef 	mov	x15, x21
   8bba8:	aa1603f0 	mov	x16, x22
   8bbac:	aa1903f1 	mov	x17, x25
   8bbb0:	f8500100 	ldur	x0, [x8, #-256]
   8bbb4:	d10f63a8 	sub	x8, x29, #0x3d8
   8bbb8:	f8100100 	stur	x0, [x8, #-256]
   8bbbc:	14000d54 	b	8f10c <Java_com_adjust_sdk_sig_NativeLibHelper_nOnResume@@Base-0x3c980>
   8bbc0:	aa1903eb 	mov	x11, x25
   8bbc4:	d287afb1 	mov	x17, #0x3d7d                	// #15741
   8bbc8:	d10de3a8 	sub	x8, x29, #0x378
   8bbcc:	f2bd22b1 	movk	x17, #0xe915, lsl #16
   8bbd0:	f2c02d71 	movk	x17, #0x16b, lsl #32
   8bbd4:	a93a4fb8 	stp	x24, x19, [x29, #-96]
   8bbd8:	38401570 	ldrb	w16, [x11], #1
   8bbdc:	f2fcc511 	movk	x17, #0xe628, lsl #48
   8bbe0:	f81983b7 	stur	x23, [x29, #-104]
   8bbe4:	f81283ab 	stur	x11, [x29, #-216]
   8bbe8:	2a1b03eb 	mov	w11, w27
   8bbec:	7100021f 	cmp	w16, #0x0
   8bbf0:	d2889290 	mov	x16, #0x4494                	// #17556
   8bbf4:	f2ab6b10 	movk	x16, #0x5b58, lsl #16
   8bbf8:	2a1403ec 	mov	w12, w20
   8bbfc:	f2db2c90 	movk	x16, #0xd964, lsl #32
   8bc00:	aa1a03ed 	mov	x13, x26
   8bc04:	f2fdd5f0 	movk	x16, #0xeeaf, lsl #48
   8bc08:	aa1c03ee 	mov	x14, x28
   8bc0c:	aa1503ef 	mov	x15, x21
   8bc10:	f8100119 	stur	x25, [x8, #-256]
   8bc14:	9a900226 	csel	x6, x17, x16, eq	// eq = none
   8bc18:	14000d3a 	b	8f100 <Java_com_adjust_sdk_sig_NativeLibHelper_nOnResume@@Base-0x3c98c>
   8bc1c:	d10a03a8 	sub	x8, x29, #0x280
   8bc20:	d10023a9 	sub	x9, x29, #0x8
   8bc24:	f8500108 	ldur	x8, [x8, #-256]
   8bc28:	f8500129 	ldur	x9, [x9, #-256]
   8bc2c:	cb090108 	sub	x8, x8, x9
   8bc30:	d10923a9 	sub	x9, x29, #0x248
   8bc34:	91000500 	add	x0, x8, #0x1
   8bc38:	f8100128 	stur	x8, [x9, #-256]
   8bc3c:	9402b879 	bl	139e20 <malloc@plt>
   8bc40:	d103a3a8 	sub	x8, x29, #0xe8
   8bc44:	d2822d2b 	mov	x11, #0x1169                	// #4457
   8bc48:	d29f4a0c 	mov	x12, #0xfa50                	// #64080
   8bc4c:	f2bf102b 	movk	x11, #0xf881, lsl #16
   8bc50:	f2b3cf2c 	movk	x12, #0x9e79, lsl #16
   8bc54:	d100c3a9 	sub	x9, x29, #0x30
   8bc58:	f8100100 	stur	x0, [x8, #-256]
   8bc5c:	d10023a8 	sub	x8, x29, #0x8
   8bc60:	f2d8ee4b 	movk	x11, #0xc772, lsl #32
   8bc64:	f2d0eacc 	movk	x12, #0x8756, lsl #32
   8bc68:	f100001f 	cmp	x0, #0x0
   8bc6c:	f2f5e20b 	movk	x11, #0xaf10, lsl #48
   8bc70:	f8500108 	ldur	x8, [x8, #-256]
   8bc74:	f2f74ecc 	movk	x12, #0xba76, lsl #48
   8bc78:	a93a4fb8 	stp	x24, x19, [x29, #-96]
   8bc7c:	9a8c0166 	csel	x6, x11, x12, eq	// eq = none
   8bc80:	f81983b7 	stur	x23, [x29, #-104]
   8bc84:	2a1b03eb 	mov	w11, w27
   8bc88:	2a1403ec 	mov	w12, w20
   8bc8c:	f8100128 	stur	x8, [x9, #-256]
   8bc90:	14000da9 	b	8f334 <Java_com_adjust_sdk_sig_NativeLibHelper_nOnResume@@Base-0x3c758>
   8bc94:	d101a3a8 	sub	x8, x29, #0x68
   8bc98:	f8500108 	ldur	x8, [x8, #-256]
   8bc9c:	f9400101 	ldr	x1, [x8]
   8bca0:	d10223a8 	sub	x8, x29, #0x88
   8bca4:	f8500108 	ldur	x8, [x8, #-256]
   8bca8:	f9400102 	ldr	x2, [x8]
   8bcac:	d101c3a8 	sub	x8, x29, #0x70
   8bcb0:	f8500108 	ldur	x8, [x8, #-256]
   8bcb4:	f9400103 	ldr	x3, [x8]
   8bcb8:	d10243a8 	sub	x8, x29, #0x90
   8bcbc:	f8500108 	ldur	x8, [x8, #-256]
   8bcc0:	f9400104 	ldr	x4, [x8]
   8bcc4:	d10063a8 	sub	x8, x29, #0x18
   8bcc8:	f8500100 	ldur	x0, [x8, #-256]
   8bccc:	94000e28 	bl	8f56c <Java_com_adjust_sdk_sig_NativeLibHelper_nOnResume@@Base-0x3c520>
   8bcd0:	d108d3a8 	sub	x8, x29, #0x234
   8bcd4:	d28051ca 	mov	x10, #0x28e                 	// #654
   8bcd8:	d2885feb 	mov	x11, #0x42ff                	// #17151
   8bcdc:	f2a8a74a 	movk	x10, #0x453a, lsl #16
   8bce0:	f2b2202b 	movk	x11, #0x9101, lsl #16
   8bce4:	f2c0e94a 	movk	x10, #0x74a, lsl #32
   8bce8:	b8500108 	ldur	w8, [x8, #-256]
   8bcec:	f2c4020b 	movk	x11, #0x2010, lsl #32
   8bcf0:	7100001f 	cmp	w0, #0x0
   8bcf4:	f2f157aa 	movk	x10, #0x8abd, lsl #48
   8bcf8:	f2e20dab 	movk	x11, #0x106d, lsl #48
   8bcfc:	f85903a2 	ldur	x2, [x29, #-112]
   8bd00:	9a8b0146 	csel	x6, x10, x11, eq	// eq = none
   8bd04:	11000508 	add	w8, w8, #0x1
   8bd08:	a97827aa 	ldp	x10, x9, [x29, #-128]
   8bd0c:	a93a4fb8 	stp	x24, x19, [x29, #-96]
   8bd10:	2a1b03eb 	mov	w11, w27
   8bd14:	a97713a5 	ldp	x5, x4, [x29, #-144]
   8bd18:	b816c3a8 	stur	w8, [x29, #-148]
   8bd1c:	2a1403ec 	mov	w12, w20
   8bd20:	f81983b7 	stur	x23, [x29, #-104]
   8bd24:	aa1a03ed 	mov	x13, x26
   8bd28:	aa1c03ee 	mov	x14, x28
   8bd2c:	aa1503ef 	mov	x15, x21
   8bd30:	aa1603f0 	mov	x16, x22
   8bd34:	aa1903f1 	mov	x17, x25
   8bd38:	d10083a8 	sub	x8, x29, #0x20
   8bd3c:	140007a7 	b	8dbd8 <Java_com_adjust_sdk_sig_NativeLibHelper_nOnResume@@Base-0x3deb4>
   8bd40:	d503201f 	nop
   8bd44:	105d27a8 	adr	x8, 146238 <getauxval@plt+0xc0d8>
   8bd48:	d10583a9 	sub	x9, x29, #0x160
   8bd4c:	d503201f 	nop
   8bd50:	105c5680 	adr	x0, 144820 <getauxval@plt+0xa6c0>
   8bd54:	089ffd1f 	stlrb	wzr, [x8]
   8bd58:	d10063a8 	sub	x8, x29, #0x18
   8bd5c:	f8500129 	ldur	x9, [x9, #-256]
   8bd60:	f8500108 	ldur	x8, [x8, #-256]
   8bd64:	f9002109 	str	x9, [x8, #64]
   8bd68:	d10023a8 	sub	x8, x29, #0x8
   8bd6c:	f8500117 	ldur	x23, [x8, #-256]
   8bd70:	aa1703e1 	mov	x1, x23
   8bd74:	94012241 	bl	d4678 <Java_com_adjust_sdk_sig_NativeLibHelper_nSign@@Base+0x8074>
   8bd78:	a97827aa 	ldp	x10, x9, [x29, #-128]
   8bd7c:	d28f4fa6 	mov	x6, #0x7a7d                	// #31357
   8bd80:	a93a4fb8 	stp	x24, x19, [x29, #-96]
   8bd84:	a97713a5 	ldp	x5, x4, [x29, #-144]
   8bd88:	f2a6f646 	movk	x6, #0x37b2, lsl #16
   8bd8c:	f81983b7 	stur	x23, [x29, #-104]
   8bd90:	f85903a2 	ldur	x2, [x29, #-112]
   8bd94:	f2c0fa06 	movk	x6, #0x7d0, lsl #32
   8bd98:	2a1b03eb 	mov	w11, w27
   8bd9c:	2a1403ec 	mov	w12, w20
   8bda0:	aa1a03ed 	mov	x13, x26
   8bda4:	aa1c03ee 	mov	x14, x28
   8bda8:	aa1503ef 	mov	x15, x21
   8bdac:	aa1603f0 	mov	x16, x22
   8bdb0:	aa1903f1 	mov	x17, x25
   8bdb4:	f2f11866 	movk	x6, #0x88c3, lsl #48
   8bdb8:	17ffedd6 	b	87510 <Java_com_adjust_sdk_sig_NativeLibHelper_nOnResume@@Base-0x4457c>
   8bdbc:	f00005c8 	adrp	x8, 146000 <getauxval@plt+0xbea0>
   8bdc0:	d29900cf 	mov	x15, #0xc806                	// #51206
   8bdc4:	d2969570 	mov	x16, #0xb4ab                	// #46251
   8bdc8:	f2beb3cf 	movk	x15, #0xf59e, lsl #16
   8bdcc:	f2a83fd0 	movk	x16, #0x41fe, lsl #16
   8bdd0:	f2db330f 	movk	x15, #0xd998, lsl #32
   8bdd4:	395c2d0e 	ldrb	w14, [x8, #1803]
   8bdd8:	f2dae8f0 	movk	x16, #0xd747, lsl #32
   8bddc:	a93a4fb8 	stp	x24, x19, [x29, #-96]
   8bde0:	2a1b03eb 	mov	w11, w27
   8bde4:	f81983b7 	stur	x23, [x29, #-104]
   8bde8:	2a1403ec 	mov	w12, w20
   8bdec:	aa1a03ed 	mov	x13, x26
   8bdf0:	710001df 	cmp	w14, #0x0
   8bdf4:	aa1c03ee 	mov	x14, x28
   8bdf8:	f2f0142f 	movk	x15, #0x80a1, lsl #48
   8bdfc:	f2f76cb0 	movk	x16, #0xbb65, lsl #48
   8be00:	9a8f1206 	csel	x6, x16, x15, ne	// ne = any
   8be04:	14000cbe 	b	8f0fc <Java_com_adjust_sdk_sig_NativeLibHelper_nOnResume@@Base-0x3c990>
   8be08:	d10023a8 	sub	x8, x29, #0x8
   8be0c:	d2851106 	mov	x6, #0x2888                	// #10376
   8be10:	a97827aa 	ldp	x10, x9, [x29, #-128]
   8be14:	f2b43446 	movk	x6, #0xa1a2, lsl #16
   8be18:	a93a4fb8 	stp	x24, x19, [x29, #-96]
   8be1c:	f8500111 	ldur	x17, [x8, #-256]
   8be20:	d106c3a8 	sub	x8, x29, #0x1b0
   8be24:	f85903a2 	ldur	x2, [x29, #-112]
   8be28:	f2c40f46 	movk	x6, #0x207a, lsl #32
   8be2c:	f85783a4 	ldur	x4, [x29, #-136]
   8be30:	f81983b7 	stur	x23, [x29, #-104]
   8be34:	f8100111 	stur	x17, [x8, #-256]
   8be38:	d10443a8 	sub	x8, x29, #0x110
   8be3c:	2a1b03eb 	mov	w11, w27
   8be40:	2a1403ec 	mov	w12, w20
   8be44:	aa1a03ed 	mov	x13, x26
   8be48:	aa1c03ee 	mov	x14, x28
   8be4c:	f8500107 	ldur	x7, [x8, #-256]
   8be50:	d106e3a8 	sub	x8, x29, #0x1b8
   8be54:	aa1503ef 	mov	x15, x21
   8be58:	aa1603f0 	mov	x16, x22
   8be5c:	aa1903f1 	mov	x17, x25
   8be60:	aa1e03e5 	mov	x5, x30
   8be64:	f8100107 	stur	x7, [x8, #-256]
   8be68:	d109c3a8 	sub	x8, x29, #0x270
   8be6c:	f2f33046 	movk	x6, #0x9982, lsl #48
   8be70:	f8500100 	ldur	x0, [x8, #-256]
   8be74:	d10723a8 	sub	x8, x29, #0x1c8
   8be78:	f8100100 	stur	x0, [x8, #-256]
   8be7c:	382068ff 	strb	wzr, [x7, x0]
   8be80:	17ffeda4 	b	87510 <Java_com_adjust_sdk_sig_NativeLibHelper_nOnResume@@Base-0x4457c>
   8be84:	d10123a8 	sub	x8, x29, #0x48
   8be88:	d28a42f0 	mov	x16, #0x5217                	// #21015
   8be8c:	d2975951 	mov	x17, #0xbaca                	// #47818
   8be90:	f2b1e4b0 	movk	x16, #0x8f25, lsl #16
   8be94:	f2b8d091 	movk	x17, #0xc684, lsl #16
   8be98:	f2d48850 	movk	x16, #0xa442, lsl #32
   8be9c:	f8500108 	ldur	x8, [x8, #-256]
   8bea0:	f2dbdd51 	movk	x17, #0xdeea, lsl #32
   8bea4:	f85903a2 	ldur	x2, [x29, #-112]
   8bea8:	f2efc770 	movk	x16, #0x7e3b, lsl #48
   8beac:	f85783a4 	ldur	x4, [x29, #-136]
   8beb0:	f2ff6031 	movk	x17, #0xfb01, lsl #48
   8beb4:	f940010a 	ldr	x10, [x8]
   8beb8:	d10c43a8 	sub	x8, x29, #0x310
   8bebc:	a93a4fb8 	stp	x24, x19, [x29, #-96]
   8bec0:	2a1403ec 	mov	w12, w20
   8bec4:	f81983b7 	stur	x23, [x29, #-104]
   8bec8:	aa1a03ed 	mov	x13, x26
   8becc:	f810010a 	stur	x10, [x8, #-256]
   8bed0:	d10043a8 	sub	x8, x29, #0x10
   8bed4:	f100015f 	cmp	x10, #0x0
   8bed8:	aa1c03ee 	mov	x14, x28
   8bedc:	a97827aa 	ldp	x10, x9, [x29, #-128]
   8bee0:	aa1503ef 	mov	x15, x21
   8bee4:	aa1e03e5 	mov	x5, x30
   8bee8:	f850010b 	ldur	x11, [x8, #-256]
   8beec:	d10103a8 	sub	x8, x29, #0x40
   8bef0:	14000770 	b	8dcb0 <Java_com_adjust_sdk_sig_NativeLibHelper_nOnResume@@Base-0x3dddc>
   8bef4:	f00005c8 	adrp	x8, 146000 <getauxval@plt+0xbea0>
   8bef8:	d29de52f 	mov	x15, #0xef29                	// #61225
   8befc:	d293c170 	mov	x16, #0x9e0b                	// #40459
   8bf00:	f2b9d42f 	movk	x15, #0xcea1, lsl #16
   8bf04:	f2b907b0 	movk	x16, #0xc83d, lsl #16
   8bf08:	f2c76d6f 	movk	x15, #0x3b6b, lsl #32
   8bf0c:	3959090e 	ldrb	w14, [x8, #1602]
   8bf10:	f2d07290 	movk	x16, #0x8394, lsl #32
   8bf14:	2a1b03eb 	mov	w11, w27
   8bf18:	2a1403ec 	mov	w12, w20
   8bf1c:	aa1a03ed 	mov	x13, x26
   8bf20:	f2f106af 	movk	x15, #0x8835, lsl #48
   8bf24:	710001df 	cmp	w14, #0x0
   8bf28:	aa1c03ee 	mov	x14, x28
   8bf2c:	f2fe2270 	movk	x16, #0xf113, lsl #48
   8bf30:	a93a4fb8 	stp	x24, x19, [x29, #-96]
   8bf34:	f81983b7 	stur	x23, [x29, #-104]
   8bf38:	14000a4d 	b	8e86c <Java_com_adjust_sdk_sig_NativeLibHelper_nOnResume@@Base-0x3d220>
   8bf3c:	d10123a8 	sub	x8, x29, #0x48
   8bf40:	f8500108 	ldur	x8, [x8, #-256]
   8bf44:	f9400102 	ldr	x2, [x8]
   8bf48:	d10083a8 	sub	x8, x29, #0x20
   8bf4c:	f8500100 	ldur	x0, [x8, #-256]
   8bf50:	d10043a8 	sub	x8, x29, #0x10
   8bf54:	f8500101 	ldur	x1, [x8, #-256]
   8bf58:	d10143a8 	sub	x8, x29, #0x50
   8bf5c:	f8500103 	ldur	x3, [x8, #-256]
   8bf60:	9400cac5 	bl	bea74 <Java_com_adjust_sdk_sig_NativeLibHelper_nOnResume@@Base-0xd018>
   8bf64:	d10083a8 	sub	x8, x29, #0x20
   8bf68:	d28e24cf 	mov	x15, #0x7126                	// #28966
   8bf6c:	d2995870 	mov	x16, #0xcac3                	// #51907
   8bf70:	f2abfb4f 	movk	x15, #0x5fda, lsl #16
   8bf74:	f2ad1a50 	movk	x16, #0x68d2, lsl #16
   8bf78:	f2cab98f 	movk	x15, #0x55cc, lsl #32
   8bf7c:	f8500108 	ldur	x8, [x8, #-256]
   8bf80:	f2cc0e30 	movk	x16, #0x6071, lsl #32
   8bf84:	a93a4fb8 	stp	x24, x19, [x29, #-96]
   8bf88:	2a1b03eb 	mov	w11, w27
   8bf8c:	f81983b7 	stur	x23, [x29, #-104]
   8bf90:	2a1403ec 	mov	w12, w20
   8bf94:	b940010e 	ldr	w14, [x8]
   8bf98:	aa1a03ed 	mov	x13, x26
   8bf9c:	f2f2a72f 	movk	x15, #0x9539, lsl #48
   8bfa0:	f2e350b0 	movk	x16, #0x1a85, lsl #48
   8bfa4:	140006c0 	b	8daa4 <Java_com_adjust_sdk_sig_NativeLibHelper_nOnResume@@Base-0x3dfe8>
   8bfa8:	d10083a8 	sub	x8, x29, #0x20
   8bfac:	d2940cef 	mov	x15, #0xa067                	// #41063
   8bfb0:	d29530b0 	mov	x16, #0xa985                	// #43397
   8bfb4:	f2b6bd0f 	movk	x15, #0xb5e8, lsl #16
   8bfb8:	f2a38850 	movk	x16, #0x1c42, lsl #16
   8bfbc:	f2d7c0af 	movk	x15, #0xbe05, lsl #32
   8bfc0:	f8500108 	ldur	x8, [x8, #-256]
   8bfc4:	f2dea430 	movk	x16, #0xf521, lsl #32
   8bfc8:	f2f5906f 	movk	x15, #0xac83, lsl #48
   8bfcc:	f2e86650 	movk	x16, #0x4332, lsl #48
   8bfd0:	a93a4fb8 	stp	x24, x19, [x29, #-96]
   8bfd4:	2a1b03eb 	mov	w11, w27
   8bfd8:	b940010e 	ldr	w14, [x8]
   8bfdc:	f81983b7 	stur	x23, [x29, #-104]
   8bfe0:	2a1403ec 	mov	w12, w20
   8bfe4:	aa1a03ed 	mov	x13, x26
   8bfe8:	710001df 	cmp	w14, #0x0
   8bfec:	b815c3ae 	stur	w14, [x29, #-164]
   8bff0:	aa1c03ee 	mov	x14, x28
   8bff4:	9a8f0206 	csel	x6, x16, x15, eq	// eq = none
   8bff8:	14000c41 	b	8f0fc <Java_com_adjust_sdk_sig_NativeLibHelper_nOnResume@@Base-0x3c990>
   8bffc:	d10903a8 	sub	x8, x29, #0x240
   8c000:	d29a852a 	mov	x10, #0xd429                	// #54313
   8c004:	d2900eeb 	mov	x11, #0x8077                	// #32887
   8c008:	f2b4794a 	movk	x10, #0xa3ca, lsl #16
   8c00c:	f2a041cb 	movk	x11, #0x20e, lsl #16
   8c010:	f2ca9a2a 	movk	x10, #0x54d1, lsl #32
   8c014:	f850010d 	ldur	x13, [x8, #-256]
   8c018:	d10a43a8 	sub	x8, x29, #0x290
   8c01c:	f2d342eb 	movk	x11, #0x9a17, lsl #32
   8c020:	f2f524ea 	movk	x10, #0xa927, lsl #48
   8c024:	f2e71cab 	movk	x11, #0x38e5, lsl #48
   8c028:	2a1403ec 	mov	w12, w20
   8c02c:	f810010d 	stur	x13, [x8, #-256]
   8c030:	d108c3a8 	sub	x8, x29, #0x230
   8c034:	f10001bf 	cmp	x13, #0x0
   8c038:	a93a4fb8 	stp	x24, x19, [x29, #-96]
   8c03c:	9a8a0166 	csel	x6, x11, x10, eq	// eq = none
   8c040:	2a1b03eb 	mov	w11, w27
   8c044:	f850010d 	ldur	x13, [x8, #-256]
   8c048:	d10a63a8 	sub	x8, x29, #0x298
   8c04c:	f81983b7 	stur	x23, [x29, #-104]
   8c050:	f810010d 	stur	x13, [x8, #-256]
   8c054:	d108a3a8 	sub	x8, x29, #0x228
   8c058:	f850010d 	ldur	x13, [x8, #-256]
   8c05c:	d10aa3a8 	sub	x8, x29, #0x2a8
   8c060:	f810010d 	stur	x13, [x8, #-256]
   8c064:	aa1a03ed 	mov	x13, x26
   8c068:	14000834 	b	8e138 <Java_com_adjust_sdk_sig_NativeLibHelper_nOnResume@@Base-0x3d954>
   8c06c:	d28bd726 	mov	x6, #0x5eb9                	// #24249
   8c070:	f85903a2 	ldur	x2, [x29, #-112]
   8c074:	f85783a4 	ldur	x4, [x29, #-136]
   8c078:	f2a1c8a6 	movk	x6, #0xe45, lsl #16
   8c07c:	f2d6c4a6 	movk	x6, #0xb625, lsl #32
   8c080:	2a1f03eb 	mov	w11, wzr
   8c084:	a93a4fb8 	stp	x24, x19, [x29, #-96]
   8c088:	2a1403ec 	mov	w12, w20
   8c08c:	f81983b7 	stur	x23, [x29, #-104]
   8c090:	aa1a03ed 	mov	x13, x26
   8c094:	aa1c03ee 	mov	x14, x28
   8c098:	aa1503ef 	mov	x15, x21
   8c09c:	aa1603f0 	mov	x16, x22
   8c0a0:	aa1903f1 	mov	x17, x25
   8c0a4:	aa0503ea 	mov	x10, x5
   8c0a8:	aa0303e9 	mov	x9, x3
   8c0ac:	aa1e03e5 	mov	x5, x30
   8c0b0:	f2f58e86 	movk	x6, #0xac74, lsl #48
   8c0b4:	17ffed17 	b	87510 <Java_com_adjust_sdk_sig_NativeLibHelper_nOnResume@@Base-0x4457c>
   8c0b8:	d503201f 	nop
   8c0bc:	105d2588 	adr	x8, 14656c <getauxval@plt+0xc40c>
   8c0c0:	d103e3a9 	sub	x9, x29, #0xf8
   8c0c4:	d503201f 	nop
   8c0c8:	105bb2c0 	adr	x0, 143720 <getauxval@plt+0x95c0>
   8c0cc:	089ffd1f 	stlrb	wzr, [x8]
   8c0d0:	d10063a8 	sub	x8, x29, #0x18
   8c0d4:	f8500129 	ldur	x9, [x9, #-256]
   8c0d8:	f8500108 	ldur	x8, [x8, #-256]
   8c0dc:	f9000d09 	str	x9, [x8, #24]
   8c0e0:	d10023a8 	sub	x8, x29, #0x8
   8c0e4:	f8500101 	ldur	x1, [x8, #-256]
   8c0e8:	94012164 	bl	d4678 <Java_com_adjust_sdk_sig_NativeLibHelper_nSign@@Base+0x8074>
   8c0ec:	d10023a8 	sub	x8, x29, #0x8
   8c0f0:	d2990f06 	mov	x6, #0xc878                	// #51320
   8c0f4:	a97827aa 	ldp	x10, x9, [x29, #-128]
   8c0f8:	f2bc2d06 	movk	x6, #0xe168, lsl #16
   8c0fc:	a93a4fb8 	stp	x24, x19, [x29, #-96]
   8c100:	a97713a5 	ldp	x5, x4, [x29, #-144]
   8c104:	f2db26e6 	movk	x6, #0xd937, lsl #32
   8c108:	f81983b7 	stur	x23, [x29, #-104]
   8c10c:	f8500102 	ldur	x2, [x8, #-256]
   8c110:	2a1b03eb 	mov	w11, w27
   8c114:	2a1403ec 	mov	w12, w20
   8c118:	aa1a03ed 	mov	x13, x26
   8c11c:	aa1c03ee 	mov	x14, x28
   8c120:	aa1503ef 	mov	x15, x21
   8c124:	aa1603f0 	mov	x16, x22
   8c128:	aa1903f1 	mov	x17, x25
   8c12c:	f2e1ea46 	movk	x6, #0xf52, lsl #48
   8c130:	17ffecf8 	b	87510 <Java_com_adjust_sdk_sig_NativeLibHelper_nOnResume@@Base-0x4457c>
   8c134:	d503201f 	nop
   8c138:	105baac0 	adr	x0, 143690 <getauxval@plt+0x9530>
   8c13c:	4f05e401 	movi	v1.16b, #0xa0
   8c140:	d28e1c06 	mov	x6, #0x70e0                	// #28896
   8c144:	a97827aa 	ldp	x10, x9, [x29, #-128]
   8c148:	d00005c7 	adrp	x7, 146000 <getauxval@plt+0xbea0>
   8c14c:	f2b61206 	movk	x6, #0xb090, lsl #16
   8c150:	3dc00000 	ldr	q0, [x0]
   8c154:	f2d208e6 	movk	x6, #0x9047, lsl #32
   8c158:	f85903a2 	ldur	x2, [x29, #-112]
   8c15c:	a93a4fb8 	stp	x24, x19, [x29, #-96]
   8c160:	f81983b7 	stur	x23, [x29, #-104]
   8c164:	2a1b03eb 	mov	w11, w27
   8c168:	6e211c00 	eor	v0.16b, v0.16b, v1.16b
   8c16c:	2a1403ec 	mov	w12, w20
   8c170:	3d800000 	str	q0, [x0]
   8c174:	fd400800 	ldr	d0, [x0, #16]
   8c178:	aa1a03ed 	mov	x13, x26
   8c17c:	aa1c03ee 	mov	x14, x28
   8c180:	aa1503ef 	mov	x15, x21
   8c184:	aa1603f0 	mov	x16, x22
   8c188:	2e2e1c00 	eor	v0.8b, v0.8b, v14.8b
   8c18c:	aa1903f1 	mov	x17, x25
   8c190:	fd000800 	str	d0, [x0, #16]
   8c194:	52800020 	mov	w0, #0x1                   	// #1
   8c198:	aa0503e4 	mov	x4, x5
   8c19c:	aa1e03e5 	mov	x5, x30
   8c1a0:	f2ff1406 	movk	x6, #0xf8a0, lsl #48
   8c1a4:	391c08e0 	strb	w0, [x7, #1794]
   8c1a8:	17ffecda 	b	87510 <Java_com_adjust_sdk_sig_NativeLibHelper_nOnResume@@Base-0x4457c>
   8c1ac:	aa1a03eb 	mov	x11, x26
   8c1b0:	d288f771 	mov	x17, #0x47bb                	// #18363
   8c1b4:	d2908740 	mov	x0, #0x843a                	// #33850
   8c1b8:	f2b32251 	movk	x17, #0x9912, lsl #16
   8c1bc:	f2b28c40 	movk	x0, #0x9462, lsl #16
   8c1c0:	d10f83a8 	sub	x8, x29, #0x3e0
   8c1c4:	38401570 	ldrb	w16, [x11], #1
   8c1c8:	f2d9cf31 	movk	x17, #0xce79, lsl #32
   8c1cc:	f2da7ba0 	movk	x0, #0xd3dd, lsl #32
   8c1d0:	f2e950d1 	movk	x17, #0x4a86, lsl #48
   8c1d4:	f2eedb80 	movk	x0, #0x76dc, lsl #48
   8c1d8:	7100021f 	cmp	w16, #0x0
   8c1dc:	a93a4fb8 	stp	x24, x19, [x29, #-96]
   8c1e0:	f81983b7 	stur	x23, [x29, #-104]
   8c1e4:	2a1403ec 	mov	w12, w20
   8c1e8:	f81083ab 	stur	x11, [x29, #-248]
   8c1ec:	2a1b03eb 	mov	w11, w27
   8c1f0:	aa1a03ed 	mov	x13, x26
   8c1f4:	aa1c03ee 	mov	x14, x28
   8c1f8:	aa1503ef 	mov	x15, x21
   8c1fc:	aa1603f0 	mov	x16, x22
   8c200:	9a910006 	csel	x6, x0, x17, eq	// eq = none
   8c204:	aa1903f1 	mov	x17, x25
   8c208:	aa0903ea 	mov	x10, x9
   8c20c:	f810011a 	stur	x26, [x8, #-256]
   8c210:	140006ea 	b	8ddb8 <Java_com_adjust_sdk_sig_NativeLibHelper_nOnResume@@Base-0x3dcd4>
   8c214:	d10043a8 	sub	x8, x29, #0x10
   8c218:	d10c63a9 	sub	x9, x29, #0x318
   8c21c:	f8500100 	ldur	x0, [x8, #-256]
   8c220:	f8500121 	ldur	x1, [x9, #-256]
   8c224:	f9400008 	ldr	x8, [x0]
   8c228:	f9405d08 	ldr	x8, [x8, #184]
   8c22c:	d63f0100 	blr	x8
   8c230:	a97827aa 	ldp	x10, x9, [x29, #-128]
   8c234:	d2912446 	mov	x6, #0x8922                	// #35106
   8c238:	a93a4fb8 	stp	x24, x19, [x29, #-96]
   8c23c:	a97713a5 	ldp	x5, x4, [x29, #-144]
   8c240:	f2be3ac6 	movk	x6, #0xf1d6, lsl #16
   8c244:	f81983b7 	stur	x23, [x29, #-104]
   8c248:	f85903a2 	ldur	x2, [x29, #-112]
   8c24c:	f2d8b1e6 	movk	x6, #0xc58f, lsl #32
   8c250:	2a1b03eb 	mov	w11, w27
   8c254:	2a1403ec 	mov	w12, w20
   8c258:	aa1a03ed 	mov	x13, x26
   8c25c:	aa1c03ee 	mov	x14, x28
   8c260:	aa1503ef 	mov	x15, x21
   8c264:	aa1603f0 	mov	x16, x22
   8c268:	aa1903f1 	mov	x17, x25
   8c26c:	f2e8dae6 	movk	x6, #0x46d7, lsl #48
   8c270:	17ffeca8 	b	87510 <Java_com_adjust_sdk_sig_NativeLibHelper_nOnResume@@Base-0x4457c>
   8c274:	d100a3a8 	sub	x8, x29, #0x28
   8c278:	f8500100 	ldur	x0, [x8, #-256]
   8c27c:	d10203a8 	sub	x8, x29, #0x80
   8c280:	f8500102 	ldur	x2, [x8, #-256]
   8c284:	d100e3a8 	sub	x8, x29, #0x38
   8c288:	b900001f 	str	wzr, [x0]
   8c28c:	f8500108 	ldur	x8, [x8, #-256]
   8c290:	f900005f 	str	xzr, [x2]
   8c294:	f900011f 	str	xzr, [x8]
   8c298:	d10043a8 	sub	x8, x29, #0x10
   8c29c:	f8500101 	ldur	x1, [x8, #-256]
   8c2a0:	9400bcc0 	bl	bb5a0 <Java_com_adjust_sdk_sig_NativeLibHelper_nOnResume@@Base-0x104ec>
   8c2a4:	d100a3a8 	sub	x8, x29, #0x28
   8c2a8:	d297bccf 	mov	x15, #0xbde6                	// #48614
   8c2ac:	d293a570 	mov	x16, #0x9d2b                	// #40235
   8c2b0:	f2a50f6f 	movk	x15, #0x287b, lsl #16
   8c2b4:	f2b500f0 	movk	x16, #0xa807, lsl #16
   8c2b8:	f2dd490f 	movk	x15, #0xea48, lsl #32
   8c2bc:	f8500108 	ldur	x8, [x8, #-256]
   8c2c0:	f2c81470 	movk	x16, #0x40a3, lsl #32
   8c2c4:	a93a4fb8 	stp	x24, x19, [x29, #-96]
   8c2c8:	2a1b03eb 	mov	w11, w27
   8c2cc:	f81983b7 	stur	x23, [x29, #-104]
   8c2d0:	2a1403ec 	mov	w12, w20
   8c2d4:	b940010e 	ldr	w14, [x8]
   8c2d8:	aa1a03ed 	mov	x13, x26
   8c2dc:	f2f98b6f 	movk	x15, #0xcc5b, lsl #48
   8c2e0:	f2fe32f0 	movk	x16, #0xf197, lsl #48
   8c2e4:	14000a65 	b	8ec78 <Java_com_adjust_sdk_sig_NativeLibHelper_nOnResume@@Base-0x3ce14>
   8c2e8:	d503201f 	nop
   8c2ec:	105cfae8 	adr	x8, 146248 <getauxval@plt+0xc0e8>
   8c2f0:	d503201f 	nop
   8c2f4:	105c2b63 	adr	x3, 144860 <getauxval@plt+0xa700>
   8c2f8:	089ffd1f 	stlrb	wzr, [x8]
   8c2fc:	d100e3a8 	sub	x8, x29, #0x38
   8c300:	f8500108 	ldur	x8, [x8, #-256]
   8c304:	f9400102 	ldr	x2, [x8]
   8c308:	d100a3a8 	sub	x8, x29, #0x28
   8c30c:	f8500100 	ldur	x0, [x8, #-256]
   8c310:	d10043a8 	sub	x8, x29, #0x10
   8c314:	f8500101 	ldur	x1, [x8, #-256]
   8c318:	d11283a8 	sub	x8, x29, #0x4a0
   8c31c:	f8500104 	ldur	x4, [x8, #-256]
   8c320:	940097a5 	bl	b21b4 <Java_com_adjust_sdk_sig_NativeLibHelper_nOnResume@@Base-0x198d8>
   8c324:	d100a3a8 	sub	x8, x29, #0x28
   8c328:	d28dcfef 	mov	x15, #0x6e7f                	// #28287
   8c32c:	d2876db0 	mov	x16, #0x3b6d                	// #15213
   8c330:	f2b9b74f 	movk	x15, #0xcdba, lsl #16
   8c334:	f2af9650 	movk	x16, #0x7cb2, lsl #16
   8c338:	f2c5e78f 	movk	x15, #0x2f3c, lsl #32
   8c33c:	f8500108 	ldur	x8, [x8, #-256]
   8c340:	f2d22bd0 	movk	x16, #0x915e, lsl #32
   8c344:	a93a4fb8 	stp	x24, x19, [x29, #-96]
   8c348:	2a1b03eb 	mov	w11, w27
   8c34c:	f81983b7 	stur	x23, [x29, #-104]
   8c350:	2a1403ec 	mov	w12, w20
   8c354:	b940010e 	ldr	w14, [x8]
   8c358:	aa1a03ed 	mov	x13, x26
   8c35c:	f2e864ef 	movk	x15, #0x4327, lsl #48
   8c360:	f2ff2cd0 	movk	x16, #0xf966, lsl #48
   8c364:	14000a45 	b	8ec78 <Java_com_adjust_sdk_sig_NativeLibHelper_nOnResume@@Base-0x3ce14>
   8c368:	d10e43a8 	sub	x8, x29, #0x390
   8c36c:	d10723a9 	sub	x9, x29, #0x1c8
   8c370:	d2851106 	mov	x6, #0x2888                	// #10376
   8c374:	f85903a2 	ldur	x2, [x29, #-112]
   8c378:	f85783a4 	ldur	x4, [x29, #-136]
   8c37c:	f2b43446 	movk	x6, #0xa1a2, lsl #16
   8c380:	f850010a 	ldur	x10, [x8, #-256]
   8c384:	d10e23a8 	sub	x8, x29, #0x388
   8c388:	f2c40f46 	movk	x6, #0x207a, lsl #32
   8c38c:	a93a4fb8 	stp	x24, x19, [x29, #-96]
   8c390:	f81983b7 	stur	x23, [x29, #-104]
   8c394:	2a1b03eb 	mov	w11, w27
   8c398:	f8500107 	ldur	x7, [x8, #-256]
   8c39c:	d10e03a8 	sub	x8, x29, #0x380
   8c3a0:	38401540 	ldrb	w0, [x10], #1
   8c3a4:	2a1403ec 	mov	w12, w20
   8c3a8:	aa1a03ed 	mov	x13, x26
   8c3ac:	f8500108 	ldur	x8, [x8, #-256]
   8c3b0:	aa1c03ee 	mov	x14, x28
   8c3b4:	aa1503ef 	mov	x15, x21
   8c3b8:	aa1603f0 	mov	x16, x22
   8c3bc:	aa1903f1 	mov	x17, x25
   8c3c0:	aa1e03e5 	mov	x5, x30
   8c3c4:	d1000508 	sub	x8, x8, #0x1
   8c3c8:	f2f33046 	movk	x6, #0x9982, lsl #48
   8c3cc:	380014e0 	strb	w0, [x7], #1
   8c3d0:	f8100128 	stur	x8, [x9, #-256]
   8c3d4:	d106c3a8 	sub	x8, x29, #0x1b0
   8c3d8:	f810010a 	stur	x10, [x8, #-256]
   8c3dc:	d106e3a8 	sub	x8, x29, #0x1b8
   8c3e0:	a97827aa 	ldp	x10, x9, [x29, #-128]
   8c3e4:	f8100107 	stur	x7, [x8, #-256]
   8c3e8:	17ffec4a 	b	87510 <Java_com_adjust_sdk_sig_NativeLibHelper_nOnResume@@Base-0x4457c>
   8c3ec:	d11063a8 	sub	x8, x29, #0x418
   8c3f0:	d102c3ab 	sub	x11, x29, #0xb0
   8c3f4:	d299db06 	mov	x6, #0xced8                	// #52952
   8c3f8:	f85903a2 	ldur	x2, [x29, #-112]
   8c3fc:	f85783a4 	ldur	x4, [x29, #-136]
   8c400:	f2be3286 	movk	x6, #0xf194, lsl #16
   8c404:	f850010a 	ldur	x10, [x8, #-256]
   8c408:	d11043a8 	sub	x8, x29, #0x410
   8c40c:	f2d55ac6 	movk	x6, #0xaad6, lsl #32
   8c410:	a93a4fb8 	stp	x24, x19, [x29, #-96]
   8c414:	f81983b7 	stur	x23, [x29, #-104]
   8c418:	2a1403ec 	mov	w12, w20
   8c41c:	f8500107 	ldur	x7, [x8, #-256]
   8c420:	d11023a8 	sub	x8, x29, #0x408
   8c424:	38401540 	ldrb	w0, [x10], #1
   8c428:	aa1a03ed 	mov	x13, x26
   8c42c:	aa1c03ee 	mov	x14, x28
   8c430:	f8500108 	ldur	x8, [x8, #-256]
   8c434:	aa1503ef 	mov	x15, x21
   8c438:	aa1603f0 	mov	x16, x22
   8c43c:	aa1903f1 	mov	x17, x25
   8c440:	aa1e03e5 	mov	x5, x30
   8c444:	f2febc46 	movk	x6, #0xf5e2, lsl #48
   8c448:	d1000508 	sub	x8, x8, #0x1
   8c44c:	380014e0 	strb	w0, [x7], #1
   8c450:	f8100168 	stur	x8, [x11, #-256]
   8c454:	d10283a8 	sub	x8, x29, #0xa0
   8c458:	2a1b03eb 	mov	w11, w27
   8c45c:	f810010a 	stur	x10, [x8, #-256]
   8c460:	d102a3a8 	sub	x8, x29, #0xa8
   8c464:	aa0903ea 	mov	x10, x9
   8c468:	aa0303e9 	mov	x9, x3
   8c46c:	f8100107 	stur	x7, [x8, #-256]
   8c470:	17ffec28 	b	87510 <Java_com_adjust_sdk_sig_NativeLibHelper_nOnResume@@Base-0x4457c>
   8c474:	d10023a8 	sub	x8, x29, #0x8
   8c478:	d29ce1a6 	mov	x6, #0xe70d                	// #59149
   8c47c:	f85903a2 	ldur	x2, [x29, #-112]
   8c480:	f2a47806 	movk	x6, #0x23c0, lsl #16
   8c484:	f85783a4 	ldur	x4, [x29, #-136]
   8c488:	f2df6206 	movk	x6, #0xfb10, lsl #32
   8c48c:	f8500100 	ldur	x0, [x8, #-256]
   8c490:	d10703a8 	sub	x8, x29, #0x1c0
   8c494:	a93a4fb8 	stp	x24, x19, [x29, #-96]
   8c498:	2a1b03eb 	mov	w11, w27
   8c49c:	f81983b7 	stur	x23, [x29, #-104]
   8c4a0:	2a1403ec 	mov	w12, w20
   8c4a4:	f8100100 	stur	x0, [x8, #-256]
   8c4a8:	d10423a8 	sub	x8, x29, #0x108
   8c4ac:	aa1a03ed 	mov	x13, x26
   8c4b0:	aa1c03ee 	mov	x14, x28
   8c4b4:	aa1503ef 	mov	x15, x21
   8c4b8:	aa1603f0 	mov	x16, x22
   8c4bc:	f8500107 	ldur	x7, [x8, #-256]
   8c4c0:	d10743a8 	sub	x8, x29, #0x1d0
   8c4c4:	aa1903f1 	mov	x17, x25
   8c4c8:	aa1e03e5 	mov	x5, x30
   8c4cc:	f2ecf406 	movk	x6, #0x67a0, lsl #48
   8c4d0:	f8100107 	stur	x7, [x8, #-256]
   8c4d4:	d109a3a8 	sub	x8, x29, #0x268
   8c4d8:	f8500100 	ldur	x0, [x8, #-256]
   8c4dc:	d10763a8 	sub	x8, x29, #0x1d8
   8c4e0:	f8100100 	stur	x0, [x8, #-256]
   8c4e4:	382068ff 	strb	wzr, [x7, x0]
   8c4e8:	17ffec0a 	b	87510 <Java_com_adjust_sdk_sig_NativeLibHelper_nOnResume@@Base-0x4457c>
   8c4ec:	2a1f03e0 	mov	w0, wzr
   8c4f0:	52800021 	mov	w1, #0x1                   	// #1
   8c4f4:	d503201f 	nop
   8c4f8:	105d01c2 	adr	x2, 146530 <getauxval@plt+0xc3d0>
   8c4fc:	9402b4c1 	bl	139800 <Java_com_adjust_sdk_sig_NativeLibHelper_nSign@@Base+0x6d1fc>
   8c500:	d2821e0b 	mov	x11, #0x10f0                	// #4336
   8c504:	d29f9ecc 	mov	x12, #0xfcf6                	// #64758
   8c508:	f2b480ab 	movk	x11, #0xa405, lsl #16
   8c50c:	f2a2b24c 	movk	x12, #0x1592, lsl #16
   8c510:	f2c47f4b 	movk	x11, #0x23fa, lsl #32
   8c514:	f2c4842c 	movk	x12, #0x2421, lsl #32
   8c518:	a93a4fb8 	stp	x24, x19, [x29, #-96]
   8c51c:	7100001f 	cmp	w0, #0x0
   8c520:	f81983b7 	stur	x23, [x29, #-104]
   8c524:	f2f1aeab 	movk	x11, #0x8d75, lsl #48
   8c528:	f2f9ec2c 	movk	x12, #0xcf61, lsl #48
   8c52c:	14000b7f 	b	8f328 <Java_com_adjust_sdk_sig_NativeLibHelper_nOnResume@@Base-0x3c764>
   8c530:	d100c3a8 	sub	x8, x29, #0x30
   8c534:	d10d43a9 	sub	x9, x29, #0x350
   8c538:	f8500108 	ldur	x8, [x8, #-256]
   8c53c:	f8500129 	ldur	x9, [x9, #-256]
   8c540:	cb080128 	sub	x8, x9, x8
   8c544:	d10983a9 	sub	x9, x29, #0x260
   8c548:	91000500 	add	x0, x8, #0x1
   8c54c:	f8100128 	stur	x8, [x9, #-256]
   8c550:	9402b634 	bl	139e20 <malloc@plt>
   8c554:	d10403a8 	sub	x8, x29, #0x100
   8c558:	d284ca4b 	mov	x11, #0x2652                	// #9810
   8c55c:	d299cc6c 	mov	x12, #0xce63                	// #52835
   8c560:	f2b035cb 	movk	x11, #0x81ae, lsl #16
   8c564:	f2a2a42c 	movk	x12, #0x1521, lsl #16
   8c568:	f2c2bacb 	movk	x11, #0x15d6, lsl #32
   8c56c:	f2d224ac 	movk	x12, #0x9125, lsl #32
   8c570:	a93a4fb8 	stp	x24, x19, [x29, #-96]
   8c574:	f8100100 	stur	x0, [x8, #-256]
   8c578:	f100001f 	cmp	x0, #0x0
   8c57c:	f81983b7 	stur	x23, [x29, #-104]
   8c580:	f2f8eb8b 	movk	x11, #0xc75c, lsl #48
   8c584:	f2ee800c 	movk	x12, #0x7400, lsl #48
   8c588:	14000b3f 	b	8f284 <Java_com_adjust_sdk_sig_NativeLibHelper_nOnResume@@Base-0x3c808>
   8c58c:	aa1503eb 	mov	x11, x21
   8c590:	d2900091 	mov	x17, #0x8004                	// #32772
   8c594:	d2980b80 	mov	x0, #0xc05c                	// #49244
   8c598:	f2b44931 	movk	x17, #0xa249, lsl #16
   8c59c:	f2afc120 	movk	x0, #0x7e09, lsl #16
   8c5a0:	d10e83a8 	sub	x8, x29, #0x3a0
   8c5a4:	38401570 	ldrb	w16, [x11], #1
   8c5a8:	f2db2751 	movk	x17, #0xd93a, lsl #32
   8c5ac:	f2c3f140 	movk	x0, #0x1f8a, lsl #32
   8c5b0:	f85803aa 	ldur	x10, [x29, #-128]
   8c5b4:	f2f16cf1 	movk	x17, #0x8b67, lsl #48
   8c5b8:	f85903a2 	ldur	x2, [x29, #-112]
   8c5bc:	7100021f 	cmp	w16, #0x0
   8c5c0:	f2e976a0 	movk	x0, #0x4bb5, lsl #48
   8c5c4:	a93a4fb8 	stp	x24, x19, [x29, #-96]
   8c5c8:	f81983b7 	stur	x23, [x29, #-104]
   8c5cc:	2a1403ec 	mov	w12, w20
   8c5d0:	f81003ab 	stur	x11, [x29, #-256]
   8c5d4:	2a1b03eb 	mov	w11, w27
   8c5d8:	aa1a03ed 	mov	x13, x26
   8c5dc:	aa1c03ee 	mov	x14, x28
   8c5e0:	aa1503ef 	mov	x15, x21
   8c5e4:	aa1603f0 	mov	x16, x22
   8c5e8:	9a800226 	csel	x6, x17, x0, eq	// eq = none
   8c5ec:	aa1903f1 	mov	x17, x25
   8c5f0:	f8100115 	stur	x21, [x8, #-256]
   8c5f4:	aa0503e9 	mov	x9, x5
   8c5f8:	14000b57 	b	8f354 <Java_com_adjust_sdk_sig_NativeLibHelper_nOnResume@@Base-0x3c738>
   8c5fc:	2a1f03e0 	mov	w0, wzr
   8c600:	52800021 	mov	w1, #0x1                   	// #1
   8c604:	d503201f 	nop
   8c608:	105cfe62 	adr	x2, 1465d4 <getauxval@plt+0xc474>
   8c60c:	9402b47d 	bl	139800 <Java_com_adjust_sdk_sig_NativeLibHelper_nSign@@Base+0x6d1fc>
   8c610:	d28e864b 	mov	x11, #0x7432                	// #29746
   8c614:	d290d12c 	mov	x12, #0x8689                	// #34441
   8c618:	f2b9e94b 	movk	x11, #0xcf4a, lsl #16
   8c61c:	f2a8d0ec 	movk	x12, #0x4687, lsl #16
   8c620:	f2cd40ab 	movk	x11, #0x6a05, lsl #32
   8c624:	f2d488cc 	movk	x12, #0xa446, lsl #32
   8c628:	f2fdb7cb 	movk	x11, #0xedbe, lsl #48
   8c62c:	f2e6072c 	movk	x12, #0x3039, lsl #48
   8c630:	7100001f 	cmp	w0, #0x0
   8c634:	a93a4fb8 	stp	x24, x19, [x29, #-96]
   8c638:	f81983b7 	stur	x23, [x29, #-104]
   8c63c:	14000b12 	b	8f284 <Java_com_adjust_sdk_sig_NativeLibHelper_nOnResume@@Base-0x3c808>
   8c640:	a97827aa 	ldp	x10, x9, [x29, #-128]
   8c644:	2a1b03eb 	mov	w11, w27
   8c648:	2a1403ec 	mov	w12, w20
   8c64c:	aa1a03ed 	mov	x13, x26
   8c650:	aa1c03ee 	mov	x14, x28
   8c654:	aa1503ef 	mov	x15, x21
   8c658:	aa1603f0 	mov	x16, x22
   8c65c:	aa1903f1 	mov	x17, x25
   8c660:	f85903a2 	ldur	x2, [x29, #-112]
   8c664:	f85783a4 	ldur	x4, [x29, #-136]
   8c668:	aa1e03e5 	mov	x5, x30
   8c66c:	a93a4fb8 	stp	x24, x19, [x29, #-96]
   8c670:	f81983b7 	stur	x23, [x29, #-104]
   8c674:	14000553 	b	8dbc0 <Java_com_adjust_sdk_sig_NativeLibHelper_nOnResume@@Base-0x3decc>
   8c678:	d00005c8 	adrp	x8, 146000 <getauxval@plt+0xbea0>
   8c67c:	d28bea8f 	mov	x15, #0x5f54                	// #24404
   8c680:	d282b750 	mov	x16, #0x15ba                	// #5562
   8c684:	f2acf80f 	movk	x15, #0x67c0, lsl #16
   8c688:	f2b7e0f0 	movk	x16, #0xbf07, lsl #16
   8c68c:	f2da800f 	movk	x15, #0xd400, lsl #32
   8c690:	395c110e 	ldrb	w14, [x8, #1796]
   8c694:	f2c85730 	movk	x16, #0x42b9, lsl #32
   8c698:	a93a4fb8 	stp	x24, x19, [x29, #-96]
   8c69c:	2a1b03eb 	mov	w11, w27
   8c6a0:	f81983b7 	stur	x23, [x29, #-104]
   8c6a4:	2a1403ec 	mov	w12, w20
   8c6a8:	aa1a03ed 	mov	x13, x26
   8c6ac:	710001df 	cmp	w14, #0x0
   8c6b0:	aa1c03ee 	mov	x14, x28
   8c6b4:	f2f9d92f 	movk	x15, #0xcec9, lsl #48
   8c6b8:	f2fd4f10 	movk	x16, #0xea78, lsl #48
   8c6bc:	1400074a 	b	8e3e4 <Java_com_adjust_sdk_sig_NativeLibHelper_nOnResume@@Base-0x3d6a8>
   8c6c0:	d10023a8 	sub	x8, x29, #0x8
   8c6c4:	d28f5d66 	mov	x6, #0x7aeb                	// #31467
   8c6c8:	a97827aa 	ldp	x10, x9, [x29, #-128]
   8c6cc:	f2a4d3e6 	movk	x6, #0x269f, lsl #16
   8c6d0:	a93a4fb8 	stp	x24, x19, [x29, #-96]
   8c6d4:	f850010e 	ldur	x14, [x8, #-256]
   8c6d8:	d10563a8 	sub	x8, x29, #0x158
   8c6dc:	f85903a2 	ldur	x2, [x29, #-112]
   8c6e0:	f2deeb66 	movk	x6, #0xf75b, lsl #32
   8c6e4:	f85783a4 	ldur	x4, [x29, #-136]
   8c6e8:	f81983b7 	stur	x23, [x29, #-104]
   8c6ec:	f810010e 	stur	x14, [x8, #-256]
   8c6f0:	d104e3a8 	sub	x8, x29, #0x138
   8c6f4:	2a1b03eb 	mov	w11, w27
   8c6f8:	2a1403ec 	mov	w12, w20
   8c6fc:	aa1a03ed 	mov	x13, x26
   8c700:	aa1c03ee 	mov	x14, x28
   8c704:	f8500107 	ldur	x7, [x8, #-256]
   8c708:	d105a3a8 	sub	x8, x29, #0x168
   8c70c:	aa1503ef 	mov	x15, x21
   8c710:	aa1603f0 	mov	x16, x22
   8c714:	aa1903f1 	mov	x17, x25
   8c718:	aa1e03e5 	mov	x5, x30
   8c71c:	f8100107 	stur	x7, [x8, #-256]
   8c720:	d10a83a8 	sub	x8, x29, #0x2a0
   8c724:	f2e63f46 	movk	x6, #0x31fa, lsl #48
   8c728:	f8500100 	ldur	x0, [x8, #-256]
   8c72c:	d10603a8 	sub	x8, x29, #0x180
   8c730:	f8100100 	stur	x0, [x8, #-256]
   8c734:	382068ff 	strb	wzr, [x7, x0]
   8c738:	17ffeb76 	b	87510 <Java_com_adjust_sdk_sig_NativeLibHelper_nOnResume@@Base-0x4457c>
   8c73c:	d10043a8 	sub	x8, x29, #0x10
   8c740:	d10cc3a9 	sub	x9, x29, #0x330
   8c744:	f8500100 	ldur	x0, [x8, #-256]
   8c748:	f8500121 	ldur	x1, [x9, #-256]
   8c74c:	f9400008 	ldr	x8, [x0]
   8c750:	f9405d08 	ldr	x8, [x8, #184]
   8c754:	d63f0100 	blr	x8
   8c758:	a97827aa 	ldp	x10, x9, [x29, #-128]
   8c75c:	d2814ce6 	mov	x6, #0xa67                 	// #2663
   8c760:	a93a4fb8 	stp	x24, x19, [x29, #-96]
   8c764:	a97713a5 	ldp	x5, x4, [x29, #-144]
   8c768:	f2bd9606 	movk	x6, #0xecb0, lsl #16
   8c76c:	f81983b7 	stur	x23, [x29, #-104]
   8c770:	f85903a2 	ldur	x2, [x29, #-112]
   8c774:	f2ca7e66 	movk	x6, #0x53f3, lsl #32
   8c778:	2a1b03eb 	mov	w11, w27
   8c77c:	2a1403ec 	mov	w12, w20
   8c780:	aa1a03ed 	mov	x13, x26
   8c784:	aa1c03ee 	mov	x14, x28
   8c788:	aa1503ef 	mov	x15, x21
   8c78c:	aa1603f0 	mov	x16, x22
   8c790:	aa1903f1 	mov	x17, x25
   8c794:	f2fb6a06 	movk	x6, #0xdb50, lsl #48
   8c798:	17ffeb5e 	b	87510 <Java_com_adjust_sdk_sig_NativeLibHelper_nOnResume@@Base-0x4457c>
   8c79c:	d10643a8 	sub	x8, x29, #0x190
   8c7a0:	d29a042a 	mov	x10, #0xd021                	// #53281
   8c7a4:	d28e090b 	mov	x11, #0x7048                	// #28744
   8c7a8:	f2ba06ca 	movk	x10, #0xd036, lsl #16
   8c7ac:	f2be542b 	movk	x11, #0xf2a1, lsl #16
   8c7b0:	f2dea32a 	movk	x10, #0xf519, lsl #32
   8c7b4:	f8500100 	ldur	x0, [x8, #-256]
   8c7b8:	d10ea3a8 	sub	x8, x29, #0x3a8
   8c7bc:	f2c2250b 	movk	x11, #0x1128, lsl #32
   8c7c0:	f2fff7ca 	movk	x10, #0xffbe, lsl #48
   8c7c4:	f2fe072b 	movk	x11, #0xf039, lsl #48
   8c7c8:	a93a4fb8 	stp	x24, x19, [x29, #-96]
   8c7cc:	f8100100 	stur	x0, [x8, #-256]
   8c7d0:	d10623a8 	sub	x8, x29, #0x188
   8c7d4:	f100001f 	cmp	x0, #0x0
   8c7d8:	f81983b7 	stur	x23, [x29, #-104]
   8c7dc:	9a8b0146 	csel	x6, x10, x11, eq	// eq = none
   8c7e0:	2a1b03eb 	mov	w11, w27
   8c7e4:	f8500100 	ldur	x0, [x8, #-256]
   8c7e8:	d10ec3a8 	sub	x8, x29, #0x3b0
   8c7ec:	2a1403ec 	mov	w12, w20
   8c7f0:	aa1a03ed 	mov	x13, x26
   8c7f4:	aa1c03ee 	mov	x14, x28
   8c7f8:	aa1503ef 	mov	x15, x21
   8c7fc:	f8100100 	stur	x0, [x8, #-256]
   8c800:	d105e3a8 	sub	x8, x29, #0x178
   8c804:	aa1603f0 	mov	x16, x22
   8c808:	aa1903f1 	mov	x17, x25
   8c80c:	f8500100 	ldur	x0, [x8, #-256]
   8c810:	d10ee3a8 	sub	x8, x29, #0x3b8
   8c814:	f8100100 	stur	x0, [x8, #-256]
   8c818:	14000acc 	b	8f348 <Java_com_adjust_sdk_sig_NativeLibHelper_nOnResume@@Base-0x3c744>
   8c81c:	d00005c8 	adrp	x8, 146000 <getauxval@plt+0xbea0>
   8c820:	d2806a6f 	mov	x15, #0x353                 	// #851
   8c824:	d297b370 	mov	x16, #0xbd9b                	// #48539
   8c828:	f2b530cf 	movk	x15, #0xa986, lsl #16
   8c82c:	f2b9bdb0 	movk	x16, #0xcded, lsl #16
   8c830:	f2daf0af 	movk	x15, #0xd785, lsl #32
   8c834:	395bfd0e 	ldrb	w14, [x8, #1791]
   8c838:	f2d04d30 	movk	x16, #0x8269, lsl #32
   8c83c:	2a1b03eb 	mov	w11, w27
   8c840:	2a1403ec 	mov	w12, w20
   8c844:	aa1a03ed 	mov	x13, x26
   8c848:	f2f94c2f 	movk	x15, #0xca61, lsl #48
   8c84c:	710001df 	cmp	w14, #0x0
   8c850:	aa1c03ee 	mov	x14, x28
   8c854:	f2fbe130 	movk	x16, #0xdf09, lsl #48
   8c858:	a93a4fb8 	stp	x24, x19, [x29, #-96]
   8c85c:	f81983b7 	stur	x23, [x29, #-104]
   8c860:	9a9011e6 	csel	x6, x15, x16, ne	// ne = any
   8c864:	14000ab6 	b	8f33c <Java_com_adjust_sdk_sig_NativeLibHelper_nOnResume@@Base-0x3c750>
   8c868:	d10023a8 	sub	x8, x29, #0x8
   8c86c:	d288bcc6 	mov	x6, #0x45e6                	// #17894
   8c870:	f85903a2 	ldur	x2, [x29, #-112]
   8c874:	f2a146e6 	movk	x6, #0xa37, lsl #16
   8c878:	f85783a4 	ldur	x4, [x29, #-136]
   8c87c:	f2ce9486 	movk	x6, #0x74a4, lsl #32
   8c880:	f850010f 	ldur	x15, [x8, #-256]
   8c884:	d105e3a8 	sub	x8, x29, #0x178
   8c888:	a93a4fb8 	stp	x24, x19, [x29, #-96]
   8c88c:	2a1b03eb 	mov	w11, w27
   8c890:	f81983b7 	stur	x23, [x29, #-104]
   8c894:	2a1403ec 	mov	w12, w20
   8c898:	f810010f 	stur	x15, [x8, #-256]
   8c89c:	d10483a8 	sub	x8, x29, #0x120
   8c8a0:	aa1a03ed 	mov	x13, x26
   8c8a4:	aa1c03ee 	mov	x14, x28
   8c8a8:	aa1503ef 	mov	x15, x21
   8c8ac:	aa1603f0 	mov	x16, x22
   8c8b0:	f8500107 	ldur	x7, [x8, #-256]
   8c8b4:	d10623a8 	sub	x8, x29, #0x188
   8c8b8:	aa1903f1 	mov	x17, x25
   8c8bc:	aa0503ea 	mov	x10, x5
   8c8c0:	aa0303e9 	mov	x9, x3
   8c8c4:	aa1e03e5 	mov	x5, x30
   8c8c8:	f8100107 	stur	x7, [x8, #-256]
   8c8cc:	d10a23a8 	sub	x8, x29, #0x288
   8c8d0:	f2eee766 	movk	x6, #0x773b, lsl #48
   8c8d4:	f8500100 	ldur	x0, [x8, #-256]
   8c8d8:	d10643a8 	sub	x8, x29, #0x190
   8c8dc:	f8100100 	stur	x0, [x8, #-256]
   8c8e0:	382068ff 	strb	wzr, [x7, x0]
   8c8e4:	17ffeb0b 	b	87510 <Java_com_adjust_sdk_sig_NativeLibHelper_nOnResume@@Base-0x4457c>
   8c8e8:	d00005c8 	adrp	x8, 146000 <getauxval@plt+0xbea0>
   8c8ec:	d29ec26f 	mov	x15, #0xf613                	// #62995
   8c8f0:	d2835f70 	mov	x16, #0x1afb                	// #6907
   8c8f4:	f2beedef 	movk	x15, #0xf76f, lsl #16
   8c8f8:	f2b41a30 	movk	x16, #0xa0d1, lsl #16
   8c8fc:	f2d7bf6f 	movk	x15, #0xbdfb, lsl #32
   8c900:	3959190e 	ldrb	w14, [x8, #1606]
   8c904:	f2c710b0 	movk	x16, #0x3885, lsl #32
   8c908:	a93a4fb8 	stp	x24, x19, [x29, #-96]
   8c90c:	2a1b03eb 	mov	w11, w27
   8c910:	f81983b7 	stur	x23, [x29, #-104]
   8c914:	2a1403ec 	mov	w12, w20
   8c918:	aa1a03ed 	mov	x13, x26
   8c91c:	710001df 	cmp	w14, #0x0
   8c920:	aa1c03ee 	mov	x14, x28
   8c924:	f2f88eef 	movk	x15, #0xc477, lsl #48
   8c928:	f2eda2d0 	movk	x16, #0x6d16, lsl #48
   8c92c:	14000983 	b	8ef38 <Java_com_adjust_sdk_sig_NativeLibHelper_nOnResume@@Base-0x3cb54>
   8c930:	d10023a8 	sub	x8, x29, #0x8
   8c934:	d2991f06 	mov	x6, #0xc8f8                	// #51448
   8c938:	f85803aa 	ldur	x10, [x29, #-128]
   8c93c:	f2b3d7a6 	movk	x6, #0x9ebd, lsl #16
   8c940:	f85903a2 	ldur	x2, [x29, #-112]
   8c944:	f2d0aca6 	movk	x6, #0x8565, lsl #32
   8c948:	f8500100 	ldur	x0, [x8, #-256]
   8c94c:	d107e3a8 	sub	x8, x29, #0x1f8
   8c950:	f85883a9 	ldur	x9, [x29, #-120]
   8c954:	a93a4fb8 	stp	x24, x19, [x29, #-96]
   8c958:	f85783a4 	ldur	x4, [x29, #-136]
   8c95c:	f81983b7 	stur	x23, [x29, #-104]
   8c960:	f8100100 	stur	x0, [x8, #-256]
   8c964:	d103e3a8 	sub	x8, x29, #0xf8
   8c968:	2a1b03eb 	mov	w11, w27
   8c96c:	2a1403ec 	mov	w12, w20
   8c970:	aa1a03ed 	mov	x13, x26
   8c974:	aa1c03ee 	mov	x14, x28
   8c978:	f8500107 	ldur	x7, [x8, #-256]
   8c97c:	d10803a8 	sub	x8, x29, #0x200
   8c980:	aa1503ef 	mov	x15, x21
   8c984:	aa1603f0 	mov	x16, x22
   8c988:	aa1903f1 	mov	x17, x25
   8c98c:	aa1e03e5 	mov	x5, x30
   8c990:	f8100107 	stur	x7, [x8, #-256]
   8c994:	d10963a8 	sub	x8, x29, #0x258
   8c998:	f2e8bee6 	movk	x6, #0x45f7, lsl #48
   8c99c:	f8500100 	ldur	x0, [x8, #-256]
   8c9a0:	d10843a8 	sub	x8, x29, #0x210
   8c9a4:	f8100100 	stur	x0, [x8, #-256]
   8c9a8:	382068ff 	strb	wzr, [x7, x0]
   8c9ac:	17ffead9 	b	87510 <Java_com_adjust_sdk_sig_NativeLibHelper_nOnResume@@Base-0x4457c>
   8c9b0:	d100c3a8 	sub	x8, x29, #0x30
   8c9b4:	d11003a9 	sub	x9, x29, #0x400
   8c9b8:	f8500108 	ldur	x8, [x8, #-256]
   8c9bc:	f8500129 	ldur	x9, [x9, #-256]
   8c9c0:	cb080128 	sub	x8, x9, x8
   8c9c4:	d10b03a9 	sub	x9, x29, #0x2c0
   8c9c8:	91000500 	add	x0, x8, #0x1
   8c9cc:	f8100128 	stur	x8, [x9, #-256]
   8c9d0:	9402b514 	bl	139e20 <malloc@plt>
   8c9d4:	d10543a8 	sub	x8, x29, #0x150
   8c9d8:	d29df94b 	mov	x11, #0xefca                	// #61386
   8c9dc:	d299cfec 	mov	x12, #0xce7f                	// #52863
   8c9e0:	f2b2e54b 	movk	x11, #0x972a, lsl #16
   8c9e4:	f2bbe14c 	movk	x12, #0xdf0a, lsl #16
   8c9e8:	f2c78c8b 	movk	x11, #0x3c64, lsl #32
   8c9ec:	f2d4170c 	movk	x12, #0xa0b8, lsl #32
   8c9f0:	a93a4fb8 	stp	x24, x19, [x29, #-96]
   8c9f4:	f8100100 	stur	x0, [x8, #-256]
   8c9f8:	f100001f 	cmp	x0, #0x0
   8c9fc:	f81983b7 	stur	x23, [x29, #-104]
   8ca00:	f2f8c20b 	movk	x11, #0xc610, lsl #48
   8ca04:	f2e5a0cc 	movk	x12, #0x2d06, lsl #48
   8ca08:	14000a48 	b	8f328 <Java_com_adjust_sdk_sig_NativeLibHelper_nOnResume@@Base-0x3c764>
   8ca0c:	2a1f03e0 	mov	w0, wzr
   8ca10:	52800021 	mov	w1, #0x1                   	// #1
   8ca14:	d503201f 	nop
   8ca18:	105cd9c2 	adr	x2, 146550 <getauxval@plt+0xc3f0>
   8ca1c:	9402b379 	bl	139800 <Java_com_adjust_sdk_sig_NativeLibHelper_nSign@@Base+0x6d1fc>
   8ca20:	d281f4cb 	mov	x11, #0xfa6                 	// #4006
   8ca24:	d29f7a4c 	mov	x12, #0xfbd2                	// #64466
   8ca28:	f2a9aa6b 	movk	x11, #0x4d53, lsl #16
   8ca2c:	f2b1c70c 	movk	x12, #0x8e38, lsl #16
   8ca30:	f2d8912b 	movk	x11, #0xc489, lsl #32
   8ca34:	f2dfd82c 	movk	x12, #0xfec1, lsl #32
   8ca38:	a93a4fb8 	stp	x24, x19, [x29, #-96]
   8ca3c:	7100001f 	cmp	w0, #0x0
   8ca40:	f81983b7 	stur	x23, [x29, #-104]
   8ca44:	f2e26e0b 	movk	x11, #0x1370, lsl #48
   8ca48:	f2ff746c 	movk	x12, #0xfba3, lsl #48
   8ca4c:	14000a37 	b	8f328 <Java_com_adjust_sdk_sig_NativeLibHelper_nOnResume@@Base-0x3c764>
   8ca50:	d10123a8 	sub	x8, x29, #0x48
   8ca54:	f8500108 	ldur	x8, [x8, #-256]
   8ca58:	f9400102 	ldr	x2, [x8]
   8ca5c:	d10083a8 	sub	x8, x29, #0x20
   8ca60:	f8500100 	ldur	x0, [x8, #-256]
   8ca64:	d10043a8 	sub	x8, x29, #0x10
   8ca68:	f8500101 	ldur	x1, [x8, #-256]
   8ca6c:	d10183a8 	sub	x8, x29, #0x60
   8ca70:	f8500103 	ldur	x3, [x8, #-256]
   8ca74:	9400cae2 	bl	bf5fc <Java_com_adjust_sdk_sig_NativeLibHelper_nOnResume@@Base-0xc490>
   8ca78:	d10083a8 	sub	x8, x29, #0x20
   8ca7c:	d28528ef 	mov	x15, #0x2947                	// #10567
   8ca80:	d298ffb0 	mov	x16, #0xc7fd                	// #51197
   8ca84:	f2ba90af 	movk	x15, #0xd485, lsl #16
   8ca88:	f2abef50 	movk	x16, #0x5f7a, lsl #16
   8ca8c:	f2d8cf4f 	movk	x15, #0xc67a, lsl #32
   8ca90:	f8500108 	ldur	x8, [x8, #-256]
   8ca94:	f2c378f0 	movk	x16, #0x1bc7, lsl #32
   8ca98:	2a1b03eb 	mov	w11, w27
   8ca9c:	2a1403ec 	mov	w12, w20
   8caa0:	aa1a03ed 	mov	x13, x26
   8caa4:	f2eb820f 	movk	x15, #0x5c10, lsl #48
   8caa8:	b940010e 	ldr	w14, [x8]
   8caac:	f2faf710 	movk	x16, #0xd7b8, lsl #48
   8cab0:	a93a4fb8 	stp	x24, x19, [x29, #-96]
   8cab4:	f81983b7 	stur	x23, [x29, #-104]
   8cab8:	14000870 	b	8ec78 <Java_com_adjust_sdk_sig_NativeLibHelper_nOnResume@@Base-0x3ce14>
   8cabc:	2a1f03e0 	mov	w0, wzr
   8cac0:	52800021 	mov	w1, #0x1                   	// #1
   8cac4:	d503201f 	nop
   8cac8:	105cd5e2 	adr	x2, 146584 <getauxval@plt+0xc424>
   8cacc:	9402b34d 	bl	139800 <Java_com_adjust_sdk_sig_NativeLibHelper_nSign@@Base+0x6d1fc>
   8cad0:	d286c3cb 	mov	x11, #0x361e                	// #13854
   8cad4:	d28a2d2c 	mov	x12, #0x5169                	// #20841
   8cad8:	f2b3a94b 	movk	x11, #0x9d4a, lsl #16
   8cadc:	f2ad3a2c 	movk	x12, #0x69d1, lsl #16
   8cae0:	f2d5dd4b 	movk	x11, #0xaeea, lsl #32
   8cae4:	f2c0046c 	movk	x12, #0x23, lsl #32
   8cae8:	a93a4fb8 	stp	x24, x19, [x29, #-96]
   8caec:	7100001f 	cmp	w0, #0x0
   8caf0:	f81983b7 	stur	x23, [x29, #-104]
   8caf4:	f2e2b0ab 	movk	x11, #0x1585, lsl #48
   8caf8:	f2fe6f4c 	movk	x12, #0xf37a, lsl #48
   8cafc:	14000a0b 	b	8f328 <Java_com_adjust_sdk_sig_NativeLibHelper_nOnResume@@Base-0x3c764>
   8cb00:	d10fe3a8 	sub	x8, x29, #0x3f8
   8cb04:	d10503a9 	sub	x9, x29, #0x140
   8cb08:	d28da0e6 	mov	x6, #0x6d07                	// #27911
   8cb0c:	f85903a2 	ldur	x2, [x29, #-112]
   8cb10:	f2aed3e6 	movk	x6, #0x769f, lsl #16
   8cb14:	a93a4fb8 	stp	x24, x19, [x29, #-96]
   8cb18:	f850010a 	ldur	x10, [x8, #-256]
   8cb1c:	d10fc3a8 	sub	x8, x29, #0x3f0
   8cb20:	f2df5726 	movk	x6, #0xfab9, lsl #32
   8cb24:	f81983b7 	stur	x23, [x29, #-104]
   8cb28:	2a1b03eb 	mov	w11, w27
   8cb2c:	2a1403ec 	mov	w12, w20
   8cb30:	f8500107 	ldur	x7, [x8, #-256]
   8cb34:	d10fa3a8 	sub	x8, x29, #0x3e8
   8cb38:	38401540 	ldrb	w0, [x10], #1
   8cb3c:	aa1a03ed 	mov	x13, x26
   8cb40:	aa1c03ee 	mov	x14, x28
   8cb44:	f8500108 	ldur	x8, [x8, #-256]
   8cb48:	aa1503ef 	mov	x15, x21
   8cb4c:	aa1603f0 	mov	x16, x22
   8cb50:	aa1903f1 	mov	x17, x25
   8cb54:	f2eeff06 	movk	x6, #0x77f8, lsl #48
   8cb58:	d1000508 	sub	x8, x8, #0x1
   8cb5c:	380014e0 	strb	w0, [x7], #1
   8cb60:	f8100128 	stur	x8, [x9, #-256]
   8cb64:	d104a3a8 	sub	x8, x29, #0x128
   8cb68:	aa0503e9 	mov	x9, x5
   8cb6c:	aa1e03e5 	mov	x5, x30
   8cb70:	f810010a 	stur	x10, [x8, #-256]
   8cb74:	d104c3a8 	sub	x8, x29, #0x130
   8cb78:	a977aba4 	ldp	x4, x10, [x29, #-136]
   8cb7c:	f8100107 	stur	x7, [x8, #-256]
   8cb80:	17ffea64 	b	87510 <Java_com_adjust_sdk_sig_NativeLibHelper_nOnResume@@Base-0x4457c>
   8cb84:	2a1f03e0 	mov	w0, wzr
   8cb88:	52800021 	mov	w1, #0x1                   	// #1
   8cb8c:	d503201f 	nop
   8cb90:	105ccea2 	adr	x2, 146564 <getauxval@plt+0xc404>
   8cb94:	9402b31b 	bl	139800 <Java_com_adjust_sdk_sig_NativeLibHelper_nSign@@Base+0x6d1fc>
   8cb98:	d28d1beb 	mov	x11, #0x68df                	// #26847
   8cb9c:	d29cbb8c 	mov	x12, #0xe5dc                	// #58844
   8cba0:	f2bac88b 	movk	x11, #0xd644, lsl #16
   8cba4:	f2aa28cc 	movk	x12, #0x5146, lsl #16
   8cba8:	f2d4de4b 	movk	x11, #0xa6f2, lsl #32
   8cbac:	f2d46b4c 	movk	x12, #0xa35a, lsl #32
   8cbb0:	a93a4fb8 	stp	x24, x19, [x29, #-96]
   8cbb4:	7100001f 	cmp	w0, #0x0
   8cbb8:	f81983b7 	stur	x23, [x29, #-104]
   8cbbc:	f2e8d2ab 	movk	x11, #0x4695, lsl #48
   8cbc0:	f2e7f16c 	movk	x12, #0x3f8b, lsl #48
   8cbc4:	140009b0 	b	8f284 <Java_com_adjust_sdk_sig_NativeLibHelper_nOnResume@@Base-0x3c808>
   8cbc8:	aa1303eb 	mov	x11, x19
   8cbcc:	d10163a8 	sub	x8, x29, #0x58
   8cbd0:	d2827c11 	mov	x17, #0x13e0                	// #5088
   8cbd4:	d28284e0 	mov	x0, #0x1427                	// #5159
   8cbd8:	f2aa4c31 	movk	x17, #0x5261, lsl #16
   8cbdc:	f2bbce00 	movk	x0, #0xde70, lsl #16
   8cbe0:	38401570 	ldrb	w16, [x11], #1
   8cbe4:	f810010b 	stur	x11, [x8, #-256]
   8cbe8:	d11003a8 	sub	x8, x29, #0x400
   8cbec:	f2d43e51 	movk	x17, #0xa1f2, lsl #32
   8cbf0:	f2c24d60 	movk	x0, #0x126b, lsl #32
   8cbf4:	f85803aa 	ldur	x10, [x29, #-128]
   8cbf8:	7100021f 	cmp	w16, #0x0
   8cbfc:	f85903a2 	ldur	x2, [x29, #-112]
   8cc00:	f2ef8811 	movk	x17, #0x7c40, lsl #48
   8cc04:	f2e3a940 	movk	x0, #0x1d4a, lsl #48
   8cc08:	a93a4fb8 	stp	x24, x19, [x29, #-96]
   8cc0c:	f81983b7 	stur	x23, [x29, #-104]
   8cc10:	2a1b03eb 	mov	w11, w27
   8cc14:	2a1403ec 	mov	w12, w20
   8cc18:	aa1a03ed 	mov	x13, x26
   8cc1c:	aa1c03ee 	mov	x14, x28
   8cc20:	aa1503ef 	mov	x15, x21
   8cc24:	aa1603f0 	mov	x16, x22
   8cc28:	9a910006 	csel	x6, x0, x17, eq	// eq = none
   8cc2c:	aa1903f1 	mov	x17, x25
   8cc30:	f8100113 	stur	x19, [x8, #-256]
   8cc34:	14000937 	b	8f110 <Java_com_adjust_sdk_sig_NativeLibHelper_nOnResume@@Base-0x3c97c>
   8cc38:	d101e3a8 	sub	x8, x29, #0x78
   8cc3c:	12800003 	mov	w3, #0xffffffff            	// #-1
   8cc40:	f8500108 	ldur	x8, [x8, #-256]
   8cc44:	f9400102 	ldr	x2, [x8]
   8cc48:	d10083a8 	sub	x8, x29, #0x20
   8cc4c:	f8500100 	ldur	x0, [x8, #-256]
   8cc50:	d10043a8 	sub	x8, x29, #0x10
   8cc54:	f8500101 	ldur	x1, [x8, #-256]
   8cc58:	d10103a8 	sub	x8, x29, #0x40
   8cc5c:	f8500104 	ldur	x4, [x8, #-256]
   8cc60:	9400cd48 	bl	c0180 <Java_com_adjust_sdk_sig_NativeLibHelper_nOnResume@@Base-0xb90c>
   8cc64:	d10083a8 	sub	x8, x29, #0x20
   8cc68:	d29cf4ef 	mov	x15, #0xe7a7                	// #59303
   8cc6c:	d29f41f0 	mov	x16, #0xfa0f                	// #64015
   8cc70:	f2aefa8f 	movk	x15, #0x77d4, lsl #16
   8cc74:	f2ae98d0 	movk	x16, #0x74c6, lsl #16
   8cc78:	f2dc80ef 	movk	x15, #0xe407, lsl #32
   8cc7c:	f8500108 	ldur	x8, [x8, #-256]
   8cc80:	f2c5a850 	movk	x16, #0x2d42, lsl #32
   8cc84:	a93a4fb8 	stp	x24, x19, [x29, #-96]
   8cc88:	2a1b03eb 	mov	w11, w27
   8cc8c:	f81983b7 	stur	x23, [x29, #-104]
   8cc90:	2a1403ec 	mov	w12, w20
   8cc94:	b940010e 	ldr	w14, [x8]
   8cc98:	aa1a03ed 	mov	x13, x26
   8cc9c:	f2f9d78f 	movk	x15, #0xcebc, lsl #48
   8cca0:	f2e95ed0 	movk	x16, #0x4af6, lsl #48
   8cca4:	140007f5 	b	8ec78 <Java_com_adjust_sdk_sig_NativeLibHelper_nOnResume@@Base-0x3ce14>
   8cca8:	d10023a9 	sub	x9, x29, #0x8
   8ccac:	d29e78c6 	mov	x6, #0xf3c6                	// #62406
   8ccb0:	f85903a2 	ldur	x2, [x29, #-112]
   8ccb4:	f2af4426 	movk	x6, #0x7a21, lsl #16
   8ccb8:	f2ca6806 	movk	x6, #0x5340, lsl #32
   8ccbc:	a93a4fb8 	stp	x24, x19, [x29, #-96]
   8ccc0:	f8500120 	ldur	x0, [x9, #-256]
   8ccc4:	d10783a9 	sub	x9, x29, #0x1e0
   8ccc8:	f81983b7 	stur	x23, [x29, #-104]
   8cccc:	2a1b03eb 	mov	w11, w27
   8ccd0:	2a1403ec 	mov	w12, w20
   8ccd4:	aa1a03ed 	mov	x13, x26
   8ccd8:	f8100120 	stur	x0, [x9, #-256]
   8ccdc:	d10403a9 	sub	x9, x29, #0x100
   8cce0:	aa1c03ee 	mov	x14, x28
   8cce4:	aa1503ef 	mov	x15, x21
   8cce8:	aa1603f0 	mov	x16, x22
   8ccec:	aa1903f1 	mov	x17, x25
   8ccf0:	f8500127 	ldur	x7, [x9, #-256]
   8ccf4:	d107a3a9 	sub	x9, x29, #0x1e8
   8ccf8:	aa1e03e5 	mov	x5, x30
   8ccfc:	f2fbdb86 	movk	x6, #0xdedc, lsl #48
   8cd00:	f8100127 	stur	x7, [x9, #-256]
   8cd04:	d10983a9 	sub	x9, x29, #0x260
   8cd08:	f8500120 	ldur	x0, [x9, #-256]
   8cd0c:	d107c3a9 	sub	x9, x29, #0x1f0
   8cd10:	f8100120 	stur	x0, [x9, #-256]
   8cd14:	aa0803e9 	mov	x9, x8
   8cd18:	382068ff 	strb	wzr, [x7, x0]
   8cd1c:	17ffe9fd 	b	87510 <Java_com_adjust_sdk_sig_NativeLibHelper_nOnResume@@Base-0x4457c>
   8cd20:	d10043a8 	sub	x8, x29, #0x10
   8cd24:	d10c43a9 	sub	x9, x29, #0x310
   8cd28:	f8500100 	ldur	x0, [x8, #-256]
   8cd2c:	f8500121 	ldur	x1, [x9, #-256]
   8cd30:	f9400008 	ldr	x8, [x0]
   8cd34:	f9405d08 	ldr	x8, [x8, #184]
   8cd38:	d63f0100 	blr	x8
   8cd3c:	a97827aa 	ldp	x10, x9, [x29, #-128]
   8cd40:	d28dcea6 	mov	x6, #0x6e75                	// #28277
   8cd44:	a93a4fb8 	stp	x24, x19, [x29, #-96]
   8cd48:	a97713a5 	ldp	x5, x4, [x29, #-144]
   8cd4c:	f2bf58c6 	movk	x6, #0xfac6, lsl #16
   8cd50:	f81983b7 	stur	x23, [x29, #-104]
   8cd54:	f85903a2 	ldur	x2, [x29, #-112]
   8cd58:	f2c3ad86 	movk	x6, #0x1d6c, lsl #32
   8cd5c:	2a1b03eb 	mov	w11, w27
   8cd60:	2a1403ec 	mov	w12, w20
   8cd64:	aa1a03ed 	mov	x13, x26
   8cd68:	aa1c03ee 	mov	x14, x28
   8cd6c:	aa1503ef 	mov	x15, x21
   8cd70:	aa1603f0 	mov	x16, x22
   8cd74:	aa1903f1 	mov	x17, x25
   8cd78:	f2f96c86 	movk	x6, #0xcb64, lsl #48
   8cd7c:	17ffe9e5 	b	87510 <Java_com_adjust_sdk_sig_NativeLibHelper_nOnResume@@Base-0x4457c>
   8cd80:	d10063a8 	sub	x8, x29, #0x18
   8cd84:	d28d9326 	mov	x6, #0x6c99                	// #27801
   8cd88:	a97827aa 	ldp	x10, x9, [x29, #-128]
   8cd8c:	f2a21506 	movk	x6, #0x10a8, lsl #16
   8cd90:	a93a4fb8 	stp	x24, x19, [x29, #-96]
   8cd94:	f8500100 	ldur	x0, [x8, #-256]
   8cd98:	f2cc6d06 	movk	x6, #0x6368, lsl #32
   8cd9c:	f85903a2 	ldur	x2, [x29, #-112]
   8cda0:	f81983b7 	stur	x23, [x29, #-104]
   8cda4:	f85783a4 	ldur	x4, [x29, #-136]
   8cda8:	2a1b03eb 	mov	w11, w27
   8cdac:	5280004c 	mov	w12, #0x2                   	// #2
   8cdb0:	aa1a03ed 	mov	x13, x26
   8cdb4:	aa1c03ee 	mov	x14, x28
   8cdb8:	aa1503ef 	mov	x15, x21
   8cdbc:	aa1603f0 	mov	x16, x22
   8cdc0:	aa1903f1 	mov	x17, x25
   8cdc4:	aa1e03e5 	mov	x5, x30
   8cdc8:	f2e74366 	movk	x6, #0x3a1b, lsl #48
   8cdcc:	f900081f 	str	xzr, [x0, #16]
   8cdd0:	17ffe9d0 	b	87510 <Java_com_adjust_sdk_sig_NativeLibHelper_nOnResume@@Base-0x4457c>
   8cdd4:	d10503aa 	sub	x10, x29, #0x140
   8cdd8:	d28e7aab 	mov	x11, #0x73d5                	// #29653
   8cddc:	f2a1a9eb 	movk	x11, #0xd4f, lsl #16
   8cde0:	f85903a2 	ldur	x2, [x29, #-112]
   8cde4:	f2c9838b 	movk	x11, #0x4c1c, lsl #32
   8cde8:	a93a4fb8 	stp	x24, x19, [x29, #-96]
   8cdec:	f8500140 	ldur	x0, [x10, #-256]
   8cdf0:	d28ad14a 	mov	x10, #0x568a                	// #22154
   8cdf4:	f2ae8dea 	movk	x10, #0x746f, lsl #16
   8cdf8:	f2f368eb 	movk	x11, #0x9b47, lsl #48
   8cdfc:	f2c46a0a 	movk	x10, #0x2350, lsl #32
   8ce00:	f81983b7 	stur	x23, [x29, #-104]
   8ce04:	f100001f 	cmp	x0, #0x0
   8ce08:	f2f2f86a 	movk	x10, #0x97c3, lsl #48
   8ce0c:	9a8a0166 	csel	x6, x11, x10, eq	// eq = none
   8ce10:	aa0903ea 	mov	x10, x9
   8ce14:	d10fa3a9 	sub	x9, x29, #0x3e8
   8ce18:	2a1b03eb 	mov	w11, w27
   8ce1c:	2a1403ec 	mov	w12, w20
   8ce20:	aa1a03ed 	mov	x13, x26
   8ce24:	aa1c03ee 	mov	x14, x28
   8ce28:	aa1503ef 	mov	x15, x21
   8ce2c:	f8100120 	stur	x0, [x9, #-256]
   8ce30:	d104c3a9 	sub	x9, x29, #0x130
   8ce34:	aa1603f0 	mov	x16, x22
   8ce38:	aa1903f1 	mov	x17, x25
   8ce3c:	aa1e03e5 	mov	x5, x30
   8ce40:	f8500120 	ldur	x0, [x9, #-256]
   8ce44:	d10fc3a9 	sub	x9, x29, #0x3f0
   8ce48:	f8100120 	stur	x0, [x9, #-256]
   8ce4c:	d104a3a9 	sub	x9, x29, #0x128
   8ce50:	f8500120 	ldur	x0, [x9, #-256]
   8ce54:	d10fe3a9 	sub	x9, x29, #0x3f8
   8ce58:	f8100120 	stur	x0, [x9, #-256]
   8ce5c:	aa0803e9 	mov	x9, x8
   8ce60:	17ffe9ac 	b	87510 <Java_com_adjust_sdk_sig_NativeLibHelper_nOnResume@@Base-0x4457c>
   8ce64:	d00005c8 	adrp	x8, 146000 <getauxval@plt+0xbea0>
   8ce68:	d293854f 	mov	x15, #0x9c2a                	// #39978
   8ce6c:	d283c2d0 	mov	x16, #0x1e16                	// #7702
   8ce70:	f2af700f 	movk	x15, #0x7b80, lsl #16
   8ce74:	f2ba9910 	movk	x16, #0xd4c8, lsl #16
   8ce78:	f2d5576f 	movk	x15, #0xaabb, lsl #32
   8ce7c:	395c250e 	ldrb	w14, [x8, #1801]
   8ce80:	f2d1fd30 	movk	x16, #0x8fe9, lsl #32
   8ce84:	f2fa6d8f 	movk	x15, #0xd36c, lsl #48
   8ce88:	f2e3ac30 	movk	x16, #0x1d61, lsl #48
   8ce8c:	2a1b03eb 	mov	w11, w27
   8ce90:	2a1403ec 	mov	w12, w20
   8ce94:	710001df 	cmp	w14, #0x0
   8ce98:	aa1a03ed 	mov	x13, x26
   8ce9c:	aa1c03ee 	mov	x14, x28
   8cea0:	9a8f1206 	csel	x6, x16, x15, ne	// ne = any
   8cea4:	aa1503ef 	mov	x15, x21
   8cea8:	a93a4fb8 	stp	x24, x19, [x29, #-96]
   8ceac:	f81983b7 	stur	x23, [x29, #-104]
   8ceb0:	140001dc 	b	8d620 <Java_com_adjust_sdk_sig_NativeLibHelper_nOnResume@@Base-0x3e46c>
   8ceb4:	d10ee3a8 	sub	x8, x29, #0x3b8
   8ceb8:	d10643a9 	sub	x9, x29, #0x190
   8cebc:	d288bcc6 	mov	x6, #0x45e6                	// #17894
   8cec0:	f85903a2 	ldur	x2, [x29, #-112]
   8cec4:	f85783a4 	ldur	x4, [x29, #-136]
   8cec8:	f2a146e6 	movk	x6, #0xa37, lsl #16
   8cecc:	f850010a 	ldur	x10, [x8, #-256]
   8ced0:	d10ec3a8 	sub	x8, x29, #0x3b0
   8ced4:	f2ce9486 	movk	x6, #0x74a4, lsl #32
   8ced8:	a93a4fb8 	stp	x24, x19, [x29, #-96]
   8cedc:	f81983b7 	stur	x23, [x29, #-104]
   8cee0:	2a1b03eb 	mov	w11, w27
   8cee4:	f8500107 	ldur	x7, [x8, #-256]
   8cee8:	d10ea3a8 	sub	x8, x29, #0x3a8
   8ceec:	38401540 	ldrb	w0, [x10], #1
   8cef0:	2a1403ec 	mov	w12, w20
   8cef4:	aa1a03ed 	mov	x13, x26
   8cef8:	f8500108 	ldur	x8, [x8, #-256]
   8cefc:	aa1c03ee 	mov	x14, x28
   8cf00:	aa1503ef 	mov	x15, x21
   8cf04:	aa1603f0 	mov	x16, x22
   8cf08:	aa1903f1 	mov	x17, x25
   8cf0c:	aa1e03e5 	mov	x5, x30
   8cf10:	d1000508 	sub	x8, x8, #0x1
   8cf14:	f2eee766 	movk	x6, #0x773b, lsl #48
   8cf18:	380014e0 	strb	w0, [x7], #1
   8cf1c:	f8100128 	stur	x8, [x9, #-256]
   8cf20:	d105e3a8 	sub	x8, x29, #0x178
   8cf24:	f810010a 	stur	x10, [x8, #-256]
   8cf28:	d10623a8 	sub	x8, x29, #0x188
   8cf2c:	a97827aa 	ldp	x10, x9, [x29, #-128]
   8cf30:	f8100107 	stur	x7, [x8, #-256]
   8cf34:	17ffe977 	b	87510 <Java_com_adjust_sdk_sig_NativeLibHelper_nOnResume@@Base-0x4457c>
   8cf38:	d10063a8 	sub	x8, x29, #0x18
   8cf3c:	d28d9326 	mov	x6, #0x6c99                	// #27801
   8cf40:	f85903a2 	ldur	x2, [x29, #-112]
   8cf44:	f2a21506 	movk	x6, #0x10a8, lsl #16
   8cf48:	f85783a4 	ldur	x4, [x29, #-136]
   8cf4c:	f2cc6d06 	movk	x6, #0x6368, lsl #32
   8cf50:	f8500100 	ldur	x0, [x8, #-256]
   8cf54:	a93a4fb8 	stp	x24, x19, [x29, #-96]
   8cf58:	f81983b7 	stur	x23, [x29, #-104]
   8cf5c:	2a1b03eb 	mov	w11, w27
   8cf60:	5280004c 	mov	w12, #0x2                   	// #2
   8cf64:	aa1a03ed 	mov	x13, x26
   8cf68:	aa1c03ee 	mov	x14, x28
   8cf6c:	aa1503ef 	mov	x15, x21
   8cf70:	aa1603f0 	mov	x16, x22
   8cf74:	aa1903f1 	mov	x17, x25
   8cf78:	aa0503ea 	mov	x10, x5
   8cf7c:	aa0303e9 	mov	x9, x3
   8cf80:	aa1e03e5 	mov	x5, x30
   8cf84:	f2e74366 	movk	x6, #0x3a1b, lsl #48
   8cf88:	f900281f 	str	xzr, [x0, #80]
   8cf8c:	17ffe961 	b	87510 <Java_com_adjust_sdk_sig_NativeLibHelper_nOnResume@@Base-0x4457c>
   8cf90:	d110e3a8 	sub	x8, x29, #0x438
   8cf94:	d10383a9 	sub	x9, x29, #0xe0
   8cf98:	d298f946 	mov	x6, #0xc7ca                	// #51146
   8cf9c:	f85903a2 	ldur	x2, [x29, #-112]
   8cfa0:	f85783a4 	ldur	x4, [x29, #-136]
   8cfa4:	f2af6286 	movk	x6, #0x7b14, lsl #16
   8cfa8:	f850010a 	ldur	x10, [x8, #-256]
   8cfac:	d110c3a8 	sub	x8, x29, #0x430
   8cfb0:	f2d89466 	movk	x6, #0xc4a3, lsl #32
   8cfb4:	a93a4fb8 	stp	x24, x19, [x29, #-96]
   8cfb8:	f81983b7 	stur	x23, [x29, #-104]
   8cfbc:	2a1b03eb 	mov	w11, w27
   8cfc0:	f8500107 	ldur	x7, [x8, #-256]
   8cfc4:	d110a3a8 	sub	x8, x29, #0x428
   8cfc8:	38401540 	ldrb	w0, [x10], #1
   8cfcc:	2a1403ec 	mov	w12, w20
   8cfd0:	aa1a03ed 	mov	x13, x26
   8cfd4:	f8500108 	ldur	x8, [x8, #-256]
   8cfd8:	aa1c03ee 	mov	x14, x28
   8cfdc:	aa1503ef 	mov	x15, x21
   8cfe0:	aa1603f0 	mov	x16, x22
   8cfe4:	aa1903f1 	mov	x17, x25
   8cfe8:	aa1e03e5 	mov	x5, x30
   8cfec:	d1000508 	sub	x8, x8, #0x1
   8cff0:	f2fef326 	movk	x6, #0xf799, lsl #48
   8cff4:	380014e0 	strb	w0, [x7], #1
   8cff8:	f8100128 	stur	x8, [x9, #-256]
   8cffc:	d10343a8 	sub	x8, x29, #0xd0
   8d000:	f810010a 	stur	x10, [x8, #-256]
   8d004:	d10363a8 	sub	x8, x29, #0xd8
   8d008:	a97827aa 	ldp	x10, x9, [x29, #-128]
   8d00c:	f8100107 	stur	x7, [x8, #-256]
   8d010:	17ffe940 	b	87510 <Java_com_adjust_sdk_sig_NativeLibHelper_nOnResume@@Base-0x4457c>
   8d014:	d100c3a8 	sub	x8, x29, #0x30
   8d018:	d10f83a9 	sub	x9, x29, #0x3e0
   8d01c:	f8500108 	ldur	x8, [x8, #-256]
   8d020:	f8500129 	ldur	x9, [x9, #-256]
   8d024:	cb080128 	sub	x8, x9, x8
   8d028:	d10ac3a9 	sub	x9, x29, #0x2b0
   8d02c:	91000500 	add	x0, x8, #0x1
   8d030:	f8100128 	stur	x8, [x9, #-256]
   8d034:	9402b37b 	bl	139e20 <malloc@plt>
   8d038:	d10523a8 	sub	x8, x29, #0x148
   8d03c:	d29fd44b 	mov	x11, #0xfea2                	// #65186
   8d040:	d281952c 	mov	x12, #0xca9                 	// #3241
   8d044:	f2bf084b 	movk	x11, #0xf842, lsl #16
   8d048:	f2b1588c 	movk	x12, #0x8ac4, lsl #16
   8d04c:	f2c4eeab 	movk	x11, #0x2775, lsl #32
   8d050:	f2d6d9ec 	movk	x12, #0xb6cf, lsl #32
   8d054:	a93a4fb8 	stp	x24, x19, [x29, #-96]
   8d058:	f8100100 	stur	x0, [x8, #-256]
   8d05c:	f100001f 	cmp	x0, #0x0
   8d060:	f81983b7 	stur	x23, [x29, #-104]
   8d064:	f2fd6fcb 	movk	x11, #0xeb7e, lsl #48
   8d068:	f2eb822c 	movk	x12, #0x5c11, lsl #48
   8d06c:	140008af 	b	8f328 <Java_com_adjust_sdk_sig_NativeLibHelper_nOnResume@@Base-0x3c764>
   8d070:	d10b63a8 	sub	x8, x29, #0x2d8
   8d074:	d10883a9 	sub	x9, x29, #0x220
   8d078:	d287f9e6 	mov	x6, #0x3fcf                	// #16335
   8d07c:	f85903a2 	ldur	x2, [x29, #-112]
   8d080:	f85783a4 	ldur	x4, [x29, #-136]
   8d084:	f2ae03c6 	movk	x6, #0x701e, lsl #16
   8d088:	f850010a 	ldur	x10, [x8, #-256]
   8d08c:	d10b43a8 	sub	x8, x29, #0x2d0
   8d090:	f2ce9306 	movk	x6, #0x7498, lsl #32
   8d094:	a93a4fb8 	stp	x24, x19, [x29, #-96]
   8d098:	f81983b7 	stur	x23, [x29, #-104]
   8d09c:	2a1b03eb 	mov	w11, w27
   8d0a0:	f8500107 	ldur	x7, [x8, #-256]
   8d0a4:	d10b23a8 	sub	x8, x29, #0x2c8
   8d0a8:	38401540 	ldrb	w0, [x10], #1
   8d0ac:	2a1403ec 	mov	w12, w20
   8d0b0:	aa1a03ed 	mov	x13, x26
   8d0b4:	f8500108 	ldur	x8, [x8, #-256]
   8d0b8:	aa1c03ee 	mov	x14, x28
   8d0bc:	aa1503ef 	mov	x15, x21
   8d0c0:	aa1603f0 	mov	x16, x22
   8d0c4:	aa1903f1 	mov	x17, x25
   8d0c8:	aa1e03e5 	mov	x5, x30
   8d0cc:	d1000508 	sub	x8, x8, #0x1
   8d0d0:	f2e889c6 	movk	x6, #0x444e, lsl #48
   8d0d4:	380014e0 	strb	w0, [x7], #1
   8d0d8:	f8100128 	stur	x8, [x9, #-256]
   8d0dc:	d10823a8 	sub	x8, x29, #0x208
   8d0e0:	f810010a 	stur	x10, [x8, #-256]
   8d0e4:	d10863a8 	sub	x8, x29, #0x218
   8d0e8:	a97827aa 	ldp	x10, x9, [x29, #-128]
   8d0ec:	f8100107 	stur	x7, [x8, #-256]
   8d0f0:	17ffe908 	b	87510 <Java_com_adjust_sdk_sig_NativeLibHelper_nOnResume@@Base-0x4457c>
   8d0f4:	d10183a8 	sub	x8, x29, #0x60
   8d0f8:	f8500108 	ldur	x8, [x8, #-256]
   8d0fc:	f9400101 	ldr	x1, [x8]
   8d100:	d10043a8 	sub	x8, x29, #0x10
   8d104:	f8500100 	ldur	x0, [x8, #-256]
   8d108:	d10be3a8 	sub	x8, x29, #0x2f8
   8d10c:	f8500102 	ldur	x2, [x8, #-256]
   8d110:	94001fc4 	bl	95020 <Java_com_adjust_sdk_sig_NativeLibHelper_nOnResume@@Base-0x36a6c>
   8d114:	a97827aa 	ldp	x10, x9, [x29, #-128]
   8d118:	d286c726 	mov	x6, #0x3639                	// #13881
   8d11c:	a93a4fb8 	stp	x24, x19, [x29, #-96]
   8d120:	a97713a5 	ldp	x5, x4, [x29, #-144]
   8d124:	f2ab5146 	movk	x6, #0x5a8a, lsl #16
   8d128:	f81983b7 	stur	x23, [x29, #-104]
   8d12c:	f85903a2 	ldur	x2, [x29, #-112]
   8d130:	f2ce37c6 	movk	x6, #0x71be, lsl #32
   8d134:	2a1b03eb 	mov	w11, w27
   8d138:	2a1403ec 	mov	w12, w20
   8d13c:	aa1a03ed 	mov	x13, x26
   8d140:	aa1c03ee 	mov	x14, x28
   8d144:	aa1503ef 	mov	x15, x21
   8d148:	aa1603f0 	mov	x16, x22
   8d14c:	aa1903f1 	mov	x17, x25
   8d150:	f2f26466 	movk	x6, #0x9323, lsl #48
   8d154:	17ffe8ef 	b	87510 <Java_com_adjust_sdk_sig_NativeLibHelper_nOnResume@@Base-0x4457c>
   8d158:	d503201f 	nop
   8d15c:	105c9f08 	adr	x8, 14653c <getauxval@plt+0xc3dc>
   8d160:	d100a3a9 	sub	x9, x29, #0x28
   8d164:	089ffd1f 	stlrb	wzr, [x8]
   8d168:	d10043e8 	sub	x8, sp, #0x10
   8d16c:	f8100128 	stur	x8, [x9, #-256]
   8d170:	9100011f 	mov	sp, x8
   8d174:	d10043e8 	sub	x8, sp, #0x10
   8d178:	d10203a9 	sub	x9, x29, #0x80
   8d17c:	f8100128 	stur	x8, [x9, #-256]
   8d180:	9100011f 	mov	sp, x8
   8d184:	d10043e8 	sub	x8, sp, #0x10
   8d188:	d100e3a9 	sub	x9, x29, #0x38
   8d18c:	f8100128 	stur	x8, [x9, #-256]
   8d190:	9100011f 	mov	sp, x8
   8d194:	d10043e8 	sub	x8, sp, #0x10
   8d198:	d10083a9 	sub	x9, x29, #0x20
   8d19c:	f8100128 	stur	x8, [x9, #-256]
   8d1a0:	9100011f 	mov	sp, x8
   8d1a4:	d10043e8 	sub	x8, sp, #0x10
   8d1a8:	d101e3a9 	sub	x9, x29, #0x78
   8d1ac:	f8100128 	stur	x8, [x9, #-256]
   8d1b0:	9100011f 	mov	sp, x8
   8d1b4:	d10043e8 	sub	x8, sp, #0x10
   8d1b8:	d10103a9 	sub	x9, x29, #0x40
   8d1bc:	f8100128 	stur	x8, [x9, #-256]
   8d1c0:	9100011f 	mov	sp, x8
   8d1c4:	d10043e8 	sub	x8, sp, #0x10
   8d1c8:	d10263a9 	sub	x9, x29, #0x98
   8d1cc:	f8100128 	stur	x8, [x9, #-256]
   8d1d0:	9100011f 	mov	sp, x8
   8d1d4:	d10043e8 	sub	x8, sp, #0x10
   8d1d8:	d10123a9 	sub	x9, x29, #0x48
   8d1dc:	f8100128 	stur	x8, [x9, #-256]
   8d1e0:	9100011f 	mov	sp, x8
   8d1e4:	d10043e8 	sub	x8, sp, #0x10
   8d1e8:	d10143a9 	sub	x9, x29, #0x50
   8d1ec:	f8100128 	stur	x8, [x9, #-256]
   8d1f0:	9100011f 	mov	sp, x8
   8d1f4:	d10043e8 	sub	x8, sp, #0x10
   8d1f8:	d10183a9 	sub	x9, x29, #0x60
   8d1fc:	f8100128 	stur	x8, [x9, #-256]
   8d200:	9100011f 	mov	sp, x8
   8d204:	d10043e8 	sub	x8, sp, #0x10
   8d208:	d101a3a9 	sub	x9, x29, #0x68
   8d20c:	f8100128 	stur	x8, [x9, #-256]
   8d210:	9100011f 	mov	sp, x8
   8d214:	d10043e8 	sub	x8, sp, #0x10
   8d218:	d10223a9 	sub	x9, x29, #0x88
   8d21c:	f8100128 	stur	x8, [x9, #-256]
   8d220:	9100011f 	mov	sp, x8
   8d224:	d10043e8 	sub	x8, sp, #0x10
   8d228:	d101c3a9 	sub	x9, x29, #0x70
   8d22c:	f8100128 	stur	x8, [x9, #-256]
   8d230:	9100011f 	mov	sp, x8
   8d234:	d10043e8 	sub	x8, sp, #0x10
   8d238:	d10243a9 	sub	x9, x29, #0x90
   8d23c:	f8100128 	stur	x8, [x9, #-256]
   8d240:	9100011f 	mov	sp, x8
   8d244:	910003e8 	mov	x8, sp
   8d248:	d1018109 	sub	x9, x8, #0x60
   8d24c:	9100013f 	mov	sp, x9
   8d250:	6f00e400 	movi	v0.2d, #0x0
   8d254:	aa0903e1 	mov	x1, x9
   8d258:	d10023aa 	sub	x10, x29, #0x8
   8d25c:	d503201f 	nop
   8d260:	105b2040 	adr	x0, 143668 <getauxval@plt+0x9508>
   8d264:	f8100149 	stur	x9, [x10, #-256]
   8d268:	3c9ec100 	stur	q0, [x8, #-20]
   8d26c:	ad3d8100 	stp	q0, q0, [x8, #-80]
   8d270:	ad3e8100 	stp	q0, q0, [x8, #-48]
   8d274:	3c9a0100 	stur	q0, [x8, #-96]
   8d278:	94011d00 	bl	d4678 <Java_com_adjust_sdk_sig_NativeLibHelper_nSign@@Base+0x8074>
   8d27c:	d10023a8 	sub	x8, x29, #0x8
   8d280:	d28db4a6 	mov	x6, #0x6da5                	// #28069
   8d284:	a97827aa 	ldp	x10, x9, [x29, #-128]
   8d288:	f2a7e946 	movk	x6, #0x3f4a, lsl #16
   8d28c:	a93a4fb8 	stp	x24, x19, [x29, #-96]
   8d290:	f85903a2 	ldur	x2, [x29, #-112]
   8d294:	f2dbb7a6 	movk	x6, #0xddbd, lsl #32
   8d298:	f85783a4 	ldur	x4, [x29, #-136]
   8d29c:	f81983b7 	stur	x23, [x29, #-104]
   8d2a0:	f8500105 	ldur	x5, [x8, #-256]
   8d2a4:	2a1b03eb 	mov	w11, w27
   8d2a8:	2a1403ec 	mov	w12, w20
   8d2ac:	aa1a03ed 	mov	x13, x26
   8d2b0:	aa1c03ee 	mov	x14, x28
   8d2b4:	aa1503ef 	mov	x15, x21
   8d2b8:	aa1603f0 	mov	x16, x22
   8d2bc:	aa1903f1 	mov	x17, x25
   8d2c0:	f2fcee66 	movk	x6, #0xe773, lsl #48
   8d2c4:	17ffe893 	b	87510 <Java_com_adjust_sdk_sig_NativeLibHelper_nOnResume@@Base-0x4457c>
   8d2c8:	d503201f 	nop
   8d2cc:	105c9628 	adr	x8, 146590 <getauxval@plt+0xc430>
   8d2d0:	d10463a9 	sub	x9, x29, #0x118
   8d2d4:	d503201f 	nop
   8d2d8:	105b2740 	adr	x0, 1437c0 <getauxval@plt+0x9660>
   8d2dc:	089ffd1f 	stlrb	wzr, [x8]
   8d2e0:	d10063a8 	sub	x8, x29, #0x18
   8d2e4:	f8500129 	ldur	x9, [x9, #-256]
   8d2e8:	f8500108 	ldur	x8, [x8, #-256]
   8d2ec:	f9002d09 	str	x9, [x8, #88]
   8d2f0:	d10023a8 	sub	x8, x29, #0x8
   8d2f4:	f8500115 	ldur	x21, [x8, #-256]
   8d2f8:	aa1503e1 	mov	x1, x21
   8d2fc:	94011cdf 	bl	d4678 <Java_com_adjust_sdk_sig_NativeLibHelper_nSign@@Base+0x8074>
   8d300:	a97827aa 	ldp	x10, x9, [x29, #-128]
   8d304:	d2859fa6 	mov	x6, #0x2cfd                	// #11517
   8d308:	a93a4fb8 	stp	x24, x19, [x29, #-96]
   8d30c:	a97713a5 	ldp	x5, x4, [x29, #-144]
   8d310:	f2b140c6 	movk	x6, #0x8a06, lsl #16
   8d314:	f81983b7 	stur	x23, [x29, #-104]
   8d318:	f85903a2 	ldur	x2, [x29, #-112]
   8d31c:	f2de92e6 	movk	x6, #0xf497, lsl #32
   8d320:	2a1b03eb 	mov	w11, w27
   8d324:	2a1403ec 	mov	w12, w20
   8d328:	aa1a03ed 	mov	x13, x26
   8d32c:	aa1c03ee 	mov	x14, x28
   8d330:	aa1503ef 	mov	x15, x21
   8d334:	aa1603f0 	mov	x16, x22
   8d338:	aa1903f1 	mov	x17, x25
   8d33c:	f2eb0846 	movk	x6, #0x5842, lsl #48
   8d340:	17ffe874 	b	87510 <Java_com_adjust_sdk_sig_NativeLibHelper_nOnResume@@Base-0x4457c>
   8d344:	d503201f 	nop
   8d348:	105ba5c0 	adr	x0, 144800 <getauxval@plt+0xa6a0>
   8d34c:	528000ad 	mov	w13, #0x5                   	// #5
   8d350:	d29ea846 	mov	x6, #0xf542                	// #62786
   8d354:	b00005c7 	adrp	x7, 146000 <getauxval@plt+0xbea0>
   8d358:	f85903a2 	ldur	x2, [x29, #-112]
   8d35c:	39402008 	ldrb	w8, [x0, #8]
   8d360:	f2ab7926 	movk	x6, #0x5bc9, lsl #16
   8d364:	39402409 	ldrb	w9, [x0, #9]
   8d368:	f2c78746 	movk	x6, #0x3c3a, lsl #32
   8d36c:	3940280a 	ldrb	w10, [x0, #10]
   8d370:	a93a4fb8 	stp	x24, x19, [x29, #-96]
   8d374:	4a0d0108 	eor	w8, w8, w13
   8d378:	39402c0b 	ldrb	w11, [x0, #11]
   8d37c:	4a0d0129 	eor	w9, w9, w13
   8d380:	3940300c 	ldrb	w12, [x0, #12]
   8d384:	4a0d014a 	eor	w10, w10, w13
   8d388:	fd400000 	ldr	d0, [x0]
   8d38c:	39002008 	strb	w8, [x0, #8]
   8d390:	39403408 	ldrb	w8, [x0, #13]
   8d394:	39002409 	strb	w9, [x0, #9]
   8d398:	4a0d0169 	eor	w9, w11, w13
   8d39c:	3900280a 	strb	w10, [x0, #10]
   8d3a0:	4a0d018a 	eor	w10, w12, w13
   8d3a4:	4a0d0108 	eor	w8, w8, w13
   8d3a8:	2e2f1c00 	eor	v0.8b, v0.8b, v15.8b
   8d3ac:	39002c09 	strb	w9, [x0, #11]
   8d3b0:	f85783a4 	ldur	x4, [x29, #-136]
   8d3b4:	3900300a 	strb	w10, [x0, #12]
   8d3b8:	2a1b03eb 	mov	w11, w27
   8d3bc:	a97827aa 	ldp	x10, x9, [x29, #-128]
   8d3c0:	39003408 	strb	w8, [x0, #13]
   8d3c4:	2a1403ec 	mov	w12, w20
   8d3c8:	fd000000 	str	d0, [x0]
   8d3cc:	52800020 	mov	w0, #0x1                   	// #1
   8d3d0:	f81983b7 	stur	x23, [x29, #-104]
   8d3d4:	aa1a03ed 	mov	x13, x26
   8d3d8:	aa1c03ee 	mov	x14, x28
   8d3dc:	aa1503ef 	mov	x15, x21
   8d3e0:	aa1603f0 	mov	x16, x22
   8d3e4:	aa1903f1 	mov	x17, x25
   8d3e8:	aa1e03e5 	mov	x5, x30
   8d3ec:	f2f639e6 	movk	x6, #0xb1cf, lsl #48
   8d3f0:	391904e0 	strb	w0, [x7, #1601]
   8d3f4:	17ffe847 	b	87510 <Java_com_adjust_sdk_sig_NativeLibHelper_nOnResume@@Base-0x4457c>
   8d3f8:	2a1f03e0 	mov	w0, wzr
   8d3fc:	52800021 	mov	w1, #0x1                   	// #1
   8d400:	d503201f 	nop
   8d404:	105c7202 	adr	x2, 146244 <getauxval@plt+0xc0e4>
   8d408:	9402b0fe 	bl	139800 <Java_com_adjust_sdk_sig_NativeLibHelper_nSign@@Base+0x6d1fc>
   8d40c:	d295336b 	mov	x11, #0xa99b                	// #43419
   8d410:	d28b6e8c 	mov	x12, #0x5b74                	// #23412
   8d414:	f2b74f0b 	movk	x11, #0xba78, lsl #16
   8d418:	f2a42ecc 	movk	x12, #0x2176, lsl #16
   8d41c:	f2d0088b 	movk	x11, #0x8044, lsl #32
   8d420:	f2c3b7cc 	movk	x12, #0x1dbe, lsl #32
   8d424:	a93a4fb8 	stp	x24, x19, [x29, #-96]
   8d428:	7100001f 	cmp	w0, #0x0
   8d42c:	f81983b7 	stur	x23, [x29, #-104]
   8d430:	f2f8022b 	movk	x11, #0xc011, lsl #48
   8d434:	f2fc5eec 	movk	x12, #0xe2f7, lsl #48
   8d438:	140007bc 	b	8f328 <Java_com_adjust_sdk_sig_NativeLibHelper_nOnResume@@Base-0x3c764>
   8d43c:	2a1f03e0 	mov	w0, wzr
   8d440:	52800021 	mov	w1, #0x1                   	// #1
   8d444:	d503201f 	nop
   8d448:	105c6fc2 	adr	x2, 146240 <getauxval@plt+0xc0e0>
   8d44c:	9402b0ed 	bl	139800 <Java_com_adjust_sdk_sig_NativeLibHelper_nSign@@Base+0x6d1fc>
   8d450:	d29e62ab 	mov	x11, #0xf315                	// #62229
   8d454:	d284c78c 	mov	x12, #0x263c                	// #9788
   8d458:	f2bf62cb 	movk	x11, #0xfb16, lsl #16
   8d45c:	f2a07b8c 	movk	x12, #0x3dc, lsl #16
   8d460:	f2d3d60b 	movk	x11, #0x9eb0, lsl #32
   8d464:	f2c278cc 	movk	x12, #0x13c6, lsl #32
   8d468:	a93a4fb8 	stp	x24, x19, [x29, #-96]
   8d46c:	7100001f 	cmp	w0, #0x0
   8d470:	f81983b7 	stur	x23, [x29, #-104]
   8d474:	f2faf74b 	movk	x11, #0xd7ba, lsl #48
   8d478:	f2e3016c 	movk	x12, #0x180b, lsl #48
   8d47c:	140007ab 	b	8f328 <Java_com_adjust_sdk_sig_NativeLibHelper_nOnResume@@Base-0x3c764>
   8d480:	d503201f 	nop
   8d484:	105b19e0 	adr	x0, 1437c0 <getauxval@plt+0x9660>
   8d488:	52801a8d 	mov	w13, #0xd4                  	// #212
   8d48c:	d28be1a6 	mov	x6, #0x5f0d                	// #24333
   8d490:	4f06e681 	movi	v1.16b, #0xd4
   8d494:	b00005c7 	adrp	x7, 146000 <getauxval@plt+0xbea0>
   8d498:	39404008 	ldrb	w8, [x0, #16]
   8d49c:	f2a12de6 	movk	x6, #0x96f, lsl #16
   8d4a0:	39404409 	ldrb	w9, [x0, #17]
   8d4a4:	f2d035c6 	movk	x6, #0x81ae, lsl #32
   8d4a8:	3940480a 	ldrb	w10, [x0, #18]
   8d4ac:	a93a4fb8 	stp	x24, x19, [x29, #-96]
   8d4b0:	4a0d0108 	eor	w8, w8, w13
   8d4b4:	39404c0b 	ldrb	w11, [x0, #19]
   8d4b8:	4a0d0129 	eor	w9, w9, w13
   8d4bc:	3940500c 	ldrb	w12, [x0, #20]
   8d4c0:	3dc00000 	ldr	q0, [x0]
   8d4c4:	f81983b7 	stur	x23, [x29, #-104]
   8d4c8:	39004008 	strb	w8, [x0, #16]
   8d4cc:	4a0d0148 	eor	w8, w10, w13
   8d4d0:	39004409 	strb	w9, [x0, #17]
   8d4d4:	4a0d0169 	eor	w9, w11, w13
   8d4d8:	4a0d018a 	eor	w10, w12, w13
   8d4dc:	f85903a2 	ldur	x2, [x29, #-112]
   8d4e0:	6e211c00 	eor	v0.16b, v0.16b, v1.16b
   8d4e4:	39004808 	strb	w8, [x0, #18]
   8d4e8:	39004c09 	strb	w9, [x0, #19]
   8d4ec:	2a1b03eb 	mov	w11, w27
   8d4f0:	3900500a 	strb	w10, [x0, #20]
   8d4f4:	2a1403ec 	mov	w12, w20
   8d4f8:	3d800000 	str	q0, [x0]
   8d4fc:	52800020 	mov	w0, #0x1                   	// #1
   8d500:	aa1a03ed 	mov	x13, x26
   8d504:	aa1c03ee 	mov	x14, x28
   8d508:	aa1503ef 	mov	x15, x21
   8d50c:	aa1603f0 	mov	x16, x22
   8d510:	aa1903f1 	mov	x17, x25
   8d514:	aa0103ea 	mov	x10, x1
   8d518:	aa0303e9 	mov	x9, x3
   8d51c:	aa1e03e5 	mov	x5, x30
   8d520:	f2ee8546 	movk	x6, #0x742a, lsl #48
   8d524:	391c50e0 	strb	w0, [x7, #1812]
   8d528:	17ffe7fa 	b	87510 <Java_com_adjust_sdk_sig_NativeLibHelper_nOnResume@@Base-0x4457c>
   8d52c:	d503201f 	nop
   8d530:	105c68a8 	adr	x8, 146244 <getauxval@plt+0xc0e4>
   8d534:	d503201f 	nop
   8d538:	105b98c3 	adr	x3, 144850 <getauxval@plt+0xa6f0>
   8d53c:	089ffd1f 	stlrb	wzr, [x8]
   8d540:	d100e3a8 	sub	x8, x29, #0x38
   8d544:	f8500108 	ldur	x8, [x8, #-256]
   8d548:	f9400102 	ldr	x2, [x8]
   8d54c:	d100a3a8 	sub	x8, x29, #0x28
   8d550:	f8500100 	ldur	x0, [x8, #-256]
   8d554:	d10043a8 	sub	x8, x29, #0x10
   8d558:	f8500101 	ldur	x1, [x8, #-256]
   8d55c:	d112a3a8 	sub	x8, x29, #0x4a8
   8d560:	f8500104 	ldur	x4, [x8, #-256]
   8d564:	94009314 	bl	b21b4 <Java_com_adjust_sdk_sig_NativeLibHelper_nOnResume@@Base-0x198d8>
   8d568:	d100a3a8 	sub	x8, x29, #0x28
   8d56c:	d2848b2f 	mov	x15, #0x2459                	// #9305
   8d570:	d2987ef0 	mov	x16, #0xc3f7                	// #50167
   8d574:	f2bfd50f 	movk	x15, #0xfea8, lsl #16
   8d578:	f2b43d90 	movk	x16, #0xa1ec, lsl #16
   8d57c:	f2cac46f 	movk	x15, #0x5623, lsl #32
   8d580:	f8500108 	ldur	x8, [x8, #-256]
   8d584:	f2cec9f0 	movk	x16, #0x764f, lsl #32
   8d588:	a93a4fb8 	stp	x24, x19, [x29, #-96]
   8d58c:	2a1b03eb 	mov	w11, w27
   8d590:	f81983b7 	stur	x23, [x29, #-104]
   8d594:	2a1403ec 	mov	w12, w20
   8d598:	b940010e 	ldr	w14, [x8]
   8d59c:	aa1a03ed 	mov	x13, x26
   8d5a0:	f2f5062f 	movk	x15, #0xa831, lsl #48
   8d5a4:	f2ee11f0 	movk	x16, #0x708f, lsl #48
   8d5a8:	1400013f 	b	8daa4 <Java_com_adjust_sdk_sig_NativeLibHelper_nOnResume@@Base-0x3dfe8>
   8d5ac:	d10763a8 	sub	x8, x29, #0x1d8
   8d5b0:	d28492ca 	mov	x10, #0x2496                	// #9366
   8d5b4:	d297f8cb 	mov	x11, #0xbfc6                	// #49094
   8d5b8:	f2bdd58a 	movk	x10, #0xeeac, lsl #16
   8d5bc:	f2beccab 	movk	x11, #0xf665, lsl #16
   8d5c0:	f2c63fca 	movk	x10, #0x31fe, lsl #32
   8d5c4:	f8500110 	ldur	x16, [x8, #-256]
   8d5c8:	d10d83a8 	sub	x8, x29, #0x360
   8d5cc:	f2dc8ccb 	movk	x11, #0xe466, lsl #32
   8d5d0:	f2f73baa 	movk	x10, #0xb9dd, lsl #48
   8d5d4:	f2f7aa4b 	movk	x11, #0xbd52, lsl #48
   8d5d8:	a93a4fb8 	stp	x24, x19, [x29, #-96]
   8d5dc:	f8100110 	stur	x16, [x8, #-256]
   8d5e0:	d10743a8 	sub	x8, x29, #0x1d0
   8d5e4:	f100021f 	cmp	x16, #0x0
   8d5e8:	f81983b7 	stur	x23, [x29, #-104]
   8d5ec:	9a8a0166 	csel	x6, x11, x10, eq	// eq = none
   8d5f0:	2a1b03eb 	mov	w11, w27
   8d5f4:	f8500110 	ldur	x16, [x8, #-256]
   8d5f8:	d10da3a8 	sub	x8, x29, #0x368
   8d5fc:	2a1403ec 	mov	w12, w20
   8d600:	aa1a03ed 	mov	x13, x26
   8d604:	aa1c03ee 	mov	x14, x28
   8d608:	aa1503ef 	mov	x15, x21
   8d60c:	f8100110 	stur	x16, [x8, #-256]
   8d610:	d10703a8 	sub	x8, x29, #0x1c0
   8d614:	f8500110 	ldur	x16, [x8, #-256]
   8d618:	d10dc3a8 	sub	x8, x29, #0x370
   8d61c:	f8100110 	stur	x16, [x8, #-256]
   8d620:	aa1603f0 	mov	x16, x22
   8d624:	aa1903f1 	mov	x17, x25
   8d628:	aa0903ea 	mov	x10, x9
   8d62c:	140001e3 	b	8ddb8 <Java_com_adjust_sdk_sig_NativeLibHelper_nOnResume@@Base-0x3dcd4>
   8d630:	d10063a8 	sub	x8, x29, #0x18
   8d634:	d28d9326 	mov	x6, #0x6c99                	// #27801
   8d638:	f85903a2 	ldur	x2, [x29, #-112]
   8d63c:	f2a21506 	movk	x6, #0x10a8, lsl #16
   8d640:	f85783a4 	ldur	x4, [x29, #-136]
   8d644:	f2cc6d06 	movk	x6, #0x6368, lsl #32
   8d648:	f8500100 	ldur	x0, [x8, #-256]
   8d64c:	a93a4fb8 	stp	x24, x19, [x29, #-96]
   8d650:	f81983b7 	stur	x23, [x29, #-104]
   8d654:	2a1b03eb 	mov	w11, w27
   8d658:	5280004c 	mov	w12, #0x2                   	// #2
   8d65c:	aa1a03ed 	mov	x13, x26
   8d660:	aa1c03ee 	mov	x14, x28
   8d664:	aa1503ef 	mov	x15, x21
   8d668:	aa1603f0 	mov	x16, x22
   8d66c:	aa1903f1 	mov	x17, x25
   8d670:	aa0103ea 	mov	x10, x1
   8d674:	aa0303e9 	mov	x9, x3
   8d678:	aa1e03e5 	mov	x5, x30
   8d67c:	f2e74366 	movk	x6, #0x3a1b, lsl #48
   8d680:	f900101f 	str	xzr, [x0, #32]
   8d684:	17ffe7a3 	b	87510 <Java_com_adjust_sdk_sig_NativeLibHelper_nOnResume@@Base-0x4457c>
   8d688:	d10883aa 	sub	x10, x29, #0x220
   8d68c:	d280f28b 	mov	x11, #0x794                 	// #1940
   8d690:	f2a77a4b 	movk	x11, #0x3bd2, lsl #16
   8d694:	f85903a2 	ldur	x2, [x29, #-112]
   8d698:	f2ccbf6b 	movk	x11, #0x65fb, lsl #32
   8d69c:	a93a4fb8 	stp	x24, x19, [x29, #-96]
   8d6a0:	f850014d 	ldur	x13, [x10, #-256]
   8d6a4:	d29b6a8a 	mov	x10, #0xdb54                	// #56148
   8d6a8:	f2b8ba2a 	movk	x10, #0xc5d1, lsl #16
   8d6ac:	f2f9a56b 	movk	x11, #0xcd2b, lsl #48
   8d6b0:	f2d52aca 	movk	x10, #0xa956, lsl #32
   8d6b4:	f81983b7 	stur	x23, [x29, #-104]
   8d6b8:	f10001bf 	cmp	x13, #0x0
   8d6bc:	f2f8702a 	movk	x10, #0xc381, lsl #48
   8d6c0:	9a8b0146 	csel	x6, x10, x11, eq	// eq = none
   8d6c4:	d10b23aa 	sub	x10, x29, #0x2c8
   8d6c8:	2a1b03eb 	mov	w11, w27
   8d6cc:	2a1403ec 	mov	w12, w20
   8d6d0:	aa1c03ee 	mov	x14, x28
   8d6d4:	aa1503ef 	mov	x15, x21
   8d6d8:	f810014d 	stur	x13, [x10, #-256]
   8d6dc:	d10863aa 	sub	x10, x29, #0x218
   8d6e0:	aa1603f0 	mov	x16, x22
   8d6e4:	aa1903f1 	mov	x17, x25
   8d6e8:	aa1e03e5 	mov	x5, x30
   8d6ec:	f850014d 	ldur	x13, [x10, #-256]
   8d6f0:	d10b43aa 	sub	x10, x29, #0x2d0
   8d6f4:	f810014d 	stur	x13, [x10, #-256]
   8d6f8:	d10823aa 	sub	x10, x29, #0x208
   8d6fc:	f850014d 	ldur	x13, [x10, #-256]
   8d700:	d10b63aa 	sub	x10, x29, #0x2d8
   8d704:	f810014d 	stur	x13, [x10, #-256]
   8d708:	aa1a03ed 	mov	x13, x26
   8d70c:	aa0903ea 	mov	x10, x9
   8d710:	aa0803e9 	mov	x9, x8
   8d714:	17ffe77f 	b	87510 <Java_com_adjust_sdk_sig_NativeLibHelper_nOnResume@@Base-0x4457c>
   8d718:	d503201f 	nop
   8d71c:	105b8820 	adr	x0, 144820 <getauxval@plt+0xa6c0>
   8d720:	528008ad 	mov	w13, #0x45                  	// #69
   8d724:	d29ab746 	mov	x6, #0xd5ba                	// #54714
   8d728:	4f02e4a1 	movi	v1.16b, #0x45
   8d72c:	b00005c7 	adrp	x7, 146000 <getauxval@plt+0xbea0>
   8d730:	39404008 	ldrb	w8, [x0, #16]
   8d734:	f2b240a6 	movk	x6, #0x9205, lsl #16
   8d738:	39404409 	ldrb	w9, [x0, #17]
   8d73c:	f2d4c606 	movk	x6, #0xa630, lsl #32
   8d740:	3940480a 	ldrb	w10, [x0, #18]
   8d744:	a93a4fb8 	stp	x24, x19, [x29, #-96]
   8d748:	4a0d0108 	eor	w8, w8, w13
   8d74c:	3940500c 	ldrb	w12, [x0, #20]
   8d750:	4a0d0129 	eor	w9, w9, w13
   8d754:	39404c0b 	ldrb	w11, [x0, #19]
   8d758:	4a0d014a 	eor	w10, w10, w13
   8d75c:	3dc00000 	ldr	q0, [x0]
   8d760:	39004008 	strb	w8, [x0, #16]
   8d764:	39405408 	ldrb	w8, [x0, #21]
   8d768:	39004409 	strb	w9, [x0, #17]
   8d76c:	39405809 	ldrb	w9, [x0, #22]
   8d770:	3900480a 	strb	w10, [x0, #18]
   8d774:	4a0d018a 	eor	w10, w12, w13
   8d778:	4a0d016b 	eor	w11, w11, w13
   8d77c:	4a0d0108 	eor	w8, w8, w13
   8d780:	4a0d0129 	eor	w9, w9, w13
   8d784:	f85903a2 	ldur	x2, [x29, #-112]
   8d788:	3900500a 	strb	w10, [x0, #20]
   8d78c:	2a1403ec 	mov	w12, w20
   8d790:	6e211c00 	eor	v0.16b, v0.16b, v1.16b
   8d794:	39004c0b 	strb	w11, [x0, #19]
   8d798:	a977aba4 	ldp	x4, x10, [x29, #-136]
   8d79c:	39005408 	strb	w8, [x0, #21]
   8d7a0:	2a1b03eb 	mov	w11, w27
   8d7a4:	39005809 	strb	w9, [x0, #22]
   8d7a8:	aa1a03ed 	mov	x13, x26
   8d7ac:	3d800000 	str	q0, [x0]
   8d7b0:	52800020 	mov	w0, #0x1                   	// #1
   8d7b4:	f81983b7 	stur	x23, [x29, #-104]
   8d7b8:	aa1c03ee 	mov	x14, x28
   8d7bc:	aa1503ef 	mov	x15, x21
   8d7c0:	aa1603f0 	mov	x16, x22
   8d7c4:	aa1903f1 	mov	x17, x25
   8d7c8:	aa0503e9 	mov	x9, x5
   8d7cc:	aa1e03e5 	mov	x5, x30
   8d7d0:	f2eaff66 	movk	x6, #0x57fb, lsl #48
   8d7d4:	39190ce0 	strb	w0, [x7, #1603]
   8d7d8:	17ffe74e 	b	87510 <Java_com_adjust_sdk_sig_NativeLibHelper_nOnResume@@Base-0x4457c>
   8d7dc:	d503201f 	nop
   8d7e0:	105b0900 	adr	x0, 143900 <getauxval@plt+0x97a0>
   8d7e4:	528004cc 	mov	w12, #0x26                  	// #38
   8d7e8:	d2803a26 	mov	x6, #0x1d1                 	// #465
   8d7ec:	4f01e4c1 	movi	v1.16b, #0x26
   8d7f0:	b00005c7 	adrp	x7, 146000 <getauxval@plt+0xbea0>
   8d7f4:	39404008 	ldrb	w8, [x0, #16]
   8d7f8:	f2ac4b26 	movk	x6, #0x6259, lsl #16
   8d7fc:	39404409 	ldrb	w9, [x0, #17]
   8d800:	f2c4a786 	movk	x6, #0x253c, lsl #32
   8d804:	3940480a 	ldrb	w10, [x0, #18]
   8d808:	a93a4fb8 	stp	x24, x19, [x29, #-96]
   8d80c:	4a0c0108 	eor	w8, w8, w12
   8d810:	39404c0b 	ldrb	w11, [x0, #19]
   8d814:	4a0c0129 	eor	w9, w9, w12
   8d818:	3dc00000 	ldr	q0, [x0]
   8d81c:	f85903a2 	ldur	x2, [x29, #-112]
   8d820:	f81983b7 	stur	x23, [x29, #-104]
   8d824:	39004008 	strb	w8, [x0, #16]
   8d828:	4a0c0148 	eor	w8, w10, w12
   8d82c:	4a0c016a 	eor	w10, w11, w12
   8d830:	39004409 	strb	w9, [x0, #17]
   8d834:	6e211c00 	eor	v0.16b, v0.16b, v1.16b
   8d838:	f85783a4 	ldur	x4, [x29, #-136]
   8d83c:	39004808 	strb	w8, [x0, #18]
   8d840:	2a1b03eb 	mov	w11, w27
   8d844:	39004c0a 	strb	w10, [x0, #19]
   8d848:	2a1403ec 	mov	w12, w20
   8d84c:	a97827aa 	ldp	x10, x9, [x29, #-128]
   8d850:	3d800000 	str	q0, [x0]
   8d854:	52800020 	mov	w0, #0x1                   	// #1
   8d858:	aa1a03ed 	mov	x13, x26
   8d85c:	aa1c03ee 	mov	x14, x28
   8d860:	aa1503ef 	mov	x15, x21
   8d864:	aa1603f0 	mov	x16, x22
   8d868:	aa1903f1 	mov	x17, x25
   8d86c:	aa1e03e5 	mov	x5, x30
   8d870:	f2fcc666 	movk	x6, #0xe633, lsl #48
   8d874:	391c94e0 	strb	w0, [x7, #1829]
   8d878:	17ffe726 	b	87510 <Java_com_adjust_sdk_sig_NativeLibHelper_nOnResume@@Base-0x4457c>
   8d87c:	d10103a8 	sub	x8, x29, #0x40
   8d880:	d282b850 	mov	x16, #0x15c2                	// #5570
   8d884:	d29b0391 	mov	x17, #0xd81c                	// #55324
   8d888:	f2bdefd0 	movk	x16, #0xef7e, lsl #16
   8d88c:	a97713a5 	ldp	x5, x4, [x29, #-144]
   8d890:	f2b10951 	movk	x17, #0x884a, lsl #16
   8d894:	f2d6abb0 	movk	x16, #0xb55d, lsl #32
   8d898:	f8500108 	ldur	x8, [x8, #-256]
   8d89c:	f2cb77f1 	movk	x17, #0x5bbf, lsl #32
   8d8a0:	f85903a2 	ldur	x2, [x29, #-112]
   8d8a4:	f2ee8150 	movk	x16, #0x740a, lsl #48
   8d8a8:	f2e7d911 	movk	x17, #0x3ec8, lsl #48
   8d8ac:	a93a4fb8 	stp	x24, x19, [x29, #-96]
   8d8b0:	f940010a 	ldr	x10, [x8]
   8d8b4:	d10c23a8 	sub	x8, x29, #0x308
   8d8b8:	f81983b7 	stur	x23, [x29, #-104]
   8d8bc:	2a1403ec 	mov	w12, w20
   8d8c0:	aa1a03ed 	mov	x13, x26
   8d8c4:	aa1c03ee 	mov	x14, x28
   8d8c8:	f810010a 	stur	x10, [x8, #-256]
   8d8cc:	d10043a8 	sub	x8, x29, #0x10
   8d8d0:	f100015f 	cmp	x10, #0x0
   8d8d4:	aa1503ef 	mov	x15, x21
   8d8d8:	a97827aa 	ldp	x10, x9, [x29, #-128]
   8d8dc:	f850010b 	ldur	x11, [x8, #-256]
   8d8e0:	d101e3a8 	sub	x8, x29, #0x78
   8d8e4:	fa401964 	ccmp	x11, #0x0, #0x4, ne	// ne = any
   8d8e8:	2a1b03eb 	mov	w11, w27
   8d8ec:	9a901226 	csel	x6, x17, x16, ne	// ne = any
   8d8f0:	140000f3 	b	8dcbc <Java_com_adjust_sdk_sig_NativeLibHelper_nOnResume@@Base-0x3ddd0>
   8d8f4:	d10d23a8 	sub	x8, x29, #0x348
   8d8f8:	d10843a9 	sub	x9, x29, #0x210
   8d8fc:	d2991f06 	mov	x6, #0xc8f8                	// #51448
   8d900:	f85783a4 	ldur	x4, [x29, #-136]
   8d904:	f2b3d7a6 	movk	x6, #0x9ebd, lsl #16
   8d908:	a93a4fb8 	stp	x24, x19, [x29, #-96]
   8d90c:	f850010a 	ldur	x10, [x8, #-256]
   8d910:	d10ce3a8 	sub	x8, x29, #0x338
   8d914:	f2d0aca6 	movk	x6, #0x8565, lsl #32
   8d918:	f81983b7 	stur	x23, [x29, #-104]
   8d91c:	2a1b03eb 	mov	w11, w27
   8d920:	2a1403ec 	mov	w12, w20
   8d924:	f8500107 	ldur	x7, [x8, #-256]
   8d928:	d10c83a8 	sub	x8, x29, #0x320
   8d92c:	38401540 	ldrb	w0, [x10], #1
   8d930:	aa1a03ed 	mov	x13, x26
   8d934:	aa1c03ee 	mov	x14, x28
   8d938:	f8500108 	ldur	x8, [x8, #-256]
   8d93c:	aa1503ef 	mov	x15, x21
   8d940:	aa1603f0 	mov	x16, x22
   8d944:	aa1903f1 	mov	x17, x25
   8d948:	aa1e03e5 	mov	x5, x30
   8d94c:	f2e8bee6 	movk	x6, #0x45f7, lsl #48
   8d950:	d1000508 	sub	x8, x8, #0x1
   8d954:	380014e0 	strb	w0, [x7], #1
   8d958:	f8100128 	stur	x8, [x9, #-256]
   8d95c:	d107e3a8 	sub	x8, x29, #0x1f8
   8d960:	aa0303e9 	mov	x9, x3
   8d964:	f810010a 	stur	x10, [x8, #-256]
   8d968:	d10803a8 	sub	x8, x29, #0x200
   8d96c:	aa0203ea 	mov	x10, x2
   8d970:	f85903a2 	ldur	x2, [x29, #-112]
   8d974:	f8100107 	stur	x7, [x8, #-256]
   8d978:	17ffe6e6 	b	87510 <Java_com_adjust_sdk_sig_NativeLibHelper_nOnResume@@Base-0x4457c>
   8d97c:	d503201f 	nop
   8d980:	105c5f28 	adr	x8, 146564 <getauxval@plt+0xc404>
   8d984:	d104e3a9 	sub	x9, x29, #0x138
   8d988:	d503201f 	nop
   8d98c:	105aeba0 	adr	x0, 143700 <getauxval@plt+0x95a0>
   8d990:	089ffd1f 	stlrb	wzr, [x8]
   8d994:	d10063a8 	sub	x8, x29, #0x18
   8d998:	f8500129 	ldur	x9, [x9, #-256]
   8d99c:	f8500108 	ldur	x8, [x8, #-256]
   8d9a0:	f9001d09 	str	x9, [x8, #56]
   8d9a4:	d10023a8 	sub	x8, x29, #0x8
   8d9a8:	f850011a 	ldur	x26, [x8, #-256]
   8d9ac:	aa1a03e1 	mov	x1, x26
   8d9b0:	94011b32 	bl	d4678 <Java_com_adjust_sdk_sig_NativeLibHelper_nSign@@Base+0x8074>
   8d9b4:	a97827aa 	ldp	x10, x9, [x29, #-128]
   8d9b8:	d28c0ae6 	mov	x6, #0x6057                	// #24663
   8d9bc:	a93a4fb8 	stp	x24, x19, [x29, #-96]
   8d9c0:	a97713a5 	ldp	x5, x4, [x29, #-144]
   8d9c4:	f2ba96a6 	movk	x6, #0xd4b5, lsl #16
   8d9c8:	f81983b7 	stur	x23, [x29, #-104]
   8d9cc:	f85903a2 	ldur	x2, [x29, #-112]
   8d9d0:	f2c5d0a6 	movk	x6, #0x2e85, lsl #32
   8d9d4:	2a1b03eb 	mov	w11, w27
   8d9d8:	2a1403ec 	mov	w12, w20
   8d9dc:	aa1a03ed 	mov	x13, x26
   8d9e0:	aa1c03ee 	mov	x14, x28
   8d9e4:	aa1503ef 	mov	x15, x21
   8d9e8:	aa1603f0 	mov	x16, x22
   8d9ec:	aa1903f1 	mov	x17, x25
   8d9f0:	f2ecb066 	movk	x6, #0x6583, lsl #48
   8d9f4:	17ffe6c7 	b	87510 <Java_com_adjust_sdk_sig_NativeLibHelper_nOnResume@@Base-0x4457c>
   8d9f8:	2a1f03e0 	mov	w0, wzr
   8d9fc:	52800021 	mov	w1, #0x1                   	// #1
   8da00:	d503201f 	nop
   8da04:	105c5b42 	adr	x2, 14656c <getauxval@plt+0xc40c>
   8da08:	9402af7e 	bl	139800 <Java_com_adjust_sdk_sig_NativeLibHelper_nSign@@Base+0x6d1fc>
   8da0c:	d282c1ab 	mov	x11, #0x160d                	// #5645
   8da10:	d29c508c 	mov	x12, #0xe284                	// #57988
   8da14:	f2b90f4b 	movk	x11, #0xc87a, lsl #16
   8da18:	f2bdf72c 	movk	x12, #0xefb9, lsl #16
   8da1c:	f2d7d42b 	movk	x11, #0xbea1, lsl #32
   8da20:	f2cd83ac 	movk	x12, #0x6c1d, lsl #32
   8da24:	a93a4fb8 	stp	x24, x19, [x29, #-96]
   8da28:	7100001f 	cmp	w0, #0x0
   8da2c:	f81983b7 	stur	x23, [x29, #-104]
   8da30:	f2e6614b 	movk	x11, #0x330a, lsl #48
   8da34:	f2ffd86c 	movk	x12, #0xfec3, lsl #48
   8da38:	14000613 	b	8f284 <Java_com_adjust_sdk_sig_NativeLibHelper_nOnResume@@Base-0x3c808>
   8da3c:	d10103a8 	sub	x8, x29, #0x40
   8da40:	f8500108 	ldur	x8, [x8, #-256]
   8da44:	f9400102 	ldr	x2, [x8]
   8da48:	d10083a8 	sub	x8, x29, #0x20
   8da4c:	f8500100 	ldur	x0, [x8, #-256]
   8da50:	d10043a8 	sub	x8, x29, #0x10
   8da54:	f8500101 	ldur	x1, [x8, #-256]
   8da58:	d10263a8 	sub	x8, x29, #0x98
   8da5c:	f8500103 	ldur	x3, [x8, #-256]
   8da60:	94006bc6 	bl	a8978 <Java_com_adjust_sdk_sig_NativeLibHelper_nOnResume@@Base-0x23114>
   8da64:	d10083a8 	sub	x8, x29, #0x20
   8da68:	d299b2af 	mov	x15, #0xcd95                	// #52629
   8da6c:	d2856ff0 	mov	x16, #0x2b7f                	// #11135
   8da70:	f2b443af 	movk	x15, #0xa21d, lsl #16
   8da74:	f2a0e050 	movk	x16, #0x702, lsl #16
   8da78:	f2c4b92f 	movk	x15, #0x25c9, lsl #32
   8da7c:	f8500108 	ldur	x8, [x8, #-256]
   8da80:	f2d03970 	movk	x16, #0x81cb, lsl #32
   8da84:	2a1b03eb 	mov	w11, w27
   8da88:	2a1403ec 	mov	w12, w20
   8da8c:	aa1a03ed 	mov	x13, x26
   8da90:	f2feec8f 	movk	x15, #0xf764, lsl #48
   8da94:	b940010e 	ldr	w14, [x8]
   8da98:	f2ea4790 	movk	x16, #0x523c, lsl #48
   8da9c:	a93a4fb8 	stp	x24, x19, [x29, #-96]
   8daa0:	f81983b7 	stur	x23, [x29, #-104]
   8daa4:	710001df 	cmp	w14, #0x0
   8daa8:	aa1c03ee 	mov	x14, x28
   8daac:	9a9001e6 	csel	x6, x15, x16, eq	// eq = none
   8dab0:	14000623 	b	8f33c <Java_com_adjust_sdk_sig_NativeLibHelper_nOnResume@@Base-0x3c750>
   8dab4:	d10f63a8 	sub	x8, x29, #0x3d8
   8dab8:	d10603ab 	sub	x11, x29, #0x180
   8dabc:	d28f5d66 	mov	x6, #0x7aeb                	// #31467
   8dac0:	f85903a2 	ldur	x2, [x29, #-112]
   8dac4:	f2a4d3e6 	movk	x6, #0x269f, lsl #16
   8dac8:	a93a4fb8 	stp	x24, x19, [x29, #-96]
   8dacc:	f850010a 	ldur	x10, [x8, #-256]
   8dad0:	d10f43a8 	sub	x8, x29, #0x3d0
   8dad4:	f2deeb66 	movk	x6, #0xf75b, lsl #32
   8dad8:	f81983b7 	stur	x23, [x29, #-104]
   8dadc:	2a1403ec 	mov	w12, w20
   8dae0:	aa1a03ed 	mov	x13, x26
   8dae4:	f8500107 	ldur	x7, [x8, #-256]
   8dae8:	d10f23a8 	sub	x8, x29, #0x3c8
   8daec:	38401540 	ldrb	w0, [x10], #1
   8daf0:	aa1c03ee 	mov	x14, x28
   8daf4:	aa1503ef 	mov	x15, x21
   8daf8:	f8500108 	ldur	x8, [x8, #-256]
   8dafc:	aa1603f0 	mov	x16, x22
   8db00:	aa1903f1 	mov	x17, x25
   8db04:	aa1e03e5 	mov	x5, x30
   8db08:	f2e63f46 	movk	x6, #0x31fa, lsl #48
   8db0c:	d1000508 	sub	x8, x8, #0x1
   8db10:	380014e0 	strb	w0, [x7], #1
   8db14:	f8100168 	stur	x8, [x11, #-256]
   8db18:	d10563a8 	sub	x8, x29, #0x158
   8db1c:	2a1b03eb 	mov	w11, w27
   8db20:	f810010a 	stur	x10, [x8, #-256]
   8db24:	d105a3a8 	sub	x8, x29, #0x168
   8db28:	aa0303ea 	mov	x10, x3
   8db2c:	f8100107 	stur	x7, [x8, #-256]
   8db30:	17ffe678 	b	87510 <Java_com_adjust_sdk_sig_NativeLibHelper_nOnResume@@Base-0x4457c>
   8db34:	d100c3a8 	sub	x8, x29, #0x30
   8db38:	d11083a9 	sub	x9, x29, #0x420
   8db3c:	f8500108 	ldur	x8, [x8, #-256]
   8db40:	f8500129 	ldur	x9, [x9, #-256]
   8db44:	cb080128 	sub	x8, x9, x8
   8db48:	d10b83a9 	sub	x9, x29, #0x2e0
   8db4c:	91000500 	add	x0, x8, #0x1
   8db50:	f8100128 	stur	x8, [x9, #-256]
   8db54:	9402b0b3 	bl	139e20 <malloc@plt>
   8db58:	d105c3a8 	sub	x8, x29, #0x170
   8db5c:	d28c228b 	mov	x11, #0x6114                	// #24852
   8db60:	d29cb78c 	mov	x12, #0xe5bc                	// #58812
   8db64:	f2b2f54b 	movk	x11, #0x97aa, lsl #16
   8db68:	f2bd44ac 	movk	x12, #0xea25, lsl #16
   8db6c:	f2d0406b 	movk	x11, #0x8203, lsl #32
   8db70:	f2d6040c 	movk	x12, #0xb020, lsl #32
   8db74:	a93a4fb8 	stp	x24, x19, [x29, #-96]
   8db78:	f8100100 	stur	x0, [x8, #-256]
   8db7c:	f100001f 	cmp	x0, #0x0
   8db80:	f81983b7 	stur	x23, [x29, #-104]
   8db84:	f2f453cb 	movk	x11, #0xa29e, lsl #48
   8db88:	f2e0036c 	movk	x12, #0x1b, lsl #48
   8db8c:	140005be 	b	8f284 <Java_com_adjust_sdk_sig_NativeLibHelper_nOnResume@@Base-0x3c808>
   8db90:	a97827aa 	ldp	x10, x9, [x29, #-128]
   8db94:	a93a4fb8 	stp	x24, x19, [x29, #-96]
   8db98:	2a1b03eb 	mov	w11, w27
   8db9c:	a97713a5 	ldp	x5, x4, [x29, #-144]
   8dba0:	f81983b7 	stur	x23, [x29, #-104]
   8dba4:	2a1403ec 	mov	w12, w20
   8dba8:	f85903a2 	ldur	x2, [x29, #-112]
   8dbac:	aa1a03ed 	mov	x13, x26
   8dbb0:	aa1c03ee 	mov	x14, x28
   8dbb4:	aa1503ef 	mov	x15, x21
   8dbb8:	aa1603f0 	mov	x16, x22
   8dbbc:	aa1903f1 	mov	x17, x25
   8dbc0:	d298f646 	mov	x6, #0xc7b2                	// #51122
   8dbc4:	528003a0 	mov	w0, #0x1d                  	// #29
   8dbc8:	f2a52546 	movk	x6, #0x292a, lsl #16
   8dbcc:	d100a3a8 	sub	x8, x29, #0x28
   8dbd0:	f2c8b066 	movk	x6, #0x4583, lsl #32
   8dbd4:	f2f4f226 	movk	x6, #0xa791, lsl #48
   8dbd8:	f8500107 	ldur	x7, [x8, #-256]
   8dbdc:	b90000e0 	str	w0, [x7]
   8dbe0:	17ffe64c 	b	87510 <Java_com_adjust_sdk_sig_NativeLibHelper_nOnResume@@Base-0x4457c>
   8dbe4:	d10043a8 	sub	x8, x29, #0x10
   8dbe8:	d10c23a9 	sub	x9, x29, #0x308
   8dbec:	f8500100 	ldur	x0, [x8, #-256]
   8dbf0:	f8500121 	ldur	x1, [x9, #-256]
   8dbf4:	f9400008 	ldr	x8, [x0]
   8dbf8:	f9405d08 	ldr	x8, [x8, #184]
   8dbfc:	d63f0100 	blr	x8
   8dc00:	a97827aa 	ldp	x10, x9, [x29, #-128]
   8dc04:	d2934306 	mov	x6, #0x9a18                	// #39448
   8dc08:	a93a4fb8 	stp	x24, x19, [x29, #-96]
   8dc0c:	a97713a5 	ldp	x5, x4, [x29, #-144]
   8dc10:	f2a17506 	movk	x6, #0xba8, lsl #16
   8dc14:	f81983b7 	stur	x23, [x29, #-104]
   8dc18:	f85903a2 	ldur	x2, [x29, #-112]
   8dc1c:	f2cfdbe6 	movk	x6, #0x7edf, lsl #32
   8dc20:	2a1b03eb 	mov	w11, w27
   8dc24:	2a1403ec 	mov	w12, w20
   8dc28:	aa1a03ed 	mov	x13, x26
   8dc2c:	aa1c03ee 	mov	x14, x28
   8dc30:	aa1503ef 	mov	x15, x21
   8dc34:	aa1603f0 	mov	x16, x22
   8dc38:	aa1903f1 	mov	x17, x25
   8dc3c:	f2e80fe6 	movk	x6, #0x407f, lsl #48
   8dc40:	17ffe634 	b	87510 <Java_com_adjust_sdk_sig_NativeLibHelper_nOnResume@@Base-0x4457c>
   8dc44:	d10183a8 	sub	x8, x29, #0x60
   8dc48:	d29c6bf0 	mov	x16, #0xe35f                	// #58207
   8dc4c:	d28764f1 	mov	x17, #0x3b27                	// #15143
   8dc50:	f2bb8390 	movk	x16, #0xdc1c, lsl #16
   8dc54:	f2a5a591 	movk	x17, #0x2d2c, lsl #16
   8dc58:	f2cf4e30 	movk	x16, #0x7a71, lsl #32
   8dc5c:	f8500108 	ldur	x8, [x8, #-256]
   8dc60:	f2d2f551 	movk	x17, #0x97aa, lsl #32
   8dc64:	f85903a2 	ldur	x2, [x29, #-112]
   8dc68:	f2fb72f0 	movk	x16, #0xdb97, lsl #48
   8dc6c:	f2ed2d51 	movk	x17, #0x696a, lsl #48
   8dc70:	a93a4fb8 	stp	x24, x19, [x29, #-96]
   8dc74:	f940010a 	ldr	x10, [x8]
   8dc78:	d10ca3a8 	sub	x8, x29, #0x328
   8dc7c:	f81983b7 	stur	x23, [x29, #-104]
   8dc80:	2a1403ec 	mov	w12, w20
   8dc84:	aa1a03ed 	mov	x13, x26
   8dc88:	aa1c03ee 	mov	x14, x28
   8dc8c:	f810010a 	stur	x10, [x8, #-256]
   8dc90:	d10043a8 	sub	x8, x29, #0x10
   8dc94:	f100015f 	cmp	x10, #0x0
   8dc98:	aa1503ef 	mov	x15, x21
   8dc9c:	aa0903ea 	mov	x10, x9
   8dca0:	aa0303e9 	mov	x9, x3
   8dca4:	f850010b 	ldur	x11, [x8, #-256]
   8dca8:	aa1e03e5 	mov	x5, x30
   8dcac:	d10143a8 	sub	x8, x29, #0x50
   8dcb0:	fa401964 	ccmp	x11, #0x0, #0x4, ne	// ne = any
   8dcb4:	2a1b03eb 	mov	w11, w27
   8dcb8:	9a911206 	csel	x6, x16, x17, ne	// ne = any
   8dcbc:	aa1603f0 	mov	x16, x22
   8dcc0:	aa1903f1 	mov	x17, x25
   8dcc4:	f8500100 	ldur	x0, [x8, #-256]
   8dcc8:	f900001f 	str	xzr, [x0]
   8dccc:	17ffe611 	b	87510 <Java_com_adjust_sdk_sig_NativeLibHelper_nOnResume@@Base-0x4457c>
   8dcd0:	d503201f 	nop
   8dcd4:	105c43e8 	adr	x8, 146550 <getauxval@plt+0xc3f0>
   8dcd8:	d103c3a9 	sub	x9, x29, #0xf0
   8dcdc:	d503201f 	nop
   8dce0:	105ace80 	adr	x0, 1436b0 <getauxval@plt+0x9550>
   8dce4:	089ffd1f 	stlrb	wzr, [x8]
   8dce8:	d10063a8 	sub	x8, x29, #0x18
   8dcec:	f8500129 	ldur	x9, [x9, #-256]
   8dcf0:	f8500108 	ldur	x8, [x8, #-256]
   8dcf4:	f9000509 	str	x9, [x8, #8]
   8dcf8:	d10023a8 	sub	x8, x29, #0x8
   8dcfc:	f8500101 	ldur	x1, [x8, #-256]
   8dd00:	94011a5e 	bl	d4678 <Java_com_adjust_sdk_sig_NativeLibHelper_nSign@@Base+0x8074>
   8dd04:	d10023a8 	sub	x8, x29, #0x8
   8dd08:	d2991046 	mov	x6, #0xc882                	// #51330
   8dd0c:	a977aba4 	ldp	x4, x10, [x29, #-136]
   8dd10:	f2af8f26 	movk	x6, #0x7c79, lsl #16
   8dd14:	a93a4fb8 	stp	x24, x19, [x29, #-96]
   8dd18:	f85903a2 	ldur	x2, [x29, #-112]
   8dd1c:	f2d5f9c6 	movk	x6, #0xafce, lsl #32
   8dd20:	f8500109 	ldur	x9, [x8, #-256]
   8dd24:	f81983b7 	stur	x23, [x29, #-104]
   8dd28:	f85703a5 	ldur	x5, [x29, #-144]
   8dd2c:	2a1b03eb 	mov	w11, w27
   8dd30:	2a1403ec 	mov	w12, w20
   8dd34:	aa1a03ed 	mov	x13, x26
   8dd38:	aa1c03ee 	mov	x14, x28
   8dd3c:	aa1503ef 	mov	x15, x21
   8dd40:	aa1603f0 	mov	x16, x22
   8dd44:	aa1903f1 	mov	x17, x25
   8dd48:	f2f6fd46 	movk	x6, #0xb7ea, lsl #48
   8dd4c:	17ffe5f1 	b	87510 <Java_com_adjust_sdk_sig_NativeLibHelper_nOnResume@@Base-0x4457c>
   8dd50:	f85783a4 	ldur	x4, [x29, #-136]
   8dd54:	d294ba50 	mov	x16, #0xa5d2                	// #42450
   8dd58:	d2928af1 	mov	x17, #0x9457                	// #37975
   8dd5c:	d10ae3a8 	sub	x8, x29, #0x2b8
   8dd60:	f2bd0410 	movk	x16, #0xe820, lsl #16
   8dd64:	f2af9791 	movk	x17, #0x7cbc, lsl #16
   8dd68:	aa0403eb 	mov	x11, x4
   8dd6c:	f2c887f0 	movk	x16, #0x443f, lsl #32
   8dd70:	f2c433d1 	movk	x17, #0x219e, lsl #32
   8dd74:	f2f90a30 	movk	x16, #0xc851, lsl #48
   8dd78:	f2fc4cb1 	movk	x17, #0xe265, lsl #48
   8dd7c:	a93a4fb8 	stp	x24, x19, [x29, #-96]
   8dd80:	3840156f 	ldrb	w15, [x11], #1
   8dd84:	f81983b7 	stur	x23, [x29, #-104]
   8dd88:	2a1403ec 	mov	w12, w20
   8dd8c:	f81483ab 	stur	x11, [x29, #-184]
   8dd90:	2a1b03eb 	mov	w11, w27
   8dd94:	710001ff 	cmp	w15, #0x0
   8dd98:	f8100104 	stur	x4, [x8, #-256]
   8dd9c:	aa1a03ed 	mov	x13, x26
   8dda0:	aa1c03ee 	mov	x14, x28
   8dda4:	aa1503ef 	mov	x15, x21
   8dda8:	9a900226 	csel	x6, x17, x16, eq	// eq = none
   8ddac:	aa1603f0 	mov	x16, x22
   8ddb0:	aa1903f1 	mov	x17, x25
   8ddb4:	aa0503ea 	mov	x10, x5
   8ddb8:	f85903a2 	ldur	x2, [x29, #-112]
   8ddbc:	aa0303e9 	mov	x9, x3
   8ddc0:	aa1e03e5 	mov	x5, x30
   8ddc4:	17ffe5d3 	b	87510 <Java_com_adjust_sdk_sig_NativeLibHelper_nOnResume@@Base-0x4457c>
   8ddc8:	d10043a8 	sub	x8, x29, #0x10
   8ddcc:	d10ca3a9 	sub	x9, x29, #0x328
   8ddd0:	f8500100 	ldur	x0, [x8, #-256]
   8ddd4:	f8500121 	ldur	x1, [x9, #-256]
   8ddd8:	f9400008 	ldr	x8, [x0]
   8dddc:	f9405d08 	ldr	x8, [x8, #184]
   8dde0:	d63f0100 	blr	x8
   8dde4:	a97827aa 	ldp	x10, x9, [x29, #-128]
   8dde8:	d29f9e06 	mov	x6, #0xfcf0                	// #64752
   8ddec:	a93a4fb8 	stp	x24, x19, [x29, #-96]
   8ddf0:	a97713a5 	ldp	x5, x4, [x29, #-144]
   8ddf4:	f2a90886 	movk	x6, #0x4844, lsl #16
   8ddf8:	f81983b7 	stur	x23, [x29, #-104]
   8ddfc:	f85903a2 	ldur	x2, [x29, #-112]
   8de00:	f2c8fc26 	movk	x6, #0x47e1, lsl #32
   8de04:	2a1b03eb 	mov	w11, w27
   8de08:	2a1403ec 	mov	w12, w20
   8de0c:	aa1a03ed 	mov	x13, x26
   8de10:	aa1c03ee 	mov	x14, x28
   8de14:	aa1503ef 	mov	x15, x21
   8de18:	aa1603f0 	mov	x16, x22
   8de1c:	aa1903f1 	mov	x17, x25
   8de20:	f2ed5686 	movk	x6, #0x6ab4, lsl #48
   8de24:	17ffe5bb 	b	87510 <Java_com_adjust_sdk_sig_NativeLibHelper_nOnResume@@Base-0x4457c>
   8de28:	2a1f03e0 	mov	w0, wzr
   8de2c:	52800021 	mov	w1, #0x1                   	// #1
   8de30:	d503201f 	nop
   8de34:	105c3ae2 	adr	x2, 146590 <getauxval@plt+0xc430>
   8de38:	9402ae72 	bl	139800 <Java_com_adjust_sdk_sig_NativeLibHelper_nSign@@Base+0x6d1fc>
   8de3c:	d2839d4b 	mov	x11, #0x1cea                	// #7402
   8de40:	d289668c 	mov	x12, #0x4b34                	// #19252
   8de44:	f2acdfeb 	movk	x11, #0x66ff, lsl #16
   8de48:	f2bb30ac 	movk	x12, #0xd985, lsl #16
   8de4c:	f2d2134b 	movk	x11, #0x909a, lsl #32
   8de50:	f2de62cc 	movk	x12, #0xf316, lsl #32
   8de54:	a93a4fb8 	stp	x24, x19, [x29, #-96]
   8de58:	7100001f 	cmp	w0, #0x0
   8de5c:	f81983b7 	stur	x23, [x29, #-104]
   8de60:	f2f7c42b 	movk	x11, #0xbe21, lsl #48
   8de64:	f2fd5e6c 	movk	x12, #0xeaf3, lsl #48
   8de68:	14000530 	b	8f328 <Java_com_adjust_sdk_sig_NativeLibHelper_nOnResume@@Base-0x3c764>
   8de6c:	d100a3a8 	sub	x8, x29, #0x28
   8de70:	d28d9326 	mov	x6, #0x6c99                	// #27801
   8de74:	a97827aa 	ldp	x10, x9, [x29, #-128]
   8de78:	f2a21506 	movk	x6, #0x10a8, lsl #16
   8de7c:	a93a4fb8 	stp	x24, x19, [x29, #-96]
   8de80:	f8500108 	ldur	x8, [x8, #-256]
   8de84:	f2cc6d06 	movk	x6, #0x6368, lsl #32
   8de88:	f85903a2 	ldur	x2, [x29, #-112]
   8de8c:	f81983b7 	stur	x23, [x29, #-104]
   8de90:	f85783a4 	ldur	x4, [x29, #-136]
   8de94:	2a1b03eb 	mov	w11, w27
   8de98:	b940010c 	ldr	w12, [x8]
   8de9c:	aa1a03ed 	mov	x13, x26
   8dea0:	aa1c03ee 	mov	x14, x28
   8dea4:	aa1503ef 	mov	x15, x21
   8dea8:	aa1603f0 	mov	x16, x22
   8deac:	aa1903f1 	mov	x17, x25
   8deb0:	aa1e03e5 	mov	x5, x30
   8deb4:	f2e74366 	movk	x6, #0x3a1b, lsl #48
   8deb8:	17ffe596 	b	87510 <Java_com_adjust_sdk_sig_NativeLibHelper_nOnResume@@Base-0x4457c>
   8debc:	d10063a8 	sub	x8, x29, #0x18
   8dec0:	d28d9326 	mov	x6, #0x6c99                	// #27801
   8dec4:	a977aba4 	ldp	x4, x10, [x29, #-136]
   8dec8:	f2a21506 	movk	x6, #0x10a8, lsl #16
   8decc:	a93a4fb8 	stp	x24, x19, [x29, #-96]
   8ded0:	f8500100 	ldur	x0, [x8, #-256]
   8ded4:	f2cc6d06 	movk	x6, #0x6368, lsl #32
   8ded8:	f85903a2 	ldur	x2, [x29, #-112]
   8dedc:	f81983b7 	stur	x23, [x29, #-104]
   8dee0:	2a1b03eb 	mov	w11, w27
   8dee4:	5280004c 	mov	w12, #0x2                   	// #2
   8dee8:	aa1a03ed 	mov	x13, x26
   8deec:	aa1c03ee 	mov	x14, x28
   8def0:	aa1503ef 	mov	x15, x21
   8def4:	aa1603f0 	mov	x16, x22
   8def8:	aa1903f1 	mov	x17, x25
   8defc:	aa0303e9 	mov	x9, x3
   8df00:	aa1e03e5 	mov	x5, x30
   8df04:	f2e74366 	movk	x6, #0x3a1b, lsl #48
   8df08:	f900141f 	str	xzr, [x0, #40]
   8df0c:	17ffe581 	b	87510 <Java_com_adjust_sdk_sig_NativeLibHelper_nOnResume@@Base-0x4457c>
   8df10:	b00005c8 	adrp	x8, 146000 <getauxval@plt+0xbea0>
   8df14:	d285080f 	mov	x15, #0x2840                	// #10304
   8df18:	d289f110 	mov	x16, #0x4f88                	// #20360
   8df1c:	f2b7d5af 	movk	x15, #0xbead, lsl #16
   8df20:	f2b27c30 	movk	x16, #0x93e1, lsl #16
   8df24:	f2c31e2f 	movk	x15, #0x18f1, lsl #32
   8df28:	395c090e 	ldrb	w14, [x8, #1794]
   8df2c:	f2c4ca30 	movk	x16, #0x2651, lsl #32
   8df30:	f2e12d0f 	movk	x15, #0x968, lsl #48
   8df34:	f2e2be90 	movk	x16, #0x15f4, lsl #48
   8df38:	2a1b03eb 	mov	w11, w27
   8df3c:	2a1403ec 	mov	w12, w20
   8df40:	710001df 	cmp	w14, #0x0
   8df44:	aa1a03ed 	mov	x13, x26
   8df48:	aa1c03ee 	mov	x14, x28
   8df4c:	9a8f1206 	csel	x6, x16, x15, ne	// ne = any
   8df50:	a93a4fb8 	stp	x24, x19, [x29, #-96]
   8df54:	f81983b7 	stur	x23, [x29, #-104]
   8df58:	aa1503ef 	mov	x15, x21
   8df5c:	aa1603f0 	mov	x16, x22
   8df60:	aa1903f1 	mov	x17, x25
   8df64:	f85803aa 	ldur	x10, [x29, #-128]
   8df68:	f85903a2 	ldur	x2, [x29, #-112]
   8df6c:	140000ec 	b	8e31c <Java_com_adjust_sdk_sig_NativeLibHelper_nOnResume@@Base-0x3d770>
   8df70:	d10383a8 	sub	x8, x29, #0xe0
   8df74:	d299a22a 	mov	x10, #0xcd11                	// #52497
   8df78:	d2845ccb 	mov	x11, #0x22e6                	// #8934
   8df7c:	f2ba132a 	movk	x10, #0xd099, lsl #16
   8df80:	f2b6d7cb 	movk	x11, #0xb6be, lsl #16
   8df84:	f2c8b5aa 	movk	x10, #0x45ad, lsl #32
   8df88:	f8500100 	ldur	x0, [x8, #-256]
   8df8c:	d110a3a8 	sub	x8, x29, #0x428
   8df90:	f2db140b 	movk	x11, #0xd8a0, lsl #32
   8df94:	f85903a2 	ldur	x2, [x29, #-112]
   8df98:	f2f552ea 	movk	x10, #0xaa97, lsl #48
   8df9c:	f2eb3aab 	movk	x11, #0x59d5, lsl #48
   8dfa0:	f8100100 	stur	x0, [x8, #-256]
   8dfa4:	d10363a8 	sub	x8, x29, #0xd8
   8dfa8:	f100001f 	cmp	x0, #0x0
   8dfac:	a93a4fb8 	stp	x24, x19, [x29, #-96]
   8dfb0:	9a8b0146 	csel	x6, x10, x11, eq	// eq = none
   8dfb4:	f81983b7 	stur	x23, [x29, #-104]
   8dfb8:	f8500100 	ldur	x0, [x8, #-256]
   8dfbc:	d110c3a8 	sub	x8, x29, #0x430
   8dfc0:	2a1b03eb 	mov	w11, w27
   8dfc4:	2a1403ec 	mov	w12, w20
   8dfc8:	aa1a03ed 	mov	x13, x26
   8dfcc:	aa1c03ee 	mov	x14, x28
   8dfd0:	f8100100 	stur	x0, [x8, #-256]
   8dfd4:	d10343a8 	sub	x8, x29, #0xd0
   8dfd8:	aa1503ef 	mov	x15, x21
   8dfdc:	aa1603f0 	mov	x16, x22
   8dfe0:	aa1903f1 	mov	x17, x25
   8dfe4:	aa0503ea 	mov	x10, x5
   8dfe8:	f8500100 	ldur	x0, [x8, #-256]
   8dfec:	aa0303e9 	mov	x9, x3
   8dff0:	aa0703e4 	mov	x4, x7
   8dff4:	d110e3a8 	sub	x8, x29, #0x438
   8dff8:	140002e5 	b	8eb8c <Java_com_adjust_sdk_sig_NativeLibHelper_nOnResume@@Base-0x3cf00>
   8dffc:	d10023a8 	sub	x8, x29, #0x8
   8e000:	d287f9e6 	mov	x6, #0x3fcf                	// #16335
   8e004:	a97827aa 	ldp	x10, x9, [x29, #-128]
   8e008:	f2ae03c6 	movk	x6, #0x701e, lsl #16
   8e00c:	a93a4fb8 	stp	x24, x19, [x29, #-96]
   8e010:	f8500100 	ldur	x0, [x8, #-256]
   8e014:	d10823a8 	sub	x8, x29, #0x208
   8e018:	f85903a2 	ldur	x2, [x29, #-112]
   8e01c:	f2ce9306 	movk	x6, #0x7498, lsl #32
   8e020:	f85783a4 	ldur	x4, [x29, #-136]
   8e024:	f81983b7 	stur	x23, [x29, #-104]
   8e028:	f8100100 	stur	x0, [x8, #-256]
   8e02c:	d103c3a8 	sub	x8, x29, #0xf0
   8e030:	2a1b03eb 	mov	w11, w27
   8e034:	2a1403ec 	mov	w12, w20
   8e038:	aa1a03ed 	mov	x13, x26
   8e03c:	aa1c03ee 	mov	x14, x28
   8e040:	f8500107 	ldur	x7, [x8, #-256]
   8e044:	d10863a8 	sub	x8, x29, #0x218
   8e048:	aa1503ef 	mov	x15, x21
   8e04c:	aa1603f0 	mov	x16, x22
   8e050:	aa1903f1 	mov	x17, x25
   8e054:	aa1e03e5 	mov	x5, x30
   8e058:	f8100107 	stur	x7, [x8, #-256]
   8e05c:	d10943a8 	sub	x8, x29, #0x250
   8e060:	f2e889c6 	movk	x6, #0x444e, lsl #48
   8e064:	f8500100 	ldur	x0, [x8, #-256]
   8e068:	d10883a8 	sub	x8, x29, #0x220
   8e06c:	f8100100 	stur	x0, [x8, #-256]
   8e070:	382068ff 	strb	wzr, [x7, x0]
   8e074:	17ffe527 	b	87510 <Java_com_adjust_sdk_sig_NativeLibHelper_nOnResume@@Base-0x4457c>
   8e078:	d10063a8 	sub	x8, x29, #0x18
   8e07c:	d28d9326 	mov	x6, #0x6c99                	// #27801
   8e080:	a97827aa 	ldp	x10, x9, [x29, #-128]
   8e084:	f2a21506 	movk	x6, #0x10a8, lsl #16
   8e088:	a93a4fb8 	stp	x24, x19, [x29, #-96]
   8e08c:	f8500100 	ldur	x0, [x8, #-256]
   8e090:	f2cc6d06 	movk	x6, #0x6368, lsl #32
   8e094:	f85903a2 	ldur	x2, [x29, #-112]
   8e098:	f81983b7 	stur	x23, [x29, #-104]
   8e09c:	f85783a4 	ldur	x4, [x29, #-136]
   8e0a0:	2a1b03eb 	mov	w11, w27
   8e0a4:	5280004c 	mov	w12, #0x2                   	// #2
   8e0a8:	aa1a03ed 	mov	x13, x26
   8e0ac:	aa1c03ee 	mov	x14, x28
   8e0b0:	aa1503ef 	mov	x15, x21
   8e0b4:	aa1603f0 	mov	x16, x22
   8e0b8:	aa1903f1 	mov	x17, x25
   8e0bc:	aa1e03e5 	mov	x5, x30
   8e0c0:	f2e74366 	movk	x6, #0x3a1b, lsl #48
   8e0c4:	f900341f 	str	xzr, [x0, #104]
   8e0c8:	17ffe512 	b	87510 <Java_com_adjust_sdk_sig_NativeLibHelper_nOnResume@@Base-0x4457c>
   8e0cc:	d10843a8 	sub	x8, x29, #0x210
   8e0d0:	d292028a 	mov	x10, #0x9014                	// #36884
   8e0d4:	d29be1ab 	mov	x11, #0xdf0d                	// #57101
   8e0d8:	f2b963aa 	movk	x10, #0xcb1d, lsl #16
   8e0dc:	f2b0de2b 	movk	x11, #0x86f1, lsl #16
   8e0e0:	f2cb1e4a 	movk	x10, #0x58f2, lsl #32
   8e0e4:	f850010e 	ldur	x14, [x8, #-256]
   8e0e8:	d10c83a8 	sub	x8, x29, #0x320
   8e0ec:	f2d0592b 	movk	x11, #0x82c9, lsl #32
   8e0f0:	f2f5fd8a 	movk	x10, #0xafec, lsl #48
   8e0f4:	f2e4f98b 	movk	x11, #0x27cc, lsl #48
   8e0f8:	a93a4fb8 	stp	x24, x19, [x29, #-96]
   8e0fc:	f810010e 	stur	x14, [x8, #-256]
   8e100:	d10803a8 	sub	x8, x29, #0x200
   8e104:	f10001df 	cmp	x14, #0x0
   8e108:	f81983b7 	stur	x23, [x29, #-104]
   8e10c:	9a8b0146 	csel	x6, x10, x11, eq	// eq = none
   8e110:	2a1b03eb 	mov	w11, w27
   8e114:	f850010e 	ldur	x14, [x8, #-256]
   8e118:	d10ce3a8 	sub	x8, x29, #0x338
   8e11c:	2a1403ec 	mov	w12, w20
   8e120:	aa1a03ed 	mov	x13, x26
   8e124:	f810010e 	stur	x14, [x8, #-256]
   8e128:	d107e3a8 	sub	x8, x29, #0x1f8
   8e12c:	f850010e 	ldur	x14, [x8, #-256]
   8e130:	d10d23a8 	sub	x8, x29, #0x348
   8e134:	f810010e 	stur	x14, [x8, #-256]
   8e138:	aa1c03ee 	mov	x14, x28
   8e13c:	140003f0 	b	8f0fc <Java_com_adjust_sdk_sig_NativeLibHelper_nOnResume@@Base-0x3c990>
   8e140:	d10043a8 	sub	x8, x29, #0x10
   8e144:	d10c03a9 	sub	x9, x29, #0x300
   8e148:	f8500100 	ldur	x0, [x8, #-256]
   8e14c:	f8500121 	ldur	x1, [x9, #-256]
   8e150:	f9400008 	ldr	x8, [x0]
   8e154:	f9405d08 	ldr	x8, [x8, #184]
   8e158:	d63f0100 	blr	x8
   8e15c:	a97827aa 	ldp	x10, x9, [x29, #-128]
   8e160:	d29d9e26 	mov	x6, #0xecf1                	// #60657
   8e164:	a93a4fb8 	stp	x24, x19, [x29, #-96]
   8e168:	a97713a5 	ldp	x5, x4, [x29, #-144]
   8e16c:	f2a357e6 	movk	x6, #0x1abf, lsl #16
   8e170:	f81983b7 	stur	x23, [x29, #-104]
   8e174:	f85903a2 	ldur	x2, [x29, #-112]
   8e178:	f2d160e6 	movk	x6, #0x8b07, lsl #32
   8e17c:	2a1b03eb 	mov	w11, w27
   8e180:	2a1403ec 	mov	w12, w20
   8e184:	aa1a03ed 	mov	x13, x26
   8e188:	aa1c03ee 	mov	x14, x28
   8e18c:	aa1503ef 	mov	x15, x21
   8e190:	aa1603f0 	mov	x16, x22
   8e194:	aa1903f1 	mov	x17, x25
   8e198:	f2e87486 	movk	x6, #0x43a4, lsl #48
   8e19c:	17ffe4dd 	b	87510 <Java_com_adjust_sdk_sig_NativeLibHelper_nOnResume@@Base-0x4457c>
   8e1a0:	d10b83a8 	sub	x8, x29, #0x2e0
   8e1a4:	d298f946 	mov	x6, #0xc7ca                	// #51146
   8e1a8:	a97827aa 	ldp	x10, x9, [x29, #-128]
   8e1ac:	f2af6286 	movk	x6, #0x7b14, lsl #16
   8e1b0:	a93a4fb8 	stp	x24, x19, [x29, #-96]
   8e1b4:	f8500100 	ldur	x0, [x8, #-256]
   8e1b8:	d10383a8 	sub	x8, x29, #0xe0
   8e1bc:	f85903a2 	ldur	x2, [x29, #-112]
   8e1c0:	f2d89466 	movk	x6, #0xc4a3, lsl #32
   8e1c4:	f85783a4 	ldur	x4, [x29, #-136]
   8e1c8:	f81983b7 	stur	x23, [x29, #-104]
   8e1cc:	f8100100 	stur	x0, [x8, #-256]
   8e1d0:	d105c3a8 	sub	x8, x29, #0x170
   8e1d4:	2a1403ec 	mov	w12, w20
   8e1d8:	aa1a03ed 	mov	x13, x26
   8e1dc:	aa1c03ee 	mov	x14, x28
   8e1e0:	aa1503ef 	mov	x15, x21
   8e1e4:	f8500107 	ldur	x7, [x8, #-256]
   8e1e8:	d10363a8 	sub	x8, x29, #0xd8
   8e1ec:	aa1603f0 	mov	x16, x22
   8e1f0:	aa1903f1 	mov	x17, x25
   8e1f4:	aa1e03e5 	mov	x5, x30
   8e1f8:	f2fef326 	movk	x6, #0xf799, lsl #48
   8e1fc:	f8100107 	stur	x7, [x8, #-256]
   8e200:	d10023a8 	sub	x8, x29, #0x8
   8e204:	382068ff 	strb	wzr, [x7, x0]
   8e208:	f850010b 	ldur	x11, [x8, #-256]
   8e20c:	d10343a8 	sub	x8, x29, #0xd0
   8e210:	f810010b 	stur	x11, [x8, #-256]
   8e214:	2a1b03eb 	mov	w11, w27
   8e218:	17ffe4be 	b	87510 <Java_com_adjust_sdk_sig_NativeLibHelper_nOnResume@@Base-0x4457c>
   8e21c:	d10063a8 	sub	x8, x29, #0x18
   8e220:	d28d9326 	mov	x6, #0x6c99                	// #27801
   8e224:	f85903a2 	ldur	x2, [x29, #-112]
   8e228:	f2a21506 	movk	x6, #0x10a8, lsl #16
   8e22c:	f2cc6d06 	movk	x6, #0x6368, lsl #32
   8e230:	a93a4fb8 	stp	x24, x19, [x29, #-96]
   8e234:	f8500100 	ldur	x0, [x8, #-256]
   8e238:	f81983b7 	stur	x23, [x29, #-104]
   8e23c:	2a1b03eb 	mov	w11, w27
   8e240:	5280004c 	mov	w12, #0x2                   	// #2
   8e244:	aa1a03ed 	mov	x13, x26
   8e248:	aa1c03ee 	mov	x14, x28
   8e24c:	aa1503ef 	mov	x15, x21
   8e250:	aa1603f0 	mov	x16, x22
   8e254:	aa1903f1 	mov	x17, x25
   8e258:	aa0903ea 	mov	x10, x9
   8e25c:	aa0303e9 	mov	x9, x3
   8e260:	aa1e03e5 	mov	x5, x30
   8e264:	f2e74366 	movk	x6, #0x3a1b, lsl #48
   8e268:	f9002c1f 	str	xzr, [x0, #88]
   8e26c:	17ffe4a9 	b	87510 <Java_com_adjust_sdk_sig_NativeLibHelper_nOnResume@@Base-0x4457c>
   8e270:	d10063a8 	sub	x8, x29, #0x18
   8e274:	f85903a2 	ldur	x2, [x29, #-112]
   8e278:	a97827aa 	ldp	x10, x9, [x29, #-128]
   8e27c:	a93a4fb8 	stp	x24, x19, [x29, #-96]
   8e280:	2a1b03eb 	mov	w11, w27
   8e284:	f8500100 	ldur	x0, [x8, #-256]
   8e288:	f81983b7 	stur	x23, [x29, #-104]
   8e28c:	f85783a4 	ldur	x4, [x29, #-136]
   8e290:	5280004c 	mov	w12, #0x2                   	// #2
   8e294:	aa1a03ed 	mov	x13, x26
   8e298:	aa1c03ee 	mov	x14, x28
   8e29c:	aa1503ef 	mov	x15, x21
   8e2a0:	aa1603f0 	mov	x16, x22
   8e2a4:	aa1903f1 	mov	x17, x25
   8e2a8:	aa1e03e5 	mov	x5, x30
   8e2ac:	f900241f 	str	xzr, [x0, #72]
   8e2b0:	17ffe498 	b	87510 <Java_com_adjust_sdk_sig_NativeLibHelper_nOnResume@@Base-0x4457c>
   8e2b4:	f85903a2 	ldur	x2, [x29, #-112]
   8e2b8:	d2902cf0 	mov	x16, #0x8167                	// #33127
   8e2bc:	d296e4b1 	mov	x17, #0xb725                	// #46885
   8e2c0:	d10d43a8 	sub	x8, x29, #0x350
   8e2c4:	f2b08d30 	movk	x16, #0x8469, lsl #16
   8e2c8:	f2a64911 	movk	x17, #0x3248, lsl #16
   8e2cc:	aa0203eb 	mov	x11, x2
   8e2d0:	f2d67430 	movk	x16, #0xb3a1, lsl #32
   8e2d4:	f2ce6f71 	movk	x17, #0x737b, lsl #32
   8e2d8:	f85803aa 	ldur	x10, [x29, #-128]
   8e2dc:	f2ec7150 	movk	x16, #0x638a, lsl #48
   8e2e0:	f2fd9431 	movk	x17, #0xeca1, lsl #48
   8e2e4:	3840156f 	ldrb	w15, [x11], #1
   8e2e8:	a93a4fb8 	stp	x24, x19, [x29, #-96]
   8e2ec:	2a1403ec 	mov	w12, w20
   8e2f0:	f81983b7 	stur	x23, [x29, #-104]
   8e2f4:	aa1a03ed 	mov	x13, x26
   8e2f8:	710001ff 	cmp	w15, #0x0
   8e2fc:	f81303ab 	stur	x11, [x29, #-208]
   8e300:	2a1b03eb 	mov	w11, w27
   8e304:	aa1c03ee 	mov	x14, x28
   8e308:	f8100102 	stur	x2, [x8, #-256]
   8e30c:	aa1503ef 	mov	x15, x21
   8e310:	9a910206 	csel	x6, x16, x17, eq	// eq = none
   8e314:	aa1603f0 	mov	x16, x22
   8e318:	aa1903f1 	mov	x17, x25
   8e31c:	f85883a9 	ldur	x9, [x29, #-120]
   8e320:	aa0503e4 	mov	x4, x5
   8e324:	aa1e03e5 	mov	x5, x30
   8e328:	17ffe47a 	b	87510 <Java_com_adjust_sdk_sig_NativeLibHelper_nOnResume@@Base-0x4457c>
   8e32c:	d10103a8 	sub	x8, x29, #0x40
   8e330:	f8500108 	ldur	x8, [x8, #-256]
   8e334:	f9400102 	ldr	x2, [x8]
   8e338:	d10083a8 	sub	x8, x29, #0x20
   8e33c:	f8500100 	ldur	x0, [x8, #-256]
   8e340:	d10043a8 	sub	x8, x29, #0x10
   8e344:	f8500101 	ldur	x1, [x8, #-256]
   8e348:	d108d3a8 	sub	x8, x29, #0x234
   8e34c:	b8500103 	ldur	w3, [x8, #-256]
   8e350:	d10123a8 	sub	x8, x29, #0x48
   8e354:	f8500104 	ldur	x4, [x8, #-256]
   8e358:	94006c4d 	bl	a948c <Java_com_adjust_sdk_sig_NativeLibHelper_nOnResume@@Base-0x22600>
   8e35c:	d10083a8 	sub	x8, x29, #0x20
   8e360:	d2805b4f 	mov	x15, #0x2da                 	// #730
   8e364:	d2868250 	mov	x16, #0x3412                	// #13330
   8e368:	f2b8c82f 	movk	x15, #0xc641, lsl #16
   8e36c:	f2b089f0 	movk	x16, #0x844f, lsl #16
   8e370:	f2dea70f 	movk	x15, #0xf538, lsl #32
   8e374:	f8500108 	ldur	x8, [x8, #-256]
   8e378:	f2c72ab0 	movk	x16, #0x3955, lsl #32
   8e37c:	a93a4fb8 	stp	x24, x19, [x29, #-96]
   8e380:	2a1b03eb 	mov	w11, w27
   8e384:	f81983b7 	stur	x23, [x29, #-104]
   8e388:	2a1403ec 	mov	w12, w20
   8e38c:	b940010e 	ldr	w14, [x8]
   8e390:	aa1a03ed 	mov	x13, x26
   8e394:	f2ef1b8f 	movk	x15, #0x78dc, lsl #48
   8e398:	f2e96190 	movk	x16, #0x4b0c, lsl #48
   8e39c:	14000237 	b	8ec78 <Java_com_adjust_sdk_sig_NativeLibHelper_nOnResume@@Base-0x3ce14>
   8e3a0:	900005c8 	adrp	x8, 146000 <getauxval@plt+0xbea0>
   8e3a4:	d28a73af 	mov	x15, #0x539d                	// #21405
   8e3a8:	d29c15b0 	mov	x16, #0xe0ad                	// #57517
   8e3ac:	f2a6e44f 	movk	x15, #0x3722, lsl #16
   8e3b0:	f2b71d50 	movk	x16, #0xb8ea, lsl #16
   8e3b4:	f2dd5aef 	movk	x15, #0xead7, lsl #32
   8e3b8:	395be10e 	ldrb	w14, [x8, #1784]
   8e3bc:	f2c58c70 	movk	x16, #0x2c63, lsl #32
   8e3c0:	2a1b03eb 	mov	w11, w27
   8e3c4:	2a1403ec 	mov	w12, w20
   8e3c8:	aa1a03ed 	mov	x13, x26
   8e3cc:	f2fa906f 	movk	x15, #0xd483, lsl #48
   8e3d0:	710001df 	cmp	w14, #0x0
   8e3d4:	aa1c03ee 	mov	x14, x28
   8e3d8:	f2fd5df0 	movk	x16, #0xeaef, lsl #48
   8e3dc:	a93a4fb8 	stp	x24, x19, [x29, #-96]
   8e3e0:	f81983b7 	stur	x23, [x29, #-104]
   8e3e4:	9a9011e6 	csel	x6, x15, x16, ne	// ne = any
   8e3e8:	14000345 	b	8f0fc <Java_com_adjust_sdk_sig_NativeLibHelper_nOnResume@@Base-0x3c990>
   8e3ec:	d100c3a8 	sub	x8, x29, #0x30
   8e3f0:	d10ba3a9 	sub	x9, x29, #0x2e8
   8e3f4:	f8500108 	ldur	x8, [x8, #-256]
   8e3f8:	f8500129 	ldur	x9, [x9, #-256]
   8e3fc:	cb080128 	sub	x8, x9, x8
   8e400:	d10963a9 	sub	x9, x29, #0x258
   8e404:	91000500 	add	x0, x8, #0x1
   8e408:	f8100128 	stur	x8, [x9, #-256]
   8e40c:	9402ae85 	bl	139e20 <malloc@plt>
   8e410:	d103e3a8 	sub	x8, x29, #0xf8
   8e414:	d285f4ab 	mov	x11, #0x2fa5                	// #12197
   8e418:	d29a354c 	mov	x12, #0xd1aa                	// #53674
   8e41c:	f2ac438b 	movk	x11, #0x621c, lsl #16
   8e420:	f2ae8fac 	movk	x12, #0x747d, lsl #16
   8e424:	f2c8ef2b 	movk	x11, #0x4779, lsl #32
   8e428:	f2c3f00c 	movk	x12, #0x1f80, lsl #32
   8e42c:	a93a4fb8 	stp	x24, x19, [x29, #-96]
   8e430:	f8100100 	stur	x0, [x8, #-256]
   8e434:	f100001f 	cmp	x0, #0x0
   8e438:	f81983b7 	stur	x23, [x29, #-104]
   8e43c:	f2ef896b 	movk	x11, #0x7c4b, lsl #48
   8e440:	f2f81b4c 	movk	x12, #0xc0da, lsl #48
   8e444:	140003b9 	b	8f328 <Java_com_adjust_sdk_sig_NativeLibHelper_nOnResume@@Base-0x3c764>
   8e448:	b00005a0 	adrp	x0, 143000 <getauxval@plt+0x8ea0>
   8e44c:	d29efa06 	mov	x6, #0xf7d0                	// #63440
   8e450:	4f06e681 	movi	v1.16b, #0xd4
   8e454:	900005c7 	adrp	x7, 146000 <getauxval@plt+0xbea0>
   8e458:	a97827aa 	ldp	x10, x9, [x29, #-128]
   8e45c:	f2bb1286 	movk	x6, #0xd894, lsl #16
   8e460:	a93a4fb8 	stp	x24, x19, [x29, #-96]
   8e464:	3dc1e400 	ldr	q0, [x0, #1936]
   8e468:	f2dc52e6 	movk	x6, #0xe297, lsl #32
   8e46c:	f85903a2 	ldur	x2, [x29, #-112]
   8e470:	f81983b7 	stur	x23, [x29, #-104]
   8e474:	f85783a4 	ldur	x4, [x29, #-136]
   8e478:	2a1b03eb 	mov	w11, w27
   8e47c:	6e211c00 	eor	v0.16b, v0.16b, v1.16b
   8e480:	2a1403ec 	mov	w12, w20
   8e484:	3d81e400 	str	q0, [x0, #1936]
   8e488:	52800020 	mov	w0, #0x1                   	// #1
   8e48c:	aa1a03ed 	mov	x13, x26
   8e490:	aa1c03ee 	mov	x14, x28
   8e494:	aa1503ef 	mov	x15, x21
   8e498:	aa1603f0 	mov	x16, x22
   8e49c:	aa1903f1 	mov	x17, x25
   8e4a0:	aa1e03e5 	mov	x5, x30
   8e4a4:	f2e0e9e6 	movk	x6, #0x74f, lsl #48
   8e4a8:	391c44e0 	strb	w0, [x7, #1809]
   8e4ac:	17ffe419 	b	87510 <Java_com_adjust_sdk_sig_NativeLibHelper_nOnResume@@Base-0x4457c>
   8e4b0:	aa1803eb 	mov	x11, x24
   8e4b4:	d2964bb1 	mov	x17, #0xb25d                	// #45661
   8e4b8:	d29e7fe0 	mov	x0, #0xf3ff                	// #62463
   8e4bc:	f2a14931 	movk	x17, #0xa49, lsl #16
   8e4c0:	f2a08500 	movk	x0, #0x428, lsl #16
   8e4c4:	d111e3a8 	sub	x8, x29, #0x478
   8e4c8:	38401570 	ldrb	w16, [x11], #1
   8e4cc:	f2cc8151 	movk	x17, #0x640a, lsl #32
   8e4d0:	f2c87c80 	movk	x0, #0x43e4, lsl #32
   8e4d4:	f85903a2 	ldur	x2, [x29, #-112]
   8e4d8:	f2f36991 	movk	x17, #0x9b4c, lsl #48
   8e4dc:	7100021f 	cmp	w16, #0x0
   8e4e0:	f2fc4360 	movk	x0, #0xe21b, lsl #48
   8e4e4:	a93a4fb8 	stp	x24, x19, [x29, #-96]
   8e4e8:	2a1403ec 	mov	w12, w20
   8e4ec:	f81983b7 	stur	x23, [x29, #-104]
   8e4f0:	aa1a03ed 	mov	x13, x26
   8e4f4:	f81383ab 	stur	x11, [x29, #-200]
   8e4f8:	2a1b03eb 	mov	w11, w27
   8e4fc:	aa1c03ee 	mov	x14, x28
   8e500:	aa1503ef 	mov	x15, x21
   8e504:	aa1603f0 	mov	x16, x22
   8e508:	9a800226 	csel	x6, x17, x0, eq	// eq = none
   8e50c:	aa1903f1 	mov	x17, x25
   8e510:	aa0303e9 	mov	x9, x3
   8e514:	f8100118 	stur	x24, [x8, #-256]
   8e518:	aa1e03e5 	mov	x5, x30
   8e51c:	17ffe3fd 	b	87510 <Java_com_adjust_sdk_sig_NativeLibHelper_nOnResume@@Base-0x4457c>
   8e520:	d102c3a8 	sub	x8, x29, #0xb0
   8e524:	d28f616a 	mov	x10, #0x7b0b                	// #31499
   8e528:	d2900cab 	mov	x11, #0x8065                	// #32869
   8e52c:	f2bcec6a 	movk	x10, #0xe763, lsl #16
   8e530:	f2a6bc2b 	movk	x11, #0x35e1, lsl #16
   8e534:	f2cc110a 	movk	x10, #0x6088, lsl #32
   8e538:	f8500100 	ldur	x0, [x8, #-256]
   8e53c:	d11023a8 	sub	x8, x29, #0x408
   8e540:	f2d90eeb 	movk	x11, #0xc877, lsl #32
   8e544:	f2e00cca 	movk	x10, #0x66, lsl #48
   8e548:	f2eaa1ab 	movk	x11, #0x550d, lsl #48
   8e54c:	f85903a2 	ldur	x2, [x29, #-112]
   8e550:	f8100100 	stur	x0, [x8, #-256]
   8e554:	d102a3a8 	sub	x8, x29, #0xa8
   8e558:	f100001f 	cmp	x0, #0x0
   8e55c:	a93a4fb8 	stp	x24, x19, [x29, #-96]
   8e560:	9a8a0166 	csel	x6, x11, x10, eq	// eq = none
   8e564:	f85803aa 	ldur	x10, [x29, #-128]
   8e568:	f8500100 	ldur	x0, [x8, #-256]
   8e56c:	d11043a8 	sub	x8, x29, #0x410
   8e570:	f81983b7 	stur	x23, [x29, #-104]
   8e574:	2a1b03eb 	mov	w11, w27
   8e578:	2a1403ec 	mov	w12, w20
   8e57c:	aa1a03ed 	mov	x13, x26
   8e580:	f8100100 	stur	x0, [x8, #-256]
   8e584:	d10283a8 	sub	x8, x29, #0xa0
   8e588:	aa1c03ee 	mov	x14, x28
   8e58c:	aa1503ef 	mov	x15, x21
   8e590:	aa1603f0 	mov	x16, x22
   8e594:	aa1903f1 	mov	x17, x25
   8e598:	f8500100 	ldur	x0, [x8, #-256]
   8e59c:	d11063a8 	sub	x8, x29, #0x418
   8e5a0:	f8100100 	stur	x0, [x8, #-256]
   8e5a4:	1400036b 	b	8f350 <Java_com_adjust_sdk_sig_NativeLibHelper_nOnResume@@Base-0x3c73c>
   8e5a8:	d10023a8 	sub	x8, x29, #0x8
   8e5ac:	d28da0e6 	mov	x6, #0x6d07                	// #27911
   8e5b0:	f85903a2 	ldur	x2, [x29, #-112]
   8e5b4:	f2aed3e6 	movk	x6, #0x769f, lsl #16
   8e5b8:	f2df5726 	movk	x6, #0xfab9, lsl #32
   8e5bc:	a93a4fb8 	stp	x24, x19, [x29, #-96]
   8e5c0:	f850010d 	ldur	x13, [x8, #-256]
   8e5c4:	d104a3a8 	sub	x8, x29, #0x128
   8e5c8:	f81983b7 	stur	x23, [x29, #-104]
   8e5cc:	2a1b03eb 	mov	w11, w27
   8e5d0:	2a1403ec 	mov	w12, w20
   8e5d4:	aa1c03ee 	mov	x14, x28
   8e5d8:	f810010d 	stur	x13, [x8, #-256]
   8e5dc:	d10523a8 	sub	x8, x29, #0x148
   8e5e0:	aa1a03ed 	mov	x13, x26
   8e5e4:	aa1503ef 	mov	x15, x21
   8e5e8:	aa1603f0 	mov	x16, x22
   8e5ec:	aa1903f1 	mov	x17, x25
   8e5f0:	f8500107 	ldur	x7, [x8, #-256]
   8e5f4:	d104c3a8 	sub	x8, x29, #0x130
   8e5f8:	aa0103ea 	mov	x10, x1
   8e5fc:	aa0303e9 	mov	x9, x3
   8e600:	aa1e03e5 	mov	x5, x30
   8e604:	f2eeff06 	movk	x6, #0x77f8, lsl #48
   8e608:	f8100107 	stur	x7, [x8, #-256]
   8e60c:	d10ac3a8 	sub	x8, x29, #0x2b0
   8e610:	f8500100 	ldur	x0, [x8, #-256]
   8e614:	d10503a8 	sub	x8, x29, #0x140
   8e618:	f8100100 	stur	x0, [x8, #-256]
   8e61c:	382068ff 	strb	wzr, [x7, x0]
   8e620:	17ffe3bc 	b	87510 <Java_com_adjust_sdk_sig_NativeLibHelper_nOnResume@@Base-0x4457c>
   8e624:	d106a3a8 	sub	x8, x29, #0x1a8
   8e628:	d28ea86a 	mov	x10, #0x7543                	// #30019
   8e62c:	d2967bcb 	mov	x11, #0xb3de                	// #46046
   8e630:	f2a650ea 	movk	x10, #0x3287, lsl #16
   8e634:	f2ab858b 	movk	x11, #0x5c2c, lsl #16
   8e638:	f2ce7c2a 	movk	x10, #0x73e1, lsl #32
   8e63c:	f8500111 	ldur	x17, [x8, #-256]
   8e640:	d11183a8 	sub	x8, x29, #0x460
   8e644:	f2c3402b 	movk	x11, #0x1a01, lsl #32
   8e648:	f2f0dfea 	movk	x10, #0x86ff, lsl #48
   8e64c:	f2f967ab 	movk	x11, #0xcb3d, lsl #48
   8e650:	a93a4fb8 	stp	x24, x19, [x29, #-96]
   8e654:	f8100111 	stur	x17, [x8, #-256]
   8e658:	d10683a8 	sub	x8, x29, #0x1a0
   8e65c:	f100023f 	cmp	x17, #0x0
   8e660:	f81983b7 	stur	x23, [x29, #-104]
   8e664:	9a8b0146 	csel	x6, x10, x11, eq	// eq = none
   8e668:	2a1b03eb 	mov	w11, w27
   8e66c:	f8500111 	ldur	x17, [x8, #-256]
   8e670:	d111a3a8 	sub	x8, x29, #0x468
   8e674:	2a1403ec 	mov	w12, w20
   8e678:	aa1a03ed 	mov	x13, x26
   8e67c:	aa1c03ee 	mov	x14, x28
   8e680:	aa1503ef 	mov	x15, x21
   8e684:	f8100111 	stur	x17, [x8, #-256]
   8e688:	d10663a8 	sub	x8, x29, #0x198
   8e68c:	aa1603f0 	mov	x16, x22
   8e690:	f8500111 	ldur	x17, [x8, #-256]
   8e694:	d111c3a8 	sub	x8, x29, #0x470
   8e698:	f8100111 	stur	x17, [x8, #-256]
   8e69c:	1400029a 	b	8f104 <Java_com_adjust_sdk_sig_NativeLibHelper_nOnResume@@Base-0x3c988>
   8e6a0:	d11243a8 	sub	x8, x29, #0x490
   8e6a4:	d10323a9 	sub	x9, x29, #0xc8
   8e6a8:	a97713a5 	ldp	x5, x4, [x29, #-144]
   8e6ac:	d2944f46 	mov	x6, #0xa27a                	// #41594
   8e6b0:	a93a4fb8 	stp	x24, x19, [x29, #-96]
   8e6b4:	f850010a 	ldur	x10, [x8, #-256]
   8e6b8:	d11223a8 	sub	x8, x29, #0x488
   8e6bc:	f85903a2 	ldur	x2, [x29, #-112]
   8e6c0:	f2b5b946 	movk	x6, #0xadca, lsl #16
   8e6c4:	f2cb4886 	movk	x6, #0x5a44, lsl #32
   8e6c8:	f81983b7 	stur	x23, [x29, #-104]
   8e6cc:	f8500107 	ldur	x7, [x8, #-256]
   8e6d0:	d11203a8 	sub	x8, x29, #0x480
   8e6d4:	38401540 	ldrb	w0, [x10], #1
   8e6d8:	2a1b03eb 	mov	w11, w27
   8e6dc:	2a1403ec 	mov	w12, w20
   8e6e0:	f8500108 	ldur	x8, [x8, #-256]
   8e6e4:	aa1a03ed 	mov	x13, x26
   8e6e8:	aa1c03ee 	mov	x14, x28
   8e6ec:	aa1503ef 	mov	x15, x21
   8e6f0:	aa1603f0 	mov	x16, x22
   8e6f4:	aa1903f1 	mov	x17, x25
   8e6f8:	d1000508 	sub	x8, x8, #0x1
   8e6fc:	f2fdc886 	movk	x6, #0xee44, lsl #48
   8e700:	380014e0 	strb	w0, [x7], #1
   8e704:	f8100128 	stur	x8, [x9, #-256]
   8e708:	d102e3a8 	sub	x8, x29, #0xb8
   8e70c:	f810010a 	stur	x10, [x8, #-256]
   8e710:	d10303a8 	sub	x8, x29, #0xc0
   8e714:	a97827aa 	ldp	x10, x9, [x29, #-128]
   8e718:	f8100107 	stur	x7, [x8, #-256]
   8e71c:	17ffe37d 	b	87510 <Java_com_adjust_sdk_sig_NativeLibHelper_nOnResume@@Base-0x4457c>
   8e720:	d10b03a8 	sub	x8, x29, #0x2c0
   8e724:	d299db06 	mov	x6, #0xced8                	// #52952
   8e728:	f85903a2 	ldur	x2, [x29, #-112]
   8e72c:	f2be3286 	movk	x6, #0xf194, lsl #16
   8e730:	f85783a4 	ldur	x4, [x29, #-136]
   8e734:	f2d55ac6 	movk	x6, #0xaad6, lsl #32
   8e738:	f8500100 	ldur	x0, [x8, #-256]
   8e73c:	d102c3a8 	sub	x8, x29, #0xb0
   8e740:	f81a83b3 	stur	x19, [x29, #-88]
   8e744:	2a1b03eb 	mov	w11, w27
   8e748:	a939e3b7 	stp	x23, x24, [x29, #-104]
   8e74c:	2a1403ec 	mov	w12, w20
   8e750:	f8100100 	stur	x0, [x8, #-256]
   8e754:	d10543a8 	sub	x8, x29, #0x150
   8e758:	aa1a03ed 	mov	x13, x26
   8e75c:	aa1c03ee 	mov	x14, x28
   8e760:	aa1503ef 	mov	x15, x21
   8e764:	aa1603f0 	mov	x16, x22
   8e768:	f8500107 	ldur	x7, [x8, #-256]
   8e76c:	d102a3a8 	sub	x8, x29, #0xa8
   8e770:	aa1903f1 	mov	x17, x25
   8e774:	aa0103ea 	mov	x10, x1
   8e778:	aa1e03e5 	mov	x5, x30
   8e77c:	f2febc46 	movk	x6, #0xf5e2, lsl #48
   8e780:	f8100107 	stur	x7, [x8, #-256]
   8e784:	d10023a8 	sub	x8, x29, #0x8
   8e788:	382068ff 	strb	wzr, [x7, x0]
   8e78c:	f8500109 	ldur	x9, [x8, #-256]
   8e790:	d10283a8 	sub	x8, x29, #0xa0
   8e794:	f8100109 	stur	x9, [x8, #-256]
   8e798:	aa0303e9 	mov	x9, x3
   8e79c:	17ffe35d 	b	87510 <Java_com_adjust_sdk_sig_NativeLibHelper_nOnResume@@Base-0x4457c>
   8e7a0:	d11163a8 	sub	x8, x29, #0x458
   8e7a4:	d107c3a9 	sub	x9, x29, #0x1f0
   8e7a8:	d29e78c6 	mov	x6, #0xf3c6                	// #62406
   8e7ac:	f85903a2 	ldur	x2, [x29, #-112]
   8e7b0:	f85783a4 	ldur	x4, [x29, #-136]
   8e7b4:	f2af4426 	movk	x6, #0x7a21, lsl #16
   8e7b8:	f850010a 	ldur	x10, [x8, #-256]
   8e7bc:	d11143a8 	sub	x8, x29, #0x450
   8e7c0:	f2ca6806 	movk	x6, #0x5340, lsl #32
   8e7c4:	a93a4fb8 	stp	x24, x19, [x29, #-96]
   8e7c8:	f81983b7 	stur	x23, [x29, #-104]
   8e7cc:	2a1b03eb 	mov	w11, w27
   8e7d0:	f8500107 	ldur	x7, [x8, #-256]
   8e7d4:	d11123a8 	sub	x8, x29, #0x448
   8e7d8:	38401540 	ldrb	w0, [x10], #1
   8e7dc:	2a1403ec 	mov	w12, w20
   8e7e0:	aa1a03ed 	mov	x13, x26
   8e7e4:	f8500108 	ldur	x8, [x8, #-256]
   8e7e8:	aa1c03ee 	mov	x14, x28
   8e7ec:	aa1503ef 	mov	x15, x21
   8e7f0:	aa1603f0 	mov	x16, x22
   8e7f4:	aa1903f1 	mov	x17, x25
   8e7f8:	f2fbdb86 	movk	x6, #0xdedc, lsl #48
   8e7fc:	d1000508 	sub	x8, x8, #0x1
   8e800:	380014e0 	strb	w0, [x7], #1
   8e804:	f8100128 	stur	x8, [x9, #-256]
   8e808:	d10783a8 	sub	x8, x29, #0x1e0
   8e80c:	aa0303e9 	mov	x9, x3
   8e810:	f810010a 	stur	x10, [x8, #-256]
   8e814:	d107a3a8 	sub	x8, x29, #0x1e8
   8e818:	aa0503ea 	mov	x10, x5
   8e81c:	aa1e03e5 	mov	x5, x30
   8e820:	f8100107 	stur	x7, [x8, #-256]
   8e824:	17ffe33b 	b	87510 <Java_com_adjust_sdk_sig_NativeLibHelper_nOnResume@@Base-0x4457c>
   8e828:	900005c8 	adrp	x8, 146000 <getauxval@plt+0xbea0>
   8e82c:	d29dfe2f 	mov	x15, #0xeff1                	// #61425
   8e830:	d298de10 	mov	x16, #0xc6f0                	// #50928
   8e834:	f2b6a32f 	movk	x15, #0xb519, lsl #16
   8e838:	f2b01610 	movk	x16, #0x80b0, lsl #16
   8e83c:	f2d6ad2f 	movk	x15, #0xb569, lsl #32
   8e840:	39590d0e 	ldrb	w14, [x8, #1603]
   8e844:	f2c8f870 	movk	x16, #0x47c3, lsl #32
   8e848:	a93a4fb8 	stp	x24, x19, [x29, #-96]
   8e84c:	2a1b03eb 	mov	w11, w27
   8e850:	f81983b7 	stur	x23, [x29, #-104]
   8e854:	2a1403ec 	mov	w12, w20
   8e858:	aa1a03ed 	mov	x13, x26
   8e85c:	710001df 	cmp	w14, #0x0
   8e860:	aa1c03ee 	mov	x14, x28
   8e864:	f2f329af 	movk	x15, #0x994d, lsl #48
   8e868:	f2ed7bd0 	movk	x16, #0x6bde, lsl #48
   8e86c:	9a8f1206 	csel	x6, x16, x15, ne	// ne = any
   8e870:	aa1503ef 	mov	x15, x21
   8e874:	aa1603f0 	mov	x16, x22
   8e878:	140000df 	b	8ebf4 <Java_com_adjust_sdk_sig_NativeLibHelper_nOnResume@@Base-0x3ce98>
   8e87c:	d28d9326 	mov	x6, #0x6c99                	// #27801
   8e880:	2a1b03eb 	mov	w11, w27
   8e884:	a97827aa 	ldp	x10, x9, [x29, #-128]
   8e888:	f2a21506 	movk	x6, #0x10a8, lsl #16
   8e88c:	5280004c 	mov	w12, #0x2                   	// #2
   8e890:	f2cc6d06 	movk	x6, #0x6368, lsl #32
   8e894:	aa1a03ed 	mov	x13, x26
   8e898:	aa1c03ee 	mov	x14, x28
   8e89c:	aa1503ef 	mov	x15, x21
   8e8a0:	aa1603f0 	mov	x16, x22
   8e8a4:	aa1903f1 	mov	x17, x25
   8e8a8:	f85903a2 	ldur	x2, [x29, #-112]
   8e8ac:	aa1e03e5 	mov	x5, x30
   8e8b0:	f85783a4 	ldur	x4, [x29, #-136]
   8e8b4:	f2e74366 	movk	x6, #0x3a1b, lsl #48
   8e8b8:	d10063a8 	sub	x8, x29, #0x18
   8e8bc:	a93a4fb8 	stp	x24, x19, [x29, #-96]
   8e8c0:	f81983b7 	stur	x23, [x29, #-104]
   8e8c4:	17fffd00 	b	8dcc4 <Java_com_adjust_sdk_sig_NativeLibHelper_nOnResume@@Base-0x3ddc8>
   8e8c8:	900005c8 	adrp	x8, 146000 <getauxval@plt+0xbea0>
   8e8cc:	d29ccacf 	mov	x15, #0xe656                	// #58966
   8e8d0:	d28c2690 	mov	x16, #0x6134                	// #24884
   8e8d4:	f2bb2f6f 	movk	x15, #0xd97b, lsl #16
   8e8d8:	f2b86a90 	movk	x16, #0xc354, lsl #16
   8e8dc:	f2db16ef 	movk	x15, #0xd8b7, lsl #32
   8e8e0:	3959150e 	ldrb	w14, [x8, #1605]
   8e8e4:	f2d0dc70 	movk	x16, #0x86e3, lsl #32
   8e8e8:	f85903a2 	ldur	x2, [x29, #-112]
   8e8ec:	f2f0396f 	movk	x15, #0x81cb, lsl #48
   8e8f0:	f2f38f10 	movk	x16, #0x9c78, lsl #48
   8e8f4:	a93a4fb8 	stp	x24, x19, [x29, #-96]
   8e8f8:	710001df 	cmp	w14, #0x0
   8e8fc:	f81983b7 	stur	x23, [x29, #-104]
   8e900:	2a1b03eb 	mov	w11, w27
   8e904:	2a1403ec 	mov	w12, w20
   8e908:	aa1a03ed 	mov	x13, x26
   8e90c:	aa1c03ee 	mov	x14, x28
   8e910:	9a8f1206 	csel	x6, x16, x15, ne	// ne = any
   8e914:	aa1503ef 	mov	x15, x21
   8e918:	aa1603f0 	mov	x16, x22
   8e91c:	aa1903f1 	mov	x17, x25
   8e920:	aa0303e9 	mov	x9, x3
   8e924:	140001fc 	b	8f114 <Java_com_adjust_sdk_sig_NativeLibHelper_nOnResume@@Base-0x3c978>
   8e928:	d503201f 	nop
   8e92c:	105be028 	adr	x8, 146530 <getauxval@plt+0xc3d0>
   8e930:	d10443a9 	sub	x9, x29, #0x110
   8e934:	d503201f 	nop
   8e938:	105a6880 	adr	x0, 143648 <getauxval@plt+0x94e8>
   8e93c:	089ffd1f 	stlrb	wzr, [x8]
   8e940:	d10063a8 	sub	x8, x29, #0x18
   8e944:	f8500129 	ldur	x9, [x9, #-256]
   8e948:	f8500108 	ldur	x8, [x8, #-256]
   8e94c:	f9000109 	str	x9, [x8]
   8e950:	d10023a8 	sub	x8, x29, #0x8
   8e954:	f8500116 	ldur	x22, [x8, #-256]
   8e958:	aa1603e1 	mov	x1, x22
   8e95c:	94011747 	bl	d4678 <Java_com_adjust_sdk_sig_NativeLibHelper_nSign@@Base+0x8074>
   8e960:	a97827aa 	ldp	x10, x9, [x29, #-128]
   8e964:	d29f5326 	mov	x6, #0xfa99                	// #64153
   8e968:	a93a4fb8 	stp	x24, x19, [x29, #-96]
   8e96c:	a97713a5 	ldp	x5, x4, [x29, #-144]
   8e970:	f2bfbf46 	movk	x6, #0xfdfa, lsl #16
   8e974:	f81983b7 	stur	x23, [x29, #-104]
   8e978:	f85903a2 	ldur	x2, [x29, #-112]
   8e97c:	f2c46186 	movk	x6, #0x230c, lsl #32
   8e980:	2a1b03eb 	mov	w11, w27
   8e984:	2a1403ec 	mov	w12, w20
   8e988:	aa1a03ed 	mov	x13, x26
   8e98c:	aa1c03ee 	mov	x14, x28
   8e990:	aa1503ef 	mov	x15, x21
   8e994:	aa1603f0 	mov	x16, x22
   8e998:	aa1903f1 	mov	x17, x25
   8e99c:	f2f48f86 	movk	x6, #0xa47c, lsl #48
   8e9a0:	17ffe2dc 	b	87510 <Java_com_adjust_sdk_sig_NativeLibHelper_nOnResume@@Base-0x4457c>
   8e9a4:	d10203a8 	sub	x8, x29, #0x80
   8e9a8:	f8500108 	ldur	x8, [x8, #-256]
   8e9ac:	f9400102 	ldr	x2, [x8]
   8e9b0:	d100a3a8 	sub	x8, x29, #0x28
   8e9b4:	f8500100 	ldur	x0, [x8, #-256]
   8e9b8:	d10043a8 	sub	x8, x29, #0x10
   8e9bc:	f8500101 	ldur	x1, [x8, #-256]
   8e9c0:	d100e3a8 	sub	x8, x29, #0x38
   8e9c4:	f8500103 	ldur	x3, [x8, #-256]
   8e9c8:	9400b934 	bl	bce98 <Java_com_adjust_sdk_sig_NativeLibHelper_nOnResume@@Base-0xebf4>
   8e9cc:	d100a3a8 	sub	x8, x29, #0x28
   8e9d0:	d2984bef 	mov	x15, #0xc25f                	// #49759
   8e9d4:	d292cd90 	mov	x16, #0x966c                	// #38508
   8e9d8:	f2b3e46f 	movk	x15, #0x9f23, lsl #16
   8e9dc:	f2b76570 	movk	x16, #0xbb2b, lsl #16
   8e9e0:	f2defecf 	movk	x15, #0xf7f6, lsl #32
   8e9e4:	f8500108 	ldur	x8, [x8, #-256]
   8e9e8:	f2d6cfb0 	movk	x16, #0xb67d, lsl #32
   8e9ec:	a93a4fb8 	stp	x24, x19, [x29, #-96]
   8e9f0:	2a1b03eb 	mov	w11, w27
   8e9f4:	f81983b7 	stur	x23, [x29, #-104]
   8e9f8:	2a1403ec 	mov	w12, w20
   8e9fc:	b940010e 	ldr	w14, [x8]
   8ea00:	aa1a03ed 	mov	x13, x26
   8ea04:	f2f244cf 	movk	x15, #0x9226, lsl #48
   8ea08:	f2e50cb0 	movk	x16, #0x2865, lsl #48
   8ea0c:	1400009b 	b	8ec78 <Java_com_adjust_sdk_sig_NativeLibHelper_nOnResume@@Base-0x3ce14>
   8ea10:	d100c3a8 	sub	x8, x29, #0x30
   8ea14:	d10ae3a9 	sub	x9, x29, #0x2b8
   8ea18:	f8500108 	ldur	x8, [x8, #-256]
   8ea1c:	f8500129 	ldur	x9, [x9, #-256]
   8ea20:	cb080128 	sub	x8, x9, x8
   8ea24:	d10943a9 	sub	x9, x29, #0x250
   8ea28:	91000500 	add	x0, x8, #0x1
   8ea2c:	f8100128 	stur	x8, [x9, #-256]
   8ea30:	9402acfc 	bl	139e20 <malloc@plt>
   8ea34:	d103c3a8 	sub	x8, x29, #0xf0
   8ea38:	d29e6b6b 	mov	x11, #0xf35b                	// #62299
   8ea3c:	d2863dcc 	mov	x12, #0x31ee                	// #12782
   8ea40:	f2ad040b 	movk	x11, #0x6820, lsl #16
   8ea44:	f2b68d8c 	movk	x12, #0xb46c, lsl #16
   8ea48:	f2ccee2b 	movk	x11, #0x6771, lsl #32
   8ea4c:	f2ddc7ac 	movk	x12, #0xee3d, lsl #32
   8ea50:	a93a4fb8 	stp	x24, x19, [x29, #-96]
   8ea54:	f8100100 	stur	x0, [x8, #-256]
   8ea58:	f100001f 	cmp	x0, #0x0
   8ea5c:	f81983b7 	stur	x23, [x29, #-104]
   8ea60:	f2fa974b 	movk	x11, #0xd4ba, lsl #48
   8ea64:	f2e5030c 	movk	x12, #0x2818, lsl #48
   8ea68:	14000230 	b	8f328 <Java_com_adjust_sdk_sig_NativeLibHelper_nOnResume@@Base-0x3c764>
   8ea6c:	d503201f 	nop
   8ea70:	105a5dc0 	adr	x0, 143628 <getauxval@plt+0x94c8>
   8ea74:	5280094c 	mov	w12, #0x4a                  	// #74
   8ea78:	d28ba346 	mov	x6, #0x5d1a                	// #23834
   8ea7c:	900005c7 	adrp	x7, 146000 <getauxval@plt+0xbea0>
   8ea80:	f85903a2 	ldur	x2, [x29, #-112]
   8ea84:	39402008 	ldrb	w8, [x0, #8]
   8ea88:	f2bb7486 	movk	x6, #0xdba4, lsl #16
   8ea8c:	39402409 	ldrb	w9, [x0, #9]
   8ea90:	f2d54826 	movk	x6, #0xaa41, lsl #32
   8ea94:	3940280a 	ldrb	w10, [x0, #10]
   8ea98:	a93a4fb8 	stp	x24, x19, [x29, #-96]
   8ea9c:	4a0c0108 	eor	w8, w8, w12
   8eaa0:	39402c0b 	ldrb	w11, [x0, #11]
   8eaa4:	fd400000 	ldr	d0, [x0]
   8eaa8:	4a0c0129 	eor	w9, w9, w12
   8eaac:	f81983b7 	stur	x23, [x29, #-104]
   8eab0:	aa1a03ed 	mov	x13, x26
   8eab4:	39002008 	strb	w8, [x0, #8]
   8eab8:	4a0c0148 	eor	w8, w10, w12
   8eabc:	4a0c016a 	eor	w10, w11, w12
   8eac0:	2e2d1c00 	eor	v0.8b, v0.8b, v13.8b
   8eac4:	39002409 	strb	w9, [x0, #9]
   8eac8:	2a1b03eb 	mov	w11, w27
   8eacc:	39002808 	strb	w8, [x0, #10]
   8ead0:	2a1403ec 	mov	w12, w20
   8ead4:	39002c0a 	strb	w10, [x0, #11]
   8ead8:	aa1c03ee 	mov	x14, x28
   8eadc:	fd000000 	str	d0, [x0]
   8eae0:	52800020 	mov	w0, #0x1                   	// #1
   8eae4:	aa1503ef 	mov	x15, x21
   8eae8:	aa1603f0 	mov	x16, x22
   8eaec:	aa1903f1 	mov	x17, x25
   8eaf0:	aa0103ea 	mov	x10, x1
   8eaf4:	aa0303e9 	mov	x9, x3
   8eaf8:	aa1e03e5 	mov	x5, x30
   8eafc:	f2e1e646 	movk	x6, #0xf32, lsl #48
   8eb00:	391be0e0 	strb	w0, [x7, #1784]
   8eb04:	17ffe283 	b	87510 <Java_com_adjust_sdk_sig_NativeLibHelper_nOnResume@@Base-0x4457c>
   8eb08:	d10323aa 	sub	x10, x29, #0xc8
   8eb0c:	d29c636b 	mov	x11, #0xe31b                	// #58139
   8eb10:	f2aa824b 	movk	x11, #0x5412, lsl #16
   8eb14:	2a1403ec 	mov	w12, w20
   8eb18:	f2cd038b 	movk	x11, #0x681c, lsl #32
   8eb1c:	aa1a03ed 	mov	x13, x26
   8eb20:	f8500140 	ldur	x0, [x10, #-256]
   8eb24:	d294d9ca 	mov	x10, #0xa6ce                	// #42702
   8eb28:	f2bd53ea 	movk	x10, #0xea9f, lsl #16
   8eb2c:	f2feeaab 	movk	x11, #0xf755, lsl #48
   8eb30:	f2d81dea 	movk	x10, #0xc0ef, lsl #32
   8eb34:	aa1c03ee 	mov	x14, x28
   8eb38:	f100001f 	cmp	x0, #0x0
   8eb3c:	f2f3794a 	movk	x10, #0x9bca, lsl #48
   8eb40:	9a8b0146 	csel	x6, x10, x11, eq	// eq = none
   8eb44:	aa0903ea 	mov	x10, x9
   8eb48:	aa0803e9 	mov	x9, x8
   8eb4c:	d11203a8 	sub	x8, x29, #0x480
   8eb50:	2a1b03eb 	mov	w11, w27
   8eb54:	aa1503ef 	mov	x15, x21
   8eb58:	aa1603f0 	mov	x16, x22
   8eb5c:	aa1903f1 	mov	x17, x25
   8eb60:	f8100100 	stur	x0, [x8, #-256]
   8eb64:	d10303a8 	sub	x8, x29, #0xc0
   8eb68:	f85903a2 	ldur	x2, [x29, #-112]
   8eb6c:	a93a4fb8 	stp	x24, x19, [x29, #-96]
   8eb70:	f81983b7 	stur	x23, [x29, #-104]
   8eb74:	f8500100 	ldur	x0, [x8, #-256]
   8eb78:	d11223a8 	sub	x8, x29, #0x488
   8eb7c:	f8100100 	stur	x0, [x8, #-256]
   8eb80:	d102e3a8 	sub	x8, x29, #0xb8
   8eb84:	f8500100 	ldur	x0, [x8, #-256]
   8eb88:	d11243a8 	sub	x8, x29, #0x490
   8eb8c:	f8100100 	stur	x0, [x8, #-256]
   8eb90:	aa1e03e5 	mov	x5, x30
   8eb94:	17ffe25f 	b	87510 <Java_com_adjust_sdk_sig_NativeLibHelper_nOnResume@@Base-0x4457c>
   8eb98:	aa1603eb 	mov	x11, x22
   8eb9c:	d29847d1 	mov	x17, #0xc23e                	// #49726
   8eba0:	d29eec00 	mov	x0, #0xf760                	// #63328
   8eba4:	f2a805f1 	movk	x17, #0x402f, lsl #16
   8eba8:	f2a13200 	movk	x0, #0x990, lsl #16
   8ebac:	d10e63a8 	sub	x8, x29, #0x398
   8ebb0:	38401570 	ldrb	w16, [x11], #1
   8ebb4:	f2cf7591 	movk	x17, #0x7bac, lsl #32
   8ebb8:	f2c79ee0 	movk	x0, #0x3cf7, lsl #32
   8ebbc:	f2f0fc11 	movk	x17, #0x87e0, lsl #48
   8ebc0:	f2e26080 	movk	x0, #0x1304, lsl #48
   8ebc4:	7100021f 	cmp	w16, #0x0
   8ebc8:	a93a4fb8 	stp	x24, x19, [x29, #-96]
   8ebcc:	f81983b7 	stur	x23, [x29, #-104]
   8ebd0:	2a1403ec 	mov	w12, w20
   8ebd4:	f81103ab 	stur	x11, [x29, #-240]
   8ebd8:	2a1b03eb 	mov	w11, w27
   8ebdc:	aa1a03ed 	mov	x13, x26
   8ebe0:	aa1c03ee 	mov	x14, x28
   8ebe4:	aa1503ef 	mov	x15, x21
   8ebe8:	aa1603f0 	mov	x16, x22
   8ebec:	9a800226 	csel	x6, x17, x0, eq	// eq = none
   8ebf0:	f8100116 	stur	x22, [x8, #-256]
   8ebf4:	f85903a2 	ldur	x2, [x29, #-112]
   8ebf8:	aa1903f1 	mov	x17, x25
   8ebfc:	aa0303ea 	mov	x10, x3
   8ec00:	aa1e03e5 	mov	x5, x30
   8ec04:	17ffe243 	b	87510 <Java_com_adjust_sdk_sig_NativeLibHelper_nOnResume@@Base-0x4457c>
   8ec08:	d10183a8 	sub	x8, x29, #0x60
   8ec0c:	f8500108 	ldur	x8, [x8, #-256]
   8ec10:	f9400102 	ldr	x2, [x8]
   8ec14:	d10083a8 	sub	x8, x29, #0x20
   8ec18:	f8500100 	ldur	x0, [x8, #-256]
   8ec1c:	d10043a8 	sub	x8, x29, #0x10
   8ec20:	f8500101 	ldur	x1, [x8, #-256]
   8ec24:	d101c3a8 	sub	x8, x29, #0x70
   8ec28:	f8500103 	ldur	x3, [x8, #-256]
   8ec2c:	d10243a8 	sub	x8, x29, #0x90
   8ec30:	f8500104 	ldur	x4, [x8, #-256]
   8ec34:	94000fbc 	bl	92b24 <Java_com_adjust_sdk_sig_NativeLibHelper_nOnResume@@Base-0x38f68>
   8ec38:	d10083a8 	sub	x8, x29, #0x20
   8ec3c:	d282f0af 	mov	x15, #0x1785                	// #6021
   8ec40:	d2983210 	mov	x16, #0xc190                	// #49552
   8ec44:	f2b3408f 	movk	x15, #0x9a04, lsl #16
   8ec48:	f2b55c50 	movk	x16, #0xaae2, lsl #16
   8ec4c:	f2c0800f 	movk	x15, #0x400, lsl #32
   8ec50:	f8500108 	ldur	x8, [x8, #-256]
   8ec54:	f2daadb0 	movk	x16, #0xd56d, lsl #32
   8ec58:	a93a4fb8 	stp	x24, x19, [x29, #-96]
   8ec5c:	2a1b03eb 	mov	w11, w27
   8ec60:	f81983b7 	stur	x23, [x29, #-104]
   8ec64:	2a1403ec 	mov	w12, w20
   8ec68:	b940010e 	ldr	w14, [x8]
   8ec6c:	aa1a03ed 	mov	x13, x26
   8ec70:	f2ff342f 	movk	x15, #0xf9a1, lsl #48
   8ec74:	f2eaa110 	movk	x16, #0x5508, lsl #48
   8ec78:	710001df 	cmp	w14, #0x0
   8ec7c:	aa1c03ee 	mov	x14, x28
   8ec80:	9a8f0206 	csel	x6, x16, x15, eq	// eq = none
   8ec84:	140001ae 	b	8f33c <Java_com_adjust_sdk_sig_NativeLibHelper_nOnResume@@Base-0x3c750>
   8ec88:	d10263a8 	sub	x8, x29, #0x98
   8ec8c:	d28302ef 	mov	x15, #0x1817                	// #6167
   8ec90:	d29e7650 	mov	x16, #0xf3b2                	// #62386
   8ec94:	f2bd346f 	movk	x15, #0xe9a3, lsl #16
   8ec98:	a97827aa 	ldp	x10, x9, [x29, #-128]
   8ec9c:	f2a0c5f0 	movk	x16, #0x62f, lsl #16
   8eca0:	f2cfc7ef 	movk	x15, #0x7e3f, lsl #32
   8eca4:	f8500108 	ldur	x8, [x8, #-256]
   8eca8:	f2d165d0 	movk	x16, #0x8b2e, lsl #32
   8ecac:	f85903a2 	ldur	x2, [x29, #-112]
   8ecb0:	f2f85eaf 	movk	x15, #0xc2f5, lsl #48
   8ecb4:	f85783a4 	ldur	x4, [x29, #-136]
   8ecb8:	f2e087f0 	movk	x16, #0x43f, lsl #48
   8ecbc:	b940010e 	ldr	w14, [x8]
   8ecc0:	d108d3a8 	sub	x8, x29, #0x234
   8ecc4:	a93a4fb8 	stp	x24, x19, [x29, #-96]
   8ecc8:	2a1b03eb 	mov	w11, w27
   8eccc:	f81983b7 	stur	x23, [x29, #-104]
   8ecd0:	2a1403ec 	mov	w12, w20
   8ecd4:	6b0e037f 	cmp	w27, w14
   8ecd8:	aa1a03ed 	mov	x13, x26
   8ecdc:	aa1c03ee 	mov	x14, x28
   8ece0:	9a8fb206 	csel	x6, x16, x15, lt	// lt = tstop
   8ece4:	aa1503ef 	mov	x15, x21
   8ece8:	aa1603f0 	mov	x16, x22
   8ecec:	aa1903f1 	mov	x17, x25
   8ecf0:	b810011b 	stur	w27, [x8, #-256]
   8ecf4:	aa1e03e5 	mov	x5, x30
   8ecf8:	17ffe206 	b	87510 <Java_com_adjust_sdk_sig_NativeLibHelper_nOnResume@@Base-0x4457c>
   8ecfc:	d11103a8 	sub	x8, x29, #0x440
   8ed00:	d2944f46 	mov	x6, #0xa27a                	// #41594
   8ed04:	f85903a2 	ldur	x2, [x29, #-112]
   8ed08:	f2b5b946 	movk	x6, #0xadca, lsl #16
   8ed0c:	f85783a4 	ldur	x4, [x29, #-136]
   8ed10:	f2cb4886 	movk	x6, #0x5a44, lsl #32
   8ed14:	f8500100 	ldur	x0, [x8, #-256]
   8ed18:	d10323a8 	sub	x8, x29, #0xc8
   8ed1c:	a93a4fb8 	stp	x24, x19, [x29, #-96]
   8ed20:	2a1b03eb 	mov	w11, w27
   8ed24:	f81983b7 	stur	x23, [x29, #-104]
   8ed28:	2a1403ec 	mov	w12, w20
   8ed2c:	f8100100 	stur	x0, [x8, #-256]
   8ed30:	d10583a8 	sub	x8, x29, #0x160
   8ed34:	aa1a03ed 	mov	x13, x26
   8ed38:	aa1c03ee 	mov	x14, x28
   8ed3c:	aa1503ef 	mov	x15, x21
   8ed40:	aa1603f0 	mov	x16, x22
   8ed44:	f8500107 	ldur	x7, [x8, #-256]
   8ed48:	d10303a8 	sub	x8, x29, #0xc0
   8ed4c:	aa1903f1 	mov	x17, x25
   8ed50:	aa0303e9 	mov	x9, x3
   8ed54:	aa1e03e5 	mov	x5, x30
   8ed58:	f2fdc886 	movk	x6, #0xee44, lsl #48
   8ed5c:	f8100107 	stur	x7, [x8, #-256]
   8ed60:	d10023a8 	sub	x8, x29, #0x8
   8ed64:	382068ff 	strb	wzr, [x7, x0]
   8ed68:	f850010a 	ldur	x10, [x8, #-256]
   8ed6c:	d102e3a8 	sub	x8, x29, #0xb8
   8ed70:	f810010a 	stur	x10, [x8, #-256]
   8ed74:	aa0103ea 	mov	x10, x1
   8ed78:	17ffe1e6 	b	87510 <Java_com_adjust_sdk_sig_NativeLibHelper_nOnResume@@Base-0x4457c>
   8ed7c:	2a1f03e0 	mov	w0, wzr
   8ed80:	52800021 	mov	w1, #0x1                   	// #1
   8ed84:	d503201f 	nop
   8ed88:	105ba602 	adr	x2, 146248 <getauxval@plt+0xc0e8>
   8ed8c:	9402aa9d 	bl	139800 <Java_com_adjust_sdk_sig_NativeLibHelper_nSign@@Base+0x6d1fc>
   8ed90:	d292318b 	mov	x11, #0x918c                	// #37260
   8ed94:	d28e564c 	mov	x12, #0x72b2                	// #29362
   8ed98:	f2a9bdab 	movk	x11, #0x4ded, lsl #16
   8ed9c:	f2aa5b0c 	movk	x12, #0x52d8, lsl #16
   8eda0:	f2d85c6b 	movk	x11, #0xc2e3, lsl #32
   8eda4:	f2df0eac 	movk	x12, #0xf875, lsl #32
   8eda8:	a93a4fb8 	stp	x24, x19, [x29, #-96]
   8edac:	7100001f 	cmp	w0, #0x0
   8edb0:	f81983b7 	stur	x23, [x29, #-104]
   8edb4:	f2f9488b 	movk	x11, #0xca44, lsl #48
   8edb8:	f2e89e2c 	movk	x12, #0x44f1, lsl #48
   8edbc:	14000132 	b	8f284 <Java_com_adjust_sdk_sig_NativeLibHelper_nOnResume@@Base-0x3c808>
   8edc0:	2a1f03e0 	mov	w0, wzr
   8edc4:	52800021 	mov	w1, #0x1                   	// #1
   8edc8:	d503201f 	nop
   8edcc:	105bbbe2 	adr	x2, 146548 <getauxval@plt+0xc3e8>
   8edd0:	9402aa8c 	bl	139800 <Java_com_adjust_sdk_sig_NativeLibHelper_nSign@@Base+0x6d1fc>
   8edd4:	d294e32b 	mov	x11, #0xa719                	// #42777
   8edd8:	d294260c 	mov	x12, #0xa130                	// #41264
   8eddc:	f2a5e34b 	movk	x11, #0x2f1a, lsl #16
   8ede0:	f2b9f44c 	movk	x12, #0xcfa2, lsl #16
   8ede4:	f2d51aab 	movk	x11, #0xa8d5, lsl #32
   8ede8:	f2ca134c 	movk	x12, #0x509a, lsl #32
   8edec:	a93a4fb8 	stp	x24, x19, [x29, #-96]
   8edf0:	7100001f 	cmp	w0, #0x0
   8edf4:	f81983b7 	stur	x23, [x29, #-104]
   8edf8:	f2fb9aab 	movk	x11, #0xdcd5, lsl #48
   8edfc:	f2e128cc 	movk	x12, #0x946, lsl #48
   8ee00:	1400014a 	b	8f328 <Java_com_adjust_sdk_sig_NativeLibHelper_nOnResume@@Base-0x3c764>
   8ee04:	d107c3a8 	sub	x8, x29, #0x1f0
   8ee08:	d295b26a 	mov	x10, #0xad93                	// #44435
   8ee0c:	d295802b 	mov	x11, #0xac01                	// #44033
   8ee10:	f2a0d62a 	movk	x10, #0x6b1, lsl #16
   8ee14:	f2bd4deb 	movk	x11, #0xea6f, lsl #16
   8ee18:	f2d9d8aa 	movk	x10, #0xcec5, lsl #32
   8ee1c:	f850010f 	ldur	x15, [x8, #-256]
   8ee20:	d11123a8 	sub	x8, x29, #0x448
   8ee24:	f2db4beb 	movk	x11, #0xda5f, lsl #32
   8ee28:	f2f2240a 	movk	x10, #0x9120, lsl #48
   8ee2c:	f2e5b40b 	movk	x11, #0x2da0, lsl #48
   8ee30:	a93a4fb8 	stp	x24, x19, [x29, #-96]
   8ee34:	f810010f 	stur	x15, [x8, #-256]
   8ee38:	d107a3a8 	sub	x8, x29, #0x1e8
   8ee3c:	f10001ff 	cmp	x15, #0x0
   8ee40:	f81983b7 	stur	x23, [x29, #-104]
   8ee44:	9a8b0146 	csel	x6, x10, x11, eq	// eq = none
   8ee48:	2a1b03eb 	mov	w11, w27
   8ee4c:	f850010f 	ldur	x15, [x8, #-256]
   8ee50:	d11143a8 	sub	x8, x29, #0x450
   8ee54:	2a1403ec 	mov	w12, w20
   8ee58:	aa1a03ed 	mov	x13, x26
   8ee5c:	aa1c03ee 	mov	x14, x28
   8ee60:	f810010f 	stur	x15, [x8, #-256]
   8ee64:	d10783a8 	sub	x8, x29, #0x1e0
   8ee68:	f850010f 	ldur	x15, [x8, #-256]
   8ee6c:	d11163a8 	sub	x8, x29, #0x458
   8ee70:	f810010f 	stur	x15, [x8, #-256]
   8ee74:	140000a2 	b	8f0fc <Java_com_adjust_sdk_sig_NativeLibHelper_nOnResume@@Base-0x3c990>
   8ee78:	d503201f 	nop
   8ee7c:	105bbac8 	adr	x8, 1465d4 <getauxval@plt+0xc474>
   8ee80:	d10403a9 	sub	x9, x29, #0x100
   8ee84:	d503201f 	nop
   8ee88:	105a53c0 	adr	x0, 143900 <getauxval@plt+0x97a0>
   8ee8c:	089ffd1f 	stlrb	wzr, [x8]
   8ee90:	d10063a8 	sub	x8, x29, #0x18
   8ee94:	f8500129 	ldur	x9, [x9, #-256]
   8ee98:	f8500108 	ldur	x8, [x8, #-256]
   8ee9c:	f9001109 	str	x9, [x8, #32]
   8eea0:	d10023a8 	sub	x8, x29, #0x8
   8eea4:	f8500101 	ldur	x1, [x8, #-256]
   8eea8:	940115f4 	bl	d4678 <Java_com_adjust_sdk_sig_NativeLibHelper_nSign@@Base+0x8074>
   8eeac:	d10023a8 	sub	x8, x29, #0x8
   8eeb0:	d292bdc6 	mov	x6, #0x95ee                	// #38382
   8eeb4:	a9788ba9 	ldp	x9, x2, [x29, #-120]
   8eeb8:	f2a45866 	movk	x6, #0x22c3, lsl #16
   8eebc:	a93a4fb8 	stp	x24, x19, [x29, #-96]
   8eec0:	a97713a5 	ldp	x5, x4, [x29, #-144]
   8eec4:	f2d0cbc6 	movk	x6, #0x865e, lsl #32
   8eec8:	f81983b7 	stur	x23, [x29, #-104]
   8eecc:	f850010a 	ldur	x10, [x8, #-256]
   8eed0:	2a1b03eb 	mov	w11, w27
   8eed4:	2a1403ec 	mov	w12, w20
   8eed8:	aa1a03ed 	mov	x13, x26
   8eedc:	aa1c03ee 	mov	x14, x28
   8eee0:	aa1503ef 	mov	x15, x21
   8eee4:	aa1603f0 	mov	x16, x22
   8eee8:	aa1903f1 	mov	x17, x25
   8eeec:	f2f127a6 	movk	x6, #0x893d, lsl #48
   8eef0:	17ffe188 	b	87510 <Java_com_adjust_sdk_sig_NativeLibHelper_nOnResume@@Base-0x4457c>
   8eef4:	900005c8 	adrp	x8, 146000 <getauxval@plt+0xbea0>
   8eef8:	d2863bef 	mov	x15, #0x31df                	// #12767
   8eefc:	d29bec90 	mov	x16, #0xdf64                	// #57188
   8ef00:	f2b3ad0f 	movk	x15, #0x9d68, lsl #16
   8ef04:	f2a032f0 	movk	x16, #0x197, lsl #16
   8ef08:	f2d5420f 	movk	x15, #0xaa10, lsl #32
   8ef0c:	3959050e 	ldrb	w14, [x8, #1601]
   8ef10:	f2dc2bd0 	movk	x16, #0xe15e, lsl #32
   8ef14:	2a1b03eb 	mov	w11, w27
   8ef18:	2a1403ec 	mov	w12, w20
   8ef1c:	aa1a03ed 	mov	x13, x26
   8ef20:	f2e461cf 	movk	x15, #0x230e, lsl #48
   8ef24:	710001df 	cmp	w14, #0x0
   8ef28:	aa1c03ee 	mov	x14, x28
   8ef2c:	f2e09d70 	movk	x16, #0x4eb, lsl #48
   8ef30:	a93a4fb8 	stp	x24, x19, [x29, #-96]
   8ef34:	f81983b7 	stur	x23, [x29, #-104]
   8ef38:	9a8f1206 	csel	x6, x16, x15, ne	// ne = any
   8ef3c:	14000100 	b	8f33c <Java_com_adjust_sdk_sig_NativeLibHelper_nOnResume@@Base-0x3c750>
   8ef40:	aa1c03eb 	mov	x11, x28
   8ef44:	d2804951 	mov	x17, #0x24a                 	// #586
   8ef48:	d29827a0 	mov	x0, #0xc13d                	// #49469
   8ef4c:	f2b7a051 	movk	x17, #0xbd02, lsl #16
   8ef50:	f2b3bbe0 	movk	x0, #0x9ddf, lsl #16
   8ef54:	d10f03a8 	sub	x8, x29, #0x3c0
   8ef58:	38401570 	ldrb	w16, [x11], #1
   8ef5c:	f2c830d1 	movk	x17, #0x4186, lsl #32
   8ef60:	f2cbe9e0 	movk	x0, #0x5f4f, lsl #32
   8ef64:	f85803aa 	ldur	x10, [x29, #-128]
   8ef68:	f2f24cb1 	movk	x17, #0x9265, lsl #48
   8ef6c:	7100021f 	cmp	w16, #0x0
   8ef70:	f2e64de0 	movk	x0, #0x326f, lsl #48
   8ef74:	a93a4fb8 	stp	x24, x19, [x29, #-96]
   8ef78:	2a1403ec 	mov	w12, w20
   8ef7c:	f81983b7 	stur	x23, [x29, #-104]
   8ef80:	aa1a03ed 	mov	x13, x26
   8ef84:	f81603ab 	stur	x11, [x29, #-160]
   8ef88:	2a1b03eb 	mov	w11, w27
   8ef8c:	aa1c03ee 	mov	x14, x28
   8ef90:	aa1503ef 	mov	x15, x21
   8ef94:	aa1603f0 	mov	x16, x22
   8ef98:	9a910006 	csel	x6, x0, x17, eq	// eq = none
   8ef9c:	aa1903f1 	mov	x17, x25
   8efa0:	f810011c 	stur	x28, [x8, #-256]
   8efa4:	1400005a 	b	8f10c <Java_com_adjust_sdk_sig_NativeLibHelper_nOnResume@@Base-0x3c980>
   8efa8:	d111c3a8 	sub	x8, x29, #0x470
   8efac:	d106a3a9 	sub	x9, x29, #0x1a8
   8efb0:	d2852626 	mov	x6, #0x2931                	// #10545
   8efb4:	f85903a2 	ldur	x2, [x29, #-112]
   8efb8:	f85783a4 	ldur	x4, [x29, #-136]
   8efbc:	f2a5b406 	movk	x6, #0x2da0, lsl #16
   8efc0:	f850010a 	ldur	x10, [x8, #-256]
   8efc4:	d111a3a8 	sub	x8, x29, #0x468
   8efc8:	f2d0e206 	movk	x6, #0x8710, lsl #32
   8efcc:	a93a4fb8 	stp	x24, x19, [x29, #-96]
   8efd0:	f81983b7 	stur	x23, [x29, #-104]
   8efd4:	2a1b03eb 	mov	w11, w27
   8efd8:	f8500107 	ldur	x7, [x8, #-256]
   8efdc:	d11183a8 	sub	x8, x29, #0x460
   8efe0:	38401540 	ldrb	w0, [x10], #1
   8efe4:	2a1403ec 	mov	w12, w20
   8efe8:	aa1a03ed 	mov	x13, x26
   8efec:	f8500108 	ldur	x8, [x8, #-256]
   8eff0:	aa1c03ee 	mov	x14, x28
   8eff4:	aa1503ef 	mov	x15, x21
   8eff8:	aa1603f0 	mov	x16, x22
   8effc:	aa1903f1 	mov	x17, x25
   8f000:	aa1e03e5 	mov	x5, x30
   8f004:	d1000508 	sub	x8, x8, #0x1
   8f008:	f2e26906 	movk	x6, #0x1348, lsl #48
   8f00c:	380014e0 	strb	w0, [x7], #1
   8f010:	f8100128 	stur	x8, [x9, #-256]
   8f014:	d10663a8 	sub	x8, x29, #0x198
   8f018:	f810010a 	stur	x10, [x8, #-256]
   8f01c:	d10683a8 	sub	x8, x29, #0x1a0
   8f020:	a97827aa 	ldp	x10, x9, [x29, #-128]
   8f024:	f8100107 	stur	x7, [x8, #-256]
   8f028:	17ffe13a 	b	87510 <Java_com_adjust_sdk_sig_NativeLibHelper_nOnResume@@Base-0x4457c>
   8f02c:	d503201f 	nop
   8f030:	105a3400 	adr	x0, 1436b0 <getauxval@plt+0x9550>
   8f034:	4f02e741 	movi	v1.16b, #0x5a
   8f038:	52800b4e 	mov	w14, #0x5a                  	// #90
   8f03c:	d29d4186 	mov	x6, #0xea0c                	// #59916
   8f040:	f00005a7 	adrp	x7, 146000 <getauxval@plt+0xbea0>
   8f044:	3940400d 	ldrb	w13, [x0, #16]
   8f048:	f2b19266 	movk	x6, #0x8c93, lsl #16
   8f04c:	3dc00000 	ldr	q0, [x0]
   8f050:	f2d81946 	movk	x6, #0xc0ca, lsl #32
   8f054:	f85903a2 	ldur	x2, [x29, #-112]
   8f058:	a93a4fb8 	stp	x24, x19, [x29, #-96]
   8f05c:	4a0e01b1 	eor	w17, w13, w14
   8f060:	f81983b7 	stur	x23, [x29, #-104]
   8f064:	6e211c00 	eor	v0.16b, v0.16b, v1.16b
   8f068:	2a1b03eb 	mov	w11, w27
   8f06c:	3d800000 	str	q0, [x0]
   8f070:	2a1403ec 	mov	w12, w20
   8f074:	39004011 	strb	w17, [x0, #16]
   8f078:	52800020 	mov	w0, #0x1                   	// #1
   8f07c:	aa1a03ed 	mov	x13, x26
   8f080:	aa1c03ee 	mov	x14, x28
   8f084:	aa1503ef 	mov	x15, x21
   8f088:	aa1603f0 	mov	x16, x22
   8f08c:	aa1903f1 	mov	x17, x25
   8f090:	aa0103ea 	mov	x10, x1
   8f094:	aa0303e9 	mov	x9, x3
   8f098:	aa1e03e5 	mov	x5, x30
   8f09c:	f2eab366 	movk	x6, #0x559b, lsl #48
   8f0a0:	391c10e0 	strb	w0, [x7, #1796]
   8f0a4:	17ffe11b 	b	87510 <Java_com_adjust_sdk_sig_NativeLibHelper_nOnResume@@Base-0x4457c>
   8f0a8:	d101a3a8 	sub	x8, x29, #0x68
   8f0ac:	d29f7acf 	mov	x15, #0xfbd6                	// #64470
   8f0b0:	d28617d0 	mov	x16, #0x30be                	// #12478
   8f0b4:	f2ae10af 	movk	x15, #0x7085, lsl #16
   8f0b8:	f2a179f0 	movk	x16, #0xbcf, lsl #16
   8f0bc:	f2dd77ef 	movk	x15, #0xebbf, lsl #32
   8f0c0:	f8500108 	ldur	x8, [x8, #-256]
   8f0c4:	f2d84ff0 	movk	x16, #0xc27f, lsl #32
   8f0c8:	f2f242af 	movk	x15, #0x9215, lsl #48
   8f0cc:	f2f47ef0 	movk	x16, #0xa3f7, lsl #48
   8f0d0:	a93a4fb8 	stp	x24, x19, [x29, #-96]
   8f0d4:	2a1b03eb 	mov	w11, w27
   8f0d8:	f940010e 	ldr	x14, [x8]
   8f0dc:	d10bc3a8 	sub	x8, x29, #0x2f0
   8f0e0:	f81983b7 	stur	x23, [x29, #-104]
   8f0e4:	2a1403ec 	mov	w12, w20
   8f0e8:	aa1a03ed 	mov	x13, x26
   8f0ec:	f10001df 	cmp	x14, #0x0
   8f0f0:	f810010e 	stur	x14, [x8, #-256]
   8f0f4:	aa1c03ee 	mov	x14, x28
   8f0f8:	9a9001e6 	csel	x6, x15, x16, eq	// eq = none
   8f0fc:	aa1503ef 	mov	x15, x21
   8f100:	aa1603f0 	mov	x16, x22
   8f104:	aa1903f1 	mov	x17, x25
   8f108:	f85803aa 	ldur	x10, [x29, #-128]
   8f10c:	f85903a2 	ldur	x2, [x29, #-112]
   8f110:	f85883a9 	ldur	x9, [x29, #-120]
   8f114:	f85783a4 	ldur	x4, [x29, #-136]
   8f118:	aa1e03e5 	mov	x5, x30
   8f11c:	17ffe0fd 	b	87510 <Java_com_adjust_sdk_sig_NativeLibHelper_nOnResume@@Base-0x4457c>
   8f120:	d10aa3a8 	sub	x8, x29, #0x2a8
   8f124:	d10903a9 	sub	x9, x29, #0x240
   8f128:	d2921886 	mov	x6, #0x90c4                	// #37060
   8f12c:	f85903a2 	ldur	x2, [x29, #-112]
   8f130:	f85783a4 	ldur	x4, [x29, #-136]
   8f134:	f2b81ea6 	movk	x6, #0xc0f5, lsl #16
   8f138:	f850010a 	ldur	x10, [x8, #-256]
   8f13c:	d10a63a8 	sub	x8, x29, #0x298
   8f140:	f2d29f66 	movk	x6, #0x94fb, lsl #32
   8f144:	a93a4fb8 	stp	x24, x19, [x29, #-96]
   8f148:	f81983b7 	stur	x23, [x29, #-104]
   8f14c:	2a1b03eb 	mov	w11, w27
   8f150:	f8500107 	ldur	x7, [x8, #-256]
   8f154:	d10a43a8 	sub	x8, x29, #0x290
   8f158:	38401540 	ldrb	w0, [x10], #1
   8f15c:	2a1403ec 	mov	w12, w20
   8f160:	aa1a03ed 	mov	x13, x26
   8f164:	f8500108 	ldur	x8, [x8, #-256]
   8f168:	aa1c03ee 	mov	x14, x28
   8f16c:	aa1503ef 	mov	x15, x21
   8f170:	aa1603f0 	mov	x16, x22
   8f174:	aa1903f1 	mov	x17, x25
   8f178:	aa1e03e5 	mov	x5, x30
   8f17c:	d1000508 	sub	x8, x8, #0x1
   8f180:	f2eca086 	movk	x6, #0x6504, lsl #48
   8f184:	380014e0 	strb	w0, [x7], #1
   8f188:	f8100128 	stur	x8, [x9, #-256]
   8f18c:	d108a3a8 	sub	x8, x29, #0x228
   8f190:	f810010a 	stur	x10, [x8, #-256]
   8f194:	d108c3a8 	sub	x8, x29, #0x230
   8f198:	a97827aa 	ldp	x10, x9, [x29, #-128]
   8f19c:	f8100107 	stur	x7, [x8, #-256]
   8f1a0:	17ffe0dc 	b	87510 <Java_com_adjust_sdk_sig_NativeLibHelper_nOnResume@@Base-0x4457c>
   8f1a4:	d503201f 	nop
   8f1a8:	105a2bc0 	adr	x0, 143720 <getauxval@plt+0x95c0>
   8f1ac:	4f07e6e1 	movi	v1.16b, #0xf7
   8f1b0:	aa0703e4 	mov	x4, x7
   8f1b4:	d286e1e6 	mov	x6, #0x370f                	// #14095
   8f1b8:	52800027 	mov	w7, #0x1                   	// #1
   8f1bc:	39404008 	ldrb	w8, [x0, #16]
   8f1c0:	f2b53e46 	movk	x6, #0xa9f2, lsl #16
   8f1c4:	3940440a 	ldrb	w10, [x0, #17]
   8f1c8:	f2da81e6 	movk	x6, #0xd40f, lsl #32
   8f1cc:	3dc00000 	ldr	q0, [x0]
   8f1d0:	a93a4fb8 	stp	x24, x19, [x29, #-96]
   8f1d4:	521c7908 	eor	w8, w8, #0xfffffff7
   8f1d8:	f85903a2 	ldur	x2, [x29, #-112]
   8f1dc:	521c794e 	eor	w14, w10, #0xfffffff7
   8f1e0:	f81983b7 	stur	x23, [x29, #-104]
   8f1e4:	6e211c00 	eor	v0.16b, v0.16b, v1.16b
   8f1e8:	2a1b03eb 	mov	w11, w27
   8f1ec:	39004008 	strb	w8, [x0, #16]
   8f1f0:	2a1403ec 	mov	w12, w20
   8f1f4:	3900440e 	strb	w14, [x0, #17]
   8f1f8:	aa1a03ed 	mov	x13, x26
   8f1fc:	3d800000 	str	q0, [x0]
   8f200:	f00005a0 	adrp	x0, 146000 <getauxval@plt+0xbea0>
   8f204:	aa1c03ee 	mov	x14, x28
   8f208:	aa1503ef 	mov	x15, x21
   8f20c:	aa1603f0 	mov	x16, x22
   8f210:	aa1903f1 	mov	x17, x25
   8f214:	aa0103ea 	mov	x10, x1
   8f218:	aa0303e9 	mov	x9, x3
   8f21c:	aa1e03e5 	mov	x5, x30
   8f220:	f2ea95e6 	movk	x6, #0x54af, lsl #48
   8f224:	391c2c07 	strb	w7, [x0, #1803]
   8f228:	17ffe0ba 	b	87510 <Java_com_adjust_sdk_sig_NativeLibHelper_nOnResume@@Base-0x4457c>
   8f22c:	d100c3a8 	sub	x8, x29, #0x30
   8f230:	d111e3a9 	sub	x9, x29, #0x478
   8f234:	f8500108 	ldur	x8, [x8, #-256]
   8f238:	f8500129 	ldur	x9, [x9, #-256]
   8f23c:	cb080128 	sub	x8, x9, x8
   8f240:	d11103a9 	sub	x9, x29, #0x440
   8f244:	91000500 	add	x0, x8, #0x1
   8f248:	f8100128 	stur	x8, [x9, #-256]
   8f24c:	9402aaf5 	bl	139e20 <malloc@plt>
   8f250:	d10583a8 	sub	x8, x29, #0x160
   8f254:	d28b968b 	mov	x11, #0x5cb4                	// #23732
   8f258:	d292524c 	mov	x12, #0x9292                	// #37522
   8f25c:	f2b90a6b 	movk	x11, #0xc853, lsl #16
   8f260:	f2bb2c0c 	movk	x12, #0xd960, lsl #16
   8f264:	f2d844ab 	movk	x11, #0xc225, lsl #32
   8f268:	f2c0492c 	movk	x12, #0x249, lsl #32
   8f26c:	a93a4fb8 	stp	x24, x19, [x29, #-96]
   8f270:	f8100100 	stur	x0, [x8, #-256]
   8f274:	f100001f 	cmp	x0, #0x0
   8f278:	f81983b7 	stur	x23, [x29, #-104]
   8f27c:	f2f2e9eb 	movk	x11, #0x974f, lsl #48
   8f280:	f2f8c02c 	movk	x12, #0xc601, lsl #48
   8f284:	9a8c0166 	csel	x6, x11, x12, eq	// eq = none
   8f288:	14000029 	b	8f32c <Java_com_adjust_sdk_sig_NativeLibHelper_nOnResume@@Base-0x3c760>
   8f28c:	d100c3a8 	sub	x8, x29, #0x30
   8f290:	d10d63a9 	sub	x9, x29, #0x358
   8f294:	f8500108 	ldur	x8, [x8, #-256]
   8f298:	f8500129 	ldur	x9, [x9, #-256]
   8f29c:	cb080128 	sub	x8, x9, x8
   8f2a0:	d109a3a9 	sub	x9, x29, #0x268
   8f2a4:	91000500 	add	x0, x8, #0x1
   8f2a8:	f8100128 	stur	x8, [x9, #-256]
   8f2ac:	9402aadd 	bl	139e20 <malloc@plt>
   8f2b0:	d10423a8 	sub	x8, x29, #0x108
   8f2b4:	d28bcd6b 	mov	x11, #0x5e6b                	// #24171
   8f2b8:	d281778c 	mov	x12, #0xbbc                 	// #3004
   8f2bc:	f2a295cb 	movk	x11, #0x14ae, lsl #16
   8f2c0:	f2b767ec 	movk	x12, #0xbb3f, lsl #16
   8f2c4:	f2c5fd0b 	movk	x11, #0x2fe8, lsl #32
   8f2c8:	f2d2528c 	movk	x12, #0x9294, lsl #32
   8f2cc:	a93a4fb8 	stp	x24, x19, [x29, #-96]
   8f2d0:	f8100100 	stur	x0, [x8, #-256]
   8f2d4:	f100001f 	cmp	x0, #0x0
   8f2d8:	f81983b7 	stur	x23, [x29, #-104]
   8f2dc:	f2eb754b 	movk	x11, #0x5baa, lsl #48
   8f2e0:	f2fe0dec 	movk	x12, #0xf06f, lsl #48
   8f2e4:	14000011 	b	8f328 <Java_com_adjust_sdk_sig_NativeLibHelper_nOnResume@@Base-0x3c764>
   8f2e8:	2a1f03e0 	mov	w0, wzr
   8f2ec:	52800021 	mov	w1, #0x1                   	// #1
   8f2f0:	d503201f 	nop
   8f2f4:	105b79e2 	adr	x2, 146230 <getauxval@plt+0xc0d0>
   8f2f8:	9402a942 	bl	139800 <Java_com_adjust_sdk_sig_NativeLibHelper_nSign@@Base+0x6d1fc>
   8f2fc:	d2926e6b 	mov	x11, #0x9373                	// #37747
   8f300:	d280358c 	mov	x12, #0x1ac                 	// #428
   8f304:	f2b8aceb 	movk	x11, #0xc567, lsl #16
   8f308:	f2a5226c 	movk	x12, #0x2913, lsl #16
   8f30c:	f2d4462b 	movk	x11, #0xa231, lsl #32
   8f310:	f2d0b52c 	movk	x12, #0x85a9, lsl #32
   8f314:	a93a4fb8 	stp	x24, x19, [x29, #-96]
   8f318:	7100001f 	cmp	w0, #0x0
   8f31c:	f81983b7 	stur	x23, [x29, #-104]
   8f320:	f2fd936b 	movk	x11, #0xec9b, lsl #48
   8f324:	f2f2e22c 	movk	x12, #0x9711, lsl #48
   8f328:	9a8b0186 	csel	x6, x12, x11, eq	// eq = none
   8f32c:	2a1b03eb 	mov	w11, w27
   8f330:	2a1403ec 	mov	w12, w20
   8f334:	aa1a03ed 	mov	x13, x26
   8f338:	aa1c03ee 	mov	x14, x28
   8f33c:	aa1503ef 	mov	x15, x21
   8f340:	aa1603f0 	mov	x16, x22
   8f344:	aa1903f1 	mov	x17, x25
   8f348:	f85803aa 	ldur	x10, [x29, #-128]
   8f34c:	f85903a2 	ldur	x2, [x29, #-112]
   8f350:	f85883a9 	ldur	x9, [x29, #-120]
   8f354:	a97713a5 	ldp	x5, x4, [x29, #-144]
   8f358:	17ffe06e 	b	87510 <Java_com_adjust_sdk_sig_NativeLibHelper_nOnResume@@Base-0x4457c>
   8f35c:	d503201f 	nop
   8f360:	105aa800 	adr	x0, 144860 <getauxval@plt+0xa700>
   8f364:	5280062d 	mov	w13, #0x31                  	// #49
   8f368:	d2850d86 	mov	x6, #0x286c                	// #10348
   8f36c:	a97713a5 	ldp	x5, x4, [x29, #-144]
   8f370:	f00005a7 	adrp	x7, 146000 <getauxval@plt+0xbea0>
   8f374:	f2a13306 	movk	x6, #0x998, lsl #16
   8f378:	39402008 	ldrb	w8, [x0, #8]
   8f37c:	f2ce0d46 	movk	x6, #0x706a, lsl #32
   8f380:	39402409 	ldrb	w9, [x0, #9]
   8f384:	a93a4fb8 	stp	x24, x19, [x29, #-96]
   8f388:	3940280a 	ldrb	w10, [x0, #10]
   8f38c:	f81983b7 	stur	x23, [x29, #-104]
   8f390:	4a0d0108 	eor	w8, w8, w13
   8f394:	39402c0b 	ldrb	w11, [x0, #11]
   8f398:	4a0d0129 	eor	w9, w9, w13
   8f39c:	3940300c 	ldrb	w12, [x0, #12]
   8f3a0:	fd400000 	ldr	d0, [x0]
   8f3a4:	aa1c03ee 	mov	x14, x28
   8f3a8:	39002008 	strb	w8, [x0, #8]
   8f3ac:	4a0d0148 	eor	w8, w10, w13
   8f3b0:	39002409 	strb	w9, [x0, #9]
   8f3b4:	4a0d0169 	eor	w9, w11, w13
   8f3b8:	4a0d018a 	eor	w10, w12, w13
   8f3bc:	2e2a1c00 	eor	v0.8b, v0.8b, v10.8b
   8f3c0:	39002808 	strb	w8, [x0, #10]
   8f3c4:	f85903a2 	ldur	x2, [x29, #-112]
   8f3c8:	39002c09 	strb	w9, [x0, #11]
   8f3cc:	2a1b03eb 	mov	w11, w27
   8f3d0:	3900300a 	strb	w10, [x0, #12]
   8f3d4:	2a1403ec 	mov	w12, w20
   8f3d8:	a97827aa 	ldp	x10, x9, [x29, #-128]
   8f3dc:	fd000000 	str	d0, [x0]
   8f3e0:	52800020 	mov	w0, #0x1                   	// #1
   8f3e4:	aa1a03ed 	mov	x13, x26
   8f3e8:	aa1503ef 	mov	x15, x21
   8f3ec:	aa1603f0 	mov	x16, x22
   8f3f0:	aa1903f1 	mov	x17, x25
   8f3f4:	f2ee9e66 	movk	x6, #0x74f3, lsl #48
   8f3f8:	39191ce0 	strb	w0, [x7, #1607]
   8f3fc:	17ffe045 	b	87510 <Java_com_adjust_sdk_sig_NativeLibHelper_nOnResume@@Base-0x4457c>
   8f400:	d503201f 	nop
   8f404:	105aa060 	adr	x0, 144810 <getauxval@plt+0xa6b0>
   8f408:	5280168d 	mov	w13, #0xb4                  	// #180
   8f40c:	d2997386 	mov	x6, #0xcb9c                	// #52124
   8f410:	f00005a7 	adrp	x7, 146000 <getauxval@plt+0xbea0>
   8f414:	f85903a2 	ldur	x2, [x29, #-112]
   8f418:	39402008 	ldrb	w8, [x0, #8]
   8f41c:	f2b11426 	movk	x6, #0x88a1, lsl #16
   8f420:	39402409 	ldrb	w9, [x0, #9]
   8f424:	f2cceee6 	movk	x6, #0x6777, lsl #32
   8f428:	3940280a 	ldrb	w10, [x0, #10]
   8f42c:	a93a4fb8 	stp	x24, x19, [x29, #-96]
   8f430:	4a0d0108 	eor	w8, w8, w13
   8f434:	39402c0b 	ldrb	w11, [x0, #11]
   8f438:	4a0d0129 	eor	w9, w9, w13
   8f43c:	3940300c 	ldrb	w12, [x0, #12]
   8f440:	4a0d014a 	eor	w10, w10, w13
   8f444:	fd400000 	ldr	d0, [x0]
   8f448:	39002008 	strb	w8, [x0, #8]
   8f44c:	39403408 	ldrb	w8, [x0, #13]
   8f450:	39002409 	strb	w9, [x0, #9]
   8f454:	4a0d0169 	eor	w9, w11, w13
   8f458:	3900280a 	strb	w10, [x0, #10]
   8f45c:	4a0d018a 	eor	w10, w12, w13
   8f460:	4a0d0108 	eor	w8, w8, w13
   8f464:	2e291c00 	eor	v0.8b, v0.8b, v9.8b
   8f468:	39002c09 	strb	w9, [x0, #11]
   8f46c:	f85783a4 	ldur	x4, [x29, #-136]
   8f470:	3900300a 	strb	w10, [x0, #12]
   8f474:	2a1b03eb 	mov	w11, w27
   8f478:	a97827aa 	ldp	x10, x9, [x29, #-128]
   8f47c:	39003408 	strb	w8, [x0, #13]
   8f480:	2a1403ec 	mov	w12, w20
   8f484:	fd000000 	str	d0, [x0]
   8f488:	52800020 	mov	w0, #0x1                   	// #1
   8f48c:	f81983b7 	stur	x23, [x29, #-104]
   8f490:	aa1a03ed 	mov	x13, x26
   8f494:	aa1c03ee 	mov	x14, x28
   8f498:	aa1503ef 	mov	x15, x21
   8f49c:	aa1603f0 	mov	x16, x22
   8f4a0:	aa1903f1 	mov	x17, x25
   8f4a4:	aa1e03e5 	mov	x5, x30
   8f4a8:	f2e4bd86 	movk	x6, #0x25ec, lsl #48
   8f4ac:	391908e0 	strb	w0, [x7, #1602]
   8f4b0:	17ffe018 	b	87510 <Java_com_adjust_sdk_sig_NativeLibHelper_nOnResume@@Base-0x4457c>
   8f4b4:	d101e3a8 	sub	x8, x29, #0x78
   8f4b8:	d2921bd0 	mov	x16, #0x90de                	// #37086
   8f4bc:	d28b3cf1 	mov	x17, #0x59e7                	// #23015
   8f4c0:	f2be0a70 	movk	x16, #0xf053, lsl #16
   8f4c4:	f2b3e811 	movk	x17, #0x9f40, lsl #16
   8f4c8:	f2cb96d0 	movk	x16, #0x5cb6, lsl #32
   8f4cc:	f8500108 	ldur	x8, [x8, #-256]
   8f4d0:	f2da07b1 	movk	x17, #0xd03d, lsl #32
   8f4d4:	f2e0a1f0 	movk	x16, #0x50f, lsl #48
   8f4d8:	f2f2dd71 	movk	x17, #0x96eb, lsl #48
   8f4dc:	a93a4fb8 	stp	x24, x19, [x29, #-96]
   8f4e0:	2a1403ec 	mov	w12, w20
   8f4e4:	f940010a 	ldr	x10, [x8]
   8f4e8:	d10c03a8 	sub	x8, x29, #0x300
   8f4ec:	f81983b7 	stur	x23, [x29, #-104]
   8f4f0:	aa1a03ed 	mov	x13, x26
   8f4f4:	aa1c03ee 	mov	x14, x28
   8f4f8:	aa1503ef 	mov	x15, x21
   8f4fc:	f810010a 	stur	x10, [x8, #-256]
   8f500:	d10043a8 	sub	x8, x29, #0x10
   8f504:	f100015f 	cmp	x10, #0x0
   8f508:	f850010b 	ldur	x11, [x8, #-256]
   8f50c:	fa401964 	ccmp	x11, #0x0, #0x4, ne	// ne = any
   8f510:	2a1b03eb 	mov	w11, w27
   8f514:	9a901226 	csel	x6, x17, x16, ne	// ne = any
   8f518:	17fffefa 	b	8f100 <Java_com_adjust_sdk_sig_NativeLibHelper_nOnResume@@Base-0x3c98c>
   8f51c:	d112c3a8 	sub	x8, x29, #0x4b0
   8f520:	f8500108 	ldur	x8, [x8, #-256]
   8f524:	f9401508 	ldr	x8, [x8, #40]
   8f528:	f85b03a9 	ldur	x9, [x29, #-80]
   8f52c:	eb09011f 	cmp	x8, x9
   8f530:	540001c1 	b.ne	8f568 <Java_com_adjust_sdk_sig_NativeLibHelper_nOnResume@@Base-0x3c524>  // b.any
   8f534:	2a1403e0 	mov	w0, w20
   8f538:	d10103bf 	sub	sp, x29, #0x40
   8f53c:	a9494ff4 	ldp	x20, x19, [sp, #144]
   8f540:	a94857f6 	ldp	x22, x21, [sp, #128]
   8f544:	a9475ff8 	ldp	x24, x23, [sp, #112]
   8f548:	a94667fa 	ldp	x26, x25, [sp, #96]
   8f54c:	a9456ffc 	ldp	x28, x27, [sp, #80]
   8f550:	a9447bfd 	ldp	x29, x30, [sp, #64]
   8f554:	6d4323e9 	ldp	d9, d8, [sp, #48]
   8f558:	6d422beb 	ldp	d11, d10, [sp, #32]
   8f55c:	6d4133ed 	ldp	d13, d12, [sp, #16]
   8f560:	6cca3bef 	ldp	d15, d14, [sp], #160
   8f564:	d65f03c0 	ret
   8f568:	9402aa22 	bl	139df0 <__stack_chk_fail@plt>
