   c21a3: 4c 39 c2                     	cmpq	%r8, %rdx
   c21a6: 74 e4                        	je	0xc218c <Java_com_adjust_sdk_sig_NativeLibHelper_nSign+0x6ae1>
   c21a8: 49 89 ff                     	movq	%rdi, %r15
   c21ab: 49 89 c6                     	movq	%rax, %r14
   c21ae: 48 b8 29 8e c9 3a ae b8 fd 85	movabsq	$-0x7a024751c53671d7, %rax # imm = 0x85FDB8AE3AC98E29
   c21b8: 48 39 c2                     	cmpq	%rax, %rdx
   c21bb: 0f 84 cb 06 00 00            	je	0xc288c <Java_com_adjust_sdk_sig_NativeLibHelper_nSign+0x71e1>
   c21c1: 49 89 cc                     	movq	%rcx, %r12
   c21c4: 48 b8 b5 32 df 83 e4 7d 1b 86	movabsq	$-0x79e4821b7c20cd4b, %rax # imm = 0x861B7DE483DF32B5
   c21ce: 48 39 c2                     	cmpq	%rax, %rdx
   c21d1: 0f 84 e0 0e 00 00            	je	0xc30b7 <Java_com_adjust_sdk_sig_NativeLibHelper_nSign+0x7a0c>
   c21d7: 48 b8 1e 15 24 f8 66 05 79 94	movabsq	$-0x6b86fa9907dbeae2, %rax # imm = 0x94790566F824151E
   c21e1: 48 39 c2                     	cmpq	%rax, %rdx
   c21e4: 0f 84 e2 06 00 00            	je	0xc28cc <Java_com_adjust_sdk_sig_NativeLibHelper_nSign+0x7221>
   c21ea: 48 b8 a0 8c 1e 49 5d 28 de 95	movabsq	$-0x6a21d7a2b6e17360, %rax # imm = 0x95DE285D491E8CA0
   c21f4: 48 39 c2                     	cmpq	%rax, %rdx
   c21f7: 0f 84 4d 0b 00 00            	je	0xc2d4a <Java_com_adjust_sdk_sig_NativeLibHelper_nSign+0x769f>
   c21fd: 48 b8 a5 e7 cf 78 48 52 9c 96	movabsq	$-0x6963adb78730185b, %rax # imm = 0x969C524878CFE7A5
   c2207: 48 39 c2                     	cmpq	%rax, %rdx
   c220a: 0f 84 08 0c 00 00            	je	0xc2e18 <Java_com_adjust_sdk_sig_NativeLibHelper_nSign+0x776d>
   c2210: 48 b8 ff f4 15 3b 6d 64 68 99	movabsq	$-0x66979b92c4ea0b01, %rax # imm = 0x9968646D3B15F4FF
   c221a: 48 39 c2                     	cmpq	%rax, %rdx
   c221d: 0f 84 73 0e 00 00            	je	0xc3096 <Java_com_adjust_sdk_sig_NativeLibHelper_nSign+0x79eb>
   c2223: 4c 89 f0                     	movq	%r14, %rax
   c2226: 4c 89 e1                     	movq	%r12, %rcx
   c2229: 4c 89 ff                     	movq	%r15, %rdi
   c222c: 48 89 ee                     	movq	%rbp, %rsi
   c222f: 49 b8 a5 9a c9 31 93 f1 c0 9a	movabsq	$-0x653f0e6cce36655b, %r8 # imm = 0x9AC0F19331C99AA5
   c2239: 4c 39 c2                     	cmpq	%r8, %rdx
   c223c: 0f 84 4a ff ff ff            	je	0xc218c <Java_com_adjust_sdk_sig_NativeLibHelper_nSign+0x6ae1>
   c2242: 48 b8 dd 78 19 f0 5d b4 36 9c	movabsq	$-0x63c94ba20fe68723, %rax # imm = 0x9C36B45DF01978DD
   c224c: 48 39 c2                     	cmpq	%rax, %rdx
   c224f: 0f 84 22 07 00 00            	je	0xc2977 <Java_com_adjust_sdk_sig_NativeLibHelper_nSign+0x72cc>
   c2255: 48 39 da                     	cmpq	%rbx, %rdx
   c2258: 0f 84 80 06 00 00            	je	0xc28de <Java_com_adjust_sdk_sig_NativeLibHelper_nSign+0x7233>
   c225e: 48 b8 29 ba 56 c7 11 e6 7e a1	movabsq	$-0x5e8119ee38a945d7, %rax # imm = 0xA17EE611C756BA29
   c2268: 48 39 c2                     	cmpq	%rax, %rdx
   c226b: 0f 84 00 0e 00 00            	je	0xc3071 <Java_com_adjust_sdk_sig_NativeLibHelper_nSign+0x79c6>
   c2271: 4c 89 f0                     	movq	%r14, %rax
   c2274: 4c 89 e1                     	movq	%r12, %rcx
   c2277: 4c 89 ff                     	movq	%r15, %rdi
   c227a: 48 be 70 fb 90 79 0d 21 0a 49	movabsq	$0x490a210d7990fb70, %rsi # imm = 0x490A210D7990FB70
   c2284: 49 b8 7b be d4 74 f9 4e 3f a4	movabsq	$-0x5bc0b1068b2b4185, %r8 # imm = 0xA43F4EF974D4BE7B
   c228e: 4c 39 c2                     	cmpq	%r8, %rdx
   c2291: 0f 84 f5 fe ff ff            	je	0xc218c <Java_com_adjust_sdk_sig_NativeLibHelper_nSign+0x6ae1>
   c2297: 4c 39 da                     	cmpq	%r11, %rdx
   c229a: 0f 84 65 0d 00 00            	je	0xc3005 <Java_com_adjust_sdk_sig_NativeLibHelper_nSign+0x795a>
   c22a0: 4c 89 f0                     	movq	%r14, %rax
   c22a3: 4c 89 e1                     	movq	%r12, %rcx
   c22a6: 4c 89 ff                     	movq	%r15, %rdi
   c22a9: 48 be 4a e9 77 1d c7 6b f5 3e	movabsq	$0x3ef56bc71d77e94a, %rsi # imm = 0x3EF56BC71D77E94A
   c22b3: 4c 39 d2                     	cmpq	%r10, %rdx
   c22b6: 0f 84 d0 fe ff ff            	je	0xc218c <Java_com_adjust_sdk_sig_NativeLibHelper_nSign+0x6ae1>
   c22bc: 4c 89 f0                     	movq	%r14, %rax
   c22bf: 4c 89 e1                     	movq	%r12, %rcx
   c22c2: 4c 89 ff                     	movq	%r15, %rdi
   c22c5: 48 be d8 ea 6f ae a3 11 ee 68	movabsq	$0x68ee11a3ae6fead8, %rsi # imm = 0x68EE11A3AE6FEAD8
   c22cf: 49 b8 0d 38 ba 0f 13 39 dc ab	movabsq	$-0x5423c6ecf045c7f3, %r8 # imm = 0xABDC39130FBA380D
   c22d9: 4c 39 c2                     	cmpq	%r8, %rdx
   c22dc: 0f 84 aa fe ff ff            	je	0xc218c <Java_com_adjust_sdk_sig_NativeLibHelper_nSign+0x6ae1>
   c22e2: 4c 89 f0                     	movq	%r14, %rax
   c22e5: 4c 89 e1                     	movq	%r12, %rcx
   c22e8: 4c 89 ff                     	movq	%r15, %rdi
   c22eb: 48 be 29 8e c9 3a ae b8 fd 85	movabsq	$-0x7a024751c53671d7, %rsi # imm = 0x85FDB8AE3AC98E29
   c22f5: 49 b8 e7 5a 3b b2 7c 80 36 ae	movabsq	$-0x51c97f834dc4a519, %r8 # imm = 0xAE36807CB23B5AE7
   c22ff: 4c 39 c2                     	cmpq	%r8, %rdx
   c2302: 0f 84 84 fe ff ff            	je	0xc218c <Java_com_adjust_sdk_sig_NativeLibHelper_nSign+0x6ae1>
   c2308: 48 b8 cd 48 04 51 da 59 8d b0	movabsq	$-0x4f72a625aefbb733, %rax # imm = 0xB08D59DA510448CD
   c2312: 48 39 c2                     	cmpq	%rax, %rdx
   c2315: 0f 84 dc 0b 00 00            	je	0xc2ef7 <Java_com_adjust_sdk_sig_NativeLibHelper_nSign+0x784c>
   c231b: 4c 89 f0                     	movq	%r14, %rax
   c231e: 4c 89 e1                     	movq	%r12, %rcx
   c2321: 4c 89 ff                     	movq	%r15, %rdi
   c2324: 4c 89 d6                     	movq	%r10, %rsi
   c2327: 49 b8 2a 0b 63 e6 d8 c6 af b3	movabsq	$-0x4c503927199cf4d6, %r8 # imm = 0xB3AFC6D8E6630B2A
   c2331: 4c 39 c2                     	cmpq	%r8, %rdx
   c2334: 0f 84 52 fe ff ff            	je	0xc218c <Java_com_adjust_sdk_sig_NativeLibHelper_nSign+0x6ae1>
   c233a: 4c 39 ca                     	cmpq	%r9, %rdx
   c233d: 0f 84 39 07 00 00            	je	0xc2a7c <Java_com_adjust_sdk_sig_NativeLibHelper_nSign+0x73d1>
   c2343: 4c 89 f0                     	movq	%r14, %rax
   c2346: 4c 89 e1                     	movq	%r12, %rcx
   c2349: 4c 89 ff                     	movq	%r15, %rdi
   c234c: 48 be a0 8c 1e 49 5d 28 de 95	movabsq	$-0x6a21d7a2b6e17360, %rsi # imm = 0x95DE285D491E8CA0
   c2356: 49 b8 88 fb 26 f4 d3 30 a4 b9	movabsq	$-0x465bcf2c0bd90478, %r8 # imm = 0xB9A430D3F426FB88
   c2360: 4c 39 c2                     	cmpq	%r8, %rdx
   c2363: 0f 84 23 fe ff ff            	je	0xc218c <Java_com_adjust_sdk_sig_NativeLibHelper_nSign+0x6ae1>
   c2369: 48 b8 26 3f 89 92 60 cf 28 ba	movabsq	$-0x45d7309f6d76c0da, %rax # imm = 0xBA28CF6092893F26
   c2373: 48 39 c2                     	cmpq	%rax, %rdx
   c2376: 0f 84 3e 07 00 00            	je	0xc2aba <Java_com_adjust_sdk_sig_NativeLibHelper_nSign+0x740f>
   c237c: 48 b8 16 94 0f f0 64 da be bc	movabsq	$-0x4341259b0ff06bea, %rax # imm = 0xBCBEDA64F00F9416
   c2386: 48 39 c2                     	cmpq	%rax, %rdx
   c2389: 0f 84 b4 0b 00 00            	je	0xc2f43 <Java_com_adjust_sdk_sig_NativeLibHelper_nSign+0x7898>
   c238f: 48 b8 31 13 eb 2d e7 76 79 bd	movabsq	$-0x42868918d214eccf, %rax # imm = 0xBD7976E72DEB1331
   c2399: 48 39 c2                     	cmpq	%rax, %rdx
   c239c: 0f 84 1d 0c 00 00            	je	0xc2fbf <Java_com_adjust_sdk_sig_NativeLibHelper_nSign+0x7914>
   c23a2: 4c 89 f0                     	movq	%r14, %rax
   c23a5: 4c 89 e1                     	movq	%r12, %rcx
   c23a8: 4c 89 ff                     	movq	%r15, %rdi
   c23ab: 48 be 70 fb 90 79 0d 21 0a 49	movabsq	$0x490a210d7990fb70, %rsi # imm = 0x490A210D7990FB70
   c23b5: 49 b8 a2 ba 49 ea 34 4f 23 be	movabsq	$-0x41dcb0cb15b6455e, %r8 # imm = 0xBE234F34EA49BAA2
   c23bf: 4c 39 c2                     	cmpq	%r8, %rdx
   c23c2: 0f 84 c4 fd ff ff            	je	0xc218c <Java_com_adjust_sdk_sig_NativeLibHelper_nSign+0x6ae1>
   c23c8: 4c 89 f0                     	movq	%r14, %rax
   c23cb: 4c 89 e1                     	movq	%r12, %rcx
   c23ce: 4c 89 ff                     	movq	%r15, %rdi
   c23d1: 48 be 4a e9 77 1d c7 6b f5 3e	movabsq	$0x3ef56bc71d77e94a, %rsi # imm = 0x3EF56BC71D77E94A
   c23db: 49 b8 b3 9b a1 c2 c1 96 c9 c1	movabsq	$-0x3e36693e3d5e644d, %r8 # imm = 0xC1C996C1C2A19BB3
   c23e5: 4c 39 c2                     	cmpq	%r8, %rdx
   c23e8: 0f 84 9e fd ff ff            	je	0xc218c <Java_com_adjust_sdk_sig_NativeLibHelper_nSign+0x6ae1>
   c23ee: 48 b8 dc 34 e5 0c 24 19 19 ca	movabsq	$-0x35e6e6dbf31acb24, %rax # imm = 0xCA1919240CE534DC
   c23f8: 48 39 c2                     	cmpq	%rax, %rdx
   c23fb: 0f 84 35 07 00 00            	je	0xc2b36 <Java_com_adjust_sdk_sig_NativeLibHelper_nSign+0x748b>
   c2401: 4c 89 f0                     	movq	%r14, %rax
   c2404: 4c 89 e1                     	movq	%r12, %rcx
   c2407: 4c 89 ff                     	movq	%r15, %rdi
   c240a: 48 be 74 c4 d3 7d 2f 5c e0 05	movabsq	$0x5e05c2f7dd3c474, %rsi # imm = 0x5E05C2F7DD3C474
   c2414: 49 b8 c1 50 f3 08 9f e8 ca cd	movabsq	$-0x32351760f70caf3f, %r8 # imm = 0xCDCAE89F08F350C1
   c241e: 4c 39 c2                     	cmpq	%r8, %rdx
   c2421: 0f 84 65 fd ff ff            	je	0xc218c <Java_com_adjust_sdk_sig_NativeLibHelper_nSign+0x6ae1>
   c2427: 48 b8 68 fc 88 0a 84 33 00 d5	movabsq	$-0x2affcc7bf5770398, %rax # imm = 0xD50033840A88FC68
   c2431: 48 39 c2                     	cmpq	%rax, %rdx
   c2434: 0f 84 09 0c 00 00            	je	0xc3043 <Java_com_adjust_sdk_sig_NativeLibHelper_nSign+0x7998>
   c243a: 48 b8 26 e2 82 d5 2c 9b 53 d6	movabsq	$-0x29ac64d32a7d1dda, %rax # imm = 0xD6539B2CD582E226
   c2444: 48 39 c2                     	cmpq	%rax, %rdx
   c2447: 0f 84 5d 04 00 00            	je	0xc28aa <Java_com_adjust_sdk_sig_NativeLibHelper_nSign+0x71ff>
   c244d: 48 b8 b1 32 8a 01 8f 50 64 d8	movabsq	$-0x279baf70fe75cd4f, %rax # imm = 0xD864508F018A32B1
   c2457: 48 39 c2                     	cmpq	%rax, %rdx
   c245a: 0f 84 78 0a 00 00            	je	0xc2ed8 <Java_com_adjust_sdk_sig_NativeLibHelper_nSign+0x782d>
   c2460: 4c 89 f0                     	movq	%r14, %rax
   c2463: 4c 89 e1                     	movq	%r12, %rcx
   c2466: 4c 89 ff                     	movq	%r15, %rdi
   c2469: 49 b8 e5 0b 21 28 64 ad 52 da	movabsq	$-0x25ad529bd7def41b, %r8 # imm = 0xDA52AD6428210BE5
   c2473: 4c 39 c2                     	cmpq	%r8, %rdx
   c2476: 0f 84 10 fd ff ff            	je	0xc218c <Java_com_adjust_sdk_sig_NativeLibHelper_nSign+0x6ae1>
   c247c: 48 8b 84 24 90 00 00 00      	movq	0x90(%rsp), %rax
   c2484: 4c 89 e1                     	movq	%r12, %rcx
   c2487: 4c 89 ff                     	movq	%r15, %rdi
   c248a: 48 be 1e 15 24 f8 66 05 79 94	movabsq	$-0x6b86fa9907dbeae2, %rsi # imm = 0x94790566F824151E
   c2494: 49 b8 fc e0 5a 70 74 ff 1e db	movabsq	$-0x24e1008b8fa51f04, %r8 # imm = 0xDB1EFF74705AE0FC
   c249e: 4c 39 c2                     	cmpq	%r8, %rdx
   c24a1: 0f 84 e5 fc ff ff            	je	0xc218c <Java_com_adjust_sdk_sig_NativeLibHelper_nSign+0x6ae1>
   c24a7: 48 b8 3c fd 05 e7 cb dc ea dc	movabsq	$-0x2315233418fa02c4, %rax # imm = 0xDCEADCCBE705FD3C
   c24b1: 48 39 c2                     	cmpq	%rax, %rdx
   c24b4: 0f 84 ef 08 00 00            	je	0xc2da9 <Java_com_adjust_sdk_sig_NativeLibHelper_nSign+0x76fe>
   c24ba: 4c 89 f0                     	movq	%r14, %rax
   c24bd: 4c 89 e1                     	movq	%r12, %rcx
   c24c0: 4c 89 ff                     	movq	%r15, %rdi
   c24c3: 48 be 70 fb 90 79 0d 21 0a 49	movabsq	$0x490a210d7990fb70, %rsi # imm = 0x490A210D7990FB70
   c24cd: 49 b8 db be 00 54 44 ce 30 e3	movabsq	$-0x1ccf31bbabff4125, %r8 # imm = 0xE330CE445400BEDB
   c24d7: 4c 39 c2                     	cmpq	%r8, %rdx
   c24da: 0f 84 ac fc ff ff            	je	0xc218c <Java_com_adjust_sdk_sig_NativeLibHelper_nSign+0x6ae1>
   c24e0: 48 b8 23 7a 3d 50 45 17 93 e6	movabsq	$-0x196ce8baafc285dd, %rax # imm = 0xE6931745503D7A23
   c24ea: 48 39 c2                     	cmpq	%rax, %rdx
   c24ed: 0f 84 34 05 00 00            	je	0xc2a27 <Java_com_adjust_sdk_sig_NativeLibHelper_nSign+0x737c>
   c24f3: 48 b8 22 74 78 fb 19 9b 94 ea	movabsq	$-0x156b64e604878bde, %rax # imm = 0xEA949B19FB787422
   c24fd: 48 39 c2                     	cmpq	%rax, %rdx
   c2500: 0f 84 75 0a 00 00            	je	0xc2f7b <Java_com_adjust_sdk_sig_NativeLibHelper_nSign+0x78d0>
   c2506: 4c 89 f0                     	movq	%r14, %rax
   c2509: 4c 89 e1                     	movq	%r12, %rcx
   c250c: 4c 89 ff                     	movq	%r15, %rdi
   c250f: 48 be 40 60 87 c6 48 30 1f 7d	movabsq	$0x7d1f3048c6876040, %rsi # imm = 0x7D1F3048C6876040
   c2519: 49 b8 df 06 01 c1 b4 27 11 eb	movabsq	$-0x14eed84b3efef921, %r8 # imm = 0xEB1127B4C10106DF
   c2523: 4c 39 c2                     	cmpq	%r8, %rdx
   c2526: 0f 84 60 fc ff ff            	je	0xc218c <Java_com_adjust_sdk_sig_NativeLibHelper_nSign+0x6ae1>
   c252c: 4c 89 f0                     	movq	%r14, %rax
   c252f: 4c 89 e1                     	movq	%r12, %rcx
   c2532: 48 8b bc 24 d8 00 00 00      	movq	0xd8(%rsp), %rdi
   c253a: 4c 89 de                     	movq	%r11, %rsi
   c253d: 49 b8 5e 48 9f 81 3c 6c fb ed	movabsq	$-0x120493c37e60b7a2, %r8 # imm = 0xEDFB6C3C819F485E
   c2547: 4c 39 c2                     	cmpq	%r8, %rdx
   c254a: 0f 84 3c fc ff ff            	je	0xc218c <Java_com_adjust_sdk_sig_NativeLibHelper_nSign+0x6ae1>
   c2550: 4c 89 f0                     	movq	%r14, %rax
   c2553: 4c 89 e1                     	movq	%r12, %rcx
   c2556: 4c 89 ff                     	movq	%r15, %rdi
   c2559: 48 be dd 78 19 f0 5d b4 36 9c	movabsq	$-0x63c94ba20fe68723, %rsi # imm = 0x9C36B45DF01978DD
   c2563: 49 b8 be ec 72 7e 6e 82 06 ee	movabsq	$-0x11f97d91818d1342, %r8 # imm = 0xEE06826E7E72ECBE
   c256d: 4c 39 c2                     	cmpq	%r8, %rdx
   c2570: 0f 84 16 fc ff ff            	je	0xc218c <Java_com_adjust_sdk_sig_NativeLibHelper_nSign+0x6ae1>
   c2576: 48 b8 c3 fd 50 c2 7e 1c 97 ee	movabsq	$-0x1168e3813daf023d, %rax # imm = 0xEE971C7EC250FDC3
   c2580: 48 39 c2                     	cmpq	%rax, %rdx
   c2583: 0f 84 8d 09 00 00            	je	0xc2f16 <Java_com_adjust_sdk_sig_NativeLibHelper_nSign+0x786b>
   c2589: 48 8b 84 24 90 00 00 00      	movq	0x90(%rsp), %rax
   c2591: 4c 89 e1                     	movq	%r12, %rcx
   c2594: 4c 89 ff                     	movq	%r15, %rdi
   c2597: 48 be 1e 15 24 f8 66 05 79 94	movabsq	$-0x6b86fa9907dbeae2, %rsi # imm = 0x94790566F824151E
   c25a1: 49 b8 92 19 d3 ba ec 28 51 f1	movabsq	$-0xeaed713452ce66e, %r8 # imm = 0xF15128ECBAD31992
   c25ab: 4c 39 c2                     	cmpq	%r8, %rdx
   c25ae: 0f 84 d8 fb ff ff            	je	0xc218c <Java_com_adjust_sdk_sig_NativeLibHelper_nSign+0x6ae1>
   c25b4: 48 b8 5d 59 88 be 81 12 35 fa	movabsq	$-0x5caed7e4177a6a3, %rax # imm = 0xFA351281BE88595D
   c25be: 48 39 c2                     	cmpq	%rax, %rdx
   c25c1: 0f 84 c4 07 00 00            	je	0xc2d8b <Java_com_adjust_sdk_sig_NativeLibHelper_nSign+0x76e0>
   c25c7: 4c 89 f0                     	movq	%r14, %rax
   c25ca: 4c 89 e1                     	movq	%r12, %rcx
   c25cd: 4c 89 ff                     	movq	%r15, %rdi
   c25d0: 48 be be 0d a5 1f c3 a9 00 41	movabsq	$0x4100a9c31fa50dbe, %rsi # imm = 0x4100A9C31FA50DBE
   c25da: 49 b8 a8 8f c1 3f bb 00 54 fc	movabsq	$-0x3abff44c03e7058, %r8 # imm = 0xFC5400BB3FC18FA8
   c25e4: 4c 39 c2                     	cmpq	%r8, %rdx
   c25e7: 0f 84 9f fb ff ff            	je	0xc218c <Java_com_adjust_sdk_sig_NativeLibHelper_nSign+0x6ae1>
   c25ed: 48 39 ea                     	cmpq	%rbp, %rdx
   c25f0: 0f 84 5f 08 00 00            	je	0xc2e55 <Java_com_adjust_sdk_sig_NativeLibHelper_nSign+0x77aa>
   c25f6: 48 b8 74 c4 d3 7d 2f 5c e0 05	movabsq	$0x5e05c2f7dd3c474, %rax # imm = 0x5E05C2F7DD3C474
   c2600: 48 39 c2                     	cmpq	%rax, %rdx
   c2603: 0f 84 38 06 00 00            	je	0xc2c41 <Java_com_adjust_sdk_sig_NativeLibHelper_nSign+0x7596>
   c2609: 48 be a1 50 5c 3b 46 8c fc 0c	movabsq	$0xcfc8c463b5c50a1, %rsi # imm = 0xCFC8C463B5C50A1
   c2613: 48 39 f2                     	cmpq	%rsi, %rdx
   c2616: 0f 84 e2 08 00 00            	je	0xc2efe <Java_com_adjust_sdk_sig_NativeLibHelper_nSign+0x7853>
   c261c: 4c 89 f0                     	movq	%r14, %rax
   c261f: 4c 89 e1                     	movq	%r12, %rcx
   c2622: 4c 89 ff                     	movq	%r15, %rdi
   c2625: 4c 39 ea                     	cmpq	%r13, %rdx
   c2628: 0f 84 5e fb ff ff            	je	0xc218c <Java_com_adjust_sdk_sig_NativeLibHelper_nSign+0x6ae1>
   c262e: 4c 89 f0                     	movq	%r14, %rax
   c2631: 4c 89 e1                     	movq	%r12, %rcx
   c2634: 4c 89 ff                     	movq	%r15, %rdi
   c2637: 49 b8 59 5c 5d a2 fc e3 68 23	movabsq	$0x2368e3fca25d5c59, %r8 # imm = 0x2368E3FCA25D5C59
   c2641: 4c 39 c2                     	cmpq	%r8, %rdx
   c2644: 0f 84 42 fb ff ff            	je	0xc218c <Java_com_adjust_sdk_sig_NativeLibHelper_nSign+0x6ae1>
   c264a: 48 b8 f4 2f 9f 62 f3 d6 66 2c	movabsq	$0x2c66d6f3629f2ff4, %rax # imm = 0x2C66D6F3629F2FF4
   c2654: 48 39 c2                     	cmpq	%rax, %rdx
   c2657: 0f 84 24 06 00 00            	je	0xc2c81 <Java_com_adjust_sdk_sig_NativeLibHelper_nSign+0x75d6>
   c265d: 4c 89 f0                     	movq	%r14, %rax
   c2660: 48 8b 8c 24 88 00 00 00      	movq	0x88(%rsp), %rcx
   c2668: 4c 89 ff                     	movq	%r15, %rdi
   c266b: 48 be 23 7a 3d 50 45 17 93 e6	movabsq	$-0x196ce8baafc285dd, %rsi # imm = 0xE6931745503D7A23
   c2675: 49 b8 50 30 d8 07 4a 46 ca 2d	movabsq	$0x2dca464a07d83050, %r8 # imm = 0x2DCA464A07D83050
   c267f: 4c 39 c2                     	cmpq	%r8, %rdx
   c2682: 0f 84 04 fb ff ff            	je	0xc218c <Java_com_adjust_sdk_sig_NativeLibHelper_nSign+0x6ae1>
   c2688: 48 b8 f7 c6 ba 0c 6b 1c 06 2f	movabsq	$0x2f061c6b0cbac6f7, %rax # imm = 0x2F061C6B0CBAC6F7
   c2692: 48 39 c2                     	cmpq	%rax, %rdx
   c2695: 0f 84 01 03 00 00            	je	0xc299c <Java_com_adjust_sdk_sig_NativeLibHelper_nSign+0x72f1>
   c269b: 4c 89 f0                     	movq	%r14, %rax
   c269e: 4c 89 e1                     	movq	%r12, %rcx
   c26a1: 4c 89 ff                     	movq	%r15, %rdi
   c26a4: 48 be be 0d a5 1f c3 a9 00 41	movabsq	$0x4100a9c31fa50dbe, %rsi # imm = 0x4100A9C31FA50DBE
   c26ae: 49 b8 93 07 86 90 1c 74 b7 31	movabsq	$0x31b7741c90860793, %r8 # imm = 0x31B7741C90860793
   c26b8: 4c 39 c2                     	cmpq	%r8, %rdx
   c26bb: 0f 84 cb fa ff ff            	je	0xc218c <Java_com_adjust_sdk_sig_NativeLibHelper_nSign+0x6ae1>
   c26c1: 4c 89 f0                     	movq	%r14, %rax
   c26c4: 4c 89 e1                     	movq	%r12, %rcx
   c26c7: 4c 89 ff                     	movq	%r15, %rdi
   c26ca: 4c 89 d6                     	movq	%r10, %rsi
   c26cd: 49 b8 a7 cf dc f5 45 06 b9 32	movabsq	$0x32b90645f5dccfa7, %r8 # imm = 0x32B90645F5DCCFA7
   c26d7: 4c 39 c2                     	cmpq	%r8, %rdx
   c26da: 0f 84 ac fa ff ff            	je	0xc218c <Java_com_adjust_sdk_sig_NativeLibHelper_nSign+0x6ae1>
   c26e0: 4c 89 f0                     	movq	%r14, %rax
   c26e3: 4c 89 e1                     	movq	%r12, %rcx
   c26e6: 4c 89 ff                     	movq	%r15, %rdi
   c26e9: 48 be 29 8e c9 3a ae b8 fd 85	movabsq	$-0x7a024751c53671d7, %rsi # imm = 0x85FDB8AE3AC98E29
   c26f3: 49 b8 73 0c 94 3d 2a c2 fa 36	movabsq	$0x36fac22a3d940c73, %r8 # imm = 0x36FAC22A3D940C73
   c26fd: 4c 39 c2                     	cmpq	%r8, %rdx
   c2700: 0f 84 86 fa ff ff            	je	0xc218c <Java_com_adjust_sdk_sig_NativeLibHelper_nSign+0x6ae1>
   c2706: 48 b8 03 24 9e 5a d4 b0 1e 39	movabsq	$0x391eb0d45a9e2403, %rax # imm = 0x391EB0D45A9E2403
   c2710: 48 39 c2                     	cmpq	%rax, %rdx
   c2713: 0f 84 e3 01 00 00            	je	0xc28fc <Java_com_adjust_sdk_sig_NativeLibHelper_nSign+0x7251>
   c2719: 48 b8 64 e0 bc b9 af a5 78 3a	movabsq	$0x3a78a5afb9bce064, %rax # imm = 0x3A78A5AFB9BCE064
   c2723: 48 39 c2                     	cmpq	%rax, %rdx
   c2726: 0f 84 af 03 00 00            	je	0xc2adb <Java_com_adjust_sdk_sig_NativeLibHelper_nSign+0x7430>
   c272c: 44 0f b6 44 24 0e            	movzbl	0xe(%rsp), %r8d
   c2732: 48 b8 4a e9 77 1d c7 6b f5 3e	movabsq	$0x3ef56bc71d77e94a, %rax # imm = 0x3EF56BC71D77E94A
   c273c: 48 39 c2                     	cmpq	%rax, %rdx
   c273f: 0f 84 f3 01 00 00            	je	0xc2938 <Java_com_adjust_sdk_sig_NativeLibHelper_nSign+0x728d>
   c2745: 4c 89 f0                     	movq	%r14, %rax
   c2748: 4c 89 e1                     	movq	%r12, %rcx
   c274b: 4c 89 ff                     	movq	%r15, %rdi
   c274e: 48 be dd 78 19 f0 5d b4 36 9c	movabsq	$-0x63c94ba20fe68723, %rsi # imm = 0x9C36B45DF01978DD
   c2758: 48 bb 98 ce f3 71 7e 67 98 45	movabsq	$0x4598677e71f3ce98, %rbx # imm = 0x4598677E71F3CE98
   c2762: 48 39 da                     	cmpq	%rbx, %rdx
   c2765: 48 bb 9e 92 04 ed ff 6f 39 9e	movabsq	$-0x61c6900012fb6d62, %rbx # imm = 0x9E396FFFED04929E
   c276f: 0f 84 17 fa ff ff            	je	0xc218c <Java_com_adjust_sdk_sig_NativeLibHelper_nSign+0x6ae1>
   c2775: 48 b8 70 fb 90 79 0d 21 0a 49	movabsq	$0x490a210d7990fb70, %rax # imm = 0x490A210D7990FB70
   c277f: 48 39 c2                     	cmpq	%rax, %rdx
   c2782: 0f 84 aa 05 00 00            	je	0xc2d32 <Java_com_adjust_sdk_sig_NativeLibHelper_nSign+0x7687>
   c2788: 4c 89 f0                     	movq	%r14, %rax
   c278b: 4c 89 e1                     	movq	%r12, %rcx
   c278e: 4c 89 ff                     	movq	%r15, %rdi
   c2791: 48 be 40 60 87 c6 48 30 1f 7d	movabsq	$0x7d1f3048c6876040, %rsi # imm = 0x7D1F3048C6876040
   c279b: 49 bd fb bd b6 ca c1 7c b8 4c	movabsq	$0x4cb87cc1cab6bdfb, %r13 # imm = 0x4CB87CC1CAB6BDFB
   c27a5: 4c 39 ea                     	cmpq	%r13, %rdx
   c27a8: 49 bd 0f 59 29 fa 5e ff 6c 18	movabsq	$0x186cff5efa29590f, %r13 # imm = 0x186CFF5EFA29590F
   c27b2: 0f 84 d4 f9 ff ff            	je	0xc218c <Java_com_adjust_sdk_sig_NativeLibHelper_nSign+0x6ae1>
   c27b8: 48 b8 ab 60 d5 9b e7 a5 66 50	movabsq	$0x5066a5e79bd560ab, %rax # imm = 0x5066A5E79BD560AB
   c27c2: 48 39 c2                     	cmpq	%rax, %rdx
   c27c5: 0f 84 9d 03 00 00            	je	0xc2b68 <Java_com_adjust_sdk_sig_NativeLibHelper_nSign+0x74bd>
   c27cb: 48 b8 82 48 52 ed 62 c0 d8 55	movabsq	$0x55d8c062ed524882, %rax # imm = 0x55D8C062ED524882
   c27d5: 48 39 c2                     	cmpq	%rax, %rdx
   c27d8: 0f 84 c8 03 00 00            	je	0xc2ba6 <Java_com_adjust_sdk_sig_NativeLibHelper_nSign+0x74fb>
   c27de: 48 b8 d3 5a 09 7b fe f9 06 5b	movabsq	$0x5b06f9fe7b095ad3, %rax # imm = 0x5B06F9FE7B095AD3
   c27e8: 48 39 c2                     	cmpq	%rax, %rdx
   c27eb: 0f 84 cb 01 00 00            	je	0xc29bc <Java_com_adjust_sdk_sig_NativeLibHelper_nSign+0x7311>
   c27f1: 48 b8 9d 6d be c9 03 01 53 63	movabsq	$0x63530103c9be6d9d, %rax # imm = 0x63530103C9BE6D9D
   c27fb: 48 39 c2                     	cmpq	%rax, %rdx
   c27fe: 0f 84 82 03 00 00            	je	0xc2b86 <Java_com_adjust_sdk_sig_NativeLibHelper_nSign+0x74db>
   c2804: 48 b8 8d 7f 7f 35 1e 25 bc 65	movabsq	$0x65bc251e357f7f8d, %rax # imm = 0x65BC251E357F7F8D
   c280e: 48 39 c2                     	cmpq	%rax, %rdx
   c2811: 0f 84 dc 04 00 00            	je	0xc2cf3 <Java_com_adjust_sdk_sig_NativeLibHelper_nSign+0x7648>
   c2817: 48 b8 d8 ea 6f ae a3 11 ee 68	movabsq	$0x68ee11a3ae6fead8, %rax # imm = 0x68EE11A3AE6FEAD8
   c2821: 48 39 c2                     	cmpq	%rax, %rdx
   c2824: 0f 84 a9 03 00 00            	je	0xc2bd3 <Java_com_adjust_sdk_sig_NativeLibHelper_nSign+0x7528>
   c282a: 48 b8 be a2 25 27 fd e1 20 72	movabsq	$0x7220e1fd2725a2be, %rax # imm = 0x7220E1FD2725A2BE
   c2834: 48 39 c2                     	cmpq	%rax, %rdx
   c2837: 0f 84 bb 03 00 00            	je	0xc2bf8 <Java_com_adjust_sdk_sig_NativeLibHelper_nSign+0x754d>
   c283d: 48 8b 84 24 88 00 00 00      	movq	0x88(%rsp), %rax
   c2845: 4c 89 e1                     	movq	%r12, %rcx
   c2848: 4c 89 ff                     	movq	%r15, %rdi
   c284b: 48 be 1e 15 24 f8 66 05 79 94	movabsq	$-0x6b86fa9907dbeae2, %rsi # imm = 0x94790566F824151E
   c2855: 49 b8 40 60 87 c6 48 30 1f 7d	movabsq	$0x7d1f3048c6876040, %r8 # imm = 0x7D1F3048C6876040
   c285f: 4c 39 c2                     	cmpq	%r8, %rdx
   c2862: 0f 84 24 f9 ff ff            	je	0xc218c <Java_com_adjust_sdk_sig_NativeLibHelper_nSign+0x6ae1>
   c2868: 4c 89 f0                     	movq	%r14, %rax
   c286b: 4c 89 e1                     	movq	%r12, %rcx
   c286e: 4c 89 ff                     	movq	%r15, %rdi
   c2871: 48 89 d6                     	movq	%rdx, %rsi
   c2874: 49 b8 be 0d a5 1f c3 a9 00 41	movabsq	$0x4100a9c31fa50dbe, %r8 # imm = 0x4100A9C31FA50DBE
   c287e: 4c 39 c2                     	cmpq	%r8, %rdx
   c2881: 0f 85 05 f9 ff ff            	jne	0xc218c <Java_com_adjust_sdk_sig_NativeLibHelper_nSign+0x6ae1>
   c2887: e9 70 08 00 00               	jmp	0xc30fc <Java_com_adjust_sdk_sig_NativeLibHelper_nSign+0x7a51>
   c288c: 48 8b 44 24 28               	movq	0x28(%rsp), %rax
   c2891: 48 8d 48 0a                  	leaq	0xa(%rax), %rcx
   c2895: 4c 89 f0                     	movq	%r14, %rax
   c2898: 4c 89 ff                     	movq	%r15, %rdi
   c289b: 48 be 23 7a 3d 50 45 17 93 e6	movabsq	$-0x196ce8baafc285dd, %rsi # imm = 0xE6931745503D7A23
   c28a5: e9 e2 f8 ff ff               	jmp	0xc218c <Java_com_adjust_sdk_sig_NativeLibHelper_nSign+0x6ae1>
   c28aa: 83 7c 24 14 2d               	cmpl	$0x2d, 0x14(%rsp)
   c28af: 48 be 5d 59 88 be 81 12 35 fa	movabsq	$-0x5caed7e4177a6a3, %rsi # imm = 0xFA351281BE88595D
   c28b9: 48 b8 b1 32 8a 01 8f 50 64 d8	movabsq	$-0x279baf70fe75cd4f, %rax # imm = 0xD864508F018A32B1
   c28c3: 48 0f 4c f0                  	cmovlq	%rax, %rsi
   c28c7: e9 69 06 00 00               	jmp	0xc2f35 <Java_com_adjust_sdk_sig_NativeLibHelper_nSign+0x788a>
   c28cc: c7 44 24 1c 00 00 00 00      	movl	$0x0, 0x1c(%rsp)
   c28d4: 4c 89 74 24 78               	movq	%r14, 0x78(%rsp)
   c28d9: e9 82 07 00 00               	jmp	0xc3060 <Java_com_adjust_sdk_sig_NativeLibHelper_nSign+0x79b5>
   c28de: 83 7c 24 18 00               	cmpl	$0x0, 0x18(%rsp)
   c28e3: 48 be cd 48 04 51 da 59 8d b0	movabsq	$-0x4f72a625aefbb733, %rsi # imm = 0xB08D59DA510448CD
   c28ed: 48 b8 93 07 86 90 1c 74 b7 31	movabsq	$0x31b7741c90860793, %rax # imm = 0x31B7741C90860793
   c28f7: e9 f5 05 00 00               	jmp	0xc2ef1 <Java_com_adjust_sdk_sig_NativeLibHelper_nSign+0x7846>
   c28fc: 48 8b 8c 24 b0 00 00 00      	movq	0xb0(%rsp), %rcx
   c2904: c6 01 00                     	movb	$0x0, (%rcx)
   c2907: 48 8b 84 24 b8 00 00 00      	movq	0xb8(%rsp), %rax
   c290f: 48 ff c8                     	decq	%rax
   c2912: 48 89 44 24 70               	movq	%rax, 0x70(%rsp)
   c2917: 48 8d 41 01                  	leaq	0x1(%rcx), %rax
   c291b: 48 89 44 24 48               	movq	%rax, 0x48(%rsp)
   c2920: 4c 89 f0                     	movq	%r14, %rax
   c2923: 4c 89 e1                     	movq	%r12, %rcx
   c2926: 4c 89 ff                     	movq	%r15, %rdi
   c2929: 48 be a5 e7 cf 78 48 52 9c 96	movabsq	$-0x6963adb78730185b, %rsi # imm = 0x969C524878CFE7A5
   c2933: e9 54 f8 ff ff               	jmp	0xc218c <Java_com_adjust_sdk_sig_NativeLibHelper_nSign+0x6ae1>
   c2938: 48 8b 54 24 20               	movq	0x20(%rsp), %rdx
   c293d: 8d 42 a5                     	leal	-0x5b(%rdx), %eax
   c2940: 89 d1                        	movl	%edx, %ecx
   c2942: 83 c9 20                     	orl	$0x20, %ecx
   c2945: 83 f8 e6                     	cmpl	$-0x1a, %eax
   c2948: 0f 42 ca                     	cmovbl	%edx, %ecx
   c294b: 41 8d 40 a5                  	leal	-0x5b(%r8), %eax
   c294f: 44 89 c2                     	movl	%r8d, %edx
   c2952: 83 ca 20                     	orl	$0x20, %edx
   c2955: 83 f8 e6                     	cmpl	$-0x1a, %eax
   c2958: 41 0f 42 d0                  	cmovbl	%r8d, %edx
   c295c: 39 d1                        	cmpl	%edx, %ecx
   c295e: 48 be 29 ba 56 c7 11 e6 7e a1	movabsq	$-0x5e8119ee38a945d7, %rsi # imm = 0xA17EE611C756BA29
   c2968: 48 b8 73 0c 94 3d 2a c2 fa 36	movabsq	$0x36fac22a3d940c73, %rax # imm = 0x36FAC22A3D940C73
   c2972: e9 7a 05 00 00               	jmp	0xc2ef1 <Java_com_adjust_sdk_sig_NativeLibHelper_nSign+0x7846>
   c2977: 31 c0                        	xorl	%eax, %eax
   c2979: b1 01                        	movb	$0x1, %cl
   c297b: f0                           	lock
   c297c: 0f b0 0d 47 c7 07 00         	cmpxchgb	%cl, 0x7c747(%rip)      # 0x13f0ca
   c2983: 48 be 98 ce f3 71 7e 67 98 45	movabsq	$0x4598677e71f3ce98, %rsi # imm = 0x4598677E71F3CE98
   c298d: 48 b8 c3 fd 50 c2 7e 1c 97 ee	movabsq	$-0x1168e3813daf023d, %rax # imm = 0xEE971C7EC250FDC3
   c2997: e9 55 05 00 00               	jmp	0xc2ef1 <Java_com_adjust_sdk_sig_NativeLibHelper_nSign+0x7846>
   c299c: 80 3d 1a c7 07 00 00         	cmpb	$0x0, 0x7c71a(%rip)     # 0x13f0bd
   c29a3: 48 be 3c fd 05 e7 cb dc ea dc	movabsq	$-0x2315233418fa02c4, %rsi # imm = 0xDCEADCCBE705FD3C
   c29ad: 48 b8 a8 8f c1 3f bb 00 54 fc	movabsq	$-0x3abff44c03e7058, %rax # imm = 0xFC5400BB3FC18FA8
   c29b7: e9 75 05 00 00               	jmp	0xc2f31 <Java_com_adjust_sdk_sig_NativeLibHelper_nSign+0x7886>
   c29bc: 48 8b 44 24 50               	movq	0x50(%rsp), %rax
   c29c1: 48 ff c8                     	decq	%rax
   c29c4: 48 89 84 24 80 00 00 00      	movq	%rax, 0x80(%rsp)
   c29cc: 8a 54 24 0f                  	movb	0xf(%rsp), %dl
   c29d0: 0f b6 c2                     	movzbl	%dl, %eax
   c29d3: 48 89 44 24 20               	movq	%rax, 0x20(%rsp)
   c29d8: 84 c0                        	testb	%al, %al
   c29da: 48 8b 7c 24 68               	movq	0x68(%rsp), %rdi
   c29df: 8a 07                        	movb	(%rdi), %al
   c29e1: 88 44 24 0e                  	movb	%al, 0xe(%rsp)
   c29e5: 48 be dc 34 e5 0c 24 19 19 ca	movabsq	$-0x35e6e6dbf31acb24, %rsi # imm = 0xCA1919240CE534DC
   c29ef: 48 b8 b3 9b a1 c2 c1 96 c9 c1	movabsq	$-0x3e36693e3d5e644d, %rax # imm = 0xC1C996C1C2A19BB3
   c29f9: 48 0f 44 f0                  	cmoveq	%rax, %rsi
   c29fd: 4c 89 f0                     	movq	%r14, %rax
   c2a00: 4c 89 e1                     	movq	%r12, %rcx
   c2a03: 88 54 24 13                  	movb	%dl, 0x13(%rsp)
   c2a07: 48 8b 54 24 60               	movq	0x60(%rsp), %rdx
   c2a0c: 48 89 94 24 d0 00 00 00      	movq	%rdx, 0xd0(%rsp)
   c2a14: 48 89 fa                     	movq	%rdi, %rdx
   c2a17: 48 89 bc 24 c8 00 00 00      	movq	%rdi, 0xc8(%rsp)
   c2a1f: 4c 89 ff                     	movq	%r15, %rdi
   c2a22: e9 65 f7 ff ff               	jmp	0xc218c <Java_com_adjust_sdk_sig_NativeLibHelper_nSign+0x6ae1>
   c2a27: 41 0f be 14 24               	movsbl	(%r12), %edx
   c2a2c: 8d 42 f2                     	leal	-0xe(%rdx), %eax
   c2a2f: 83 f8 fb                     	cmpl	$-0x5, %eax
   c2a32: 48 b9 50 30 d8 07 4a 46 ca 2d	movabsq	$0x2dca464a07d83050, %rcx # imm = 0x2DCA464A07D83050
   c2a3c: 48 89 ce                     	movq	%rcx, %rsi
   c2a3f: 48 b8 ff f4 15 3b 6d 64 68 99	movabsq	$-0x66979b92c4ea0b01, %rax # imm = 0x9968646D3B15F4FF
   c2a49: 48 0f 42 f0                  	cmovbq	%rax, %rsi
   c2a4d: 49 8d 44 24 01               	leaq	0x1(%r12), %rax
   c2a52: 48 89 84 24 88 00 00 00      	movq	%rax, 0x88(%rsp)
   c2a5a: 48 89 54 24 40               	movq	%rdx, 0x40(%rsp)
   c2a5f: 83 fa 20                     	cmpl	$0x20, %edx
   c2a62: 48 0f 44 f1                  	cmoveq	%rcx, %rsi
   c2a66: 4c 89 f0                     	movq	%r14, %rax
   c2a69: 4c 89 e1                     	movq	%r12, %rcx
   c2a6c: 4c 89 a4 24 90 00 00 00      	movq	%r12, 0x90(%rsp)
   c2a74: 4c 89 ff                     	movq	%r15, %rdi
   c2a77: e9 10 f7 ff ff               	jmp	0xc218c <Java_com_adjust_sdk_sig_NativeLibHelper_nSign+0x6ae1>
   c2a7c: 48 8b 54 24 78               	movq	0x78(%rsp), %rdx
   c2a81: 0f be 02                     	movsbl	(%rdx), %eax
   c2a84: 83 c0 d0                     	addl	$-0x30, %eax
   c2a87: 89 44 24 34                  	movl	%eax, 0x34(%rsp)
   c2a8b: 83 f8 0a                     	cmpl	$0xa, %eax
   c2a8e: 48 be 68 fc 88 0a 84 33 00 d5	movabsq	$-0x2affcc7bf5770398, %rsi # imm = 0xD50033840A88FC68
   c2a98: 48 0f 43 f3                  	cmovaeq	%rbx, %rsi
   c2a9c: 4c 89 f0                     	movq	%r14, %rax
   c2a9f: 4c 89 e1                     	movq	%r12, %rcx
   c2aa2: 4c 89 ff                     	movq	%r15, %rdi
   c2aa5: 48 89 94 24 98 00 00 00      	movq	%rdx, 0x98(%rsp)
   c2aad: 8b 54 24 1c                  	movl	0x1c(%rsp), %edx
   c2ab1: 89 54 24 18                  	movl	%edx, 0x18(%rsp)
   c2ab5: e9 d2 f6 ff ff               	jmp	0xc218c <Java_com_adjust_sdk_sig_NativeLibHelper_nSign+0x6ae1>
   c2aba: 8a 44 24 13                  	movb	0x13(%rsp), %al
   c2abe: 3a 44 24 0e                  	cmpb	0xe(%rsp), %al
   c2ac2: 48 be 8d 7f 7f 35 1e 25 bc 65	movabsq	$0x65bc251e357f7f8d, %rsi # imm = 0x65BC251E357F7F8D
   c2acc: 48 b8 e5 0b 21 28 64 ad 52 da	movabsq	$-0x25ad529bd7def41b, %rax # imm = 0xDA52AD6428210BE5
   c2ad6: e9 16 04 00 00               	jmp	0xc2ef1 <Java_com_adjust_sdk_sig_NativeLibHelper_nSign+0x7846>
   c2adb: bf 01 01 00 00               	movl	$0x101, %edi            # imm = 0x101
   c2ae0: 6a 9c                        	pushq	$-0x64
   c2ae2: 5e                           	popq	%rsi
   c2ae3: 48 8d 94 24 f0 08 00 00      	leaq	0x8f0(%rsp), %rdx
   c2aeb: 31 c9                        	xorl	%ecx, %ecx
   c2aed: 45 31 c0                     	xorl	%r8d, %r8d
   c2af0: 31 c0                        	xorl	%eax, %eax
   c2af2: e8 39 fd 06 00               	callq	0x132830 <syscall@plt>
   c2af7: 49 bb c5 87 5a 16 d2 c3 6d a5	movabsq	$-0x5a923c2de9a5783b, %r11 # imm = 0xA56DC3D2165A87C5
   c2b01: 49 ba d0 2a aa e4 90 1c 03 a7	movabsq	$-0x58fce36f1b55d530, %r10 # imm = 0xA7031C90E4AA2AD0
   c2b0b: 49 b9 82 0d a7 b8 7e 93 6d b6	movabsq	$-0x49926c814758f27e, %r9 # imm = 0xB66D937EB8A70D82
   c2b15: 48 89 44 24 38               	movq	%rax, 0x38(%rsp)
   c2b1a: 83 f8 ff                     	cmpl	$-0x1, %eax
   c2b1d: 48 be f4 2f 9f 62 f3 d6 66 2c	movabsq	$0x2c66d6f3629f2ff4, %rsi # imm = 0x2C66D6F3629F2FF4
   c2b27: 48 b8 7b be d4 74 f9 4e 3f a4	movabsq	$-0x5bc0b1068b2b4185, %rax # imm = 0xA43F4EF974D4BE7B
   c2b31: e9 bb 03 00 00               	jmp	0xc2ef1 <Java_com_adjust_sdk_sig_NativeLibHelper_nSign+0x7846>
   c2b36: 48 83 bc 24 80 00 00 00 00   	cmpq	$0x0, 0x80(%rsp)
   c2b3f: 48 b9 a7 cf dc f5 45 06 b9 32	movabsq	$0x32b90645f5dccfa7, %rcx # imm = 0x32B90645F5DCCFA7
   c2b49: 48 89 ce                     	movq	%rcx, %rsi
   c2b4c: 48 b8 26 3f 89 92 60 cf 28 ba	movabsq	$-0x45d7309f6d76c0da, %rax # imm = 0xBA28CF6092893F26
   c2b56: 48 0f 45 f0                  	cmovneq	%rax, %rsi
   c2b5a: 80 7c 24 0e 00               	cmpb	$0x0, 0xe(%rsp)
   c2b5f: 48 0f 44 f1                  	cmoveq	%rcx, %rsi
   c2b63: e9 cd 03 00 00               	jmp	0xc2f35 <Java_com_adjust_sdk_sig_NativeLibHelper_nSign+0x788a>
   c2b68: f6 44 24 10 01               	testb	$0x1, 0x10(%rsp)
   c2b6d: 48 be e7 5a 3b b2 7c 80 36 ae	movabsq	$-0x51c97f834dc4a519, %rsi # imm = 0xAE36807CB23B5AE7
   c2b77: 48 b8 59 5c 5d a2 fc e3 68 23	movabsq	$0x2368e3fca25d5c59, %rax # imm = 0x2368E3FCA25D5C59
   c2b81: e9 ab 03 00 00               	jmp	0xc2f31 <Java_com_adjust_sdk_sig_NativeLibHelper_nSign+0x7886>
   c2b86: 80 3d 3c c5 07 00 00         	cmpb	$0x0, 0x7c53c(%rip)     # 0x13f0c9
   c2b8d: 48 be b5 32 df 83 e4 7d 1b 86	movabsq	$-0x79e4821b7c20cd4b, %rsi # imm = 0x861B7DE483DF32B5
   c2b97: 48 b8 88 fb 26 f4 d3 30 a4 b9	movabsq	$-0x465bcf2c0bd90478, %rax # imm = 0xB9A430D3F426FB88
   c2ba1: e9 8b 03 00 00               	jmp	0xc2f31 <Java_com_adjust_sdk_sig_NativeLibHelper_nSign+0x7886>
   c2ba6: 0f 28 05 93 b7 07 00         	movaps	0x7b793(%rip), %xmm0    # 0x13e340
   c2bad: 0f 57 05 dc 07 f4 ff         	xorps	-0xbf824(%rip), %xmm0   # 0x3390
   c2bb4: 0f 29 05 85 b7 07 00         	movaps	%xmm0, 0x7b785(%rip)    # 0x13e340
   c2bbb: c6 05 09 c5 07 00 01         	movb	$0x1, 0x7c509(%rip)     # 0x13f0cb
   c2bc2: 4c 89 f0                     	movq	%r14, %rax
   c2bc5: 4c 89 e1                     	movq	%r12, %rcx
   c2bc8: 4c 89 ff                     	movq	%r15, %rdi
   c2bcb: 48 89 ee                     	movq	%rbp, %rsi
   c2bce: e9 b9 f5 ff ff               	jmp	0xc218c <Java_com_adjust_sdk_sig_NativeLibHelper_nSign+0x6ae1>
   c2bd3: 31 c0                        	xorl	%eax, %eax
   c2bd5: b1 01                        	movb	$0x1, %cl
   c2bd7: f0                           	lock
   c2bd8: 0f b0 0d e9 c4 07 00         	cmpxchgb	%cl, 0x7c4e9(%rip)      # 0x13f0c8
   c2bdf: 48 be 0d 38 ba 0f 13 39 dc ab	movabsq	$-0x5423c6ecf045c7f3, %rsi # imm = 0xABDC39130FBA380D
   c2be9: 48 b8 9d 6d be c9 03 01 53 63	movabsq	$0x63530103c9be6d9d, %rax # imm = 0x63530103C9BE6D9D
   c2bf3: e9 f9 02 00 00               	jmp	0xc2ef1 <Java_com_adjust_sdk_sig_NativeLibHelper_nSign+0x7846>
   c2bf8: 48 8d bc 24 f0 08 00 00      	leaq	0x8f0(%rsp), %rdi
   c2c00: 6a 04                        	pushq	$0x4
   c2c02: 5e                           	popq	%rsi
   c2c03: e8 58 fc 06 00               	callq	0x132860 <access@plt>
   c2c08: 49 bb c5 87 5a 16 d2 c3 6d a5	movabsq	$-0x5a923c2de9a5783b, %r11 # imm = 0xA56DC3D2165A87C5
   c2c12: 49 ba d0 2a aa e4 90 1c 03 a7	movabsq	$-0x58fce36f1b55d530, %r10 # imm = 0xA7031C90E4AA2AD0
   c2c1c: 49 b9 82 0d a7 b8 7e 93 6d b6	movabsq	$-0x49926c814758f27e, %r9 # imm = 0xB66D937EB8A70D82
   c2c26: 85 c0                        	testl	%eax, %eax
   c2c28: 48 be db be 00 54 44 ce 30 e3	movabsq	$-0x1ccf31bbabff4125, %rsi # imm = 0xE330CE445400BEDB
   c2c32: 48 b8 64 e0 bc b9 af a5 78 3a	movabsq	$0x3a78a5afb9bce064, %rax # imm = 0x3A78A5AFB9BCE064
   c2c3c: e9 b0 02 00 00               	jmp	0xc2ef1 <Java_com_adjust_sdk_sig_NativeLibHelper_nSign+0x7846>
   c2c41: 48 8b 84 24 d0 00 00 00      	movq	0xd0(%rsp), %rax
   c2c49: 48 8d 48 01                  	leaq	0x1(%rax), %rcx
   c2c4d: 48 89 4c 24 60               	movq	%rcx, 0x60(%rsp)
   c2c52: 48 8b 8c 24 c8 00 00 00      	movq	0xc8(%rsp), %rcx
   c2c5a: 48 ff c1                     	incq	%rcx
   c2c5d: 48 89 4c 24 68               	movq	%rcx, 0x68(%rsp)
   c2c62: 8a 40 01                     	movb	0x1(%rax), %al
   c2c65: 88 44 24 0f                  	movb	%al, 0xf(%rsp)
   c2c69: 4c 89 f0                     	movq	%r14, %rax
   c2c6c: 4c 89 e1                     	movq	%r12, %rcx
   c2c6f: 48 8b 94 24 80 00 00 00      	movq	0x80(%rsp), %rdx
   c2c77: 48 89 54 24 50               	movq	%rdx, 0x50(%rsp)
   c2c7c: e9 2c 03 00 00               	jmp	0xc2fad <Java_com_adjust_sdk_sig_NativeLibHelper_nSign+0x7902>
   c2c81: ba 00 08 00 00               	movl	$0x800, %edx            # imm = 0x800
   c2c86: 48 8b 5c 24 38               	movq	0x38(%rsp), %rbx
   c2c8b: 89 df                        	movl	%ebx, %edi
   c2c8d: 48 8d b4 24 e0 00 00 00      	leaq	0xe0(%rsp), %rsi
   c2c95: e8 06 fd 06 00               	callq	0x1329a0 <read@plt>
   c2c9a: 49 89 ed                     	movq	%rbp, %r13
   c2c9d: 48 89 c5                     	movq	%rax, %rbp
   c2ca0: 89 df                        	movl	%ebx, %edi
   c2ca2: e8 09 fd 06 00               	callq	0x1329b0 <close@plt>
   c2ca7: 49 bb c5 87 5a 16 d2 c3 6d a5	movabsq	$-0x5a923c2de9a5783b, %r11 # imm = 0xA56DC3D2165A87C5
   c2cb1: 49 ba d0 2a aa e4 90 1c 03 a7	movabsq	$-0x58fce36f1b55d530, %r10 # imm = 0xA7031C90E4AA2AD0
   c2cbb: 49 b9 82 0d a7 b8 7e 93 6d b6	movabsq	$-0x49926c814758f27e, %r9 # imm = 0xB66D937EB8A70D82
   c2cc5: 48 83 fd ff                  	cmpq	$-0x1, %rbp
   c2cc9: 4c 89 ed                     	movq	%r13, %rbp
   c2ccc: 49 bd 0f 59 29 fa 5e ff 6c 18	movabsq	$0x186cff5efa29590f, %r13 # imm = 0x186CFF5EFA29590F
   c2cd6: 48 bb 9e 92 04 ed ff 6f 39 9e	movabsq	$-0x61c6900012fb6d62, %rbx # imm = 0x9E396FFFED04929E
   c2ce0: 48 be 0e 2e 26 fa 0d b2 0a 84	movabsq	$-0x7bf54df205d9d1f2, %rsi # imm = 0x840AB20DFA262E0E
   c2cea: 49 0f 44 f5                  	cmoveq	%r13, %rsi
   c2cee: e9 42 02 00 00               	jmp	0xc2f35 <Java_com_adjust_sdk_sig_NativeLibHelper_nSign+0x788a>
   c2cf3: 48 8b 54 24 20               	movq	0x20(%rsp), %rdx
   c2cf8: 8d 42 a5                     	leal	-0x5b(%rdx), %eax
   c2cfb: 89 d1                        	movl	%edx, %ecx
   c2cfd: 83 c9 20                     	orl	$0x20, %ecx
   c2d00: 83 f8 e6                     	cmpl	$-0x1a, %eax
   c2d03: 0f 42 ca                     	cmovbl	%edx, %ecx
   c2d06: 41 8d 40 a5                  	leal	-0x5b(%r8), %eax
   c2d0a: 44 89 c2                     	movl	%r8d, %edx
   c2d0d: 83 ca 20                     	orl	$0x20, %edx
   c2d10: 83 f8 e6                     	cmpl	$-0x1a, %eax
   c2d13: 41 0f 42 d0                  	cmovbl	%r8d, %edx
   c2d17: 39 d1                        	cmpl	%edx, %ecx
   c2d19: 48 be 2a 0b 63 e6 d8 c6 af b3	movabsq	$-0x4c503927199cf4d6, %rsi # imm = 0xB3AFC6D8E6630B2A
   c2d23: 48 b8 c1 50 f3 08 9f e8 ca cd	movabsq	$-0x32351760f70caf3f, %rax # imm = 0xCDCAE89F08F350C1
   c2d2d: e9 bf 01 00 00               	jmp	0xc2ef1 <Java_com_adjust_sdk_sig_NativeLibHelper_nSign+0x7846>
   c2d32: 4c 89 f0                     	movq	%r14, %rax
   c2d35: 4c 89 e1                     	movq	%r12, %rcx
   c2d38: 4c 89 ff                     	movq	%r15, %rdi
   c2d3b: 48 be a1 50 5c 3b 46 8c fc 0c	movabsq	$0xcfc8c463b5c50a1, %rsi # imm = 0xCFC8C463B5C50A1
   c2d45: e9 42 f4 ff ff               	jmp	0xc218c <Java_com_adjust_sdk_sig_NativeLibHelper_nSign+0x6ae1>
   c2d4a: c6 05 77 c3 07 00 00         	movb	$0x0, 0x7c377(%rip)     # 0x13f0c8
   c2d51: c6 84 24 df 08 00 00 00      	movb	$0x0, 0x8df(%rsp)
   c2d59: 48 8b 05 c8 b5 07 00         	movq	0x7b5c8(%rip), %rax     # 0x13e328
   c2d60: 48 89 84 24 e0 08 00 00      	movq	%rax, 0x8e0(%rsp)
   c2d68: 8b 05 c1 b5 07 00            	movl	0x7b5c1(%rip), %eax     # 0x13e32f
   c2d6e: 89 84 24 e7 08 00 00         	movl	%eax, 0x8e7(%rsp)
   c2d75: 4c 89 f0                     	movq	%r14, %rax
   c2d78: 4c 89 e1                     	movq	%r12, %rcx
   c2d7b: 48 8d bc 24 e0 08 00 00      	leaq	0x8e0(%rsp), %rdi
   c2d83: 4c 89 de                     	movq	%r11, %rsi
   c2d86: e9 01 f4 ff ff               	jmp	0xc218c <Java_com_adjust_sdk_sig_NativeLibHelper_nSign+0x6ae1>
   c2d8b: 83 7c 24 14 2d               	cmpl	$0x2d, 0x14(%rsp)
   c2d90: 48 be 92 19 d3 ba ec 28 51 f1	movabsq	$-0xeaed713452ce66e, %rsi # imm = 0xF15128ECBAD31992
   c2d9a: 48 b8 fb bd b6 ca c1 7c b8 4c	movabsq	$0x4cb87cc1cab6bdfb, %rax # imm = 0x4CB87CC1CAB6BDFB
   c2da4: e9 48 01 00 00               	jmp	0xc2ef1 <Java_com_adjust_sdk_sig_NativeLibHelper_nSign+0x7846>
   c2da9: 6a 27                        	pushq	$0x27
   c2dab: 5f                           	popq	%rdi
   c2dac: 31 c0                        	xorl	%eax, %eax
   c2dae: e8 7d fa 06 00               	callq	0x132830 <syscall@plt>
   c2db3: 49 bb c5 87 5a 16 d2 c3 6d a5	movabsq	$-0x5a923c2de9a5783b, %r11 # imm = 0xA56DC3D2165A87C5
   c2dbd: 49 ba d0 2a aa e4 90 1c 03 a7	movabsq	$-0x58fce36f1b55d530, %r10 # imm = 0xA7031C90E4AA2AD0
   c2dc7: 49 b9 82 0d a7 b8 7e 93 6d b6	movabsq	$-0x49926c814758f27e, %r9 # imm = 0xB66D937EB8A70D82
   c2dd1: 83 a4 24 e0 00 00 00 00      	andl	$0x0, 0xe0(%rsp)
   c2dd9: 83 a4 24 dc 08 00 00 00      	andl	$0x0, 0x8dc(%rsp)
   c2de1: 48 89 84 24 a8 00 00 00      	movq	%rax, 0xa8(%rsp)
   c2de9: b8 00 08 00 00               	movl	$0x800, %eax            # imm = 0x800
   c2dee: 48 89 44 24 70               	movq	%rax, 0x70(%rsp)
   c2df3: 4c 89 f0                     	movq	%r14, %rax
   c2df6: 4c 89 e1                     	movq	%r12, %rcx
   c2df9: 4c 89 ff                     	movq	%r15, %rdi
   c2dfc: 48 8d 94 24 e0 00 00 00      	leaq	0xe0(%rsp), %rdx
   c2e04: 48 89 54 24 48               	movq	%rdx, 0x48(%rsp)
   c2e09: 48 be a5 e7 cf 78 48 52 9c 96	movabsq	$-0x6963adb78730185b, %rsi # imm = 0x969C524878CFE7A5
   c2e13: e9 74 f3 ff ff               	jmp	0xc218c <Java_com_adjust_sdk_sig_NativeLibHelper_nSign+0x6ae1>
   c2e18: 48 8b 4c 24 70               	movq	0x70(%rsp), %rcx
   c2e1d: 48 85 c9                     	testq	%rcx, %rcx
   c2e20: 48 be 03 24 9e 5a d4 b0 1e 39	movabsq	$0x391eb0d45a9e2403, %rsi # imm = 0x391EB0D45A9E2403
   c2e2a: 48 b8 be ec 72 7e 6e 82 06 ee	movabsq	$-0x11f97d91818d1342, %rax # imm = 0xEE06826E7E72ECBE
   c2e34: 48 0f 44 f0                  	cmoveq	%rax, %rsi
   c2e38: 48 89 c8                     	movq	%rcx, %rax
   c2e3b: 48 89 8c 24 b8 00 00 00      	movq	%rcx, 0xb8(%rsp)
   c2e43: 48 8b 44 24 48               	movq	0x48(%rsp), %rax
   c2e48: 48 89 84 24 b0 00 00 00      	movq	%rax, 0xb0(%rsp)
   c2e50: e9 e0 00 00 00               	jmp	0xc2f35 <Java_com_adjust_sdk_sig_NativeLibHelper_nSign+0x788a>
   c2e55: c6 05 6e c2 07 00 00         	movb	$0x0, 0x7c26e(%rip)     # 0x13f0ca
   c2e5c: ba 00 10 00 00               	movl	$0x1000, %edx           # imm = 0x1000
   c2e61: 4c 8d ac 24 f0 08 00 00      	leaq	0x8f0(%rsp), %r13
   c2e69: 4c 89 ef                     	movq	%r13, %rdi
   c2e6c: 31 f6                        	xorl	%esi, %esi
   c2e6e: e8 cd f9 06 00               	callq	0x132840 <memset@plt>
   c2e73: be 00 10 00 00               	movl	$0x1000, %esi           # imm = 0x1000
   c2e78: 4c 89 ef                     	movq	%r13, %rdi
   c2e7b: 49 bd 0f 59 29 fa 5e ff 6c 18	movabsq	$0x186cff5efa29590f, %r13 # imm = 0x186CFF5EFA29590F
   c2e85: 48 8d 15 b4 b4 07 00         	leaq	0x7b4b4(%rip), %rdx     # 0x13e340
   c2e8c: 48 8b 8c 24 a8 00 00 00      	movq	0xa8(%rsp), %rcx
   c2e94: 31 c0                        	xorl	%eax, %eax
   c2e96: e8 33 03 00 00               	callq	0xc31ce <Java_com_adjust_sdk_sig_NativeLibHelper_nSign+0x7b23>
   c2e9b: 49 bb c5 87 5a 16 d2 c3 6d a5	movabsq	$-0x5a923c2de9a5783b, %r11 # imm = 0xA56DC3D2165A87C5
   c2ea5: 49 ba d0 2a aa e4 90 1c 03 a7	movabsq	$-0x58fce36f1b55d530, %r10 # imm = 0xA7031C90E4AA2AD0
   c2eaf: 49 b9 82 0d a7 b8 7e 93 6d b6	movabsq	$-0x49926c814758f27e, %r9 # imm = 0xB66D937EB8A70D82
   c2eb9: 3d 00 10 00 00               	cmpl	$0x1000, %eax           # imm = 0x1000
   c2ebe: 48 be be a2 25 27 fd e1 20 72	movabsq	$0x7220e1fd2725a2be, %rsi # imm = 0x7220E1FD2725A2BE
   c2ec8: 48 b8 a2 ba 49 ea 34 4f 23 be	movabsq	$-0x41dcb0cb15b6455e, %rax # imm = 0xBE234F34EA49BAA2
   c2ed2: 48 0f 4d f0                  	cmovgeq	%rax, %rsi
   c2ed6: eb 5d                        	jmp	0xc2f35 <Java_com_adjust_sdk_sig_NativeLibHelper_nSign+0x788a>
   c2ed8: 83 7c 24 14 2b               	cmpl	$0x2b, 0x14(%rsp)
   c2edd: 48 be fc e0 5a 70 74 ff 1e db	movabsq	$-0x24e1008b8fa51f04, %rsi # imm = 0xDB1EFF74705AE0FC
   c2ee7: 48 b8 df 06 01 c1 b4 27 11 eb	movabsq	$-0x14eed84b3efef921, %rax # imm = 0xEB1127B4C10106DF
   c2ef1: 48 0f 44 f0                  	cmoveq	%rax, %rsi
   c2ef5: eb 3e                        	jmp	0xc2f35 <Java_com_adjust_sdk_sig_NativeLibHelper_nSign+0x788a>
   c2ef7: c6 05 bf c1 07 00 01         	movb	$0x1, 0x7c1bf(%rip)     # 0x13f0bd
   c2efe: 4c 89 f0                     	movq	%r14, %rax
   c2f01: 4c 89 e1                     	movq	%r12, %rcx
   c2f04: 4c 89 ff                     	movq	%r15, %rdi
   c2f07: 48 be be 0d a5 1f c3 a9 00 41	movabsq	$0x4100a9c31fa50dbe, %rsi # imm = 0x4100A9C31FA50DBE
   c2f11: e9 76 f2 ff ff               	jmp	0xc218c <Java_com_adjust_sdk_sig_NativeLibHelper_nSign+0x6ae1>
   c2f16: 80 3d ae c1 07 00 00         	cmpb	$0x0, 0x7c1ae(%rip)     # 0x13f0cb
   c2f1d: 48 be 82 48 52 ed 62 c0 d8 55	movabsq	$0x55d8c062ed524882, %rsi # imm = 0x55D8C062ED524882
   c2f27: 48 b8 a5 9a c9 31 93 f1 c0 9a	movabsq	$-0x653f0e6cce36655b, %rax # imm = 0x9AC0F19331C99AA5
   c2f31: 48 0f 45 f0                  	cmovneq	%rax, %rsi
   c2f35: 4c 89 f0                     	movq	%r14, %rax
   c2f38: 4c 89 e1                     	movq	%r12, %rcx
   c2f3b: 4c 89 ff                     	movq	%r15, %rdi
   c2f3e: e9 49 f2 ff ff               	jmp	0xc218c <Java_com_adjust_sdk_sig_NativeLibHelper_nSign+0x6ae1>
   c2f43: 48 8b 8c 24 a0 00 00 00      	movq	0xa0(%rsp), %rcx
   c2f4b: 48 8d 84 24 e0 08 00 00      	leaq	0x8e0(%rsp), %rax
   c2f53: 48 29 c1                     	subq	%rax, %rcx
   c2f56: 48 89 8c 24 c0 00 00 00      	movq	%rcx, 0xc0(%rsp)
   c2f5e: 0f 94 44 24 12               	sete	0x12(%rsp)
   c2f63: 4c 89 f0                     	movq	%r14, %rax
   c2f66: 4c 89 e1                     	movq	%r12, %rcx
   c2f69: 48 8d 94 24 e0 00 00 00      	leaq	0xe0(%rsp), %rdx
   c2f71: 48 89 54 24 58               	movq	%rdx, 0x58(%rsp)
   c2f76: e9 09 01 00 00               	jmp	0xc3084 <Java_com_adjust_sdk_sig_NativeLibHelper_nSign+0x79d9>
   c2f7b: 4c 89 f0                     	movq	%r14, %rax
   c2f7e: 4c 89 e1                     	movq	%r12, %rcx
   c2f81: 48 8d 94 24 e0 08 00 00      	leaq	0x8e0(%rsp), %rdx
   c2f89: 48 89 54 24 68               	movq	%rdx, 0x68(%rsp)
   c2f8e: 48 8b 54 24 28               	movq	0x28(%rsp), %rdx
   c2f93: 48 89 54 24 60               	movq	%rdx, 0x60(%rsp)
   c2f98: 48 8b 94 24 c0 00 00 00      	movq	0xc0(%rsp), %rdx
   c2fa0: 48 89 54 24 50               	movq	%rdx, 0x50(%rsp)
   c2fa5: 8a 54 24 11                  	movb	0x11(%rsp), %dl
   c2fa9: 88 54 24 0f                  	movb	%dl, 0xf(%rsp)
   c2fad: 4c 89 ff                     	movq	%r15, %rdi
   c2fb0: 48 be d3 5a 09 7b fe f9 06 5b	movabsq	$0x5b06f9fe7b095ad3, %rsi # imm = 0x5B06F9FE7B095AD3
   c2fba: e9 cd f1 ff ff               	jmp	0xc218c <Java_com_adjust_sdk_sig_NativeLibHelper_nSign+0x6ae1>
   c2fbf: 48 8b 54 24 58               	movq	0x58(%rsp), %rdx
   c2fc4: 8a 02                        	movb	(%rdx), %al
   c2fc6: 88 44 24 11                  	movb	%al, 0x11(%rsp)
   c2fca: 84 c0                        	testb	%al, %al
   c2fcc: 48 be 22 74 78 fb 19 9b 94 ea	movabsq	$-0x156b64e604878bde, %rsi # imm = 0xEA949B19FB787422
   c2fd6: 48 b8 ab 60 d5 9b e7 a5 66 50	movabsq	$0x5066a5e79bd560ab, %rax # imm = 0x5066A5E79BD560AB
   c2fe0: 48 0f 44 f0                  	cmoveq	%rax, %rsi
   c2fe4: 0f 94 44 24 10               	sete	0x10(%rsp)
   c2fe9: f6 44 24 12 01               	testb	$0x1, 0x12(%rsp)
   c2fee: 48 0f 45 f0                  	cmovneq	%rax, %rsi
   c2ff2: 4c 89 f0                     	movq	%r14, %rax
   c2ff5: 4c 89 e1                     	movq	%r12, %rcx
   c2ff8: 48 89 54 24 28               	movq	%rdx, 0x28(%rsp)
   c2ffd: 4c 89 ff                     	movq	%r15, %rdi
   c3000: e9 87 f1 ff ff               	jmp	0xc218c <Java_com_adjust_sdk_sig_NativeLibHelper_nSign+0x6ae1>
   c3005: 41 80 3f 00                  	cmpb	$0x0, (%r15)
   c3009: 49 8d 47 01                  	leaq	0x1(%r15), %rax
   c300d: 48 89 84 24 d8 00 00 00      	movq	%rax, 0xd8(%rsp)
   c3015: 48 be 5e 48 9f 81 3c 6c fb ed	movabsq	$-0x120493c37e60b7a2, %rsi # imm = 0xEDFB6C3C819F485E
   c301f: 48 b8 16 94 0f f0 64 da be bc	movabsq	$-0x4341259b0ff06bea, %rax # imm = 0xBCBEDA64F00F9416
   c3029: 48 0f 44 f0                  	cmoveq	%rax, %rsi
   c302d: 4c 89 f0                     	movq	%r14, %rax
   c3030: 4c 89 e1                     	movq	%r12, %rcx
   c3033: 4c 89 bc 24 a0 00 00 00      	movq	%r15, 0xa0(%rsp)
   c303b: 4c 89 ff                     	movq	%r15, %rdi
   c303e: e9 49 f1 ff ff               	jmp	0xc218c <Java_com_adjust_sdk_sig_NativeLibHelper_nSign+0x6ae1>
   c3043: 6b 44 24 18 0a               	imull	$0xa, 0x18(%rsp), %eax
   c3048: 48 8b 8c 24 98 00 00 00      	movq	0x98(%rsp), %rcx
   c3050: 48 ff c1                     	incq	%rcx
   c3053: 48 89 4c 24 78               	movq	%rcx, 0x78(%rsp)
   c3058: 2b 44 24 34                  	subl	0x34(%rsp), %eax
   c305c: 89 44 24 1c                  	movl	%eax, 0x1c(%rsp)
   c3060: 4c 89 f0                     	movq	%r14, %rax
   c3063: 4c 89 e1                     	movq	%r12, %rcx
   c3066: 4c 89 ff                     	movq	%r15, %rdi
   c3069: 4c 89 ce                     	movq	%r9, %rsi
   c306c: e9 1b f1 ff ff               	jmp	0xc218c <Java_com_adjust_sdk_sig_NativeLibHelper_nSign+0x6ae1>
   c3071: 48 8b 44 24 28               	movq	0x28(%rsp), %rax
   c3076: 48 ff c0                     	incq	%rax
   c3079: 48 89 44 24 58               	movq	%rax, 0x58(%rsp)
   c307e: 4c 89 f0                     	movq	%r14, %rax
   c3081: 4c 89 e1                     	movq	%r12, %rcx
   c3084: 4c 89 ff                     	movq	%r15, %rdi
   c3087: 48 be 31 13 eb 2d e7 76 79 bd	movabsq	$-0x42868918d214eccf, %rsi # imm = 0xBD7976E72DEB1331
   c3091: e9 f6 f0 ff ff               	jmp	0xc218c <Java_com_adjust_sdk_sig_NativeLibHelper_nSign+0x6ae1>
   c3096: 0f be 44 24 40               	movsbl	0x40(%rsp), %eax
   c309b: 89 44 24 14                  	movl	%eax, 0x14(%rsp)
   c309f: 4c 89 f0                     	movq	%r14, %rax
   c30a2: 4c 89 e1                     	movq	%r12, %rcx
   c30a5: 4c 89 ff                     	movq	%r15, %rdi
   c30a8: 48 be 26 e2 82 d5 2c 9b 53 d6	movabsq	$-0x29ac64d32a7d1dda, %rsi # imm = 0xD6539B2CD582E226
   c30b2: e9 d5 f0 ff ff               	jmp	0xc218c <Java_com_adjust_sdk_sig_NativeLibHelper_nSign+0x6ae1>
   c30b7: 48 b8 74 74 74 74 74 74 74 74	movabsq	$0x7474747474747474, %rax # imm = 0x7474747474747474
   c30c1: 48 31 05 60 b2 07 00         	xorq	%rax, 0x7b260(%rip)     # 0x13e328
   c30c8: 80 35 61 b2 07 00 74         	xorb	$0x74, 0x7b261(%rip)    # 0x13e330
   c30cf: 80 35 5b b2 07 00 74         	xorb	$0x74, 0x7b25b(%rip)    # 0x13e331
   c30d6: 80 35 55 b2 07 00 74         	xorb	$0x74, 0x7b255(%rip)    # 0x13e332
   c30dd: c6 05 e5 bf 07 00 01         	movb	$0x1, 0x7bfe5(%rip)     # 0x13f0c9
   c30e4: 4c 89 f0                     	movq	%r14, %rax
   c30e7: 4c 89 e1                     	movq	%r12, %rcx
   c30ea: 4c 89 ff                     	movq	%r15, %rdi
   c30ed: 48 be a0 8c 1e 49 5d 28 de 95	movabsq	$-0x6a21d7a2b6e17360, %rsi # imm = 0x95DE285D491E8CA0
   c30f7: e9 90 f0 ff ff               	jmp	0xc218c <Java_com_adjust_sdk_sig_NativeLibHelper_nSign+0x6ae1>
   c30fc: 64 48 8b 04 25 28 00 00 00   	movq	%fs:0x28, %rax
   c3105: 48 3b 84 24 f0 18 00 00      	cmpq	0x18f0(%rsp), %rax
   c310d: 75 12                        	jne	0xc3121 <Java_com_adjust_sdk_sig_NativeLibHelper_nSign+0x7a76>
   c310f: 48 81 c4 f8 18 00 00         	addq	$0x18f8, %rsp           # imm = 0x18F8
   c3116: 5b                           	popq	%rbx
   c3117: 41 5c                        	popq	%r12
   c3119: 41 5d                        	popq	%r13
   c311b: 41 5e                        	popq	%r14
   c311d: 41 5f                        	popq	%r15
   c311f: 5d                           	popq	%rbp
   c3120: c3                           	retq
   c3121: e8 fa f6 06 00               	callq	0x132820 <__stack_chk_fail@plt>
   c3126: 55                           	pushq	%rbp
   c3127: 41 57                        	pushq	%r15
   c3129: 41 56                        	pushq	%r14
   c312b: 41 55                        	pushq	%r13
   c312d: 41 54                        	pushq	%r12
   c312f: 53                           	pushq	%rbx
   c3130: 50                           	pushq	%rax
   c3131: 48 89 fb                     	movq	%rdi, %rbx
   c3134: 4c 8d 77 20                  	leaq	0x20(%rdi), %r14
   c3138: 49 bf 2c 74 6e 7a 89 e0 a9 73	movabsq	$0x73a9e0897a6e742c, %r15 # imm = 0x73A9E0897A6E742C
   c3142: 49 bc a3 84 6c 40 6d b0 73 27	movabsq	$0x2773b06d406c84a3, %r12 # imm = 0x2773B06D406C84A3
   c314c: 49 bd fa b1 98 15 30 41 c0 e2	movabsq	$-0x1d3fbecfea674e06, %r13 # imm = 0xE2C041301598B1FA
   c3156: 48 bd 10 03 a5 6c 84 8f ac 70	movabsq	$0x70ac8f846ca50310, %rbp # imm = 0x70AC8F846CA50310
   c3160: 4c 89 f9                     	movq	%r15, %rcx
   c3163: 80 3d 53 bf 07 00 00         	cmpb	$0x0, 0x7bf53(%rip)     # 0x13f0bd
   c316a: 4c 89 ea                     	movq	%r13, %rdx
   c316d: 49 0f 45 d4                  	cmovneq	%r12, %rdx
   c3171: 4c 39 f9                     	cmpq	%r15, %rcx
   c3174: 74 11                        	je	0xc3187 <Java_com_adjust_sdk_sig_NativeLibHelper_nSign+0x7adc>
   c3176: 4c 39 e1                     	cmpq	%r12, %rcx
   c3179: 74 11                        	je	0xc318c <Java_com_adjust_sdk_sig_NativeLibHelper_nSign+0x7ae1>
   c317b: 48 39 e9                     	cmpq	%rbp, %rcx
   c317e: 74 33                        	je	0xc31b3 <Java_com_adjust_sdk_sig_NativeLibHelper_nSign+0x7b08>
   c3180: 4c 39 e9                     	cmpq	%r13, %rcx
   c3183: 75 ec                        	jne	0xc3171 <Java_com_adjust_sdk_sig_NativeLibHelper_nSign+0x7ac6>
   c3185: eb 20                        	jmp	0xc31a7 <Java_com_adjust_sdk_sig_NativeLibHelper_nSign+0x7afc>
   c3187: 48 89 d1                     	movq	%rdx, %rcx
   c318a: eb e5                        	jmp	0xc3171 <Java_com_adjust_sdk_sig_NativeLibHelper_nSign+0x7ac6>
   c318c: 4c 89 f7                     	movq	%r14, %rdi
   c318f: 6a 26                        	pushq	$0x26
   c3191: 5e                           	popq	%rsi
   c3192: e8 16 c4 06 00               	callq	0x12f5ad <Java_com_adjust_sdk_sig_NativeLibHelper_nSign+0x73f02>
   c3197: 48 8b 83 e0 00 00 00         	movq	0xe0(%rbx), %rax
   c319e: 48 83 c8 01                  	orq	$0x1, %rax
   c31a2: 48 89 e9                     	movq	%rbp, %rcx
   c31a5: eb bc                        	jmp	0xc3163 <Java_com_adjust_sdk_sig_NativeLibHelper_nSign+0x7ab8>
   c31a7: 48 8b 83 e0 00 00 00         	movq	0xe0(%rbx), %rax
   c31ae: 48 89 e9                     	movq	%rbp, %rcx
   c31b1: eb b0                        	jmp	0xc3163 <Java_com_adjust_sdk_sig_NativeLibHelper_nSign+0x7ab8>
   c31b3: 48 0f ba e8 26               	btsq	$0x26, %rax
   c31b8: 48 89 83 e0 00 00 00         	movq	%rax, 0xe0(%rbx)
   c31bf: 48 83 c4 08                  	addq	$0x8, %rsp
   c31c3: 5b                           	popq	%rbx
   c31c4: 41 5c                        	popq	%r12
   c31c6: 41 5d                        	popq	%r13
   c31c8: 41 5e                        	popq	%r14
   c31ca: 41 5f                        	popq	%r15
   c31cc: 5d                           	popq	%rbp
   c31cd: c3                           	retq
   c31ce: 48 81 ec d8 00 00 00         	subq	$0xd8, %rsp
   c31d5: 49 89 e2                     	movq	%rsp, %r10
   c31d8: 49 89 4a 18                  	movq	%rcx, 0x18(%r10)
   c31dc: 4d 89 42 20                  	movq	%r8, 0x20(%r10)
   c31e0: 4d 89 4a 28                  	movq	%r9, 0x28(%r10)
   c31e4: 84 c0                        	testb	%al, %al
   c31e6: 74 31                        	je	0xc3219 <Java_com_adjust_sdk_sig_NativeLibHelper_nSign+0x7b6e>
   c31e8: 0f 29 44 24 30               	movaps	%xmm0, 0x30(%rsp)
   c31ed: 0f 29 4c 24 40               	movaps	%xmm1, 0x40(%rsp)
   c31f2: 0f 29 54 24 50               	movaps	%xmm2, 0x50(%rsp)
   c31f7: 0f 29 5c 24 60               	movaps	%xmm3, 0x60(%rsp)
   c31fc: 0f 29 64 24 70               	movaps	%xmm4, 0x70(%rsp)
   c3201: 0f 29 ac 24 80 00 00 00      	movaps	%xmm5, 0x80(%rsp)
   c3209: 0f 29 b4 24 90 00 00 00      	movaps	%xmm6, 0x90(%rsp)
   c3211: 0f 29 bc 24 a0 00 00 00      	movaps	%xmm7, 0xa0(%rsp)
   c3219: 64 48 8b 04 25 28 00 00 00   	movq	%fs:0x28, %rax
   c3222: 48 89 84 24 d0 00 00 00      	movq	%rax, 0xd0(%rsp)
   c322a: 48 8d 8c 24 b0 00 00 00      	leaq	0xb0(%rsp), %rcx
   c3232: 4c 89 51 10                  	movq	%r10, 0x10(%rcx)
   c3236: 48 8d 84 24 e0 00 00 00      	leaq	0xe0(%rsp), %rax
   c323e: 48 89 41 08                  	movq	%rax, 0x8(%rcx)
   c3242: 48 b8 18 00 00 00 30 00 00 00	movabsq	$0x3000000018, %rax     # imm = 0x3000000018
   c324c: 48 89 01                     	movq	%rax, (%rcx)
   c324f: e8 1c f7 06 00               	callq	0x132970 <vsnprintf@plt>
   c3254: 64 48 8b 0c 25 28 00 00 00   	movq	%fs:0x28, %rcx
   c325d: 48 3b 8c 24 d0 00 00 00      	cmpq	0xd0(%rsp), %rcx
   c3265: 75 08                        	jne	0xc326f <Java_com_adjust_sdk_sig_NativeLibHelper_nSign+0x7bc4>
   c3267: 48 81 c4 d8 00 00 00         	addq	$0xd8, %rsp
   c326e: c3                           	retq
   c326f: e8 ac f5 06 00               	callq	0x132820 <__stack_chk_fail@plt>
   c3274: cc                           	int3
   c3275: cc                           	int3
   c3276: cc                           	int3
   c3277: cc                           	int3
   c3278: cc                           	int3
   c3279: cc                           	int3
   c327a: cc                           	int3
   c327b: cc                           	int3
   c327c: cc                           	int3
   c327d: cc                           	int3
   c327e: cc                           	int3
   c327f: cc                           	int3
   c3280: 31 c0                        	xorl	%eax, %eax
   c3282: c3                           	retq
   c3283: 55                           	pushq	%rbp
   c3284: 41 57                        	pushq	%r15
   c3286: 41 56                        	pushq	%r14
   c3288: 41 55                        	pushq	%r13
   c328a: 41 54                        	pushq	%r12
   c328c: 53                           	pushq	%rbx
   c328d: 48 83 ec 38                  	subq	$0x38, %rsp
   c3291: 48 89 74 24 28               	movq	%rsi, 0x28(%rsp)
   c3296: 48 89 d0                     	movq	%rdx, %rax
   c3299: 48 89 54 24 20               	movq	%rdx, 0x20(%rsp)
   c329e: 48 85 d2                     	testq	%rdx, %rdx
   c32a1: 49 be b9 2e a0 ad 24 09 92 fa	movabsq	$-0x56df6db525fd147, %r14 # imm = 0xFA920924ADA02EB9
   c32ab: 49 bf bb 95 34 ae 0b e9 42 a8	movabsq	$-0x57bd16f451cb6a45, %r15 # imm = 0xA842E90BAE3495BB
   c32b5: 4c 89 fb                     	movq	%r15, %rbx
   c32b8: 49 0f 45 de                  	cmovneq	%r14, %rbx
   c32bc: 48 89 7c 24 18               	movq	%rdi, 0x18(%rsp)
   c32c1: 48 85 ff                     	testq	%rdi, %rdi
   c32c4: 49 0f 44 df                  	cmoveq	%r15, %rbx
   c32c8: 49 bd 1c a3 2d 84 b6 f6 24 47	movabsq	$0x4724f6b6842da31c, %r13 # imm = 0x4724F6B6842DA31C
   c32d2: 48 be dd 95 db 78 02 9e 21 11	movabsq	$0x11219e0278db95dd, %rsi # imm = 0x11219E0278DB95DD
   c32dc: 49 bc c8 94 f8 ac f9 2b b7 01	movabsq	$0x1b72bf9acf894c8, %r12 # imm = 0x1B72BF9ACF894C8
   c32e6: 48 bf fc 76 9a 66 22 18 30 23	movabsq	$0x23301822669a76fc, %rdi # imm = 0x23301822669A76FC
   c32f0: 48 89 44 24 10               	movq	%rax, 0x10(%rsp)
   c32f5: 48 89 f1                     	movq	%rsi, %rcx
   c32f8: 4c 39 f9                     	cmpq	%r15, %rcx
   c32fb: 0f 84 8d 00 00 00            	je	0xc338e <Java_com_adjust_sdk_sig_NativeLibHelper_nSign+0x7ce3>
   c3301: 48 89 c8                     	movq	%rcx, %rax
   c3304: 4c 39 f1                     	cmpq	%r14, %rcx
   c3307: 0f 84 92 00 00 00            	je	0xc339f <Java_com_adjust_sdk_sig_NativeLibHelper_nSign+0x7cf4>
   c330d: 4c 89 e9                     	movq	%r13, %rcx
   c3310: 4c 39 e0                     	cmpq	%r12, %rax
   c3313: 74 e3                        	je	0xc32f8 <Java_com_adjust_sdk_sig_NativeLibHelper_nSign+0x7c4d>
   c3315: 48 89 d9                     	movq	%rbx, %rcx
   c3318: 48 39 f0                     	cmpq	%rsi, %rax
   c331b: 74 db                        	je	0xc32f8 <Java_com_adjust_sdk_sig_NativeLibHelper_nSign+0x7c4d>
   c331d: 48 39 f8                     	cmpq	%rdi, %rax
   c3320: 0f 84 b9 00 00 00            	je	0xc33df <Java_com_adjust_sdk_sig_NativeLibHelper_nSign+0x7d34>
   c3326: 48 b9 55 39 1c 12 15 01 99 2b	movabsq	$0x2b990115121c3955, %rcx # imm = 0x2B990115121C3955
   c3330: 48 39 c8                     	cmpq	%rcx, %rax
   c3333: 74 59                        	je	0xc338e <Java_com_adjust_sdk_sig_NativeLibHelper_nSign+0x7ce3>
   c3335: 4c 39 e8                     	cmpq	%r13, %rax
   c3338: 0f 84 b8 00 00 00            	je	0xc33f6 <Java_com_adjust_sdk_sig_NativeLibHelper_nSign+0x7d4b>
   c333e: 48 b9 48 ed 83 6d bc cc 2d 4f	movabsq	$0x4f2dccbc6d83ed48, %rcx # imm = 0x4F2DCCBC6D83ED48
   c3348: 48 39 c8                     	cmpq	%rcx, %rax
   c334b: 0f 84 dd 00 00 00            	je	0xc342e <Java_com_adjust_sdk_sig_NativeLibHelper_nSign+0x7d83>
   c3351: 48 b9 f3 2b ef 22 c0 61 72 57	movabsq	$0x577261c022ef2bf3, %rcx # imm = 0x577261C022EF2BF3
   c335b: 48 39 c8                     	cmpq	%rcx, %rax
   c335e: 74 2e                        	je	0xc338e <Java_com_adjust_sdk_sig_NativeLibHelper_nSign+0x7ce3>
   c3360: 48 b9 67 3e a0 b8 7e a2 62 5f	movabsq	$0x5f62a27eb8a03e67, %rcx # imm = 0x5F62A27EB8A03E67
   c336a: 48 39 c8                     	cmpq	%rcx, %rax
   c336d: 0f 84 0d 01 00 00            	je	0xc3480 <Java_com_adjust_sdk_sig_NativeLibHelper_nSign+0x7dd5>
   c3373: 48 89 c1                     	movq	%rax, %rcx
   c3376: 48 ba 0a be fd 30 cb c7 1b d1	movabsq	$-0x2ee43834cf0241f6, %rdx # imm = 0xD11BC7CB30FDBE0A
   c3380: 48 39 d0                     	cmpq	%rdx, %rax
   c3383: 0f 85 6f ff ff ff            	jne	0xc32f8 <Java_com_adjust_sdk_sig_NativeLibHelper_nSign+0x7c4d>
   c3389: e9 38 01 00 00               	jmp	0xc34c6 <Java_com_adjust_sdk_sig_NativeLibHelper_nSign+0x7e1b>
   c338e: 31 ed                        	xorl	%ebp, %ebp
   c3390: 48 b9 0a be fd 30 cb c7 1b d1	movabsq	$-0x2ee43834cf0241f6, %rcx # imm = 0xD11BC7CB30FDBE0A
   c339a: e9 59 ff ff ff               	jmp	0xc32f8 <Java_com_adjust_sdk_sig_NativeLibHelper_nSign+0x7c4d>
   c339f: 48 8b 7c 24 18               	movq	0x18(%rsp), %rdi
   c33a4: 6a 04                        	pushq	$0x4
   c33a6: 5e                           	popq	%rsi
   c33a7: e8 b4 f4 06 00               	callq	0x132860 <access@plt>
   c33ac: 48 bf fc 76 9a 66 22 18 30 23	movabsq	$0x23301822669a76fc, %rdi # imm = 0x23301822669A76FC
   c33b6: 48 be dd 95 db 78 02 9e 21 11	movabsq	$0x11219e0278db95dd, %rsi # imm = 0x11219E0278DB95DD
   c33c0: 85 c0                        	testl	%eax, %eax
   c33c2: 48 b9 f3 2b ef 22 c0 61 72 57	movabsq	$0x577261c022ef2bf3, %rcx # imm = 0x577261C022EF2BF3
   c33cc: 48 b8 48 ed 83 6d bc cc 2d 4f	movabsq	$0x4f2dccbc6d83ed48, %rax # imm = 0x4F2DCCBC6D83ED48
   c33d6: 48 0f 44 c8                  	cmoveq	%rax, %rcx
   c33da: e9 19 ff ff ff               	jmp	0xc32f8 <Java_com_adjust_sdk_sig_NativeLibHelper_nSign+0x7c4d>
   c33df: 48 8b 44 24 20               	movq	0x20(%rsp), %rax
   c33e4: 48 8b 4c 24 30               	movq	0x30(%rsp), %rcx
   c33e9: c6 44 01 ff 00               	movb	$0x0, -0x1(%rcx,%rax)
   c33ee: 4c 89 e9                     	movq	%r13, %rcx
   c33f1: e9 02 ff ff ff               	jmp	0xc32f8 <Java_com_adjust_sdk_sig_NativeLibHelper_nSign+0x7c4d>
   c33f6: 6a 03                        	pushq	$0x3
   c33f8: 5f                           	popq	%rdi
   c33f9: 48 8b 74 24 10               	movq	0x10(%rsp), %rsi
   c33fe: 31 c0                        	xorl	%eax, %eax
   c3400: e8 2b f4 06 00               	callq	0x132830 <syscall@plt>
   c3405: 48 bf fc 76 9a 66 22 18 30 23	movabsq	$0x23301822669a76fc, %rdi # imm = 0x23301822669A76FC
   c340f: 48 be dd 95 db 78 02 9e 21 11	movabsq	$0x11219e0278db95dd, %rsi # imm = 0x11219E0278DB95DD
   c3419: 8a 44 24 0f                  	movb	0xf(%rsp), %al
   c341d: 89 c5                        	movl	%eax, %ebp
   c341f: 48 b9 0a be fd 30 cb c7 1b d1	movabsq	$-0x2ee43834cf0241f6, %rcx # imm = 0xD11BC7CB30FDBE0A
   c3429: e9 ca fe ff ff               	jmp	0xc32f8 <Java_com_adjust_sdk_sig_NativeLibHelper_nSign+0x7c4d>
   c342e: bf 01 01 00 00               	movl	$0x101, %edi            # imm = 0x101
   c3433: 6a 9c                        	pushq	$-0x64
   c3435: 5e                           	popq	%rsi
   c3436: 48 8b 54 24 18               	movq	0x18(%rsp), %rdx
   c343b: 31 c9                        	xorl	%ecx, %ecx
   c343d: 45 31 c0                     	xorl	%r8d, %r8d
   c3440: 31 c0                        	xorl	%eax, %eax
   c3442: e8 e9 f3 06 00               	callq	0x132830 <syscall@plt>
   c3447: 48 bf fc 76 9a 66 22 18 30 23	movabsq	$0x23301822669a76fc, %rdi # imm = 0x23301822669A76FC
   c3451: 48 be dd 95 db 78 02 9e 21 11	movabsq	$0x11219e0278db95dd, %rsi # imm = 0x11219E0278DB95DD
   c345b: 48 89 44 24 10               	movq	%rax, 0x10(%rsp)
   c3460: 83 f8 ff                     	cmpl	$-0x1, %eax
   c3463: 48 b9 67 3e a0 b8 7e a2 62 5f	movabsq	$0x5f62a27eb8a03e67, %rcx # imm = 0x5F62A27EB8A03E67
   c346d: 48 b8 55 39 1c 12 15 01 99 2b	movabsq	$0x2b990115121c3955, %rax # imm = 0x2B990115121C3955
   c3477: 48 0f 44 c8                  	cmoveq	%rax, %rcx
   c347b: e9 78 fe ff ff               	jmp	0xc32f8 <Java_com_adjust_sdk_sig_NativeLibHelper_nSign+0x7c4d>
   c3480: 31 ff                        	xorl	%edi, %edi
   c3482: 48 8b 74 24 10               	movq	0x10(%rsp), %rsi
   c3487: 48 8b 54 24 20               	movq	0x20(%rsp), %rdx
   c348c: 48 8b 4c 24 28               	movq	0x28(%rsp), %rcx
   c3491: 31 c0                        	xorl	%eax, %eax
   c3493: e8 98 f3 06 00               	callq	0x132830 <syscall@plt>
   c3498: 48 bf fc 76 9a 66 22 18 30 23	movabsq	$0x23301822669a76fc, %rdi # imm = 0x23301822669A76FC
   c34a2: 48 be dd 95 db 78 02 9e 21 11	movabsq	$0x11219e0278db95dd, %rsi # imm = 0x11219E0278DB95DD
   c34ac: 48 89 44 24 30               	movq	%rax, 0x30(%rsp)
   c34b1: 48 83 f8 ff                  	cmpq	$-0x1, %rax
   c34b5: 0f 95 44 24 0f               	setne	0xf(%rsp)
   c34ba: 4c 89 e1                     	movq	%r12, %rcx
   c34bd: 48 0f 45 cf                  	cmovneq	%rdi, %rcx
   c34c1: e9 32 fe ff ff               	jmp	0xc32f8 <Java_com_adjust_sdk_sig_NativeLibHelper_nSign+0x7c4d>
   c34c6: 40 80 e5 01                  	andb	$0x1, %bpl
   c34ca: 89 e8                        	movl	%ebp, %eax
   c34cc: 48 83 c4 38                  	addq	$0x38, %rsp
   c34d0: 5b                           	popq	%rbx
   c34d1: 41 5c                        	popq	%r12
   c34d3: 41 5d                        	popq	%r13
   c34d5: 41 5e                        	popq	%r14
   c34d7: 41 5f                        	popq	%r15
   c34d9: 5d                           	popq	%rbp
   c34da: c3                           	retq
   c34db: 55                           	pushq	%rbp
   c34dc: 41 57                        	pushq	%r15
   c34de: 41 56                        	pushq	%r14
   c34e0: 41 55                        	pushq	%r13
   c34e2: 41 54                        	pushq	%r12
   c34e4: 53                           	pushq	%rbx
   c34e5: 48 89 fe                     	movq	%rdi, %rsi
   c34e8: 48 b9 42 6d 23 10 b1 b4 90 bd	movabsq	$-0x426f4b4eefdc92be, %rcx # imm = 0xBD90B4B110236D42
   c34f2: 49 be 7a 42 d0 11 d8 18 d8 a1	movabsq	$-0x5e27e727ee2fbd86, %r14 # imm = 0xA1D818D811D0427A
   c34fc: 48 b8 01 00 00 00 00 00 00 00	movabsq	$0x1, %rax
   c3506: 48 29 f8                     	subq	%rdi, %rax
   c3509: 48 89 44 24 f0               	movq	%rax, -0x10(%rsp)
   c350e: 48 ba 65 16 56 a9 96 15 1e ee	movabsq	$-0x11e1ea6956a9e99b, %rdx # imm = 0xEE1E1596A9561665
   c3518: 49 b9 25 6c bb 14 3f ed 49 ad	movabsq	$-0x52b612c0eb4493db, %r9 # imm = 0xAD49ED3F14BB6C25
   c3522: 49 ba 1b 05 78 c8 3f cd 2b c9	movabsq	$-0x36d432c03787fae5, %r10 # imm = 0xC92BCD3FC878051B
   c352c: 49 bb ba c8 98 20 06 d9 2d b3	movabsq	$-0x4cd226f9df673746, %r11 # imm = 0xB32DD9062098C8BA
   c3536: 48 89 74 24 e0               	movq	%rsi, -0x20(%rsp)
   c353b: 49 89 f0                     	movq	%rsi, %r8
   c353e: 49 89 c4                     	movq	%rax, %r12
   c3541: 4c 39 f2                     	cmpq	%r14, %rdx
   c3544: 0f 84 a7 00 00 00            	je	0xc35f1 <Java_com_adjust_sdk_sig_NativeLibHelper_nSign+0x7f46>
   c354a: 49 89 d7                     	movq	%rdx, %r15
   c354d: 4c 39 ca                     	cmpq	%r9, %rdx
   c3550: 0f 84 b1 00 00 00            	je	0xc3607 <Java_com_adjust_sdk_sig_NativeLibHelper_nSign+0x7f5c>
   c3556: 4d 39 df                     	cmpq	%r11, %r15
   c3559: 0f 84 c0 00 00 00            	je	0xc361f <Java_com_adjust_sdk_sig_NativeLibHelper_nSign+0x7f74>
   c355f: 49 39 cf                     	cmpq	%rcx, %r15
   c3562: 0f 84 e8 00 00 00            	je	0xc3650 <Java_com_adjust_sdk_sig_NativeLibHelper_nSign+0x7fa5>
   c3568: 4c 89 e0                     	movq	%r12, %rax
   c356b: 48 89 ee                     	movq	%rbp, %rsi
   c356e: 4c 89 f2                     	movq	%r14, %rdx
   c3571: 4d 39 d7                     	cmpq	%r10, %r15
   c3574: 74 c5                        	je	0xc353b <Java_com_adjust_sdk_sig_NativeLibHelper_nSign+0x7e90>
   c3576: 4c 89 e0                     	movq	%r12, %rax
   c3579: 4c 89 c6                     	movq	%r8, %rsi
   c357c: 4c 89 f2                     	movq	%r14, %rdx
   c357f: 48 bb 65 16 56 a9 96 15 1e ee	movabsq	$-0x11e1ea6956a9e99b, %rbx # imm = 0xEE1E1596A9561665
   c3589: 49 39 df                     	cmpq	%rbx, %r15
   c358c: 74 ad                        	je	0xc353b <Java_com_adjust_sdk_sig_NativeLibHelper_nSign+0x7e90>
   c358e: 48 b8 a8 8f c1 3f bb 00 54 fc	movabsq	$-0x3abff44c03e7058, %rax # imm = 0xFC5400BB3FC18FA8
   c3598: 49 39 c7                     	cmpq	%rax, %r15
   c359b: 0f 84 d1 00 00 00            	je	0xc3672 <Java_com_adjust_sdk_sig_NativeLibHelper_nSign+0x7fc7>
   c35a1: 48 b8 04 ee 6e 80 ad f5 2e 0c	movabsq	$0xc2ef5ad806eee04, %rax # imm = 0xC2EF5AD806EEE04
   c35ab: 49 39 c7                     	cmpq	%rax, %r15
   c35ae: 0f 84 c8 00 00 00            	je	0xc367c <Java_com_adjust_sdk_sig_NativeLibHelper_nSign+0x7fd1>
   c35b4: 4c 89 e8                     	movq	%r13, %rax
   c35b7: 4c 89 c6                     	movq	%r8, %rsi
   c35ba: 48 89 ca                     	movq	%rcx, %rdx
   c35bd: 48 bb f7 c6 ba 0c 6b 1c 06 2f	movabsq	$0x2f061c6b0cbac6f7, %rbx # imm = 0x2F061C6B0CBAC6F7
   c35c7: 49 39 df                     	cmpq	%rbx, %r15
   c35ca: 0f 84 6b ff ff ff            	je	0xc353b <Java_com_adjust_sdk_sig_NativeLibHelper_nSign+0x7e90>
   c35d0: 4c 89 e0                     	movq	%r12, %rax
   c35d3: 4c 89 c6                     	movq	%r8, %rsi
   c35d6: 4c 89 fa                     	movq	%r15, %rdx
   c35d9: 49 b8 3c fd 05 e7 cb dc ea dc	movabsq	$-0x2315233418fa02c4, %r8 # imm = 0xDCEADCCBE705FD3C
   c35e3: 4d 39 c7                     	cmpq	%r8, %r15
   c35e6: 0f 85 4f ff ff ff            	jne	0xc353b <Java_com_adjust_sdk_sig_NativeLibHelper_nSign+0x7e90>
   c35ec: e9 a7 00 00 00               	jmp	0xc3698 <Java_com_adjust_sdk_sig_NativeLibHelper_nSign+0x7fed>
   c35f1: 41 80 38 00                  	cmpb	$0x0, (%r8)
   c35f5: 4c 89 d2                     	movq	%r10, %rdx
   c35f8: 49 0f 44 d1                  	cmoveq	%r9, %rdx
   c35fc: 49 8d 68 01                  	leaq	0x1(%r8), %rbp
   c3600: 4c 89 44 24 f8               	movq	%r8, -0x8(%rsp)
   c3605: eb 3e                        	jmp	0xc3645 <Java_com_adjust_sdk_sig_NativeLibHelper_nSign+0x7f9a>
   c3607: 48 8b 44 24 f0               	movq	-0x10(%rsp), %rax
   c360c: 48 8b 54 24 f8               	movq	-0x8(%rsp), %rdx
   c3611: 48 01 d0                     	addq	%rdx, %rax
   c3614: 4c 89 c6                     	movq	%r8, %rsi
   c3617: 48 89 ca                     	movq	%rcx, %rdx
   c361a: e9 1c ff ff ff               	jmp	0xc353b <Java_com_adjust_sdk_sig_NativeLibHelper_nSign+0x7e90>
   c361f: 4c 8d 6f ff                  	leaq	-0x1(%rdi), %r13
   c3623: 48 8b 44 24 e0               	movq	-0x20(%rsp), %rax
   c3628: 80 7c 38 ff 2e               	cmpb	$0x2e, -0x1(%rax,%rdi)
   c362d: 48 ba f7 c6 ba 0c 6b 1c 06 2f	movabsq	$0x2f061c6b0cbac6f7, %rdx # imm = 0x2F061C6B0CBAC6F7
   c3637: 48 b8 a8 8f c1 3f bb 00 54 fc	movabsq	$-0x3abff44c03e7058, %rax # imm = 0xFC5400BB3FC18FA8
   c3641: 48 0f 44 d0                  	cmoveq	%rax, %rdx
   c3645: 4c 89 e0                     	movq	%r12, %rax
   c3648: 4c 89 c6                     	movq	%r8, %rsi
   c364b: e9 eb fe ff ff               	jmp	0xc353b <Java_com_adjust_sdk_sig_NativeLibHelper_nSign+0x7e90>
   c3650: 4d 85 e4                     	testq	%r12, %r12
   c3653: 4c 89 da                     	movq	%r11, %rdx
   c3656: 48 b8 04 ee 6e 80 ad f5 2e 0c	movabsq	$0xc2ef5ad806eee04, %rax # imm = 0xC2EF5AD806EEE04
   c3660: 48 0f 44 d0                  	cmoveq	%rax, %rdx
   c3664: 4c 89 e0                     	movq	%r12, %rax
   c3667: 4c 89 e7                     	movq	%r12, %rdi
   c366a: 4c 89 c6                     	movq	%r8, %rsi
   c366d: e9 c9 fe ff ff               	jmp	0xc353b <Java_com_adjust_sdk_sig_NativeLibHelper_nSign+0x7e90>
   c3672: 48 8b 44 24 e0               	movq	-0x20(%rsp), %rax
   c3677: 4c 01 e8                     	addq	%r13, %rax
   c367a: eb 02                        	jmp	0xc367e <Java_com_adjust_sdk_sig_NativeLibHelper_nSign+0x7fd3>
   c367c: 31 c0                        	xorl	%eax, %eax
   c367e: 48 89 44 24 e8               	movq	%rax, -0x18(%rsp)
   c3683: 4c 89 e0                     	movq	%r12, %rax
   c3686: 4c 89 c6                     	movq	%r8, %rsi
   c3689: 48 ba 3c fd 05 e7 cb dc ea dc	movabsq	$-0x2315233418fa02c4, %rdx # imm = 0xDCEADCCBE705FD3C
   c3693: e9 a3 fe ff ff               	jmp	0xc353b <Java_com_adjust_sdk_sig_NativeLibHelper_nSign+0x7e90>
   c3698: 48 8b 54 24 e8               	movq	-0x18(%rsp), %rdx
   c369d: 48 8d 42 01                  	leaq	0x1(%rdx), %rax
   c36a1: 48 3b 54 24 e0               	cmpq	-0x20(%rsp), %rdx
   c36a6: 48 8d 0d 9b 0a f4 ff         	leaq	-0xbf565(%rip), %rcx    # 0x4148
   c36ad: 48 0f 44 c1                  	cmoveq	%rcx, %rax
   c36b1: 48 85 d2                     	testq	%rdx, %rdx
   c36b4: 48 0f 44 c1                  	cmoveq	%rcx, %rax
   c36b8: 5b                           	popq	%rbx
   c36b9: 41 5c                        	popq	%r12
   c36bb: 41 5d                        	popq	%r13
   c36bd: 41 5e                        	popq	%r14
   c36bf: 41 5f                        	popq	%r15
   c36c1: 5d                           	popq	%rbp
   c36c2: c3                           	retq
   c36c3: 55                           	pushq	%rbp
   c36c4: 41 57                        	pushq	%r15
   c36c6: 41 56                        	pushq	%r14
   c36c8: 41 55                        	pushq	%r13
   c36ca: 41 54                        	pushq	%r12
   c36cc: 53                           	pushq	%rbx
   c36cd: 48 81 ec 18 01 00 00         	subq	$0x118, %rsp            # imm = 0x118
   c36d4: 48 89 54 24 58               	movq	%rdx, 0x58(%rsp)
   c36d9: 48 89 74 24 10               	movq	%rsi, 0x10(%rsp)
   c36de: 64 48 8b 04 25 28 00 00 00   	movq	%fs:0x28, %rax
   c36e7: 48 89 84 24 10 01 00 00      	movq	%rax, 0x110(%rsp)
   c36ef: 49 bf dc 34 e5 0c 24 19 19 ca	movabsq	$-0x35e6e6dbf31acb24, %r15 # imm = 0xCA1919240CE534DC
   c36f9: 49 b8 98 ce f3 71 7e 67 98 45	movabsq	$0x4598677e71f3ce98, %r8 # imm = 0x4598677E71F3CE98
   c3703: 0f 57 c0                     	xorps	%xmm0, %xmm0
   c3706: 48 8d 84 24 90 00 00 00      	leaq	0x90(%rsp), %rax
   c370e: 0f 29 40 70                  	movaps	%xmm0, 0x70(%rax)
   c3712: 0f 29 40 60                  	movaps	%xmm0, 0x60(%rax)
   c3716: 0f 29 40 50                  	movaps	%xmm0, 0x50(%rax)
   c371a: 0f 29 40 40                  	movaps	%xmm0, 0x40(%rax)
   c371e: 0f 29 40 30                  	movaps	%xmm0, 0x30(%rax)
   c3722: 0f 29 40 20                  	movaps	%xmm0, 0x20(%rax)
   c3726: 0f 29 40 10                  	movaps	%xmm0, 0x10(%rax)
   c372a: 0f 29 00                     	movaps	%xmm0, (%rax)
   c372d: 48 89 7c 24 08               	movq	%rdi, 0x8(%rsp)
   c3732: 48 8b 07                     	movq	(%rdi), %rax
   c3735: 89 c1                        	movl	%eax, %ecx
   c3737: f7 d9                        	negl	%ecx
   c3739: 83 e1 03                     	andl	$0x3, %ecx
   c373c: 48 89 4c 24 50               	movq	%rcx, 0x50(%rsp)
   c3741: 48 01 c1                     	addq	%rax, %rcx
   c3744: 48 89 4c 24 48               	movq	%rcx, 0x48(%rsp)
   c3749: 48 89 44 24 30               	movq	%rax, 0x30(%rsp)
   c374e: 48 85 c0                     	testq	%rax, %rax
   c3751: 48 b8 03 24 9e 5a d4 b0 1e 39	movabsq	$0x391eb0d45a9e2403, %rax # imm = 0x391EB0D45A9E2403
   c375b: 48 b9 82 48 52 ed 62 c0 d8 55	movabsq	$0x55d8c062ed524882, %rcx # imm = 0x55D8C062ED524882
   c3765: 48 0f 44 c8                  	cmoveq	%rax, %rcx
   c3769: 48 89 8c 24 88 00 00 00      	movq	%rcx, 0x88(%rsp)
   c3771: 48 bf a5 e7 cf 78 48 52 9c 96	movabsq	$-0x6963adb78730185b, %rdi # imm = 0x969C524878CFE7A5
   c377b: 49 ba 5e 48 9f 81 3c 6c fb ed	movabsq	$-0x120493c37e60b7a2, %r10 # imm = 0xEDFB6C3C819F485E
   c3785: 49 bb 7b be d4 74 f9 4e 3f a4	movabsq	$-0x5bc0b1068b2b4185, %r11 # imm = 0xA43F4EF974D4BE7B
   c378f: 48 89 fe                     	movq	%rdi, %rsi
   c3792: 4c 89 c7                     	movq	%r8, %rdi
   c3795: 49 b9 0e 2e 26 fa 0d b2 0a 84	movabsq	$-0x7bf54df205d9d1f2, %r9 # imm = 0x840AB20DFA262E0E
   c379f: 4c 39 ce                     	cmpq	%r9, %rsi
   c37a2: 74 eb                        	je	0xc378f <Java_com_adjust_sdk_sig_NativeLibHelper_nSign+0x80e4>
   c37a4: 49 89 d4                     	movq	%rdx, %r12
   c37a7: 49 89 cd                     	movq	%rcx, %r13
   c37aa: 48 89 c3                     	movq	%rax, %rbx
   c37ad: 48 89 e8                     	movq	%rbp, %rax
   c37b0: 4c 89 ff                     	movq	%r15, %rdi
   c37b3: 49 b9 b5 32 df 83 e4 7d 1b 86	movabsq	$-0x79e4821b7c20cd4b, %r9 # imm = 0x861B7DE483DF32B5
   c37bd: 4c 39 ce                     	cmpq	%r9, %rsi
   c37c0: 74 cd                        	je	0xc378f <Java_com_adjust_sdk_sig_NativeLibHelper_nSign+0x80e4>
   c37c2: 48 b8 a0 8c 1e 49 5d 28 de 95	movabsq	$-0x6a21d7a2b6e17360, %rax # imm = 0x95DE285D491E8CA0
   c37cc: 48 39 c6                     	cmpq	%rax, %rsi
   c37cf: 0f 84 89 04 00 00            	je	0xc3c5e <Java_com_adjust_sdk_sig_NativeLibHelper_nSign+0x85b3>
   c37d5: 48 89 d8                     	movq	%rbx, %rax
   c37d8: 4c 89 e9                     	movq	%r13, %rcx
   c37db: 4c 89 e2                     	movq	%r12, %rdx
   c37de: 48 8b bc 24 88 00 00 00      	movq	0x88(%rsp), %rdi
   c37e6: 49 b9 a5 e7 cf 78 48 52 9c 96	movabsq	$-0x6963adb78730185b, %r9 # imm = 0x969C524878CFE7A5
   c37f0: 4c 39 ce                     	cmpq	%r9, %rsi
   c37f3: 74 9a                        	je	0xc378f <Java_com_adjust_sdk_sig_NativeLibHelper_nSign+0x80e4>
   c37f5: 48 b8 dd 78 19 f0 5d b4 36 9c	movabsq	$-0x63c94ba20fe68723, %rax # imm = 0x9C36B45DF01978DD
   c37ff: 48 39 c6                     	cmpq	%rax, %rsi
   c3802: 0f 84 10 02 00 00            	je	0xc3a18 <Java_com_adjust_sdk_sig_NativeLibHelper_nSign+0x836d>
   c3808: 4c 39 de                     	cmpq	%r11, %rsi
   c380b: 0f 84 18 02 00 00            	je	0xc3a29 <Java_com_adjust_sdk_sig_NativeLibHelper_nSign+0x837e>
   c3811: 48 b8 c5 87 5a 16 d2 c3 6d a5	movabsq	$-0x5a923c2de9a5783b, %rax # imm = 0xA56DC3D2165A87C5
   c381b: 48 39 c6                     	cmpq	%rax, %rsi
   c381e: 0f 84 dc 05 00 00            	je	0xc3e00 <Java_com_adjust_sdk_sig_NativeLibHelper_nSign+0x8755>
   c3824: 48 b8 0d 38 ba 0f 13 39 dc ab	movabsq	$-0x5423c6ecf045c7f3, %rax # imm = 0xABDC39130FBA380D
   c382e: 48 39 c6                     	cmpq	%rax, %rsi
   c3831: 0f 84 db 02 00 00            	je	0xc3b12 <Java_com_adjust_sdk_sig_NativeLibHelper_nSign+0x8467>
   c3837: 48 89 d8                     	movq	%rbx, %rax
   c383a: 4c 89 f1                     	movq	%r14, %rcx
   c383d: 4c 89 e2                     	movq	%r12, %rdx
   c3840: 48 bf 22 74 78 fb 19 9b 94 ea	movabsq	$-0x156b64e604878bde, %rdi # imm = 0xEA949B19FB787422
   c384a: 49 b9 16 94 0f f0 64 da be bc	movabsq	$-0x4341259b0ff06bea, %r9 # imm = 0xBCBEDA64F00F9416
   c3854: 4c 39 ce                     	cmpq	%r9, %rsi
   c3857: 0f 84 32 ff ff ff            	je	0xc378f <Java_com_adjust_sdk_sig_NativeLibHelper_nSign+0x80e4>
   c385d: 48 b8 31 13 eb 2d e7 76 79 bd	movabsq	$-0x42868918d214eccf, %rax # imm = 0xBD7976E72DEB1331
   c3867: 48 39 c6                     	cmpq	%rax, %rsi
   c386a: 0f 84 a8 01 00 00            	je	0xc3a18 <Java_com_adjust_sdk_sig_NativeLibHelper_nSign+0x836d>
   c3870: 48 b8 a2 ba 49 ea 34 4f 23 be	movabsq	$-0x41dcb0cb15b6455e, %rax # imm = 0xBE234F34EA49BAA2
   c387a: 48 39 c6                     	cmpq	%rax, %rsi
   c387d: 0f 84 53 03 00 00            	je	0xc3bd6 <Java_com_adjust_sdk_sig_NativeLibHelper_nSign+0x852b>
   c3883: 48 8b 44 24 20               	movq	0x20(%rsp), %rax
   c3888: 4c 89 e9                     	movq	%r13, %rcx
   c388b: 4c 89 e2                     	movq	%r12, %rdx
   c388e: 4c 89 ff                     	movq	%r15, %rdi
   c3891: 49 b9 b3 9b a1 c2 c1 96 c9 c1	movabsq	$-0x3e36693e3d5e644d, %r9 # imm = 0xC1C996C1C2A19BB3
   c389b: 4c 39 ce                     	cmpq	%r9, %rsi
   c389e: 0f 84 eb fe ff ff            	je	0xc378f <Java_com_adjust_sdk_sig_NativeLibHelper_nSign+0x80e4>
   c38a4: 48 b8 db be 00 54 44 ce 30 e3	movabsq	$-0x1ccf31bbabff4125, %rax # imm = 0xE330CE445400BEDB
   c38ae: 48 39 c6                     	cmpq	%rax, %rsi
   c38b1: 0f 84 a5 04 00 00            	je	0xc3d5c <Java_com_adjust_sdk_sig_NativeLibHelper_nSign+0x86b1>
   c38b7: 48 b8 22 74 78 fb 19 9b 94 ea	movabsq	$-0x156b64e604878bde, %rax # imm = 0xEA949B19FB787422
   c38c1: 48 39 c6                     	cmpq	%rax, %rsi
   c38c4: 0f 84 be 04 00 00            	je	0xc3d88 <Java_com_adjust_sdk_sig_NativeLibHelper_nSign+0x86dd>
   c38ca: 4c 39 d6                     	cmpq	%r10, %rsi
   c38cd: 0f 84 8a 01 00 00            	je	0xc3a5d <Java_com_adjust_sdk_sig_NativeLibHelper_nSign+0x83b2>
   c38d3: 48 89 d8                     	movq	%rbx, %rax
   c38d6: 4c 89 e9                     	movq	%r13, %rcx
   c38d9: 4c 89 e2                     	movq	%r12, %rdx
   c38dc: 4c 89 c7                     	movq	%r8, %rdi
   c38df: 49 b9 be ec 72 7e 6e 82 06 ee	movabsq	$-0x11f97d91818d1342, %r9 # imm = 0xEE06826E7E72ECBE
   c38e9: 4c 39 ce                     	cmpq	%r9, %rsi
   c38ec: 0f 84 9d fe ff ff            	je	0xc378f <Java_com_adjust_sdk_sig_NativeLibHelper_nSign+0x80e4>
   c38f2: 48 89 d8                     	movq	%rbx, %rax
   c38f5: 4c 89 e9                     	movq	%r13, %rcx
   c38f8: 4c 89 e2                     	movq	%r12, %rdx
   c38fb: 4c 89 c7                     	movq	%r8, %rdi
   c38fe: 49 b9 4f 3f a7 d6 08 d1 d4 fe	movabsq	$-0x12b2ef72958c0b1, %r9 # imm = 0xFED4D108D6A73F4F
   c3908: 4c 39 ce                     	cmpq	%r9, %rsi
   c390b: 0f 84 7e fe ff ff            	je	0xc378f <Java_com_adjust_sdk_sig_NativeLibHelper_nSign+0x80e4>
   c3911: 48 b8 0f 59 29 fa 5e ff 6c 18	movabsq	$0x186cff5efa29590f, %rax # imm = 0x186CFF5EFA29590F
   c391b: 48 39 c6                     	cmpq	%rax, %rsi
   c391e: 0f 84 b9 01 00 00            	je	0xc3add <Java_com_adjust_sdk_sig_NativeLibHelper_nSign+0x8432>
   c3924: 48 89 d8                     	movq	%rbx, %rax
   c3927: 4c 89 e9                     	movq	%r13, %rcx
   c392a: 4c 89 e2                     	movq	%r12, %rdx
   c392d: 4c 89 c7                     	movq	%r8, %rdi
   c3930: 49 b9 f4 2f 9f 62 f3 d6 66 2c	movabsq	$0x2c66d6f3629f2ff4, %r9 # imm = 0x2C66D6F3629F2FF4
   c393a: 4c 39 ce                     	cmpq	%r9, %rsi
   c393d: 0f 84 4c fe ff ff            	je	0xc378f <Java_com_adjust_sdk_sig_NativeLibHelper_nSign+0x80e4>
   c3943: 48 b8 03 24 9e 5a d4 b0 1e 39	movabsq	$0x391eb0d45a9e2403, %rax # imm = 0x391EB0D45A9E2403
   c394d: 48 39 c6                     	cmpq	%rax, %rsi
   c3950: 0f 84 a7 03 00 00            	je	0xc3cfd <Java_com_adjust_sdk_sig_NativeLibHelper_nSign+0x8652>
   c3956: 48 89 d8                     	movq	%rbx, %rax
   c3959: 4c 89 e9                     	movq	%r13, %rcx
   c395c: 4c 89 e2                     	movq	%r12, %rdx
   c395f: 4c 89 c7                     	movq	%r8, %rdi
   c3962: 49 b9 64 e0 bc b9 af a5 78 3a	movabsq	$0x3a78a5afb9bce064, %r9 # imm = 0x3A78A5AFB9BCE064
   c396c: 4c 39 ce                     	cmpq	%r9, %rsi
   c396f: 0f 84 1a fe ff ff            	je	0xc378f <Java_com_adjust_sdk_sig_NativeLibHelper_nSign+0x80e4>
   c3975: 4c 39 c6                     	cmpq	%r8, %rsi
   c3978: 0f 84 c8 02 00 00            	je	0xc3c46 <Java_com_adjust_sdk_sig_NativeLibHelper_nSign+0x859b>
   c397e: 48 b8 70 fb 90 79 0d 21 0a 49	movabsq	$0x490a210d7990fb70, %rax # imm = 0x490A210D7990FB70
   c3988: 48 39 c6                     	cmpq	%rax, %rsi
   c398b: 0f 84 78 02 00 00            	je	0xc3c09 <Java_com_adjust_sdk_sig_NativeLibHelper_nSign+0x855e>
   c3991: 48 b8 82 48 52 ed 62 c0 d8 55	movabsq	$0x55d8c062ed524882, %rax # imm = 0x55D8C062ED524882
   c399b: 48 39 c6                     	cmpq	%rax, %rsi
   c399e: 0f 84 cf 01 00 00            	je	0xc3b73 <Java_com_adjust_sdk_sig_NativeLibHelper_nSign+0x84c8>
   c39a4: 48 89 d8                     	movq	%rbx, %rax
   c39a7: 4c 89 e9                     	movq	%r13, %rcx
   c39aa: 48 8b 54 24 20               	movq	0x20(%rsp), %rdx
   c39af: 48 bf 0d 38 ba 0f 13 39 dc ab	movabsq	$-0x5423c6ecf045c7f3, %rdi # imm = 0xABDC39130FBA380D
   c39b9: 49 b9 d3 5a 09 7b fe f9 06 5b	movabsq	$0x5b06f9fe7b095ad3, %r9 # imm = 0x5B06F9FE7B095AD3
   c39c3: 4c 39 ce                     	cmpq	%r9, %rsi
   c39c6: 0f 84 c3 fd ff ff            	je	0xc378f <Java_com_adjust_sdk_sig_NativeLibHelper_nSign+0x80e4>
   c39cc: 48 b8 d8 ea 6f ae a3 11 ee 68	movabsq	$0x68ee11a3ae6fead8, %rax # imm = 0x68EE11A3AE6FEAD8
   c39d6: 48 39 c6                     	cmpq	%rax, %rsi
   c39d9: 0f 84 c1 01 00 00            	je	0xc3ba0 <Java_com_adjust_sdk_sig_NativeLibHelper_nSign+0x84f5>
   c39df: 48 89 d8                     	movq	%rbx, %rax
   c39e2: 4c 89 e9                     	movq	%r13, %rcx
   c39e5: 4c 89 e2                     	movq	%r12, %rdx
   c39e8: 4c 89 c7                     	movq	%r8, %rdi
   c39eb: 49 b9 be a2 25 27 fd e1 20 72	movabsq	$0x7220e1fd2725a2be, %r9 # imm = 0x7220E1FD2725A2BE
   c39f5: 4c 39 ce                     	cmpq	%r9, %rsi
   c39f8: 0f 84 91 fd ff ff            	je	0xc378f <Java_com_adjust_sdk_sig_NativeLibHelper_nSign+0x80e4>
   c39fe: 48 89 d8                     	movq	%rbx, %rax
   c3a01: 4c 89 e9                     	movq	%r13, %rcx
   c3a04: 4c 89 e2                     	movq	%r12, %rdx
   c3a07: 48 89 f7                     	movq	%rsi, %rdi
   c3a0a: 4c 39 fe                     	cmpq	%r15, %rsi
   c3a0d: 0f 85 7c fd ff ff            	jne	0xc378f <Java_com_adjust_sdk_sig_NativeLibHelper_nSign+0x80e4>
   c3a13: e9 05 04 00 00               	jmp	0xc3e1d <Java_com_adjust_sdk_sig_NativeLibHelper_nSign+0x8772>
   c3a18: 6a ff                        	pushq	$-0x1
   c3a1a: 58                           	popq	%rax
   c3a1b: 4c 89 e9                     	movq	%r13, %rcx
   c3a1e: 4c 89 e2                     	movq	%r12, %rdx
   c3a21: 4c 89 ff                     	movq	%r15, %rdi
   c3a24: e9 66 fd ff ff               	jmp	0xc378f <Java_com_adjust_sdk_sig_NativeLibHelper_nSign+0x80e4>
   c3a29: 48 8b 44 24 30               	movq	0x30(%rsp), %rax
   c3a2e: 31 c9                        	xorl	%ecx, %ecx
   c3a30: 88 48 03                     	movb	%cl, 0x3(%rax)
   c3a33: 48 8b 74 24 18               	movq	0x18(%rsp), %rsi
   c3a38: 48 83 fe 09                  	cmpq	$0x9, %rsi
   c3a3c: 48 bf 0f 59 29 fa 5e ff 6c 18	movabsq	$0x186cff5efa29590f, %rdi # imm = 0x186CFF5EFA29590F
   c3a46: 48 ba f4 2f 9f 62 f3 d6 66 2c	movabsq	$0x2c66d6f3629f2ff4, %rdx # imm = 0x2C66D6F3629F2FF4
   c3a50: 48 0f 42 fa                  	cmovbq	%rdx, %rdi
   c3a54: 88 4c 06 fc                  	movb	%cl, -0x4(%rsi,%rax)
   c3a58: e9 95 03 00 00               	jmp	0xc3df2 <Java_com_adjust_sdk_sig_NativeLibHelper_nSign+0x8747>
   c3a5d: 48 8b 44 24 60               	movq	0x60(%rsp), %rax
   c3a62: 83 e0 7f                     	andl	$0x7f, %eax
   c3a65: 48 8b 74 24 20               	movq	0x20(%rsp), %rsi
   c3a6a: 48 29 c6                     	subq	%rax, %rsi
   c3a6d: 48 81 c6 81 00 00 00         	addq	$0x81, %rsi
   c3a74: 48 8b 44 24 10               	movq	0x10(%rsp), %rax
   c3a79: 48 89 30                     	movq	%rsi, (%rax)
   c3a7c: 48 89 6c 24 28               	movq	%rbp, 0x28(%rsp)
   c3a81: 4c 89 fd                     	movq	%r15, %rbp
   c3a84: 4c 8b 74 24 08               	movq	0x8(%rsp), %r14
   c3a89: 49 8b 3e                     	movq	(%r14), %rdi
   c3a8c: e8 2f ef 06 00               	callq	0x1329c0 <realloc@plt>
   c3a91: 49 bb 7b be d4 74 f9 4e 3f a4	movabsq	$-0x5bc0b1068b2b4185, %r11 # imm = 0xA43F4EF974D4BE7B
   c3a9b: 49 ba 5e 48 9f 81 3c 6c fb ed	movabsq	$-0x120493c37e60b7a2, %r10 # imm = 0xEDFB6C3C819F485E
   c3aa5: 49 b8 98 ce f3 71 7e 67 98 45	movabsq	$0x4598677e71f3ce98, %r8 # imm = 0x4598677E71F3CE98
   c3aaf: 48 89 c1                     	movq	%rax, %rcx
   c3ab2: 48 85 c0                     	testq	%rax, %rax
   c3ab5: 48 bf 16 94 0f f0 64 da be bc	movabsq	$-0x4341259b0ff06bea, %rdi # imm = 0xBCBEDA64F00F9416
   c3abf: 48 b8 31 13 eb 2d e7 76 79 bd	movabsq	$-0x42868918d214eccf, %rax # imm = 0xBD7976E72DEB1331
   c3ac9: 48 0f 44 f8                  	cmoveq	%rax, %rdi
   c3acd: 49 89 0e                     	movq	%rcx, (%r14)
   c3ad0: 49 89 ce                     	movq	%rcx, %r14
   c3ad3: 48 8b 6c 24 28               	movq	0x28(%rsp), %rbp
   c3ad8: e9 15 03 00 00               	jmp	0xc3df2 <Java_com_adjust_sdk_sig_NativeLibHelper_nSign+0x8747>
   c3add: 48 8b 44 24 18               	movq	0x18(%rsp), %rax
   c3ae2: 48 2b 44 24 50               	subq	0x50(%rsp), %rax
   c3ae7: 48 83 e0 fc                  	andq	$-0x4, %rax
   c3aeb: 48 89 44 24 40               	movq	%rax, 0x40(%rsp)
   c3af0: 48 89 d8                     	movq	%rbx, %rax
   c3af3: 4c 89 e9                     	movq	%r13, %rcx
   c3af6: 4c 89 e2                     	movq	%r12, %rdx
   c3af9: 48 8b 74 24 48               	movq	0x48(%rsp), %rsi
   c3afe: 48 89 74 24 38               	movq	%rsi, 0x38(%rsp)
   c3b03: 48 bf 70 fb 90 79 0d 21 0a 49	movabsq	$0x490a210d7990fb70, %rdi # imm = 0x490A210D7990FB70
   c3b0d: e9 7d fc ff ff               	jmp	0xc378f <Java_com_adjust_sdk_sig_NativeLibHelper_nSign+0x80e4>
   c3b12: 48 8d bc 24 90 00 00 00      	leaq	0x90(%rsp), %rdi
   c3b1a: be 80 00 00 00               	movl	$0x80, %esi
   c3b1f: 48 8b 54 24 58               	movq	0x58(%rsp), %rdx
   c3b24: e8 77 ed 06 00               	callq	0x1328a0 <fgets@plt>
   c3b29: 49 bb 7b be d4 74 f9 4e 3f a4	movabsq	$-0x5bc0b1068b2b4185, %r11 # imm = 0xA43F4EF974D4BE7B
   c3b33: 49 ba 5e 48 9f 81 3c 6c fb ed	movabsq	$-0x120493c37e60b7a2, %r10 # imm = 0xEDFB6C3C819F485E
   c3b3d: 49 b8 98 ce f3 71 7e 67 98 45	movabsq	$0x4598677e71f3ce98, %r8 # imm = 0x4598677E71F3CE98
   c3b47: 48 85 c0                     	testq	%rax, %rax
   c3b4a: 48 bf a0 8c 1e 49 5d 28 de 95	movabsq	$-0x6a21d7a2b6e17360, %rdi # imm = 0x95DE285D491E8CA0
   c3b54: 48 b8 b5 32 df 83 e4 7d 1b 86	movabsq	$-0x79e4821b7c20cd4b, %rax # imm = 0x861B7DE483DF32B5
   c3b5e: 48 0f 44 f8                  	cmoveq	%rax, %rdi
   c3b62: 48 89 d8                     	movq	%rbx, %rax
   c3b65: 4c 89 e9                     	movq	%r13, %rcx
   c3b68: 4c 89 e2                     	movq	%r12, %rdx
   c3b6b: 4c 89 e5                     	movq	%r12, %rbp
   c3b6e: e9 1c fc ff ff               	jmp	0xc378f <Java_com_adjust_sdk_sig_NativeLibHelper_nSign+0x80e4>
   c3b73: 48 8b 44 24 10               	movq	0x10(%rsp), %rax
   c3b78: 48 8b 00                     	movq	(%rax), %rax
   c3b7b: 48 89 44 24 18               	movq	%rax, 0x18(%rsp)
   c3b80: 48 85 c0                     	testq	%rax, %rax
   c3b83: 48 bf a2 ba 49 ea 34 4f 23 be	movabsq	$-0x41dcb0cb15b6455e, %rdi # imm = 0xBE234F34EA49BAA2
   c3b8d: 48 b8 4f 3f a7 d6 08 d1 d4 fe	movabsq	$-0x12b2ef72958c0b1, %rax # imm = 0xFED4D108D6A73F4F
   c3b97: 48 0f 44 f8                  	cmoveq	%rax, %rdi
   c3b9b: e9 52 02 00 00               	jmp	0xc3df2 <Java_com_adjust_sdk_sig_NativeLibHelper_nSign+0x8747>
   c3ba0: 48 8b 4c 24 70               	movq	0x70(%rsp), %rcx
   c3ba5: c6 01 00                     	movb	$0x0, (%rcx)
   c3ba8: 48 8b 44 24 78               	movq	0x78(%rsp), %rax
   c3bad: 48 ff c8                     	decq	%rax
   c3bb0: 48 89 44 24 40               	movq	%rax, 0x40(%rsp)
   c3bb5: 48 8d 41 01                  	leaq	0x1(%rcx), %rax
   c3bb9: 48 89 44 24 38               	movq	%rax, 0x38(%rsp)
   c3bbe: 48 89 d8                     	movq	%rbx, %rax
   c3bc1: 4c 89 e9                     	movq	%r13, %rcx
   c3bc4: 4c 89 e2                     	movq	%r12, %rdx
   c3bc7: 48 bf 70 fb 90 79 0d 21 0a 49	movabsq	$0x490a210d7990fb70, %rdi # imm = 0x490A210D7990FB70
   c3bd1: e9 b9 fb ff ff               	jmp	0xc378f <Java_com_adjust_sdk_sig_NativeLibHelper_nSign+0x80e4>
   c3bd6: 48 8b 44 24 30               	movq	0x30(%rsp), %rax
   c3bdb: 31 c9                        	xorl	%ecx, %ecx
   c3bdd: 88 08                        	movb	%cl, (%rax)
   c3bdf: 48 8b 74 24 18               	movq	0x18(%rsp), %rsi
   c3be4: 48 83 fe 03                  	cmpq	$0x3, %rsi
   c3be8: 48 bf db be 00 54 44 ce 30 e3	movabsq	$-0x1ccf31bbabff4125, %rdi # imm = 0xE330CE445400BEDB
   c3bf2: 48 ba be a2 25 27 fd e1 20 72	movabsq	$0x7220e1fd2725a2be, %rdx # imm = 0x7220E1FD2725A2BE
   c3bfc: 48 0f 42 fa                  	cmovbq	%rdx, %rdi
   c3c00: 88 4c 06 ff                  	movb	%cl, -0x1(%rsi,%rax)
   c3c04: e9 e9 01 00 00               	jmp	0xc3df2 <Java_com_adjust_sdk_sig_NativeLibHelper_nSign+0x8747>
   c3c09: 48 8b 54 24 40               	movq	0x40(%rsp), %rdx
   c3c0e: 48 85 d2                     	testq	%rdx, %rdx
   c3c11: 48 bf d8 ea 6f ae a3 11 ee 68	movabsq	$0x68ee11a3ae6fead8, %rdi # imm = 0x68EE11A3AE6FEAD8
   c3c1b: 48 b8 0e 2e 26 fa 0d b2 0a 84	movabsq	$-0x7bf54df205d9d1f2, %rax # imm = 0x840AB20DFA262E0E
   c3c25: 48 0f 44 f8                  	cmoveq	%rax, %rdi
   c3c29: 48 89 d8                     	movq	%rbx, %rax
   c3c2c: 4c 89 e9                     	movq	%r13, %rcx
   c3c2f: 48 89 54 24 78               	movq	%rdx, 0x78(%rsp)
   c3c34: 48 8b 54 24 38               	movq	0x38(%rsp), %rdx
   c3c39: 48 89 54 24 70               	movq	%rdx, 0x70(%rsp)
   c3c3e: 4c 89 e2                     	movq	%r12, %rdx
   c3c41: e9 49 fb ff ff               	jmp	0xc378f <Java_com_adjust_sdk_sig_NativeLibHelper_nSign+0x80e4>
   c3c46: 48 89 d8                     	movq	%rbx, %rax
   c3c49: 4c 89 e9                     	movq	%r13, %rcx
   c3c4c: 6a ff                        	pushq	$-0x1
   c3c4e: 5a                           	popq	%rdx
   c3c4f: 48 bf 0d 38 ba 0f 13 39 dc ab	movabsq	$-0x5423c6ecf045c7f3, %rdi # imm = 0xABDC39130FBA380D
   c3c59: e9 31 fb ff ff               	jmp	0xc378f <Java_com_adjust_sdk_sig_NativeLibHelper_nSign+0x80e4>
   c3c5e: 48 83 fd ff                  	cmpq	$-0x1, %rbp
   c3c62: 4c 89 74 24 28               	movq	%r14, 0x28(%rsp)
   c3c67: 49 89 ee                     	movq	%rbp, %r14
   c3c6a: b8 00 00 00 00               	movl	$0x0, %eax
   c3c6f: 48 0f 44 e8                  	cmoveq	%rax, %rbp
   c3c73: be 80 00 00 00               	movl	$0x80, %esi
   c3c78: 48 8d bc 24 90 00 00 00      	leaq	0x90(%rsp), %rdi
   c3c80: e8 4b ed 06 00               	callq	0x1329d0 <__strlen_chk@plt>
   c3c85: 49 bb 7b be d4 74 f9 4e 3f a4	movabsq	$-0x5bc0b1068b2b4185, %r11 # imm = 0xA43F4EF974D4BE7B
   c3c8f: 49 ba 5e 48 9f 81 3c 6c fb ed	movabsq	$-0x120493c37e60b7a2, %r10 # imm = 0xEDFB6C3C819F485E
   c3c99: 49 b8 98 ce f3 71 7e 67 98 45	movabsq	$0x4598677e71f3ce98, %r8 # imm = 0x4598677E71F3CE98
   c3ca3: 48 8d 48 ff                  	leaq	-0x1(%rax), %rcx
   c3ca7: 80 bc 04 8f 00 00 00 0a      	cmpb	$0xa, 0x8f(%rsp,%rax)
   c3caf: 48 0f 45 c8                  	cmovneq	%rax, %rcx
   c3cb3: 0f 94 44 24 07               	sete	0x7(%rsp)
   c3cb8: 48 8d 14 29                  	leaq	(%rcx,%rbp), %rdx
   c3cbc: 48 ff c2                     	incq	%rdx
   c3cbf: 48 8b 44 24 10               	movq	0x10(%rsp), %rax
   c3cc4: 48 89 54 24 60               	movq	%rdx, 0x60(%rsp)
   c3cc9: 48 39 10                     	cmpq	%rdx, (%rax)
   c3ccc: 48 bf c5 87 5a 16 d2 c3 6d a5	movabsq	$-0x5a923c2de9a5783b, %rdi # imm = 0xA56DC3D2165A87C5
   c3cd6: 49 0f 42 fa                  	cmovbq	%r10, %rdi
   c3cda: 48 89 ac 24 80 00 00 00      	movq	%rbp, 0x80(%rsp)
   c3ce2: 48 89 4c 24 68               	movq	%rcx, 0x68(%rsp)
   c3ce7: 48 8d 04 29                  	leaq	(%rcx,%rbp), %rax
   c3ceb: 48 89 44 24 20               	movq	%rax, 0x20(%rsp)
   c3cf0: 4c 89 f5                     	movq	%r14, %rbp
   c3cf3: 4c 8b 74 24 28               	movq	0x28(%rsp), %r14
   c3cf8: e9 f5 00 00 00               	jmp	0xc3df2 <Java_com_adjust_sdk_sig_NativeLibHelper_nSign+0x8747>
   c3cfd: 48 8b 44 24 10               	movq	0x10(%rsp), %rax
   c3d02: 48 c7 00 80 00 00 00         	movq	$0x80, (%rax)
   c3d09: bf 80 00 00 00               	movl	$0x80, %edi
   c3d0e: 6a 01                        	pushq	$0x1
   c3d10: 5e                           	popq	%rsi
   c3d11: e8 6a eb 06 00               	callq	0x132880 <calloc@plt>
   c3d16: 49 bb 7b be d4 74 f9 4e 3f a4	movabsq	$-0x5bc0b1068b2b4185, %r11 # imm = 0xA43F4EF974D4BE7B
   c3d20: 49 ba 5e 48 9f 81 3c 6c fb ed	movabsq	$-0x120493c37e60b7a2, %r10 # imm = 0xEDFB6C3C819F485E
   c3d2a: 49 b8 98 ce f3 71 7e 67 98 45	movabsq	$0x4598677e71f3ce98, %r8 # imm = 0x4598677E71F3CE98
   c3d34: 48 85 c0                     	testq	%rax, %rax
   c3d37: 48 bf be ec 72 7e 6e 82 06 ee	movabsq	$-0x11f97d91818d1342, %rdi # imm = 0xEE06826E7E72ECBE
   c3d41: 48 b9 dd 78 19 f0 5d b4 36 9c	movabsq	$-0x63c94ba20fe68723, %rcx # imm = 0x9C36B45DF01978DD
   c3d4b: 48 0f 44 f9                  	cmoveq	%rcx, %rdi
   c3d4f: 48 8b 4c 24 08               	movq	0x8(%rsp), %rcx
   c3d54: 48 89 01                     	movq	%rax, (%rcx)
   c3d57: e9 96 00 00 00               	jmp	0xc3df2 <Java_com_adjust_sdk_sig_NativeLibHelper_nSign+0x8747>
   c3d5c: 48 8b 44 24 30               	movq	0x30(%rsp), %rax
   c3d61: 66 83 60 01 00               	andw	$0x0, 0x1(%rax)
   c3d66: 48 8b 4c 24 18               	movq	0x18(%rsp), %rcx
   c3d6b: 66 83 64 01 fd 00            	andw	$0x0, -0x3(%rcx,%rax)
   c3d71: 48 83 f9 07                  	cmpq	$0x7, %rcx
   c3d75: 4c 89 df                     	movq	%r11, %rdi
   c3d78: 48 b8 64 e0 bc b9 af a5 78 3a	movabsq	$0x3a78a5afb9bce064, %rax # imm = 0x3A78A5AFB9BCE064
   c3d82: 48 0f 42 f8                  	cmovbq	%rax, %rdi
   c3d86: eb 6a                        	jmp	0xc3df2 <Java_com_adjust_sdk_sig_NativeLibHelper_nSign+0x8747>
   c3d88: 48 8b 84 24 80 00 00 00      	movq	0x80(%rsp), %rax
   c3d90: 4a 8d 3c 28                  	leaq	(%rax,%r13), %rdi
   c3d94: 48 8d b4 24 90 00 00 00      	leaq	0x90(%rsp), %rsi
   c3d9c: 48 8b 54 24 68               	movq	0x68(%rsp), %rdx
   c3da1: e8 2a eb 06 00               	callq	0x1328d0 <memcpy@plt>
   c3da6: 49 bb 7b be d4 74 f9 4e 3f a4	movabsq	$-0x5bc0b1068b2b4185, %r11 # imm = 0xA43F4EF974D4BE7B
   c3db0: 49 ba 5e 48 9f 81 3c 6c fb ed	movabsq	$-0x120493c37e60b7a2, %r10 # imm = 0xEDFB6C3C819F485E
   c3dba: 49 b8 98 ce f3 71 7e 67 98 45	movabsq	$0x4598677e71f3ce98, %r8 # imm = 0x4598677E71F3CE98
   c3dc4: 48 8b 44 24 08               	movq	0x8(%rsp), %rax
   c3dc9: 48 8b 00                     	movq	(%rax), %rax
   c3dcc: f6 44 24 07 01               	testb	$0x1, 0x7(%rsp)
   c3dd1: 48 bf d3 5a 09 7b fe f9 06 5b	movabsq	$0x5b06f9fe7b095ad3, %rdi # imm = 0x5B06F9FE7B095AD3
   c3ddb: 48 b9 b3 9b a1 c2 c1 96 c9 c1	movabsq	$-0x3e36693e3d5e644d, %rcx # imm = 0xC1C996C1C2A19BB3
   c3de5: 48 0f 45 f9                  	cmovneq	%rcx, %rdi
   c3de9: 48 8b 4c 24 20               	movq	0x20(%rsp), %rcx
   c3dee: c6 04 08 00                  	movb	$0x0, (%rax,%rcx)
   c3df2: 48 89 d8                     	movq	%rbx, %rax
   c3df5: 4c 89 e9                     	movq	%r13, %rcx
   c3df8: 4c 89 e2                     	movq	%r12, %rdx
   c3dfb: e9 8f f9 ff ff               	jmp	0xc378f <Java_com_adjust_sdk_sig_NativeLibHelper_nSign+0x80e4>
   c3e00: 48 8b 44 24 08               	movq	0x8(%rsp), %rax
   c3e05: 48 8b 08                     	movq	(%rax), %rcx
   c3e08: 48 89 d8                     	movq	%rbx, %rax
   c3e0b: 4c 89 e2                     	movq	%r12, %rdx
   c3e0e: 48 bf 22 74 78 fb 19 9b 94 ea	movabsq	$-0x156b64e604878bde, %rdi # imm = 0xEA949B19FB787422
   c3e18: e9 72 f9 ff ff               	jmp	0xc378f <Java_com_adjust_sdk_sig_NativeLibHelper_nSign+0x80e4>
   c3e1d: 64 48 8b 04 25 28 00 00 00   	movq	%fs:0x28, %rax
   c3e26: 48 3b 84 24 10 01 00 00      	cmpq	0x110(%rsp), %rax
   c3e2e: 75 15                        	jne	0xc3e45 <Java_com_adjust_sdk_sig_NativeLibHelper_nSign+0x879a>
   c3e30: 48 89 d8                     	movq	%rbx, %rax
   c3e33: 48 81 c4 18 01 00 00         	addq	$0x118, %rsp            # imm = 0x118
   c3e3a: 5b                           	popq	%rbx
   c3e3b: 41 5c                        	popq	%r12
   c3e3d: 41 5d                        	popq	%r13
   c3e3f: 41 5e                        	popq	%r14
   c3e41: 41 5f                        	popq	%r15
   c3e43: 5d                           	popq	%rbp
   c3e44: c3                           	retq
   c3e45: e8 d6 e9 06 00               	callq	0x132820 <__stack_chk_fail@plt>
   c3e4a: 50                           	pushq	%rax
   c3e4b: 31 f6                        	xorl	%esi, %esi
   c3e4d: e8 0e ea 06 00               	callq	0x132860 <access@plt>
   c3e52: 85 c0                        	testl	%eax, %eax
   c3e54: 0f 94 c0                     	sete	%al
   c3e57: 59                           	popq	%rcx
   c3e58: c3                           	retq
   c3e59: cc                           	int3
   c3e5a: cc                           	int3
   c3e5b: cc                           	int3
   c3e5c: cc                           	int3
   c3e5d: cc                           	int3
   c3e5e: cc                           	int3
   c3e5f: cc                           	int3
   c3e60: 31 c0                        	xorl	%eax, %eax
   c3e62: c3                           	retq
   c3e63: 55                           	pushq	%rbp
   c3e64: 41 57                        	pushq	%r15
   c3e66: 41 56                        	pushq	%r14
   c3e68: 41 55                        	pushq	%r13
   c3e6a: 41 54                        	pushq	%r12
   c3e6c: 53                           	pushq	%rbx
   c3e6d: 48 81 ec d8 0a 00 00         	subq	$0xad8, %rsp            # imm = 0xAD8
   c3e74: 48 89 f1                     	movq	%rsi, %rcx
   c3e77: 48 89 bc 24 30 02 00 00      	movq	%rdi, 0x230(%rsp)
   c3e7f: 64 48 8b 04 25 28 00 00 00   	movq	%fs:0x28, %rax
   c3e88: 48 89 84 24 d0 0a 00 00      	movq	%rax, 0xad0(%rsp)
   c3e90: 48 8d 84 24 a8 02 00 00      	leaq	0x2a8(%rsp), %rax
   c3e98: 48 83 20 00                  	andq	$0x0, (%rax)
   c3e9c: 48 8d 84 24 a0 02 00 00      	leaq	0x2a0(%rsp), %rax
   c3ea4: 48 83 20 00                  	andq	$0x0, (%rax)
   c3ea8: 6a 04                        	pushq	$0x4
   c3eaa: 5e                           	popq	%rsi
   c3eab: 48 89 8c 24 38 02 00 00      	movq	%rcx, 0x238(%rsp)
   c3eb3: 48 89 cf                     	movq	%rcx, %rdi
   c3eb6: e8 a5 e9 06 00               	callq	0x132860 <access@plt>
   c3ebb: 85 c0                        	testl	%eax, %eax
   c3ebd: 48 b8 b9 2e a0 ad 24 09 92 fa	movabsq	$-0x56df6db525fd147, %rax # imm = 0xFA920924ADA02EB9
   c3ec7: 48 b9 bb 95 34 ae 0b e9 42 a8	movabsq	$-0x57bd16f451cb6a45, %rcx # imm = 0xA842E90BAE3495BB
   c3ed1: 48 0f 44 c8                  	cmoveq	%rax, %rcx
   c3ed5: 48 89 8c 24 88 02 00 00      	movq	%rcx, 0x288(%rsp)
   c3edd: 48 b8 dd 95 db 78 02 9e 21 11	movabsq	$0x11219e0278db95dd, %rax # imm = 0x11219E0278DB95DD
   c3ee7: 89 8c 24 ec 00 00 00         	movl	%ecx, 0xec(%rsp)
   c3eee: 49 89 c5                     	movq	%rax, %r13
   c3ef1: 4c 89 a4 24 80 00 00 00      	movq	%r12, 0x80(%rsp)
   c3ef9: 48 8b 04 24                  	movq	(%rsp), %rax
   c3efd: 48 89 44 24 68               	movq	%rax, 0x68(%rsp)
   c3f02: 48 8b 44 24 08               	movq	0x8(%rsp), %rax
   c3f07: 48 89 44 24 78               	movq	%rax, 0x78(%rsp)
   c3f0c: 48 8b 44 24 10               	movq	0x10(%rsp), %rax
   c3f11: 48 89 44 24 70               	movq	%rax, 0x70(%rsp)
   c3f16: 4c 8b 5c 24 18               	movq	0x18(%rsp), %r11
   c3f1b: 48 8b 4c 24 20               	movq	0x20(%rsp), %rcx
   c3f20: 48 8b 54 24 28               	movq	0x28(%rsp), %rdx
   c3f25: 48 8b 6c 24 30               	movq	0x30(%rsp), %rbp
   c3f2a: 48 8b 44 24 38               	movq	0x38(%rsp), %rax
   c3f2f: 48 89 84 24 88 00 00 00      	movq	%rax, 0x88(%rsp)
   c3f37: 48 8b 44 24 40               	movq	0x40(%rsp), %rax
   c3f3c: 48 89 84 24 98 00 00 00      	movq	%rax, 0x98(%rsp)
   c3f44: 48 8b 44 24 48               	movq	0x48(%rsp), %rax
   c3f49: 48 89 84 24 90 00 00 00      	movq	%rax, 0x90(%rsp)
   c3f51: 48 8b 5c 24 50               	movq	0x50(%rsp), %rbx
   c3f56: 48 8b 44 24 58               	movq	0x58(%rsp), %rax
   c3f5b: 48 89 44 24 60               	movq	%rax, 0x60(%rsp)
   c3f60: 48 b8 70 fb 90 79 0d 21 0a 49	movabsq	$0x490a210d7990fb70, %rax # imm = 0x490A210D7990FB70
   c3f6a: 49 b8 0e 2e 26 fa 0d b2 0a 84	movabsq	$-0x7bf54df205d9d1f2, %r8 # imm = 0x840AB20DFA262E0E
   c3f74: 4d 39 c5                     	cmpq	%r8, %r13
   c3f77: 0f 84 71 ff ff ff            	je	0xc3eee <Java_com_adjust_sdk_sig_NativeLibHelper_nSign+0x8843>
   c3f7d: 4d 89 f1                     	movq	%r14, %r9
   c3f80: 49 89 ff                     	movq	%rdi, %r15
   c3f83: 4c 89 d6                     	movq	%r10, %rsi
   c3f86: 48 89 9c 24 d0 00 00 00      	movq	%rbx, 0xd0(%rsp)
   c3f8e: 48 89 ac 24 a8 00 00 00      	movq	%rbp, 0xa8(%rsp)
   c3f96: 48 89 94 24 a0 00 00 00      	movq	%rdx, 0xa0(%rsp)
   c3f9e: 48 89 8c 24 b0 00 00 00      	movq	%rcx, 0xb0(%rsp)
   c3fa6: 4c 89 9c 24 b8 00 00 00      	movq	%r11, 0xb8(%rsp)
   c3fae: 4c 89 94 24 c0 00 00 00      	movq	%r10, 0xc0(%rsp)
   c3fb6: 48 89 bc 24 c8 00 00 00      	movq	%rdi, 0xc8(%rsp)
   c3fbe: 4c 89 b4 24 d8 00 00 00      	movq	%r14, 0xd8(%rsp)
   c3fc6: 48 b8 29 8e c9 3a ae b8 fd 85	movabsq	$-0x7a024751c53671d7, %rax # imm = 0x85FDB8AE3AC98E29
   c3fd0: 49 39 c5                     	cmpq	%rax, %r13
   c3fd3: 0f 84 3a 5d 00 00            	je	0xc9d13 <Java_com_adjust_sdk_sig_NativeLibHelper_nSign+0xe668>
   c3fd9: 48 b8 b5 32 df 83 e4 7d 1b 86	movabsq	$-0x79e4821b7c20cd4b, %rax # imm = 0x861B7DE483DF32B5
   c3fe3: 49 39 c5                     	cmpq	%rax, %r13
   c3fe6: 4c 8b b4 24 d8 00 00 00      	movq	0xd8(%rsp), %r14
   c3fee: 48 8b 9c 24 d0 00 00 00      	movq	0xd0(%rsp), %rbx
   c3ff6: 0f 84 8c 2c 00 00            	je	0xc6c88 <Java_com_adjust_sdk_sig_NativeLibHelper_nSign+0xb5dd>
   c3ffc: 48 b8 6d bd a5 e5 0c 97 89 86	movabsq	$-0x797668f31a5a4293, %rax # imm = 0x8689970CE5A5BD6D
   c4006: 49 39 c5                     	cmpq	%rax, %r13
   c4009: 0f 84 0c 45 00 00            	je	0xc851b <Java_com_adjust_sdk_sig_NativeLibHelper_nSign+0xce70>
   c400f: 48 8b 44 24 60               	movq	0x60(%rsp), %rax
   c4014: 48 89 44 24 58               	movq	%rax, 0x58(%rsp)
   c4019: 48 89 d8                     	movq	%rbx, %rax
   c401c: 48 89 5c 24 50               	movq	%rbx, 0x50(%rsp)
   c4021: 48 8b 84 24 90 00 00 00      	movq	0x90(%rsp), %rax
   c4029: 48 89 44 24 48               	movq	%rax, 0x48(%rsp)
   c402e: 48 8b 84 24 98 00 00 00      	movq	0x98(%rsp), %rax
   c4036: 48 89 44 24 40               	movq	%rax, 0x40(%rsp)
   c403b: 48 8b 84 24 88 00 00 00      	movq	0x88(%rsp), %rax
   c4043: 48 89 44 24 38               	movq	%rax, 0x38(%rsp)
   c4048: 48 8b 84 24 28 02 00 00      	movq	0x228(%rsp), %rax
   c4050: 48 89 44 24 30               	movq	%rax, 0x30(%rsp)
   c4055: 48 8b 84 24 18 02 00 00      	movq	0x218(%rsp), %rax
   c405d: 48 89 44 24 28               	movq	%rax, 0x28(%rsp)
   c4062: 48 8b 84 24 20 02 00 00      	movq	0x220(%rsp), %rax
   c406a: 48 89 44 24 20               	movq	%rax, 0x20(%rsp)
   c406f: 48 8b 84 24 b8 00 00 00      	movq	0xb8(%rsp), %rax
   c4077: 48 89 44 24 18               	movq	%rax, 0x18(%rsp)
   c407c: 48 8b 44 24 70               	movq	0x70(%rsp), %rax
   c4081: 48 89 44 24 10               	movq	%rax, 0x10(%rsp)
   c4086: 48 8b 44 24 78               	movq	0x78(%rsp), %rax
   c408b: 48 89 44 24 08               	movq	%rax, 0x8(%rsp)
   c4090: 48 8b 44 24 68               	movq	0x68(%rsp), %rax
   c4095: 48 89 04 24                  	movq	%rax, (%rsp)
   c4099: 4c 8b 94 24 c0 00 00 00      	movq	0xc0(%rsp), %r10
   c40a1: 48 8b bc 24 c8 00 00 00      	movq	0xc8(%rsp), %rdi
   c40a9: 4c 8b a4 24 80 00 00 00      	movq	0x80(%rsp), %r12
   c40b1: 48 b8 82 0d a7 b8 7e 93 6d b6	movabsq	$-0x49926c814758f27e, %rax # imm = 0xB66D937EB8A70D82
   c40bb: 49 b8 1e 15 24 f8 66 05 79 94	movabsq	$-0x6b86fa9907dbeae2, %r8 # imm = 0x94790566F824151E
   c40c5: 4d 39 c5                     	cmpq	%r8, %r13
   c40c8: 0f 84 20 fe ff ff            	je	0xc3eee <Java_com_adjust_sdk_sig_NativeLibHelper_nSign+0x8843>
   c40ce: 48 b8 a0 8c 1e 49 5d 28 de 95	movabsq	$-0x6a21d7a2b6e17360, %rax # imm = 0x95DE285D491E8CA0
   c40d8: 49 39 c5                     	cmpq	%rax, %r13
   c40db: 0f 84 de 53 00 00            	je	0xc94bf <Java_com_adjust_sdk_sig_NativeLibHelper_nSign+0xde14>
   c40e1: 48 b8 a5 e7 cf 78 48 52 9c 96	movabsq	$-0x6963adb78730185b, %rax # imm = 0x969C524878CFE7A5
   c40eb: 49 39 c5                     	cmpq	%rax, %r13
   c40ee: 4c 8b b4 24 d8 00 00 00      	movq	0xd8(%rsp), %r14
   c40f6: 48 8b 9c 24 d0 00 00 00      	movq	0xd0(%rsp), %rbx
   c40fe: 0f 84 94 51 00 00            	je	0xc9298 <Java_com_adjust_sdk_sig_NativeLibHelper_nSign+0xdbed>
   c4104: 48 b8 2a 04 4d af c1 b6 ee 96	movabsq	$-0x6911493e50b2fbd6, %rax # imm = 0x96EEB6C1AF4D042A
   c410e: 49 39 c5                     	cmpq	%rax, %r13
   c4111: 0f 84 5f 57 00 00            	je	0xc9876 <Java_com_adjust_sdk_sig_NativeLibHelper_nSign+0xe1cb>
   c4117: 48 b8 0c 0e 28 d1 5a 5a fb 96	movabsq	$-0x6904a5a52ed7f1f4, %rax # imm = 0x96FB5A5AD1280E0C
   c4121: 49 39 c5                     	cmpq	%rax, %r13
   c4124: 0f 84 5c 2a 00 00            	je	0xc6b86 <Java_com_adjust_sdk_sig_NativeLibHelper_nSign+0xb4db>
   c412a: 48 8b 44 24 60               	movq	0x60(%rsp), %rax
   c412f: 48 89 44 24 58               	movq	%rax, 0x58(%rsp)
   c4134: 48 89 d8                     	movq	%rbx, %rax
   c4137: 48 89 5c 24 50               	movq	%rbx, 0x50(%rsp)
   c413c: 48 8b 84 24 90 00 00 00      	movq	0x90(%rsp), %rax
   c4144: 48 89 44 24 48               	movq	%rax, 0x48(%rsp)
   c4149: 48 8b 84 24 98 00 00 00      	movq	0x98(%rsp), %rax
   c4151: 48 89 44 24 40               	movq	%rax, 0x40(%rsp)
   c4156: 48 8b 84 24 88 00 00 00      	movq	0x88(%rsp), %rax
   c415e: 48 89 44 24 38               	movq	%rax, 0x38(%rsp)
   c4163: 48 8b 84 24 a8 00 00 00      	movq	0xa8(%rsp), %rax
   c416b: 48 89 44 24 30               	movq	%rax, 0x30(%rsp)
   c4170: 48 8b 84 24 a0 00 00 00      	movq	0xa0(%rsp), %rax
   c4178: 48 89 44 24 28               	movq	%rax, 0x28(%rsp)
   c417d: 48 8b 84 24 b0 00 00 00      	movq	0xb0(%rsp), %rax
   c4185: 48 89 44 24 20               	movq	%rax, 0x20(%rsp)
   c418a: 48 8b 84 24 b8 00 00 00      	movq	0xb8(%rsp), %rax
   c4192: 48 89 44 24 18               	movq	%rax, 0x18(%rsp)
   c4197: 48 8b 44 24 70               	movq	0x70(%rsp), %rax
   c419c: 48 89 44 24 10               	movq	%rax, 0x10(%rsp)
   c41a1: 48 8b 44 24 78               	movq	0x78(%rsp), %rax
   c41a6: 48 89 44 24 08               	movq	%rax, 0x8(%rsp)
   c41ab: 48 8b 44 24 68               	movq	0x68(%rsp), %rax
   c41b0: 48 89 04 24                  	movq	%rax, (%rsp)
   c41b4: 4c 8b 94 24 c0 00 00 00      	movq	0xc0(%rsp), %r10
   c41bc: 48 8b bc 24 c8 00 00 00      	movq	0xc8(%rsp), %rdi
   c41c4: 4c 8b a4 24 80 00 00 00      	movq	0x80(%rsp), %r12
   c41cc: 48 b8 c9 fa 9c 1b 2d 13 4c 65	movabsq	$0x654c132d1b9cfac9, %rax # imm = 0x654C132D1B9CFAC9
   c41d6: 49 b8 2d 2f 9f 35 ce 0e 8f 98	movabsq	$-0x6770f131ca60d0d3, %r8 # imm = 0x988F0ECE359F2F2D
   c41e0: 4d 39 c5                     	cmpq	%r8, %r13
   c41e3: 0f 84 05 fd ff ff            	je	0xc3eee <Java_com_adjust_sdk_sig_NativeLibHelper_nSign+0x8843>
   c41e9: 48 b8 ff f4 15 3b 6d 64 68 99	movabsq	$-0x66979b92c4ea0b01, %rax # imm = 0x9968646D3B15F4FF
   c41f3: 49 39 c5                     	cmpq	%rax, %r13
   c41f6: 0f 84 f3 5b 00 00            	je	0xc9def <Java_com_adjust_sdk_sig_NativeLibHelper_nSign+0xe744>
   c41fc: 48 8b 44 24 60               	movq	0x60(%rsp), %rax
   c4201: 48 89 44 24 58               	movq	%rax, 0x58(%rsp)
   c4206: 48 8b 84 24 d0 00 00 00      	movq	0xd0(%rsp), %rax
   c420e: 48 89 44 24 50               	movq	%rax, 0x50(%rsp)
   c4213: 48 8b 84 24 90 00 00 00      	movq	0x90(%rsp), %rax
   c421b: 48 89 44 24 48               	movq	%rax, 0x48(%rsp)
   c4220: 48 8b 84 24 98 00 00 00      	movq	0x98(%rsp), %rax
   c4228: 48 89 44 24 40               	movq	%rax, 0x40(%rsp)
   c422d: 48 8b 84 24 50 01 00 00      	movq	0x150(%rsp), %rax
   c4235: 48 89 44 24 38               	movq	%rax, 0x38(%rsp)
   c423a: 48 8b 84 24 a8 00 00 00      	movq	0xa8(%rsp), %rax
   c4242: 48 89 44 24 30               	movq	%rax, 0x30(%rsp)
   c4247: 48 8b 84 24 a0 00 00 00      	movq	0xa0(%rsp), %rax
   c424f: 48 89 44 24 28               	movq	%rax, 0x28(%rsp)
   c4254: 48 8b 84 24 b0 00 00 00      	movq	0xb0(%rsp), %rax
   c425c: 48 89 44 24 20               	movq	%rax, 0x20(%rsp)
   c4261: 48 8b 84 24 b8 00 00 00      	movq	0xb8(%rsp), %rax
   c4269: 48 89 44 24 18               	movq	%rax, 0x18(%rsp)
   c426e: 48 8b 44 24 70               	movq	0x70(%rsp), %rax
   c4273: 48 89 44 24 10               	movq	%rax, 0x10(%rsp)
   c4278: 48 8b 44 24 78               	movq	0x78(%rsp), %rax
   c427d: 48 89 44 24 08               	movq	%rax, 0x8(%rsp)
   c4282: 48 8b 44 24 68               	movq	0x68(%rsp), %rax
   c4287: 48 89 04 24                  	movq	%rax, (%rsp)
   c428b: 4c 8b 94 24 c0 00 00 00      	movq	0xc0(%rsp), %r10
   c4293: 48 8b bc 24 c8 00 00 00      	movq	0xc8(%rsp), %rdi
   c429b: 4c 8b b4 24 d8 00 00 00      	movq	0xd8(%rsp), %r14
   c42a3: 4c 8b a4 24 80 00 00 00      	movq	0x80(%rsp), %r12
   c42ab: 48 b8 0c 0e 28 d1 5a 5a fb 96	movabsq	$-0x6904a5a52ed7f1f4, %rax # imm = 0x96FB5A5AD1280E0C
   c42b5: 49 b8 a5 9a c9 31 93 f1 c0 9a	movabsq	$-0x653f0e6cce36655b, %r8 # imm = 0x9AC0F19331C99AA5
   c42bf: 4d 39 c5                     	cmpq	%r8, %r13
   c42c2: 0f 84 26 fc ff ff            	je	0xc3eee <Java_com_adjust_sdk_sig_NativeLibHelper_nSign+0x8843>
   c42c8: 48 b8 dd 78 19 f0 5d b4 36 9c	movabsq	$-0x63c94ba20fe68723, %rax # imm = 0x9C36B45DF01978DD
   c42d2: 49 39 c5                     	cmpq	%rax, %r13
   c42d5: 0f 84 0c 27 00 00            	je	0xc69e7 <Java_com_adjust_sdk_sig_NativeLibHelper_nSign+0xb33c>
   c42db: 48 b8 9e 92 04 ed ff 6f 39 9e	movabsq	$-0x61c6900012fb6d62, %rax # imm = 0x9E396FFFED04929E
   c42e5: 49 39 c5                     	cmpq	%rax, %r13
   c42e8: 4c 8b b4 24 d8 00 00 00      	movq	0xd8(%rsp), %r14
   c42f0: 48 8b 9c 24 d0 00 00 00      	movq	0xd0(%rsp), %rbx
   c42f8: 0f 84 ab 59 00 00            	je	0xc9ca9 <Java_com_adjust_sdk_sig_NativeLibHelper_nSign+0xe5fe>
   c42fe: 48 b8 29 ba 56 c7 11 e6 7e a1	movabsq	$-0x5e8119ee38a945d7, %rax # imm = 0xA17EE611C756BA29
   c4308: 49 39 c5                     	cmpq	%rax, %r13
   c430b: 48 8b 8c 24 a8 00 00 00      	movq	0xa8(%rsp), %rcx
   c4313: 0f 84 7e 4b 00 00            	je	0xc8e97 <Java_com_adjust_sdk_sig_NativeLibHelper_nSign+0xd7ec>
   c4319: 48 8b 44 24 60               	movq	0x60(%rsp), %rax
   c431e: 48 89 44 24 58               	movq	%rax, 0x58(%rsp)
   c4323: 48 89 d8                     	movq	%rbx, %rax
   c4326: 48 89 5c 24 50               	movq	%rbx, 0x50(%rsp)
   c432b: 48 8b 84 24 90 00 00 00      	movq	0x90(%rsp), %rax
   c4333: 48 89 44 24 48               	movq	%rax, 0x48(%rsp)
   c4338: 48 8b 84 24 98 00 00 00      	movq	0x98(%rsp), %rax
   c4340: 48 89 44 24 40               	movq	%rax, 0x40(%rsp)
   c4345: 48 8b 84 24 88 00 00 00      	movq	0x88(%rsp), %rax
   c434d: 48 89 44 24 38               	movq	%rax, 0x38(%rsp)
   c4352: 48 89 4c 24 30               	movq	%rcx, 0x30(%rsp)
   c4357: 48 8b 84 24 a0 00 00 00      	movq	0xa0(%rsp), %rax
   c435f: 48 89 44 24 28               	movq	%rax, 0x28(%rsp)
   c4364: 48 8b 84 24 b0 00 00 00      	movq	0xb0(%rsp), %rax
   c436c: 48 89 44 24 20               	movq	%rax, 0x20(%rsp)
   c4371: 48 8b 84 24 b8 00 00 00      	movq	0xb8(%rsp), %rax
   c4379: 48 89 44 24 18               	movq	%rax, 0x18(%rsp)
   c437e: 48 8b 44 24 70               	movq	0x70(%rsp), %rax
   c4383: 48 89 44 24 10               	movq	%rax, 0x10(%rsp)
   c4388: 48 8b 44 24 78               	movq	0x78(%rsp), %rax
   c438d: 48 89 44 24 08               	movq	%rax, 0x8(%rsp)
   c4392: 48 8b 44 24 68               	movq	0x68(%rsp), %rax
   c4397: 48 89 04 24                  	movq	%rax, (%rsp)
   c439b: 4c 8b 94 24 c0 00 00 00      	movq	0xc0(%rsp), %r10
   c43a3: 48 8b bc 24 c8 00 00 00      	movq	0xc8(%rsp), %rdi
   c43ab: 4c 8b a4 24 48 01 00 00      	movq	0x148(%rsp), %r12
   c43b3: 48 b8 1b 05 78 c8 3f cd 2b c9	movabsq	$-0x36d432c03787fae5, %rax # imm = 0xC92BCD3FC878051B
   c43bd: 49 b8 7a 42 d0 11 d8 18 d8 a1	movabsq	$-0x5e27e727ee2fbd86, %r8 # imm = 0xA1D818D811D0427A
   c43c7: 4d 39 c5                     	cmpq	%r8, %r13
   c43ca: 0f 84 1e fb ff ff            	je	0xc3eee <Java_com_adjust_sdk_sig_NativeLibHelper_nSign+0x8843>
   c43d0: 48 b8 7b be d4 74 f9 4e 3f a4	movabsq	$-0x5bc0b1068b2b4185, %rax # imm = 0xA43F4EF974D4BE7B
   c43da: 49 39 c5                     	cmpq	%rax, %r13
   c43dd: 0f 84 ed 49 00 00            	je	0xc8dd0 <Java_com_adjust_sdk_sig_NativeLibHelper_nSign+0xd725>
   c43e3: 48 8b 44 24 60               	movq	0x60(%rsp), %rax
   c43e8: 48 89 44 24 58               	movq	%rax, 0x58(%rsp)
   c43ed: 48 8b ac 24 d0 00 00 00      	movq	0xd0(%rsp), %rbp
   c43f5: 48 89 e8                     	movq	%rbp, %rax
   c43f8: 48 89 6c 24 50               	movq	%rbp, 0x50(%rsp)
   c43fd: 48 8b 84 24 90 00 00 00      	movq	0x90(%rsp), %rax
   c4405: 48 89 44 24 48               	movq	%rax, 0x48(%rsp)
   c440a: 48 8b 84 24 98 00 00 00      	movq	0x98(%rsp), %rax
   c4412: 48 89 44 24 40               	movq	%rax, 0x40(%rsp)
   c4417: 48 8b 84 24 88 00 00 00      	movq	0x88(%rsp), %rax
   c441f: 48 89 44 24 38               	movq	%rax, 0x38(%rsp)
   c4424: 48 8b 94 24 a8 00 00 00      	movq	0xa8(%rsp), %rdx
   c442c: 48 89 54 24 30               	movq	%rdx, 0x30(%rsp)
   c4431: 48 8b 8c 24 a0 00 00 00      	movq	0xa0(%rsp), %rcx
   c4439: 48 89 4c 24 28               	movq	%rcx, 0x28(%rsp)
   c443e: 48 8b 9c 24 b0 00 00 00      	movq	0xb0(%rsp), %rbx
   c4446: 48 89 5c 24 20               	movq	%rbx, 0x20(%rsp)
   c444b: 4c 8b 9c 24 b8 00 00 00      	movq	0xb8(%rsp), %r11
   c4453: 4c 89 5c 24 18               	movq	%r11, 0x18(%rsp)
   c4458: 48 8b 44 24 70               	movq	0x70(%rsp), %rax
   c445d: 48 89 44 24 10               	movq	%rax, 0x10(%rsp)
   c4462: 48 8b 44 24 78               	movq	0x78(%rsp), %rax
   c4467: 48 89 44 24 08               	movq	%rax, 0x8(%rsp)
   c446c: 48 8b 44 24 68               	movq	0x68(%rsp), %rax
   c4471: 48 89 04 24                  	movq	%rax, (%rsp)
   c4475: 48 8b b4 24 c0 00 00 00      	movq	0xc0(%rsp), %rsi
   c447d: 49 89 f2                     	movq	%rsi, %r10
   c4480: 4c 8b bc 24 c8 00 00 00      	movq	0xc8(%rsp), %r15
   c4488: 4c 89 ff                     	movq	%r15, %rdi
   c448b: 4c 8b 8c 24 d8 00 00 00      	movq	0xd8(%rsp), %r9
   c4493: 4d 89 ce                     	movq	%r9, %r14
   c4496: 4c 8b a4 24 80 00 00 00      	movq	0x80(%rsp), %r12
   c449e: 48 b8 5e 48 9f 81 3c 6c fb ed	movabsq	$-0x120493c37e60b7a2, %rax # imm = 0xEDFB6C3C819F485E
   c44a8: 49 b8 c5 87 5a 16 d2 c3 6d a5	movabsq	$-0x5a923c2de9a5783b, %r8 # imm = 0xA56DC3D2165A87C5
   c44b2: 4d 39 c5                     	cmpq	%r8, %r13
   c44b5: 0f 84 33 fa ff ff            	je	0xc3eee <Java_com_adjust_sdk_sig_NativeLibHelper_nSign+0x8843>
   c44bb: 48 8b 44 24 60               	movq	0x60(%rsp), %rax
   c44c0: 48 89 44 24 58               	movq	%rax, 0x58(%rsp)
   c44c5: 48 89 e8                     	movq	%rbp, %rax
   c44c8: 48 89 6c 24 50               	movq	%rbp, 0x50(%rsp)
   c44cd: 48 8b 84 24 90 00 00 00      	movq	0x90(%rsp), %rax
   c44d5: 48 89 44 24 48               	movq	%rax, 0x48(%rsp)
   c44da: 48 8b 84 24 98 00 00 00      	movq	0x98(%rsp), %rax
   c44e2: 48 89 44 24 40               	movq	%rax, 0x40(%rsp)
   c44e7: 48 8b 84 24 88 00 00 00      	movq	0x88(%rsp), %rax
   c44ef: 48 89 44 24 38               	movq	%rax, 0x38(%rsp)
   c44f4: 48 89 54 24 30               	movq	%rdx, 0x30(%rsp)
   c44f9: 48 89 4c 24 28               	movq	%rcx, 0x28(%rsp)
   c44fe: 48 89 5c 24 20               	movq	%rbx, 0x20(%rsp)
   c4503: 4c 89 5c 24 18               	movq	%r11, 0x18(%rsp)
   c4508: 48 8b 44 24 70               	movq	0x70(%rsp), %rax
   c450d: 48 89 44 24 10               	movq	%rax, 0x10(%rsp)
   c4512: 48 8b 44 24 78               	movq	0x78(%rsp), %rax
   c4517: 48 89 44 24 08               	movq	%rax, 0x8(%rsp)
   c451c: 48 8b 44 24 68               	movq	0x68(%rsp), %rax
   c4521: 48 89 04 24                  	movq	%rax, (%rsp)
   c4525: 49 89 f2                     	movq	%rsi, %r10
   c4528: 4c 89 ff                     	movq	%r15, %rdi
   c452b: 4d 89 ce                     	movq	%r9, %r14
   c452e: 4c 8b a4 24 80 00 00 00      	movq	0x80(%rsp), %r12
   c4536: 48 b8 4a e9 77 1d c7 6b f5 3e	movabsq	$0x3ef56bc71d77e94a, %rax # imm = 0x3EF56BC71D77E94A
   c4540: 49 b8 d0 2a aa e4 90 1c 03 a7	movabsq	$-0x58fce36f1b55d530, %r8 # imm = 0xA7031C90E4AA2AD0
   c454a: 4d 39 c5                     	cmpq	%r8, %r13
   c454d: 0f 84 9b f9 ff ff            	je	0xc3eee <Java_com_adjust_sdk_sig_NativeLibHelper_nSign+0x8843>
   c4553: 48 8b 44 24 60               	movq	0x60(%rsp), %rax
   c4558: 48 89 44 24 58               	movq	%rax, 0x58(%rsp)
   c455d: 48 89 e8                     	movq	%rbp, %rax
   c4560: 48 89 6c 24 50               	movq	%rbp, 0x50(%rsp)
   c4565: 48 8b 84 24 90 02 00 00      	movq	0x290(%rsp), %rax
   c456d: 48 89 44 24 48               	movq	%rax, 0x48(%rsp)
   c4572: 48 8b 84 24 98 02 00 00      	movq	0x298(%rsp), %rax
   c457a: 48 89 44 24 40               	movq	%rax, 0x40(%rsp)
   c457f: 48 8b 84 24 88 00 00 00      	movq	0x88(%rsp), %rax
   c4587: 48 89 44 24 38               	movq	%rax, 0x38(%rsp)
   c458c: 48 89 54 24 30               	movq	%rdx, 0x30(%rsp)
   c4591: 48 89 4c 24 28               	movq	%rcx, 0x28(%rsp)
   c4596: 48 89 5c 24 20               	movq	%rbx, 0x20(%rsp)
   c459b: 4c 89 5c 24 18               	movq	%r11, 0x18(%rsp)
   c45a0: 48 8b 44 24 70               	movq	0x70(%rsp), %rax
   c45a5: 48 89 44 24 10               	movq	%rax, 0x10(%rsp)
   c45aa: 48 8b 44 24 78               	movq	0x78(%rsp), %rax
   c45af: 48 89 44 24 08               	movq	%rax, 0x8(%rsp)
   c45b4: 48 8b 44 24 68               	movq	0x68(%rsp), %rax
   c45b9: 48 89 04 24                  	movq	%rax, (%rsp)
   c45bd: 49 89 f2                     	movq	%rsi, %r10
   c45c0: 4c 89 ff                     	movq	%r15, %rdi
   c45c3: 4d 89 ce                     	movq	%r9, %r14
   c45c6: 4c 8b a4 24 80 00 00 00      	movq	0x80(%rsp), %r12
   c45ce: 48 b8 bc 98 47 ae e0 53 37 50	movabsq	$0x503753e0ae4798bc, %rax # imm = 0x503753E0AE4798BC
   c45d8: 49 b8 ad 7a c8 9a 0f 6f 5a a7	movabsq	$-0x58a590f065378553, %r8 # imm = 0xA75A6F0F9AC87AAD
   c45e2: 4d 39 c5                     	cmpq	%r8, %r13
   c45e5: 0f 84 03 f9 ff ff            	je	0xc3eee <Java_com_adjust_sdk_sig_NativeLibHelper_nSign+0x8843>
   c45eb: 48 8b 44 24 60               	movq	0x60(%rsp), %rax
   c45f0: 48 89 44 24 58               	movq	%rax, 0x58(%rsp)
   c45f5: 48 89 e8                     	movq	%rbp, %rax
   c45f8: 48 89 6c 24 50               	movq	%rbp, 0x50(%rsp)
   c45fd: 48 8b 84 24 90 00 00 00      	movq	0x90(%rsp), %rax
   c4605: 48 89 44 24 48               	movq	%rax, 0x48(%rsp)
   c460a: 48 8b 84 24 98 00 00 00      	movq	0x98(%rsp), %rax
   c4612: 48 89 44 24 40               	movq	%rax, 0x40(%rsp)
   c4617: 48 8b 84 24 88 00 00 00      	movq	0x88(%rsp), %rax
   c461f: 48 89 44 24 38               	movq	%rax, 0x38(%rsp)
   c4624: 48 89 54 24 30               	movq	%rdx, 0x30(%rsp)
   c4629: 48 89 4c 24 28               	movq	%rcx, 0x28(%rsp)
   c462e: 48 89 5c 24 20               	movq	%rbx, 0x20(%rsp)
   c4633: 4c 89 5c 24 18               	movq	%r11, 0x18(%rsp)
   c4638: 48 8b 44 24 70               	movq	0x70(%rsp), %rax
   c463d: 48 89 44 24 10               	movq	%rax, 0x10(%rsp)
   c4642: 48 8b 44 24 78               	movq	0x78(%rsp), %rax
   c4647: 48 89 44 24 08               	movq	%rax, 0x8(%rsp)
   c464c: 48 8b 44 24 68               	movq	0x68(%rsp), %rax
   c4651: 48 89 04 24                  	movq	%rax, (%rsp)
   c4655: 49 89 f2                     	movq	%rsi, %r10
   c4658: 4c 89 ff                     	movq	%r15, %rdi
   c465b: 4d 89 ce                     	movq	%r9, %r14
   c465e: 4c 8b a4 24 80 00 00 00      	movq	0x80(%rsp), %r12
   c4666: 48 b8 1c a3 2d 84 b6 f6 24 47	movabsq	$0x4724f6b6842da31c, %rax # imm = 0x4724F6B6842DA31C
   c4670: 49 b8 bb 95 34 ae 0b e9 42 a8	movabsq	$-0x57bd16f451cb6a45, %r8 # imm = 0xA842E90BAE3495BB
   c467a: 4d 39 c5                     	cmpq	%r8, %r13
   c467d: 0f 84 6b f8 ff ff            	je	0xc3eee <Java_com_adjust_sdk_sig_NativeLibHelper_nSign+0x8843>
   c4683: 48 b8 0d 38 ba 0f 13 39 dc ab	movabsq	$-0x5423c6ecf045c7f3, %rax # imm = 0xABDC39130FBA380D
   c468d: 49 39 c5                     	cmpq	%rax, %r13
   c4690: 0f 84 fd 49 00 00            	je	0xc9093 <Java_com_adjust_sdk_sig_NativeLibHelper_nSign+0xd9e8>
   c4696: 48 b8 25 6c bb 14 3f ed 49 ad	movabsq	$-0x52b612c0eb4493db, %rax # imm = 0xAD49ED3F14BB6C25
   c46a0: 49 39 c5                     	cmpq	%rax, %r13
   c46a3: 4c 8b b4 24 d8 00 00 00      	movq	0xd8(%rsp), %r14
   c46ab: 48 8b 9c 24 d0 00 00 00      	movq	0xd0(%rsp), %rbx
   c46b3: 0f 84 b5 49 00 00            	je	0xc906e <Java_com_adjust_sdk_sig_NativeLibHelper_nSign+0xd9c3>
   c46b9: 48 b8 e7 5a 3b b2 7c 80 36 ae	movabsq	$-0x51c97f834dc4a519, %rax # imm = 0xAE36807CB23B5AE7
   c46c3: 49 39 c5                     	cmpq	%rax, %r13
   c46c6: 0f 84 3a 28 00 00            	je	0xc6f06 <Java_com_adjust_sdk_sig_NativeLibHelper_nSign+0xb85b>
   c46cc: 48 b8 cd 48 04 51 da 59 8d b0	movabsq	$-0x4f72a625aefbb733, %rax # imm = 0xB08D59DA510448CD
   c46d6: 49 39 c5                     	cmpq	%rax, %r13
   c46d9: 0f 84 70 2c 00 00            	je	0xc734f <Java_com_adjust_sdk_sig_NativeLibHelper_nSign+0xbca4>
   c46df: 48 8b 44 24 60               	movq	0x60(%rsp), %rax
   c46e4: 48 89 44 24 58               	movq	%rax, 0x58(%rsp)
   c46e9: 48 89 d8                     	movq	%rbx, %rax
   c46ec: 48 89 5c 24 50               	movq	%rbx, 0x50(%rsp)
   c46f1: 48 8b 84 24 90 00 00 00      	movq	0x90(%rsp), %rax
   c46f9: 48 89 44 24 48               	movq	%rax, 0x48(%rsp)
   c46fe: 48 8b 84 24 98 00 00 00      	movq	0x98(%rsp), %rax
   c4706: 48 89 44 24 40               	movq	%rax, 0x40(%rsp)
   c470b: 48 8b 84 24 88 00 00 00      	movq	0x88(%rsp), %rax
   c4713: 48 89 44 24 38               	movq	%rax, 0x38(%rsp)
   c4718: 48 8b 84 24 a8 00 00 00      	movq	0xa8(%rsp), %rax
   c4720: 48 89 44 24 30               	movq	%rax, 0x30(%rsp)
   c4725: 48 8b 84 24 a0 00 00 00      	movq	0xa0(%rsp), %rax
   c472d: 48 89 44 24 28               	movq	%rax, 0x28(%rsp)
   c4732: 48 8b 84 24 b0 00 00 00      	movq	0xb0(%rsp), %rax
   c473a: 48 89 44 24 20               	movq	%rax, 0x20(%rsp)
   c473f: 48 8b 84 24 b8 00 00 00      	movq	0xb8(%rsp), %rax
   c4747: 48 89 44 24 18               	movq	%rax, 0x18(%rsp)
   c474c: 48 8b 44 24 70               	movq	0x70(%rsp), %rax
   c4751: 48 89 44 24 10               	movq	%rax, 0x10(%rsp)
   c4756: 48 8b 44 24 78               	movq	0x78(%rsp), %rax
   c475b: 48 89 44 24 08               	movq	%rax, 0x8(%rsp)
   c4760: 48 8b 44 24 68               	movq	0x68(%rsp), %rax
   c4765: 48 89 04 24                  	movq	%rax, (%rsp)
   c4769: 4c 8b 94 24 c0 00 00 00      	movq	0xc0(%rsp), %r10
   c4771: 48 8b bc 24 c8 00 00 00      	movq	0xc8(%rsp), %rdi
   c4779: 4c 8b a4 24 80 00 00 00      	movq	0x80(%rsp), %r12
   c4781: 48 b8 c0 25 03 0f ff 6e af 76	movabsq	$0x76af6eff0f0325c0, %rax # imm = 0x76AF6EFF0F0325C0
   c478b: 49 b8 d3 f7 5b 43 e3 71 bb b0	movabsq	$-0x4f448e1cbca4082d, %r8 # imm = 0xB0BB71E3435BF7D3
   c4795: 4d 39 c5                     	cmpq	%r8, %r13
   c4798: 0f 84 50 f7 ff ff            	je	0xc3eee <Java_com_adjust_sdk_sig_NativeLibHelper_nSign+0x8843>
   c479e: 48 b8 0f a3 47 35 f3 9d 9c b2	movabsq	$-0x4d63620ccab85cf1, %rax # imm = 0xB29C9DF33547A30F
   c47a8: 49 39 c5                     	cmpq	%rax, %r13
   c47ab: 0f 84 67 53 00 00            	je	0xc9b18 <Java_com_adjust_sdk_sig_NativeLibHelper_nSign+0xe46d>
   c47b1: 48 8b 44 24 60               	movq	0x60(%rsp), %rax
   c47b6: 48 89 44 24 58               	movq	%rax, 0x58(%rsp)
   c47bb: 48 8b 84 24 d0 00 00 00      	movq	0xd0(%rsp), %rax
   c47c3: 48 89 44 24 50               	movq	%rax, 0x50(%rsp)
   c47c8: 48 8b 84 24 90 00 00 00      	movq	0x90(%rsp), %rax
   c47d0: 48 89 44 24 48               	movq	%rax, 0x48(%rsp)
   c47d5: 48 8b 84 24 98 00 00 00      	movq	0x98(%rsp), %rax
   c47dd: 48 89 44 24 40               	movq	%rax, 0x40(%rsp)
   c47e2: 48 8b 84 24 88 00 00 00      	movq	0x88(%rsp), %rax
   c47ea: 48 89 44 24 38               	movq	%rax, 0x38(%rsp)
   c47ef: 48 8b 84 24 a8 00 00 00      	movq	0xa8(%rsp), %rax
   c47f7: 48 89 44 24 30               	movq	%rax, 0x30(%rsp)
   c47fc: 48 8b 84 24 a0 00 00 00      	movq	0xa0(%rsp), %rax
   c4804: 48 89 44 24 28               	movq	%rax, 0x28(%rsp)
   c4809: 48 8b 84 24 b0 00 00 00      	movq	0xb0(%rsp), %rax
   c4811: 48 89 44 24 20               	movq	%rax, 0x20(%rsp)
   c4816: 48 8b 84 24 b8 00 00 00      	movq	0xb8(%rsp), %rax
   c481e: 48 89 44 24 18               	movq	%rax, 0x18(%rsp)
   c4823: 48 8b 44 24 70               	movq	0x70(%rsp), %rax
   c4828: 48 89 44 24 10               	movq	%rax, 0x10(%rsp)
   c482d: 48 8b 44 24 78               	movq	0x78(%rsp), %rax
   c4832: 48 89 44 24 08               	movq	%rax, 0x8(%rsp)
   c4837: 48 8b 44 24 68               	movq	0x68(%rsp), %rax
   c483c: 48 89 04 24                  	movq	%rax, (%rsp)
   c4840: 4c 8b 94 24 c0 00 00 00      	movq	0xc0(%rsp), %r10
   c4848: 48 8b bc 24 c8 00 00 00      	movq	0xc8(%rsp), %rdi
   c4850: 4c 8b b4 24 d8 00 00 00      	movq	0xd8(%rsp), %r14
   c4858: 4c 8b a4 24 80 00 00 00      	movq	0x80(%rsp), %r12
   c4860: 48 b8 a5 e7 cf 78 48 52 9c 96	movabsq	$-0x6963adb78730185b, %rax # imm = 0x969C524878CFE7A5
   c486a: 49 b8 ba c8 98 20 06 d9 2d b3	movabsq	$-0x4cd226f9df673746, %r8 # imm = 0xB32DD9062098C8BA
   c4874: 4d 39 c5                     	cmpq	%r8, %r13
   c4877: 0f 84 71 f6 ff ff            	je	0xc3eee <Java_com_adjust_sdk_sig_NativeLibHelper_nSign+0x8843>
   c487d: 48 b8 2a 0b 63 e6 d8 c6 af b3	movabsq	$-0x4c503927199cf4d6, %rax # imm = 0xB3AFC6D8E6630B2A
   c4887: 49 39 c5                     	cmpq	%rax, %r13
   c488a: 0f 84 03 22 00 00            	je	0xc6a93 <Java_com_adjust_sdk_sig_NativeLibHelper_nSign+0xb3e8>
   c4890: 48 b8 82 0d a7 b8 7e 93 6d b6	movabsq	$-0x49926c814758f27e, %rax # imm = 0xB66D937EB8A70D82
   c489a: 49 39 c5                     	cmpq	%rax, %r13
   c489d: 4c 8b b4 24 d8 00 00 00      	movq	0xd8(%rsp), %r14
   c48a5: 48 8b 9c 24 d0 00 00 00      	movq	0xd0(%rsp), %rbx
   c48ad: 0f 84 2e 53 00 00            	je	0xc9be1 <Java_com_adjust_sdk_sig_NativeLibHelper_nSign+0xe536>
   c48b3: 48 b8 88 fb 26 f4 d3 30 a4 b9	movabsq	$-0x465bcf2c0bd90478, %rax # imm = 0xB9A430D3F426FB88
   c48bd: 49 39 c5                     	cmpq	%rax, %r13
   c48c0: 0f 84 e1 48 00 00            	je	0xc91a7 <Java_com_adjust_sdk_sig_NativeLibHelper_nSign+0xdafc>
   c48c6: 48 b8 26 3f 89 92 60 cf 28 ba	movabsq	$-0x45d7309f6d76c0da, %rax # imm = 0xBA28CF6092893F26
   c48d0: 49 39 c5                     	cmpq	%rax, %r13
   c48d3: 0f 84 56 26 00 00            	je	0xc6f2f <Java_com_adjust_sdk_sig_NativeLibHelper_nSign+0xb884>
   c48d9: 48 8b 44 24 60               	movq	0x60(%rsp), %rax
   c48de: 48 89 44 24 58               	movq	%rax, 0x58(%rsp)
   c48e3: 48 89 d8                     	movq	%rbx, %rax
   c48e6: 48 89 5c 24 50               	movq	%rbx, 0x50(%rsp)
   c48eb: 48 8b 84 24 90 00 00 00      	movq	0x90(%rsp), %rax
   c48f3: 48 89 44 24 48               	movq	%rax, 0x48(%rsp)
   c48f8: 48 8b 84 24 98 00 00 00      	movq	0x98(%rsp), %rax
   c4900: 48 89 44 24 40               	movq	%rax, 0x40(%rsp)
   c4905: 48 8b 84 24 88 00 00 00      	movq	0x88(%rsp), %rax
   c490d: 48 89 44 24 38               	movq	%rax, 0x38(%rsp)
   c4912: 48 8b 84 24 a8 00 00 00      	movq	0xa8(%rsp), %rax
   c491a: 48 89 44 24 30               	movq	%rax, 0x30(%rsp)
   c491f: 48 8b 84 24 a0 00 00 00      	movq	0xa0(%rsp), %rax
   c4927: 48 89 44 24 28               	movq	%rax, 0x28(%rsp)
   c492c: 48 8b 84 24 b0 00 00 00      	movq	0xb0(%rsp), %rax
   c4934: 48 89 44 24 20               	movq	%rax, 0x20(%rsp)
   c4939: 48 8b 84 24 b8 00 00 00      	movq	0xb8(%rsp), %rax
   c4941: 48 89 44 24 18               	movq	%rax, 0x18(%rsp)
   c4946: 48 8b 44 24 70               	movq	0x70(%rsp), %rax
   c494b: 48 89 44 24 10               	movq	%rax, 0x10(%rsp)
   c4950: 48 8b 44 24 78               	movq	0x78(%rsp), %rax
   c4955: 48 89 44 24 08               	movq	%rax, 0x8(%rsp)
   c495a: 48 8b 44 24 68               	movq	0x68(%rsp), %rax
   c495f: 48 89 04 24                  	movq	%rax, (%rsp)
   c4963: 4c 8b 94 24 c0 00 00 00      	movq	0xc0(%rsp), %r10
   c496b: 48 8b bc 24 c8 00 00 00      	movq	0xc8(%rsp), %rdi
   c4973: 4c 8b a4 24 80 00 00 00      	movq	0x80(%rsp), %r12
   c497b: 48 b8 5e 48 9f 81 3c 6c fb ed	movabsq	$-0x120493c37e60b7a2, %rax # imm = 0xEDFB6C3C819F485E
   c4985: 49 b8 16 94 0f f0 64 da be bc	movabsq	$-0x4341259b0ff06bea, %r8 # imm = 0xBCBEDA64F00F9416
   c498f: 4d 39 c5                     	cmpq	%r8, %r13
   c4992: 0f 84 56 f5 ff ff            	je	0xc3eee <Java_com_adjust_sdk_sig_NativeLibHelper_nSign+0x8843>
   c4998: 48 b8 2d af f8 2b 27 64 d1 bc	movabsq	$-0x432e9bd8d40750d3, %rax # imm = 0xBCD164272BF8AF2D
   c49a2: 49 39 c5                     	cmpq	%rax, %r13
   c49a5: 0f 84 94 33 00 00            	je	0xc7d3f <Java_com_adjust_sdk_sig_NativeLibHelper_nSign+0xc694>
   c49ab: 48 b8 31 13 eb 2d e7 76 79 bd	movabsq	$-0x42868918d214eccf, %rax # imm = 0xBD7976E72DEB1331
   c49b5: 49 39 c5                     	cmpq	%rax, %r13
   c49b8: 4c 8b 8c 24 d8 00 00 00      	movq	0xd8(%rsp), %r9
   c49c0: 4c 8b 84 24 c8 00 00 00      	movq	0xc8(%rsp), %r8
   c49c8: 4c 8b b4 24 c0 00 00 00      	movq	0xc0(%rsp), %r14
   c49d0: 4c 8b bc 24 d0 00 00 00      	movq	0xd0(%rsp), %r15
   c49d8: 0f 84 64 50 00 00            	je	0xc9a42 <Java_com_adjust_sdk_sig_NativeLibHelper_nSign+0xe397>
   c49de: 48 b8 42 6d 23 10 b1 b4 90 bd	movabsq	$-0x426f4b4eefdc92be, %rax # imm = 0xBD90B4B110236D42
   c49e8: 49 39 c5                     	cmpq	%rax, %r13
   c49eb: 0f 84 7b 45 00 00            	je	0xc8f6c <Java_com_adjust_sdk_sig_NativeLibHelper_nSign+0xd8c1>
   c49f1: 48 b8 a2 ba 49 ea 34 4f 23 be	movabsq	$-0x41dcb0cb15b6455e, %rax # imm = 0xBE234F34EA49BAA2
   c49fb: 49 39 c5                     	cmpq	%rax, %r13
   c49fe: 0f 84 fc 26 00 00            	je	0xc7100 <Java_com_adjust_sdk_sig_NativeLibHelper_nSign+0xba55>
   c4a04: 48 8b 44 24 60               	movq	0x60(%rsp), %rax
   c4a09: 48 89 44 24 58               	movq	%rax, 0x58(%rsp)
   c4a0e: 4c 89 f8                     	movq	%r15, %rax
   c4a11: 4c 89 7c 24 50               	movq	%r15, 0x50(%rsp)
   c4a16: 48 8b 84 24 90 00 00 00      	movq	0x90(%rsp), %rax
   c4a1e: 48 89 44 24 48               	movq	%rax, 0x48(%rsp)
   c4a23: 48 8b 84 24 98 00 00 00      	movq	0x98(%rsp), %rax
   c4a2b: 48 89 44 24 40               	movq	%rax, 0x40(%rsp)
   c4a30: 48 8b 84 24 88 00 00 00      	movq	0x88(%rsp), %rax
   c4a38: 48 89 44 24 38               	movq	%rax, 0x38(%rsp)
   c4a3d: 48 8b 94 24 a8 00 00 00      	movq	0xa8(%rsp), %rdx
   c4a45: 48 89 54 24 30               	movq	%rdx, 0x30(%rsp)
   c4a4a: 48 8b 8c 24 a0 00 00 00      	movq	0xa0(%rsp), %rcx
   c4a52: 48 89 4c 24 28               	movq	%rcx, 0x28(%rsp)
   c4a57: 48 8b 9c 24 b0 00 00 00      	movq	0xb0(%rsp), %rbx
   c4a5f: 48 89 5c 24 20               	movq	%rbx, 0x20(%rsp)
   c4a64: 4c 8b 9c 24 b8 00 00 00      	movq	0xb8(%rsp), %r11
   c4a6c: 4c 89 5c 24 18               	movq	%r11, 0x18(%rsp)
   c4a71: 48 8b 44 24 70               	movq	0x70(%rsp), %rax
   c4a76: 48 89 44 24 10               	movq	%rax, 0x10(%rsp)
   c4a7b: 48 8b 44 24 78               	movq	0x78(%rsp), %rax
   c4a80: 48 89 44 24 08               	movq	%rax, 0x8(%rsp)
   c4a85: 48 8b 44 24 68               	movq	0x68(%rsp), %rax
   c4a8a: 48 89 04 24                  	movq	%rax, (%rsp)
   c4a8e: 4d 89 f2                     	movq	%r14, %r10
   c4a91: 4c 89 c7                     	movq	%r8, %rdi
   c4a94: 4c 89 c5                     	movq	%r8, %rbp
   c4a97: 4c 89 f6                     	movq	%r14, %rsi
   c4a9a: 4d 89 ce                     	movq	%r9, %r14
   c4a9d: 4c 8b a4 24 80 00 00 00      	movq	0x80(%rsp), %r12
   c4aa5: 48 b8 76 17 cc a4 a4 5f a3 dc	movabsq	$-0x235ca05b5b33e88a, %rax # imm = 0xDCA35FA4A4CC1776
   c4aaf: 49 b8 0b 0e 5b 1f b7 b7 58 c1	movabsq	$-0x3ea74848e0a4f1f5, %r8 # imm = 0xC158B7B71F5B0E0B
   c4ab9: 4d 39 c5                     	cmpq	%r8, %r13
   c4abc: 0f 84 2c f4 ff ff            	je	0xc3eee <Java_com_adjust_sdk_sig_NativeLibHelper_nSign+0x8843>
   c4ac2: 48 8b 44 24 60               	movq	0x60(%rsp), %rax
   c4ac7: 48 89 44 24 58               	movq	%rax, 0x58(%rsp)
   c4acc: 4c 89 f8                     	movq	%r15, %rax
   c4acf: 4c 89 7c 24 50               	movq	%r15, 0x50(%rsp)
   c4ad4: 48 8b 84 24 90 00 00 00      	movq	0x90(%rsp), %rax
   c4adc: 48 89 44 24 48               	movq	%rax, 0x48(%rsp)
   c4ae1: 48 8b 84 24 98 00 00 00      	movq	0x98(%rsp), %rax
   c4ae9: 48 89 44 24 40               	movq	%rax, 0x40(%rsp)
   c4aee: 48 8b 84 24 88 00 00 00      	movq	0x88(%rsp), %rax
   c4af6: 48 89 44 24 38               	movq	%rax, 0x38(%rsp)
   c4afb: 48 89 54 24 30               	movq	%rdx, 0x30(%rsp)
   c4b00: 48 89 4c 24 28               	movq	%rcx, 0x28(%rsp)
   c4b05: 48 89 5c 24 20               	movq	%rbx, 0x20(%rsp)
   c4b0a: 4c 89 5c 24 18               	movq	%r11, 0x18(%rsp)
   c4b0f: 48 8b 44 24 70               	movq	0x70(%rsp), %rax
   c4b14: 48 89 44 24 10               	movq	%rax, 0x10(%rsp)
   c4b19: 48 8b 44 24 78               	movq	0x78(%rsp), %rax
   c4b1e: 48 89 44 24 08               	movq	%rax, 0x8(%rsp)
   c4b23: 48 89 e8                     	movq	%rbp, %rax
   c4b26: 48 8b ac 24 18 01 00 00      	movq	0x118(%rsp), %rbp
   c4b2e: 48 89 2c 24                  	movq	%rbp, (%rsp)
   c4b32: 48 89 c5                     	movq	%rax, %rbp
   c4b35: 49 89 f2                     	movq	%rsi, %r10
   c4b38: 48 89 c7                     	movq	%rax, %rdi
   c4b3b: 4d 89 ce                     	movq	%r9, %r14
   c4b3e: 4c 8b a4 24 80 00 00 00      	movq	0x80(%rsp), %r12
   c4b46: 48 b8 8d 7f 7f 35 1e 25 bc 65	movabsq	$0x65bc251e357f7f8d, %rax # imm = 0x65BC251E357F7F8D
   c4b50: 49 b8 b3 9b a1 c2 c1 96 c9 c1	movabsq	$-0x3e36693e3d5e644d, %r8 # imm = 0xC1C996C1C2A19BB3
   c4b5a: 4d 39 c5                     	cmpq	%r8, %r13
   c4b5d: 0f 84 8b f3 ff ff            	je	0xc3eee <Java_com_adjust_sdk_sig_NativeLibHelper_nSign+0x8843>
   c4b63: 48 8b 44 24 60               	movq	0x60(%rsp), %rax
   c4b68: 48 89 44 24 58               	movq	%rax, 0x58(%rsp)
   c4b6d: 4c 89 f8                     	movq	%r15, %rax
   c4b70: 4c 89 7c 24 50               	movq	%r15, 0x50(%rsp)
   c4b75: 48 8b 84 24 90 00 00 00      	movq	0x90(%rsp), %rax
   c4b7d: 48 89 44 24 48               	movq	%rax, 0x48(%rsp)
   c4b82: 48 8b 84 24 98 00 00 00      	movq	0x98(%rsp), %rax
   c4b8a: 48 89 44 24 40               	movq	%rax, 0x40(%rsp)
   c4b8f: 48 8b 84 24 88 00 00 00      	movq	0x88(%rsp), %rax
   c4b97: 48 89 44 24 38               	movq	%rax, 0x38(%rsp)
   c4b9c: 48 89 54 24 30               	movq	%rdx, 0x30(%rsp)
   c4ba1: 48 89 4c 24 28               	movq	%rcx, 0x28(%rsp)
   c4ba6: 48 89 5c 24 20               	movq	%rbx, 0x20(%rsp)
   c4bab: 4c 89 5c 24 18               	movq	%r11, 0x18(%rsp)
   c4bb0: 48 8b 44 24 70               	movq	0x70(%rsp), %rax
   c4bb5: 48 89 44 24 10               	movq	%rax, 0x10(%rsp)
   c4bba: 48 8b 44 24 78               	movq	0x78(%rsp), %rax
   c4bbf: 48 89 44 24 08               	movq	%rax, 0x8(%rsp)
   c4bc4: 48 8b 44 24 68               	movq	0x68(%rsp), %rax
   c4bc9: 48 89 04 24                  	movq	%rax, (%rsp)
   c4bcd: 49 89 f2                     	movq	%rsi, %r10
   c4bd0: 48 89 ef                     	movq	%rbp, %rdi
   c4bd3: 4d 89 ce                     	movq	%r9, %r14
   c4bd6: 4c 8b a4 24 80 00 00 00      	movq	0x80(%rsp), %r12
   c4bde: 48 b8 01 3f 6c d3 c8 51 e5 d8	movabsq	$-0x271aae372c93c0ff, %rax # imm = 0xD8E551C8D36C3F01
   c4be8: 49 b8 62 b1 21 17 8e 4a 0a c3	movabsq	$-0x3cf5b571e8de4e9e, %r8 # imm = 0xC30A4A8E1721B162
   c4bf2: 4d 39 c5                     	cmpq	%r8, %r13
   c4bf5: 0f 84 f3 f2 ff ff            	je	0xc3eee <Java_com_adjust_sdk_sig_NativeLibHelper_nSign+0x8843>
   c4bfb: 48 8b 44 24 60               	movq	0x60(%rsp), %rax
   c4c00: 48 89 44 24 58               	movq	%rax, 0x58(%rsp)
   c4c05: 4c 89 7c 24 50               	movq	%r15, 0x50(%rsp)
   c4c0a: 48 8b 84 24 90 00 00 00      	movq	0x90(%rsp), %rax
   c4c12: 48 89 44 24 48               	movq	%rax, 0x48(%rsp)
   c4c17: 48 8b 84 24 98 00 00 00      	movq	0x98(%rsp), %rax
   c4c1f: 48 89 44 24 40               	movq	%rax, 0x40(%rsp)
   c4c24: 48 8b 84 24 88 00 00 00      	movq	0x88(%rsp), %rax
   c4c2c: 48 89 44 24 38               	movq	%rax, 0x38(%rsp)
   c4c31: 48 89 54 24 30               	movq	%rdx, 0x30(%rsp)
   c4c36: 48 89 4c 24 28               	movq	%rcx, 0x28(%rsp)
   c4c3b: 48 89 5c 24 20               	movq	%rbx, 0x20(%rsp)
   c4c40: 4c 89 5c 24 18               	movq	%r11, 0x18(%rsp)
   c4c45: 48 8b 44 24 70               	movq	0x70(%rsp), %rax
   c4c4a: 48 89 44 24 10               	movq	%rax, 0x10(%rsp)
   c4c4f: 48 8b 44 24 78               	movq	0x78(%rsp), %rax
   c4c54: 48 89 44 24 08               	movq	%rax, 0x8(%rsp)
   c4c59: 48 8b 44 24 68               	movq	0x68(%rsp), %rax
   c4c5e: 48 89 04 24                  	movq	%rax, (%rsp)
   c4c62: 49 89 f2                     	movq	%rsi, %r10
   c4c65: 48 89 ef                     	movq	%rbp, %rdi
   c4c68: 4d 89 ce                     	movq	%r9, %r14
   c4c6b: 4c 8b a4 24 80 00 00 00      	movq	0x80(%rsp), %r12
   c4c73: 48 b8 2d af f8 2b 27 64 d1 bc	movabsq	$-0x432e9bd8d40750d3, %rax # imm = 0xBCD164272BF8AF2D
   c4c7d: 49 b8 fd ec 04 1c 83 a3 e7 c8	movabsq	$-0x37185c7ce3fb1303, %r8 # imm = 0xC8E7A3831C04ECFD
   c4c87: 4d 39 c5                     	cmpq	%r8, %r13
   c4c8a: 0f 84 5e f2 ff ff            	je	0xc3eee <Java_com_adjust_sdk_sig_NativeLibHelper_nSign+0x8843>
   c4c90: 48 b8 1b 05 78 c8 3f cd 2b c9	movabsq	$-0x36d432c03787fae5, %rax # imm = 0xC92BCD3FC878051B
   c4c9a: 49 39 c5                     	cmpq	%rax, %r13
   c4c9d: 0f 84 f5 4a 00 00            	je	0xc9798 <Java_com_adjust_sdk_sig_NativeLibHelper_nSign+0xe0ed>
   c4ca3: 48 b8 dc 34 e5 0c 24 19 19 ca	movabsq	$-0x35e6e6dbf31acb24, %rax # imm = 0xCA1919240CE534DC
   c4cad: 49 39 c5                     	cmpq	%rax, %r13
   c4cb0: 4c 8b b4 24 d8 00 00 00      	movq	0xd8(%rsp), %r14
   c4cb8: 48 8b 9c 24 d0 00 00 00      	movq	0xd0(%rsp), %rbx
   c4cc0: 0f 84 09 46 00 00            	je	0xc92cf <Java_com_adjust_sdk_sig_NativeLibHelper_nSign+0xdc24>
   c4cc6: 48 b8 d5 03 5a 7c 82 4f eb cb	movabsq	$-0x3414b07d83a5fc2b, %rax # imm = 0xCBEB4F827C5A03D5
   c4cd0: 49 39 c5                     	cmpq	%rax, %r13
   c4cd3: 0f 84 3b 2a 00 00            	je	0xc7714 <Java_com_adjust_sdk_sig_NativeLibHelper_nSign+0xc069>
   c4cd9: 48 b8 c1 50 f3 08 9f e8 ca cd	movabsq	$-0x32351760f70caf3f, %rax # imm = 0xCDCAE89F08F350C1
   c4ce3: 49 39 c5                     	cmpq	%rax, %r13
   c4ce6: 0f 84 7f 20 00 00            	je	0xc6d6b <Java_com_adjust_sdk_sig_NativeLibHelper_nSign+0xb6c0>
   c4cec: 48 b8 d5 d8 9d e5 4f 83 2c d0	movabsq	$-0x2fd37cb01a62272b, %rax # imm = 0xD02C834FE59DD8D5
   c4cf6: 49 39 c5                     	cmpq	%rax, %r13
   c4cf9: 0f 84 54 1f 00 00            	je	0xc6c53 <Java_com_adjust_sdk_sig_NativeLibHelper_nSign+0xb5a8>
   c4cff: 48 b8 0a be fd 30 cb c7 1b d1	movabsq	$-0x2ee43834cf0241f6, %rax # imm = 0xD11BC7CB30FDBE0A
   c4d09: 49 39 c5                     	cmpq	%rax, %r13
   c4d0c: 0f 84 91 3d 00 00            	je	0xc8aa3 <Java_com_adjust_sdk_sig_NativeLibHelper_nSign+0xd3f8>
   c4d12: 48 8b 44 24 60               	movq	0x60(%rsp), %rax
   c4d17: 48 89 44 24 58               	movq	%rax, 0x58(%rsp)
   c4d1c: 48 89 d8                     	movq	%rbx, %rax
   c4d1f: 48 89 5c 24 50               	movq	%rbx, 0x50(%rsp)
   c4d24: 48 8b 84 24 90 00 00 00      	movq	0x90(%rsp), %rax
   c4d2c: 48 89 44 24 48               	movq	%rax, 0x48(%rsp)
   c4d31: 48 8b 84 24 98 00 00 00      	movq	0x98(%rsp), %rax
   c4d39: 48 89 44 24 40               	movq	%rax, 0x40(%rsp)
   c4d3e: 48 8b 84 24 88 00 00 00      	movq	0x88(%rsp), %rax
   c4d46: 48 89 44 24 38               	movq	%rax, 0x38(%rsp)
   c4d4b: 48 8b 94 24 a8 00 00 00      	movq	0xa8(%rsp), %rdx
   c4d53: 48 89 54 24 30               	movq	%rdx, 0x30(%rsp)
   c4d58: 48 8b 8c 24 a0 00 00 00      	movq	0xa0(%rsp), %rcx
   c4d60: 48 89 4c 24 28               	movq	%rcx, 0x28(%rsp)
   c4d65: 48 89 dd                     	movq	%rbx, %rbp
   c4d68: 48 8b 9c 24 b0 00 00 00      	movq	0xb0(%rsp), %rbx
   c4d70: 48 89 5c 24 20               	movq	%rbx, 0x20(%rsp)
   c4d75: 4c 8b 9c 24 b8 00 00 00      	movq	0xb8(%rsp), %r11
   c4d7d: 4c 89 5c 24 18               	movq	%r11, 0x18(%rsp)
   c4d82: 48 8b 44 24 70               	movq	0x70(%rsp), %rax
   c4d87: 48 89 44 24 10               	movq	%rax, 0x10(%rsp)
   c4d8c: 48 8b 44 24 78               	movq	0x78(%rsp), %rax
   c4d91: 48 89 44 24 08               	movq	%rax, 0x8(%rsp)
   c4d96: 48 8b 44 24 68               	movq	0x68(%rsp), %rax
   c4d9b: 48 89 04 24                  	movq	%rax, (%rsp)
   c4d9f: 48 8b b4 24 c0 00 00 00      	movq	0xc0(%rsp), %rsi
   c4da7: 49 89 f2                     	movq	%rsi, %r10
   c4daa: 4c 8b bc 24 c8 00 00 00      	movq	0xc8(%rsp), %r15
   c4db2: 4c 89 ff                     	movq	%r15, %rdi
   c4db5: 4c 8b a4 24 80 00 00 00      	movq	0x80(%rsp), %r12
   c4dbd: 48 b8 82 0d a7 b8 7e 93 6d b6	movabsq	$-0x49926c814758f27e, %rax # imm = 0xB66D937EB8A70D82
   c4dc7: 49 b8 68 fc 88 0a 84 33 00 d5	movabsq	$-0x2affcc7bf5770398, %r8 # imm = 0xD50033840A88FC68
   c4dd1: 4d 39 c5                     	cmpq	%r8, %r13
   c4dd4: 0f 84 14 f1 ff ff            	je	0xc3eee <Java_com_adjust_sdk_sig_NativeLibHelper_nSign+0x8843>
   c4dda: 4d 89 f1                     	movq	%r14, %r9
   c4ddd: 48 8b 44 24 60               	movq	0x60(%rsp), %rax
   c4de2: 48 89 44 24 58               	movq	%rax, 0x58(%rsp)
   c4de7: 48 89 e8                     	movq	%rbp, %rax
   c4dea: 48 89 6c 24 50               	movq	%rbp, 0x50(%rsp)
   c4def: 48 8b 84 24 90 00 00 00      	movq	0x90(%rsp), %rax
   c4df7: 48 89 44 24 48               	movq	%rax, 0x48(%rsp)
   c4dfc: 48 8b 84 24 98 00 00 00      	movq	0x98(%rsp), %rax
   c4e04: 48 89 44 24 40               	movq	%rax, 0x40(%rsp)
   c4e09: 48 8b 84 24 88 00 00 00      	movq	0x88(%rsp), %rax
   c4e11: 48 89 44 24 38               	movq	%rax, 0x38(%rsp)
   c4e16: 48 89 54 24 30               	movq	%rdx, 0x30(%rsp)
   c4e1b: 48 89 4c 24 28               	movq	%rcx, 0x28(%rsp)
   c4e20: 48 89 5c 24 20               	movq	%rbx, 0x20(%rsp)
   c4e25: 4c 89 5c 24 18               	movq	%r11, 0x18(%rsp)
   c4e2a: 4c 89 5c 24 10               	movq	%r11, 0x10(%rsp)
   c4e2f: 48 8b 84 24 40 01 00 00      	movq	0x140(%rsp), %rax
   c4e37: 48 89 44 24 08               	movq	%rax, 0x8(%rsp)
   c4e3c: 48 8b 44 24 68               	movq	0x68(%rsp), %rax
   c4e41: 48 89 04 24                  	movq	%rax, (%rsp)
   c4e45: 49 89 f2                     	movq	%rsi, %r10
   c4e48: 4c 89 ff                     	movq	%r15, %rdi
   c4e4b: 4c 8b a4 24 80 00 00 00      	movq	0x80(%rsp), %r12
   c4e53: 48 b8 29 8e c9 3a ae b8 fd 85	movabsq	$-0x7a024751c53671d7, %rax # imm = 0x85FDB8AE3AC98E29
   c4e5d: 49 b8 26 e2 82 d5 2c 9b 53 d6	movabsq	$-0x29ac64d32a7d1dda, %r8 # imm = 0xD6539B2CD582E226
   c4e67: 4d 39 c5                     	cmpq	%r8, %r13
   c4e6a: 0f 84 7e f0 ff ff            	je	0xc3eee <Java_com_adjust_sdk_sig_NativeLibHelper_nSign+0x8843>
   c4e70: 48 b8 b1 32 8a 01 8f 50 64 d8	movabsq	$-0x279baf70fe75cd4f, %rax # imm = 0xD864508F018A32B1
   c4e7a: 49 39 c5                     	cmpq	%rax, %r13
   c4e7d: 0f 84 c6 3f 00 00            	je	0xc8e49 <Java_com_adjust_sdk_sig_NativeLibHelper_nSign+0xd79e>
   c4e83: 48 b8 01 3f 6c d3 c8 51 e5 d8	movabsq	$-0x271aae372c93c0ff, %rax # imm = 0xD8E551C8D36C3F01
   c4e8d: 49 39 c5                     	cmpq	%rax, %r13
   c4e90: 4c 8b b4 24 d8 00 00 00      	movq	0xd8(%rsp), %r14
   c4e98: 48 8b 9c 24 d0 00 00 00      	movq	0xd0(%rsp), %rbx
   c4ea0: 0f 84 ac 23 00 00            	je	0xc7252 <Java_com_adjust_sdk_sig_NativeLibHelper_nSign+0xbba7>
   c4ea6: 48 b8 e5 0b 21 28 64 ad 52 da	movabsq	$-0x25ad529bd7def41b, %rax # imm = 0xDA52AD6428210BE5
   c4eb0: 49 39 c5                     	cmpq	%rax, %r13
   c4eb3: 0f 84 a1 20 00 00            	je	0xc6f5a <Java_com_adjust_sdk_sig_NativeLibHelper_nSign+0xb8af>
   c4eb9: 48 8b 44 24 60               	movq	0x60(%rsp), %rax
   c4ebe: 48 89 44 24 58               	movq	%rax, 0x58(%rsp)
   c4ec3: 48 89 d8                     	movq	%rbx, %rax
   c4ec6: 48 89 5c 24 50               	movq	%rbx, 0x50(%rsp)
   c4ecb: 48 8b 84 24 90 00 00 00      	movq	0x90(%rsp), %rax
   c4ed3: 48 89 44 24 48               	movq	%rax, 0x48(%rsp)
   c4ed8: 48 8b 84 24 98 00 00 00      	movq	0x98(%rsp), %rax
   c4ee0: 48 89 44 24 40               	movq	%rax, 0x40(%rsp)
   c4ee5: 48 8b 84 24 88 00 00 00      	movq	0x88(%rsp), %rax
   c4eed: 48 89 44 24 38               	movq	%rax, 0x38(%rsp)
   c4ef2: 48 8b 84 24 a8 00 00 00      	movq	0xa8(%rsp), %rax
   c4efa: 48 89 44 24 30               	movq	%rax, 0x30(%rsp)
   c4eff: 48 8b 84 24 a0 00 00 00      	movq	0xa0(%rsp), %rax
   c4f07: 48 89 44 24 28               	movq	%rax, 0x28(%rsp)
   c4f0c: 48 8b 84 24 b0 00 00 00      	movq	0xb0(%rsp), %rax
   c4f14: 48 89 44 24 20               	movq	%rax, 0x20(%rsp)
   c4f19: 48 8b 84 24 b8 00 00 00      	movq	0xb8(%rsp), %rax
   c4f21: 48 89 44 24 18               	movq	%rax, 0x18(%rsp)
   c4f26: 48 8b 44 24 70               	movq	0x70(%rsp), %rax
   c4f2b: 48 89 44 24 10               	movq	%rax, 0x10(%rsp)
   c4f30: 48 8b 44 24 78               	movq	0x78(%rsp), %rax
   c4f35: 48 89 44 24 08               	movq	%rax, 0x8(%rsp)
   c4f3a: 48 8b 44 24 68               	movq	0x68(%rsp), %rax
   c4f3f: 48 89 04 24                  	movq	%rax, (%rsp)
   c4f43: 4c 8b 94 24 c0 00 00 00      	movq	0xc0(%rsp), %r10
   c4f4b: 48 8b bc 24 c8 00 00 00      	movq	0xc8(%rsp), %rdi
   c4f53: 4c 8b a4 24 80 00 00 00      	movq	0x80(%rsp), %r12
   c4f5b: 48 b8 b1 32 8a 01 8f 50 64 d8	movabsq	$-0x279baf70fe75cd4f, %rax # imm = 0xD864508F018A32B1
   c4f65: 49 b8 fc e0 5a 70 74 ff 1e db	movabsq	$-0x24e1008b8fa51f04, %r8 # imm = 0xDB1EFF74705AE0FC
   c4f6f: 4d 39 c5                     	cmpq	%r8, %r13
   c4f72: 0f 84 76 ef ff ff            	je	0xc3eee <Java_com_adjust_sdk_sig_NativeLibHelper_nSign+0x8843>
   c4f78: 48 b8 76 17 cc a4 a4 5f a3 dc	movabsq	$-0x235ca05b5b33e88a, %rax # imm = 0xDCA35FA4A4CC1776
   c4f82: 49 39 c5                     	cmpq	%rax, %r13
   c4f85: 0f 84 35 44 00 00            	je	0xc93c0 <Java_com_adjust_sdk_sig_NativeLibHelper_nSign+0xdd15>
   c4f8b: 48 8b 44 24 60               	movq	0x60(%rsp), %rax
   c4f90: 48 89 44 24 58               	movq	%rax, 0x58(%rsp)
   c4f95: 48 8b ac 24 d0 00 00 00      	movq	0xd0(%rsp), %rbp
   c4f9d: 48 89 e8                     	movq	%rbp, %rax
   c4fa0: 48 89 6c 24 50               	movq	%rbp, 0x50(%rsp)
   c4fa5: 48 8b 84 24 90 00 00 00      	movq	0x90(%rsp), %rax
   c4fad: 48 89 44 24 48               	movq	%rax, 0x48(%rsp)
   c4fb2: 48 8b 84 24 98 00 00 00      	movq	0x98(%rsp), %rax
   c4fba: 48 89 44 24 40               	movq	%rax, 0x40(%rsp)
   c4fbf: 48 8b 84 24 88 00 00 00      	movq	0x88(%rsp), %rax
   c4fc7: 48 89 44 24 38               	movq	%rax, 0x38(%rsp)
   c4fcc: 48 8b 94 24 a8 00 00 00      	movq	0xa8(%rsp), %rdx
   c4fd4: 48 89 54 24 30               	movq	%rdx, 0x30(%rsp)
   c4fd9: 48 8b 8c 24 a0 00 00 00      	movq	0xa0(%rsp), %rcx
   c4fe1: 48 89 4c 24 28               	movq	%rcx, 0x28(%rsp)
   c4fe6: 48 8b 9c 24 b0 00 00 00      	movq	0xb0(%rsp), %rbx
   c4fee: 48 89 5c 24 20               	movq	%rbx, 0x20(%rsp)
   c4ff3: 4c 8b 9c 24 b8 00 00 00      	movq	0xb8(%rsp), %r11
   c4ffb: 4c 89 5c 24 18               	movq	%r11, 0x18(%rsp)
   c5000: 48 8b 44 24 70               	movq	0x70(%rsp), %rax
   c5005: 48 89 44 24 10               	movq	%rax, 0x10(%rsp)
   c500a: 48 8b 44 24 78               	movq	0x78(%rsp), %rax
   c500f: 48 89 44 24 08               	movq	%rax, 0x8(%rsp)
   c5014: 48 8b 44 24 68               	movq	0x68(%rsp), %rax
   c5019: 48 89 04 24                  	movq	%rax, (%rsp)
   c501d: 48 8b b4 24 c0 00 00 00      	movq	0xc0(%rsp), %rsi
   c5025: 49 89 f2                     	movq	%rsi, %r10
   c5028: 4c 8b bc 24 c8 00 00 00      	movq	0xc8(%rsp), %r15
   c5030: 4c 89 ff                     	movq	%r15, %rdi
   c5033: 4c 8b 8c 24 d8 00 00 00      	movq	0xd8(%rsp), %r9
   c503b: 4d 89 ce                     	movq	%r9, %r14
   c503e: 4c 8b a4 24 80 00 00 00      	movq	0x80(%rsp), %r12
   c5046: 48 b8 a5 e7 cf 78 48 52 9c 96	movabsq	$-0x6963adb78730185b, %rax # imm = 0x969C524878CFE7A5
   c5050: 49 b8 3c fd 05 e7 cb dc ea dc	movabsq	$-0x2315233418fa02c4, %r8 # imm = 0xDCEADCCBE705FD3C
   c505a: 4d 39 c5                     	cmpq	%r8, %r13
   c505d: 0f 84 8b ee ff ff            	je	0xc3eee <Java_com_adjust_sdk_sig_NativeLibHelper_nSign+0x8843>
   c5063: 48 8b 44 24 60               	movq	0x60(%rsp), %rax
   c5068: 48 89 44 24 58               	movq	%rax, 0x58(%rsp)
   c506d: 48 89 e8                     	movq	%rbp, %rax
   c5070: 48 89 6c 24 50               	movq	%rbp, 0x50(%rsp)
   c5075: 48 8b 84 24 90 00 00 00      	movq	0x90(%rsp), %rax
   c507d: 48 89 44 24 48               	movq	%rax, 0x48(%rsp)
   c5082: 48 8b 84 24 98 00 00 00      	movq	0x98(%rsp), %rax
   c508a: 48 89 44 24 40               	movq	%rax, 0x40(%rsp)
   c508f: 48 8b 84 24 88 00 00 00      	movq	0x88(%rsp), %rax
   c5097: 48 89 44 24 38               	movq	%rax, 0x38(%rsp)
   c509c: 48 89 54 24 30               	movq	%rdx, 0x30(%rsp)
   c50a1: 48 89 4c 24 28               	movq	%rcx, 0x28(%rsp)
   c50a6: 48 89 5c 24 20               	movq	%rbx, 0x20(%rsp)
   c50ab: 4c 89 5c 24 18               	movq	%r11, 0x18(%rsp)
   c50b0: 48 8b 44 24 70               	movq	0x70(%rsp), %rax
   c50b5: 48 89 44 24 10               	movq	%rax, 0x10(%rsp)
   c50ba: 48 8b 44 24 78               	movq	0x78(%rsp), %rax
   c50bf: 48 89 44 24 08               	movq	%rax, 0x8(%rsp)
   c50c4: 48 8b 44 24 68               	movq	0x68(%rsp), %rax
   c50c9: 48 89 04 24                  	movq	%rax, (%rsp)
   c50cd: 49 89 f2                     	movq	%rsi, %r10
   c50d0: 4c 89 ff                     	movq	%r15, %rdi
   c50d3: 4d 89 ce                     	movq	%r9, %r14
   c50d6: 4c 8b a4 24 80 00 00 00      	movq	0x80(%rsp), %r12
   c50de: 48 b8 67 3e a0 b8 7e a2 62 5f	movabsq	$0x5f62a27eb8a03e67, %rax # imm = 0x5F62A27EB8A03E67
   c50e8: 49 b8 79 31 77 ac f9 1f 2b dd	movabsq	$-0x22d4e0065388ce87, %r8 # imm = 0xDD2B1FF9AC773179
   c50f2: 4d 39 c5                     	cmpq	%r8, %r13
   c50f5: 0f 84 f3 ed ff ff            	je	0xc3eee <Java_com_adjust_sdk_sig_NativeLibHelper_nSign+0x8843>
   c50fb: 48 8b 44 24 60               	movq	0x60(%rsp), %rax
   c5100: 48 89 44 24 58               	movq	%rax, 0x58(%rsp)
   c5105: 48 89 e8                     	movq	%rbp, %rax
   c5108: 48 89 6c 24 50               	movq	%rbp, 0x50(%rsp)
   c510d: 48 8b 84 24 90 00 00 00      	movq	0x90(%rsp), %rax
   c5115: 48 89 44 24 48               	movq	%rax, 0x48(%rsp)
   c511a: 48 8b 84 24 98 00 00 00      	movq	0x98(%rsp), %rax
   c5122: 48 89 44 24 40               	movq	%rax, 0x40(%rsp)
   c5127: 48 8b 84 24 88 00 00 00      	movq	0x88(%rsp), %rax
   c512f: 48 89 44 24 38               	movq	%rax, 0x38(%rsp)
   c5134: 48 89 54 24 30               	movq	%rdx, 0x30(%rsp)
   c5139: 48 89 4c 24 28               	movq	%rcx, 0x28(%rsp)
   c513e: 48 89 5c 24 20               	movq	%rbx, 0x20(%rsp)
   c5143: 4c 89 5c 24 18               	movq	%r11, 0x18(%rsp)
   c5148: 48 8b 44 24 70               	movq	0x70(%rsp), %rax
   c514d: 48 89 44 24 10               	movq	%rax, 0x10(%rsp)
   c5152: 48 8b 44 24 78               	movq	0x78(%rsp), %rax
   c5157: 48 89 44 24 08               	movq	%rax, 0x8(%rsp)
   c515c: 48 8b 44 24 68               	movq	0x68(%rsp), %rax
   c5161: 48 89 04 24                  	movq	%rax, (%rsp)
   c5165: 49 89 f2                     	movq	%rsi, %r10
   c5168: 4c 89 ff                     	movq	%r15, %rdi
   c516b: 4d 89 ce                     	movq	%r9, %r14
   c516e: 4c 8b a4 24 80 00 00 00      	movq	0x80(%rsp), %r12
   c5176: 48 b8 40 60 87 c6 48 30 1f 7d	movabsq	$0x7d1f3048c6876040, %rax # imm = 0x7D1F3048C6876040
   c5180: 49 b8 b5 79 69 c4 df c4 15 de	movabsq	$-0x21ea3b203b96864b, %r8 # imm = 0xDE15C4DFC46979B5
   c518a: 4d 39 c5                     	cmpq	%r8, %r13
   c518d: 0f 84 5b ed ff ff            	je	0xc3eee <Java_com_adjust_sdk_sig_NativeLibHelper_nSign+0x8843>
   c5193: 48 b8 fa b1 98 15 30 41 c0 e2	movabsq	$-0x1d3fbecfea674e06, %rax # imm = 0xE2C041301598B1FA
   c519d: 49 39 c5                     	cmpq	%rax, %r13
   c51a0: 0f 84 ad 47 00 00            	je	0xc9953 <Java_com_adjust_sdk_sig_NativeLibHelper_nSign+0xe2a8>
   c51a6: 48 b8 db be 00 54 44 ce 30 e3	movabsq	$-0x1ccf31bbabff4125, %rax # imm = 0xE330CE445400BEDB
   c51b0: 49 39 c5                     	cmpq	%rax, %r13
   c51b3: 4c 8b b4 24 d8 00 00 00      	movq	0xd8(%rsp), %r14
   c51bb: 48 8b 9c 24 d0 00 00 00      	movq	0xd0(%rsp), %rbx
   c51c3: 0f 84 5a 1c 00 00            	je	0xc6e23 <Java_com_adjust_sdk_sig_NativeLibHelper_nSign+0xb778>
   c51c9: 48 8b 44 24 60               	movq	0x60(%rsp), %rax
   c51ce: 48 89 44 24 58               	movq	%rax, 0x58(%rsp)
   c51d3: 48 89 d8                     	movq	%rbx, %rax
   c51d6: 48 89 5c 24 50               	movq	%rbx, 0x50(%rsp)
   c51db: 48 8b 84 24 90 00 00 00      	movq	0x90(%rsp), %rax
   c51e3: 48 89 44 24 48               	movq	%rax, 0x48(%rsp)
   c51e8: 48 8b 84 24 98 00 00 00      	movq	0x98(%rsp), %rax
   c51f0: 48 89 44 24 40               	movq	%rax, 0x40(%rsp)
   c51f5: 48 8b 84 24 88 00 00 00      	movq	0x88(%rsp), %rax
   c51fd: 48 89 44 24 38               	movq	%rax, 0x38(%rsp)
   c5202: 48 8b 84 24 a8 00 00 00      	movq	0xa8(%rsp), %rax
   c520a: 48 89 44 24 30               	movq	%rax, 0x30(%rsp)
   c520f: 48 8b 84 24 a0 00 00 00      	movq	0xa0(%rsp), %rax
   c5217: 48 89 44 24 28               	movq	%rax, 0x28(%rsp)
   c521c: 48 8b 84 24 b0 00 00 00      	movq	0xb0(%rsp), %rax
   c5224: 48 89 44 24 20               	movq	%rax, 0x20(%rsp)
   c5229: 48 8b 84 24 b8 00 00 00      	movq	0xb8(%rsp), %rax
   c5231: 48 89 44 24 18               	movq	%rax, 0x18(%rsp)
   c5236: 48 8b 44 24 70               	movq	0x70(%rsp), %rax
   c523b: 48 89 44 24 10               	movq	%rax, 0x10(%rsp)
   c5240: 48 8b 44 24 78               	movq	0x78(%rsp), %rax
   c5245: 48 89 44 24 08               	movq	%rax, 0x8(%rsp)
   c524a: 48 8b 44 24 68               	movq	0x68(%rsp), %rax
   c524f: 48 89 04 24                  	movq	%rax, (%rsp)
   c5253: 4c 8b 94 24 c0 00 00 00      	movq	0xc0(%rsp), %r10
   c525b: 48 8b bc 24 c8 00 00 00      	movq	0xc8(%rsp), %rdi
   c5263: 4c 8b a4 24 80 00 00 00      	movq	0x80(%rsp), %r12
   c526b: 48 b8 9e 92 04 ed ff 6f 39 9e	movabsq	$-0x61c6900012fb6d62, %rax # imm = 0x9E396FFFED04929E
   c5275: 49 b8 d3 ac dc d1 78 c0 13 e5	movabsq	$-0x1aec3f872e23532d, %r8 # imm = 0xE513C078D1DCACD3
   c527f: 4d 39 c5                     	cmpq	%r8, %r13
   c5282: 0f 84 66 ec ff ff            	je	0xc3eee <Java_com_adjust_sdk_sig_NativeLibHelper_nSign+0x8843>
   c5288: 48 b8 23 7a 3d 50 45 17 93 e6	movabsq	$-0x196ce8baafc285dd, %rax # imm = 0xE6931745503D7A23
   c5292: 49 39 c5                     	cmpq	%rax, %r13
   c5295: 0f 84 3a 27 00 00            	je	0xc79d5 <Java_com_adjust_sdk_sig_NativeLibHelper_nSign+0xc32a>
   c529b: 48 8b 44 24 60               	movq	0x60(%rsp), %rax
   c52a0: 48 89 44 24 58               	movq	%rax, 0x58(%rsp)
   c52a5: 48 8b 84 24 d0 00 00 00      	movq	0xd0(%rsp), %rax
   c52ad: 48 89 44 24 50               	movq	%rax, 0x50(%rsp)
   c52b2: 48 8b 84 24 90 00 00 00      	movq	0x90(%rsp), %rax
   c52ba: 48 89 44 24 48               	movq	%rax, 0x48(%rsp)
   c52bf: 48 8b 84 24 98 00 00 00      	movq	0x98(%rsp), %rax
   c52c7: 48 89 44 24 40               	movq	%rax, 0x40(%rsp)
   c52cc: 48 8b 84 24 88 00 00 00      	movq	0x88(%rsp), %rax
   c52d4: 48 89 44 24 38               	movq	%rax, 0x38(%rsp)
   c52d9: 48 8b 84 24 a8 00 00 00      	movq	0xa8(%rsp), %rax
   c52e1: 48 89 44 24 30               	movq	%rax, 0x30(%rsp)
   c52e6: 48 8b 84 24 a0 00 00 00      	movq	0xa0(%rsp), %rax
   c52ee: 48 89 44 24 28               	movq	%rax, 0x28(%rsp)
   c52f3: 48 8b 84 24 b0 00 00 00      	movq	0xb0(%rsp), %rax
   c52fb: 48 89 44 24 20               	movq	%rax, 0x20(%rsp)
   c5300: 48 8b 84 24 b8 00 00 00      	movq	0xb8(%rsp), %rax
   c5308: 48 89 44 24 18               	movq	%rax, 0x18(%rsp)
   c530d: 48 8b 44 24 70               	movq	0x70(%rsp), %rax
   c5312: 48 89 44 24 10               	movq	%rax, 0x10(%rsp)
   c5317: 48 8b 44 24 78               	movq	0x78(%rsp), %rax
   c531c: 48 89 44 24 08               	movq	%rax, 0x8(%rsp)
   c5321: 48 8b 44 24 68               	movq	0x68(%rsp), %rax
   c5326: 48 89 04 24                  	movq	%rax, (%rsp)
   c532a: 4c 8b 94 24 c0 00 00 00      	movq	0xc0(%rsp), %r10
   c5332: 48 8b bc 24 c8 00 00 00      	movq	0xc8(%rsp), %rdi
   c533a: 4c 8b b4 24 d8 00 00 00      	movq	0xd8(%rsp), %r14
   c5342: 4c 8b a4 24 80 00 00 00      	movq	0x80(%rsp), %r12
   c534a: 48 b8 7e 09 3c f6 5b f6 56 76	movabsq	$0x7656f65bf63c097e, %rax # imm = 0x7656F65BF63C097E
   c5354: 49 b8 f3 0d 4e 47 de 66 58 e7	movabsq	$-0x18a79921b8b1f20d, %r8 # imm = 0xE75866DE474E0DF3
   c535e: 4d 39 c5                     	cmpq	%r8, %r13
   c5361: 0f 84 87 eb ff ff            	je	0xc3eee <Java_com_adjust_sdk_sig_NativeLibHelper_nSign+0x8843>
   c5367: 48 b8 22 74 78 fb 19 9b 94 ea	movabsq	$-0x156b64e604878bde, %rax # imm = 0xEA949B19FB787422
   c5371: 49 39 c5                     	cmpq	%rax, %r13
   c5374: 0f 84 03 26 00 00            	je	0xc797d <Java_com_adjust_sdk_sig_NativeLibHelper_nSign+0xc2d2>
   c537a: 48 b8 df 06 01 c1 b4 27 11 eb	movabsq	$-0x14eed84b3efef921, %rax # imm = 0xEB1127B4C10106DF
   c5384: 49 39 c5                     	cmpq	%rax, %r13
   c5387: 4c 8b b4 24 d8 00 00 00      	movq	0xd8(%rsp), %r14
   c538f: 48 8b 9c 24 d0 00 00 00      	movq	0xd0(%rsp), %rbx
   c5397: 0f 84 c7 29 00 00            	je	0xc7d64 <Java_com_adjust_sdk_sig_NativeLibHelper_nSign+0xc6b9>
   c539d: 48 b8 5e 48 9f 81 3c 6c fb ed	movabsq	$-0x120493c37e60b7a2, %rax # imm = 0xEDFB6C3C819F485E
   c53a7: 49 39 c5                     	cmpq	%rax, %r13
   c53aa: 0f 84 eb 3f 00 00            	je	0xc939b <Java_com_adjust_sdk_sig_NativeLibHelper_nSign+0xdcf0>
   c53b0: 48 b8 be ec 72 7e 6e 82 06 ee	movabsq	$-0x11f97d91818d1342, %rax # imm = 0xEE06826E7E72ECBE
   c53ba: 49 39 c5                     	cmpq	%rax, %r13
   c53bd: 0f 84 b0 43 00 00            	je	0xc9773 <Java_com_adjust_sdk_sig_NativeLibHelper_nSign+0xe0c8>
   c53c3: 48 8b 44 24 60               	movq	0x60(%rsp), %rax
   c53c8: 48 89 44 24 58               	movq	%rax, 0x58(%rsp)
   c53cd: 48 89 d8                     	movq	%rbx, %rax
   c53d0: 48 89 5c 24 50               	movq	%rbx, 0x50(%rsp)
   c53d5: 48 8b 84 24 90 00 00 00      	movq	0x90(%rsp), %rax
   c53dd: 48 89 44 24 48               	movq	%rax, 0x48(%rsp)
   c53e2: 48 8b 84 24 98 00 00 00      	movq	0x98(%rsp), %rax
   c53ea: 48 89 44 24 40               	movq	%rax, 0x40(%rsp)
   c53ef: 48 8b 84 24 88 00 00 00      	movq	0x88(%rsp), %rax
   c53f7: 48 89 44 24 38               	movq	%rax, 0x38(%rsp)
   c53fc: 48 8b 84 24 a8 00 00 00      	movq	0xa8(%rsp), %rax
   c5404: 48 89 44 24 30               	movq	%rax, 0x30(%rsp)
   c5409: 48 8b 84 24 a0 00 00 00      	movq	0xa0(%rsp), %rax
   c5411: 48 89 44 24 28               	movq	%rax, 0x28(%rsp)
   c5416: 48 8b 84 24 b0 00 00 00      	movq	0xb0(%rsp), %rax
   c541e: 48 89 44 24 20               	movq	%rax, 0x20(%rsp)
   c5423: 48 8b 84 24 b8 00 00 00      	movq	0xb8(%rsp), %rax
   c542b: 48 89 44 24 18               	movq	%rax, 0x18(%rsp)
   c5430: 48 8b 44 24 70               	movq	0x70(%rsp), %rax
   c5435: 48 89 44 24 10               	movq	%rax, 0x10(%rsp)
   c543a: 48 8b 44 24 78               	movq	0x78(%rsp), %rax
   c543f: 48 89 44 24 08               	movq	%rax, 0x8(%rsp)
   c5444: 48 8b 44 24 68               	movq	0x68(%rsp), %rax
   c5449: 48 89 04 24                  	movq	%rax, (%rsp)
   c544d: 4c 8b 94 24 c0 00 00 00      	movq	0xc0(%rsp), %r10
   c5455: 48 8b bc 24 c8 00 00 00      	movq	0xc8(%rsp), %rdi
   c545d: 4c 8b a4 24 80 00 00 00      	movq	0x80(%rsp), %r12
   c5465: 48 b8 7e 09 3c f6 5b f6 56 76	movabsq	$0x7656f65bf63c097e, %rax # imm = 0x7656F65BF63C097E
   c546f: 49 b8 65 16 56 a9 96 15 1e ee	movabsq	$-0x11e1ea6956a9e99b, %r8 # imm = 0xEE1E1596A9561665
   c5479: 4d 39 c5                     	cmpq	%r8, %r13
   c547c: 0f 84 6c ea ff ff            	je	0xc3eee <Java_com_adjust_sdk_sig_NativeLibHelper_nSign+0x8843>
   c5482: 48 b8 c3 fd 50 c2 7e 1c 97 ee	movabsq	$-0x1168e3813daf023d, %rax # imm = 0xEE971C7EC250FDC3
   c548c: 49 39 c5                     	cmpq	%rax, %r13
   c548f: 0f 84 d0 41 00 00            	je	0xc9665 <Java_com_adjust_sdk_sig_NativeLibHelper_nSign+0xdfba>
   c5495: 48 b8 92 19 d3 ba ec 28 51 f1	movabsq	$-0xeaed713452ce66e, %rax # imm = 0xF15128ECBAD31992
   c549f: 49 39 c5                     	cmpq	%rax, %r13
   c54a2: 4c 8b 8c 24 d8 00 00 00      	movq	0xd8(%rsp), %r9
   c54aa: 4c 8b 84 24 c8 00 00 00      	movq	0xc8(%rsp), %r8
   c54b2: 48 8b b4 24 c0 00 00 00      	movq	0xc0(%rsp), %rsi
   c54ba: 4c 8b 9c 24 b8 00 00 00      	movq	0xb8(%rsp), %r11
   c54c2: 4c 8b b4 24 b0 00 00 00      	movq	0xb0(%rsp), %r14
   c54ca: 48 8b 9c 24 d0 00 00 00      	movq	0xd0(%rsp), %rbx
   c54d2: 0f 84 de 23 00 00            	je	0xc78b6 <Java_com_adjust_sdk_sig_NativeLibHelper_nSign+0xc20b>
   c54d8: 48 b8 5d 59 88 be 81 12 35 fa	movabsq	$-0x5caed7e4177a6a3, %rax # imm = 0xFA351281BE88595D
   c54e2: 49 39 c5                     	cmpq	%rax, %r13
   c54e5: 0f 84 c6 1c 00 00            	je	0xc71b1 <Java_com_adjust_sdk_sig_NativeLibHelper_nSign+0xbb06>
   c54eb: 48 8b 44 24 60               	movq	0x60(%rsp), %rax
   c54f0: 48 89 44 24 58               	movq	%rax, 0x58(%rsp)
   c54f5: 48 89 d8                     	movq	%rbx, %rax
   c54f8: 48 89 5c 24 50               	movq	%rbx, 0x50(%rsp)
   c54fd: 48 8b 84 24 90 00 00 00      	movq	0x90(%rsp), %rax
   c5505: 48 89 44 24 48               	movq	%rax, 0x48(%rsp)
   c550a: 48 8b 84 24 98 00 00 00      	movq	0x98(%rsp), %rax
   c5512: 48 89 44 24 40               	movq	%rax, 0x40(%rsp)
   c5517: 48 8b 84 24 88 00 00 00      	movq	0x88(%rsp), %rax
   c551f: 48 89 44 24 38               	movq	%rax, 0x38(%rsp)
   c5524: 48 8b 94 24 a8 00 00 00      	movq	0xa8(%rsp), %rdx
   c552c: 48 89 54 24 30               	movq	%rdx, 0x30(%rsp)
   c5531: 48 89 dd                     	movq	%rbx, %rbp
   c5534: 48 8b 9c 24 a0 00 00 00      	movq	0xa0(%rsp), %rbx
   c553c: 48 89 5c 24 28               	movq	%rbx, 0x28(%rsp)
   c5541: 4c 89 74 24 20               	movq	%r14, 0x20(%rsp)
   c5546: 4c 89 5c 24 18               	movq	%r11, 0x18(%rsp)
   c554b: 48 8b 44 24 70               	movq	0x70(%rsp), %rax
   c5550: 48 89 44 24 10               	movq	%rax, 0x10(%rsp)
   c5555: 48 8b 44 24 78               	movq	0x78(%rsp), %rax
   c555a: 48 89 44 24 08               	movq	%rax, 0x8(%rsp)
   c555f: 48 8b 44 24 68               	movq	0x68(%rsp), %rax
   c5564: 48 89 04 24                  	movq	%rax, (%rsp)
   c5568: 49 89 f2                     	movq	%rsi, %r10
   c556b: 4c 89 c7                     	movq	%r8, %rdi
   c556e: 4d 89 c7                     	movq	%r8, %r15
   c5571: 4c 89 f1                     	movq	%r14, %rcx
   c5574: 4d 89 ce                     	movq	%r9, %r14
   c5577: 4c 8b a4 24 80 00 00 00      	movq	0x80(%rsp), %r12
   c557f: 48 b8 f3 2b ef 22 c0 61 72 57	movabsq	$0x577261c022ef2bf3, %rax # imm = 0x577261C022EF2BF3
   c5589: 49 b8 b9 2e a0 ad 24 09 92 fa	movabsq	$-0x56df6db525fd147, %r8 # imm = 0xFA920924ADA02EB9
   c5593: 4d 39 c5                     	cmpq	%r8, %r13
   c5596: 0f 84 52 e9 ff ff            	je	0xc3eee <Java_com_adjust_sdk_sig_NativeLibHelper_nSign+0x8843>
   c559c: 48 8b 44 24 60               	movq	0x60(%rsp), %rax
   c55a1: 48 89 44 24 58               	movq	%rax, 0x58(%rsp)
   c55a6: 48 89 e8                     	movq	%rbp, %rax
   c55a9: 48 89 6c 24 50               	movq	%rbp, 0x50(%rsp)
   c55ae: 48 8b 84 24 90 00 00 00      	movq	0x90(%rsp), %rax
   c55b6: 48 89 44 24 48               	movq	%rax, 0x48(%rsp)
   c55bb: 48 8b 84 24 98 00 00 00      	movq	0x98(%rsp), %rax
   c55c3: 48 89 44 24 40               	movq	%rax, 0x40(%rsp)
   c55c8: 48 8b 84 24 88 00 00 00      	movq	0x88(%rsp), %rax
   c55d0: 48 89 44 24 38               	movq	%rax, 0x38(%rsp)
   c55d5: 48 89 54 24 30               	movq	%rdx, 0x30(%rsp)
   c55da: 48 89 5c 24 28               	movq	%rbx, 0x28(%rsp)
   c55df: 48 89 4c 24 20               	movq	%rcx, 0x20(%rsp)
   c55e4: 4c 89 5c 24 18               	movq	%r11, 0x18(%rsp)
   c55e9: 48 8b 44 24 70               	movq	0x70(%rsp), %rax
   c55ee: 48 89 44 24 10               	movq	%rax, 0x10(%rsp)
   c55f3: 48 8b 44 24 78               	movq	0x78(%rsp), %rax
   c55f8: 48 89 44 24 08               	movq	%rax, 0x8(%rsp)
   c55fd: 48 8b 44 24 68               	movq	0x68(%rsp), %rax
   c5602: 48 89 04 24                  	movq	%rax, (%rsp)
   c5606: 49 89 f2                     	movq	%rsi, %r10
   c5609: 4c 89 ff                     	movq	%r15, %rdi
   c560c: 4d 89 ce                     	movq	%r9, %r14
   c560f: 4c 8b a4 24 10 02 00 00      	movq	0x210(%rsp), %r12
   c5617: 48 b8 1b 05 78 c8 3f cd 2b c9	movabsq	$-0x36d432c03787fae5, %rax # imm = 0xC92BCD3FC878051B
   c5621: 49 b8 a8 8f c1 3f bb 00 54 fc	movabsq	$-0x3abff44c03e7058, %r8 # imm = 0xFC5400BB3FC18FA8
   c562b: 4d 39 c5                     	cmpq	%r8, %r13
   c562e: 0f 84 ba e8 ff ff            	je	0xc3eee <Java_com_adjust_sdk_sig_NativeLibHelper_nSign+0x8843>
   c5634: 48 b8 61 4d 39 20 29 e1 92 fe	movabsq	$-0x16d1ed6dfc6b29f, %rax # imm = 0xFE92E12920394D61
   c563e: 49 39 c5                     	cmpq	%rax, %r13
   c5641: 0f 84 e2 39 00 00            	je	0xc9029 <Java_com_adjust_sdk_sig_NativeLibHelper_nSign+0xd97e>
   c5647: 48 b8 4f 3f a7 d6 08 d1 d4 fe	movabsq	$-0x12b2ef72958c0b1, %rax # imm = 0xFED4D108D6A73F4F
   c5651: 49 39 c5                     	cmpq	%rax, %r13
   c5654: 4c 8b b4 24 d8 00 00 00      	movq	0xd8(%rsp), %r14
   c565c: 48 8b 9c 24 d0 00 00 00      	movq	0xd0(%rsp), %rbx
   c5664: 0f 84 08 38 00 00            	je	0xc8e72 <Java_com_adjust_sdk_sig_NativeLibHelper_nSign+0xd7c7>
   c566a: 48 8b 44 24 60               	movq	0x60(%rsp), %rax
   c566f: 48 89 44 24 58               	movq	%rax, 0x58(%rsp)
   c5674: 48 89 d8                     	movq	%rbx, %rax
   c5677: 48 89 5c 24 50               	movq	%rbx, 0x50(%rsp)
   c567c: 48 8b 84 24 90 00 00 00      	movq	0x90(%rsp), %rax
   c5684: 48 89 44 24 48               	movq	%rax, 0x48(%rsp)
   c5689: 48 8b 84 24 98 00 00 00      	movq	0x98(%rsp), %rax
   c5691: 48 89 44 24 40               	movq	%rax, 0x40(%rsp)
   c5696: 48 8b 84 24 88 00 00 00      	movq	0x88(%rsp), %rax
   c569e: 48 89 44 24 38               	movq	%rax, 0x38(%rsp)
   c56a3: 48 8b 84 24 a8 00 00 00      	movq	0xa8(%rsp), %rax
   c56ab: 48 89 44 24 30               	movq	%rax, 0x30(%rsp)
   c56b0: 48 8b 84 24 a0 00 00 00      	movq	0xa0(%rsp), %rax
   c56b8: 48 89 44 24 28               	movq	%rax, 0x28(%rsp)
   c56bd: 48 8b 84 24 b0 00 00 00      	movq	0xb0(%rsp), %rax
   c56c5: 48 89 44 24 20               	movq	%rax, 0x20(%rsp)
   c56ca: 48 8b 84 24 b8 00 00 00      	movq	0xb8(%rsp), %rax
   c56d2: 48 89 44 24 18               	movq	%rax, 0x18(%rsp)
   c56d7: 48 8b 44 24 70               	movq	0x70(%rsp), %rax
   c56dc: 48 89 44 24 10               	movq	%rax, 0x10(%rsp)
   c56e1: 48 8b 44 24 78               	movq	0x78(%rsp), %rax
   c56e6: 48 89 44 24 08               	movq	%rax, 0x8(%rsp)
   c56eb: 48 8b 44 24 68               	movq	0x68(%rsp), %rax
   c56f0: 48 89 04 24                  	movq	%rax, (%rsp)
   c56f4: 4c 8b 94 24 c0 00 00 00      	movq	0xc0(%rsp), %r10
   c56fc: 48 8b bc 24 c8 00 00 00      	movq	0xc8(%rsp), %rdi
   c5704: 4c 8b a4 24 80 00 00 00      	movq	0x80(%rsp), %r12
   c570c: 48 b8 0a be fd 30 cb c7 1b d1	movabsq	$-0x2ee43834cf0241f6, %rax # imm = 0xD11BC7CB30FDBE0A
   c5716: 49 b8 c8 94 f8 ac f9 2b b7 01	movabsq	$0x1b72bf9acf894c8, %r8 # imm = 0x1B72BF9ACF894C8
   c5720: 4d 39 c5                     	cmpq	%r8, %r13
   c5723: 0f 84 c5 e7 ff ff            	je	0xc3eee <Java_com_adjust_sdk_sig_NativeLibHelper_nSign+0x8843>
   c5729: 48 b8 48 af 86 ed ea 7b df 01	movabsq	$0x1df7beaed86af48, %rax # imm = 0x1DF7BEAED86AF48
   c5733: 49 39 c5                     	cmpq	%rax, %r13
   c5736: 0f 84 56 3e 00 00            	je	0xc9592 <Java_com_adjust_sdk_sig_NativeLibHelper_nSign+0xdee7>
   c573c: 48 b8 67 ac 6e 50 cf e2 82 02	movabsq	$0x282e2cf506eac67, %rax # imm = 0x282E2CF506EAC67
   c5746: 49 39 c5                     	cmpq	%rax, %r13
   c5749: 4c 8b 8c 24 d8 00 00 00      	movq	0xd8(%rsp), %r9
   c5751: 4c 8b 84 24 c8 00 00 00      	movq	0xc8(%rsp), %r8
   c5759: 48 8b b4 24 c0 00 00 00      	movq	0xc0(%rsp), %rsi
   c5761: 4c 8b 9c 24 b8 00 00 00      	movq	0xb8(%rsp), %r11
   c5769: 4c 8b b4 24 b0 00 00 00      	movq	0xb0(%rsp), %r14
   c5771: 48 8b 9c 24 d0 00 00 00      	movq	0xd0(%rsp), %rbx
   c5779: 0f 84 19 34 00 00            	je	0xc8b98 <Java_com_adjust_sdk_sig_NativeLibHelper_nSign+0xd4ed>
   c577f: 48 b8 74 c4 d3 7d 2f 5c e0 05	movabsq	$0x5e05c2f7dd3c474, %rax # imm = 0x5E05C2F7DD3C474
   c5789: 49 39 c5                     	cmpq	%rax, %r13
   c578c: 0f 84 d5 1e 00 00            	je	0xc7667 <Java_com_adjust_sdk_sig_NativeLibHelper_nSign+0xbfbc>
   c5792: 48 8b 44 24 60               	movq	0x60(%rsp), %rax
   c5797: 48 89 44 24 58               	movq	%rax, 0x58(%rsp)
   c579c: 48 89 d8                     	movq	%rbx, %rax
   c579f: 48 89 5c 24 50               	movq	%rbx, 0x50(%rsp)
   c57a4: 48 8b 84 24 90 00 00 00      	movq	0x90(%rsp), %rax
   c57ac: 48 89 44 24 48               	movq	%rax, 0x48(%rsp)
   c57b1: 48 8b 84 24 98 00 00 00      	movq	0x98(%rsp), %rax
   c57b9: 48 89 44 24 40               	movq	%rax, 0x40(%rsp)
   c57be: 48 8b 84 24 88 00 00 00      	movq	0x88(%rsp), %rax
   c57c6: 48 89 44 24 38               	movq	%rax, 0x38(%rsp)
   c57cb: 48 8b 94 24 a8 00 00 00      	movq	0xa8(%rsp), %rdx
   c57d3: 48 89 54 24 30               	movq	%rdx, 0x30(%rsp)
   c57d8: 48 89 dd                     	movq	%rbx, %rbp
   c57db: 48 8b 9c 24 a0 00 00 00      	movq	0xa0(%rsp), %rbx
   c57e3: 48 89 5c 24 28               	movq	%rbx, 0x28(%rsp)
   c57e8: 4c 89 74 24 20               	movq	%r14, 0x20(%rsp)
   c57ed: 4c 89 5c 24 18               	movq	%r11, 0x18(%rsp)
   c57f2: 48 8b 44 24 70               	movq	0x70(%rsp), %rax
   c57f7: 48 89 44 24 10               	movq	%rax, 0x10(%rsp)
   c57fc: 48 8b 44 24 78               	movq	0x78(%rsp), %rax
   c5801: 48 89 44 24 08               	movq	%rax, 0x8(%rsp)
   c5806: 48 8b 44 24 68               	movq	0x68(%rsp), %rax
   c580b: 48 89 04 24                  	movq	%rax, (%rsp)
   c580f: 49 89 f2                     	movq	%rsi, %r10
   c5812: 4c 89 c7                     	movq	%r8, %rdi
   c5815: 4d 89 c7                     	movq	%r8, %r15
   c5818: 4c 89 f1                     	movq	%r14, %rcx
   c581b: 4d 89 ce                     	movq	%r9, %r14
   c581e: 4c 8b a4 24 10 02 00 00      	movq	0x210(%rsp), %r12
   c5826: 48 b8 1b 05 78 c8 3f cd 2b c9	movabsq	$-0x36d432c03787fae5, %rax # imm = 0xC92BCD3FC878051B
   c5830: 49 b8 04 ee 6e 80 ad f5 2e 0c	movabsq	$0xc2ef5ad806eee04, %r8 # imm = 0xC2EF5AD806EEE04
   c583a: 4d 39 c5                     	cmpq	%r8, %r13
   c583d: 0f 84 ab e6 ff ff            	je	0xc3eee <Java_com_adjust_sdk_sig_NativeLibHelper_nSign+0x8843>
   c5843: 48 8b 84 24 08 02 00 00      	movq	0x208(%rsp), %rax
   c584b: 48 89 44 24 58               	movq	%rax, 0x58(%rsp)
   c5850: 48 89 e8                     	movq	%rbp, %rax
   c5853: 48 89 6c 24 50               	movq	%rbp, 0x50(%rsp)
   c5858: 48 8b 84 24 90 00 00 00      	movq	0x90(%rsp), %rax
   c5860: 48 89 44 24 48               	movq	%rax, 0x48(%rsp)
   c5865: 48 8b 84 24 98 00 00 00      	movq	0x98(%rsp), %rax
   c586d: 48 89 44 24 40               	movq	%rax, 0x40(%rsp)
   c5872: 48 8b 84 24 88 00 00 00      	movq	0x88(%rsp), %rax
   c587a: 48 89 44 24 38               	movq	%rax, 0x38(%rsp)
   c587f: 48 89 54 24 30               	movq	%rdx, 0x30(%rsp)
   c5884: 48 89 5c 24 28               	movq	%rbx, 0x28(%rsp)
   c5889: 48 89 4c 24 20               	movq	%rcx, 0x20(%rsp)
   c588e: 4c 89 5c 24 18               	movq	%r11, 0x18(%rsp)
   c5893: 48 8b 44 24 70               	movq	0x70(%rsp), %rax
   c5898: 48 89 44 24 10               	movq	%rax, 0x10(%rsp)
   c589d: 48 8b 44 24 78               	movq	0x78(%rsp), %rax
   c58a2: 48 89 44 24 08               	movq	%rax, 0x8(%rsp)
   c58a7: 48 8b 44 24 68               	movq	0x68(%rsp), %rax
   c58ac: 48 89 04 24                  	movq	%rax, (%rsp)
   c58b0: 49 89 f2                     	movq	%rsi, %r10
   c58b3: 4c 89 ff                     	movq	%r15, %rdi
   c58b6: 4d 89 ce                     	movq	%r9, %r14
   c58b9: 4c 8b a4 24 80 00 00 00      	movq	0x80(%rsp), %r12
   c58c1: 48 b8 52 a3 f6 b1 c9 8d 3b 25	movabsq	$0x253b8dc9b1f6a352, %rax # imm = 0x253B8DC9B1F6A352
   c58cb: 49 b8 bf ef f1 d0 8e 1f 50 0c	movabsq	$0xc501f8ed0f1efbf, %r8 # imm = 0xC501F8ED0F1EFBF
   c58d5: 4d 39 c5                     	cmpq	%r8, %r13
   c58d8: 0f 84 10 e6 ff ff            	je	0xc3eee <Java_com_adjust_sdk_sig_NativeLibHelper_nSign+0x8843>
   c58de: 48 b8 a1 50 5c 3b 46 8c fc 0c	movabsq	$0xcfc8c463b5c50a1, %rax # imm = 0xCFC8C463B5C50A1
   c58e8: 49 39 c5                     	cmpq	%rax, %r13
   c58eb: 0f 84 22 17 00 00            	je	0xc7013 <Java_com_adjust_sdk_sig_NativeLibHelper_nSign+0xb968>
   c58f1: 48 b8 5b 19 4d cb de b1 f9 0d	movabsq	$0xdf9b1decb4d195b, %rax # imm = 0xDF9B1DECB4D195B
   c58fb: 49 39 c5                     	cmpq	%rax, %r13
   c58fe: 4c 8b 8c 24 d8 00 00 00      	movq	0xd8(%rsp), %r9
   c5906: 4c 8b bc 24 c8 00 00 00      	movq	0xc8(%rsp), %r15
   c590e: 48 8b b4 24 c0 00 00 00      	movq	0xc0(%rsp), %rsi
   c5916: 4c 8b 9c 24 b8 00 00 00      	movq	0xb8(%rsp), %r11
   c591e: 4c 8b 84 24 b0 00 00 00      	movq	0xb0(%rsp), %r8
   c5926: 4c 8b b4 24 a0 00 00 00      	movq	0xa0(%rsp), %r14
   c592e: 48 8b ac 24 d0 00 00 00      	movq	0xd0(%rsp), %rbp
   c5936: 0f 84 9b 1e 00 00            	je	0xc77d7 <Java_com_adjust_sdk_sig_NativeLibHelper_nSign+0xc12c>
   c593c: 48 8b 44 24 60               	movq	0x60(%rsp), %rax
   c5941: 48 89 44 24 58               	movq	%rax, 0x58(%rsp)
   c5946: 48 89 e8                     	movq	%rbp, %rax
   c5949: 48 89 6c 24 50               	movq	%rbp, 0x50(%rsp)
   c594e: 48 8b 84 24 90 00 00 00      	movq	0x90(%rsp), %rax
   c5956: 48 89 44 24 48               	movq	%rax, 0x48(%rsp)
   c595b: 48 8b 84 24 98 00 00 00      	movq	0x98(%rsp), %rax
   c5963: 48 89 44 24 40               	movq	%rax, 0x40(%rsp)
   c5968: 48 8b 84 24 88 00 00 00      	movq	0x88(%rsp), %rax
   c5970: 48 89 44 24 38               	movq	%rax, 0x38(%rsp)
   c5975: 48 8b 94 24 a8 00 00 00      	movq	0xa8(%rsp), %rdx
   c597d: 48 89 54 24 30               	movq	%rdx, 0x30(%rsp)
   c5982: 4c 89 74 24 28               	movq	%r14, 0x28(%rsp)
   c5987: 4c 89 44 24 20               	movq	%r8, 0x20(%rsp)
   c598c: 4c 89 5c 24 18               	movq	%r11, 0x18(%rsp)
   c5991: 48 8b 44 24 70               	movq	0x70(%rsp), %rax
   c5996: 48 89 44 24 10               	movq	%rax, 0x10(%rsp)
   c599b: 48 8b 44 24 78               	movq	0x78(%rsp), %rax
   c59a0: 48 89 44 24 08               	movq	%rax, 0x8(%rsp)
   c59a5: 48 8b 44 24 68               	movq	0x68(%rsp), %rax
   c59aa: 48 89 04 24                  	movq	%rax, (%rsp)
   c59ae: 49 89 f2                     	movq	%rsi, %r10
   c59b1: 4c 89 ff                     	movq	%r15, %rdi
   c59b4: 4c 89 c3                     	movq	%r8, %rbx
   c59b7: 4c 89 f1                     	movq	%r14, %rcx
   c59ba: 4d 89 ce                     	movq	%r9, %r14
   c59bd: 4c 8b a4 24 80 00 00 00      	movq	0x80(%rsp), %r12
   c59c5: 48 8b 84 24 88 02 00 00      	movq	0x288(%rsp), %rax
   c59cd: 49 b8 dd 95 db 78 02 9e 21 11	movabsq	$0x11219e0278db95dd, %r8 # imm = 0x11219E0278DB95DD
   c59d7: 4d 39 c5                     	cmpq	%r8, %r13
   c59da: 0f 84 0e e5 ff ff            	je	0xc3eee <Java_com_adjust_sdk_sig_NativeLibHelper_nSign+0x8843>
   c59e0: 48 8b 44 24 60               	movq	0x60(%rsp), %rax
   c59e5: 48 89 44 24 58               	movq	%rax, 0x58(%rsp)
   c59ea: 48 8b 84 24 00 01 00 00      	movq	0x100(%rsp), %rax
   c59f2: 48 89 44 24 50               	movq	%rax, 0x50(%rsp)
   c59f7: 48 8b 84 24 90 00 00 00      	movq	0x90(%rsp), %rax
   c59ff: 48 89 44 24 48               	movq	%rax, 0x48(%rsp)
   c5a04: 48 8b 84 24 98 00 00 00      	movq	0x98(%rsp), %rax
   c5a0c: 48 89 44 24 40               	movq	%rax, 0x40(%rsp)
   c5a11: 48 8b 84 24 88 00 00 00      	movq	0x88(%rsp), %rax
   c5a19: 48 89 44 24 38               	movq	%rax, 0x38(%rsp)
   c5a1e: 48 89 54 24 30               	movq	%rdx, 0x30(%rsp)
   c5a23: 48 89 4c 24 28               	movq	%rcx, 0x28(%rsp)
   c5a28: 48 89 5c 24 20               	movq	%rbx, 0x20(%rsp)
   c5a2d: 4c 89 5c 24 18               	movq	%r11, 0x18(%rsp)
   c5a32: 48 8b 44 24 70               	movq	0x70(%rsp), %rax
   c5a37: 48 89 44 24 10               	movq	%rax, 0x10(%rsp)
   c5a3c: 48 8b 44 24 78               	movq	0x78(%rsp), %rax
   c5a41: 48 89 44 24 08               	movq	%rax, 0x8(%rsp)
   c5a46: 48 8b 44 24 68               	movq	0x68(%rsp), %rax
   c5a4b: 48 89 04 24                  	movq	%rax, (%rsp)
   c5a4f: 49 89 f2                     	movq	%rsi, %r10
   c5a52: 4c 89 ff                     	movq	%r15, %rdi
   c5a55: 4d 89 ce                     	movq	%r9, %r14
   c5a58: 4c 8b a4 24 80 00 00 00      	movq	0x80(%rsp), %r12
   c5a60: 48 b8 0f a3 47 35 f3 9d 9c b2	movabsq	$-0x4d63620ccab85cf1, %rax # imm = 0xB29C9DF33547A30F
   c5a6a: 49 b8 4b c4 0a 99 13 70 e1 13	movabsq	$0x13e17013990ac44b, %r8 # imm = 0x13E17013990AC44B
   c5a74: 4d 39 c5                     	cmpq	%r8, %r13
   c5a77: 0f 84 71 e4 ff ff            	je	0xc3eee <Java_com_adjust_sdk_sig_NativeLibHelper_nSign+0x8843>
   c5a7d: 48 8b 44 24 60               	movq	0x60(%rsp), %rax
   c5a82: 48 89 44 24 58               	movq	%rax, 0x58(%rsp)
   c5a87: 48 89 e8                     	movq	%rbp, %rax
   c5a8a: 48 89 6c 24 50               	movq	%rbp, 0x50(%rsp)
   c5a8f: 48 8b 84 24 90 00 00 00      	movq	0x90(%rsp), %rax
   c5a97: 48 89 44 24 48               	movq	%rax, 0x48(%rsp)
   c5a9c: 48 8b 84 24 98 00 00 00      	movq	0x98(%rsp), %rax
   c5aa4: 48 89 44 24 40               	movq	%rax, 0x40(%rsp)
   c5aa9: 48 8b 84 24 88 00 00 00      	movq	0x88(%rsp), %rax
   c5ab1: 48 89 44 24 38               	movq	%rax, 0x38(%rsp)
   c5ab6: 48 89 54 24 30               	movq	%rdx, 0x30(%rsp)
   c5abb: 48 89 4c 24 28               	movq	%rcx, 0x28(%rsp)
   c5ac0: 48 89 5c 24 20               	movq	%rbx, 0x20(%rsp)
   c5ac5: 4c 89 5c 24 18               	movq	%r11, 0x18(%rsp)
   c5aca: 48 8b 44 24 70               	movq	0x70(%rsp), %rax
   c5acf: 48 89 44 24 10               	movq	%rax, 0x10(%rsp)
   c5ad4: 48 8b 44 24 78               	movq	0x78(%rsp), %rax
   c5ad9: 48 89 44 24 08               	movq	%rax, 0x8(%rsp)
   c5ade: 48 8b 44 24 68               	movq	0x68(%rsp), %rax
   c5ae3: 48 89 04 24                  	movq	%rax, (%rsp)
   c5ae7: 49 89 f2                     	movq	%rsi, %r10
   c5aea: 4c 89 ff                     	movq	%r15, %rdi
   c5aed: 4d 89 ce                     	movq	%r9, %r14
   c5af0: 4c 8b a4 24 80 00 00 00      	movq	0x80(%rsp), %r12
   c5af8: 48 b8 70 fb 90 79 0d 21 0a 49	movabsq	$0x490a210d7990fb70, %rax # imm = 0x490A210D7990FB70
   c5b02: 49 b8 0f 59 29 fa 5e ff 6c 18	movabsq	$0x186cff5efa29590f, %r8 # imm = 0x186CFF5EFA29590F
   c5b0c: 4d 39 c5                     	cmpq	%r8, %r13
   c5b0f: 0f 84 d9 e3 ff ff            	je	0xc3eee <Java_com_adjust_sdk_sig_NativeLibHelper_nSign+0x8843>
   c5b15: 48 b8 e3 9e 1b f8 fd be d2 1b	movabsq	$0x1bd2befdf81b9ee3, %rax # imm = 0x1BD2BEFDF81B9EE3
   c5b1f: 49 39 c5                     	cmpq	%rax, %r13
   c5b22: 0f 84 f7 21 00 00            	je	0xc7d1f <Java_com_adjust_sdk_sig_NativeLibHelper_nSign+0xc674>
   c5b28: 48 8b 44 24 60               	movq	0x60(%rsp), %rax
   c5b2d: 48 89 44 24 58               	movq	%rax, 0x58(%rsp)
   c5b32: 48 8b ac 24 d0 00 00 00      	movq	0xd0(%rsp), %rbp
   c5b3a: 48 89 e8                     	movq	%rbp, %rax
   c5b3d: 48 89 6c 24 50               	movq	%rbp, 0x50(%rsp)
   c5b42: 48 8b 84 24 90 00 00 00      	movq	0x90(%rsp), %rax
   c5b4a: 48 89 44 24 48               	movq	%rax, 0x48(%rsp)
   c5b4f: 48 8b 84 24 98 00 00 00      	movq	0x98(%rsp), %rax
   c5b57: 48 89 44 24 40               	movq	%rax, 0x40(%rsp)
   c5b5c: 48 8b 84 24 88 00 00 00      	movq	0x88(%rsp), %rax
   c5b64: 48 89 44 24 38               	movq	%rax, 0x38(%rsp)
   c5b69: 48 8b 94 24 a8 00 00 00      	movq	0xa8(%rsp), %rdx
   c5b71: 48 89 54 24 30               	movq	%rdx, 0x30(%rsp)
   c5b76: 48 8b 8c 24 a0 00 00 00      	movq	0xa0(%rsp), %rcx
   c5b7e: 48 89 4c 24 28               	movq	%rcx, 0x28(%rsp)
   c5b83: 48 8b 9c 24 b0 00 00 00      	movq	0xb0(%rsp), %rbx
   c5b8b: 48 89 5c 24 20               	movq	%rbx, 0x20(%rsp)
   c5b90: 4c 8b 9c 24 b8 00 00 00      	movq	0xb8(%rsp), %r11
   c5b98: 4c 89 5c 24 18               	movq	%r11, 0x18(%rsp)
   c5b9d: 48 8b 44 24 70               	movq	0x70(%rsp), %rax
   c5ba2: 48 89 44 24 10               	movq	%rax, 0x10(%rsp)
   c5ba7: 48 8b 44 24 78               	movq	0x78(%rsp), %rax
   c5bac: 48 89 44 24 08               	movq	%rax, 0x8(%rsp)
   c5bb1: 48 8b 44 24 68               	movq	0x68(%rsp), %rax
   c5bb6: 48 89 04 24                  	movq	%rax, (%rsp)
   c5bba: 48 8b b4 24 c0 00 00 00      	movq	0xc0(%rsp), %rsi
   c5bc2: 49 89 f2                     	movq	%rsi, %r10
   c5bc5: 4c 8b bc 24 c8 00 00 00      	movq	0xc8(%rsp), %r15
   c5bcd: 4c 89 ff                     	movq	%r15, %rdi
   c5bd0: 4c 8b 8c 24 d8 00 00 00      	movq	0xd8(%rsp), %r9
   c5bd8: 4d 89 ce                     	movq	%r9, %r14
   c5bdb: 4c 8b a4 24 80 00 00 00      	movq	0x80(%rsp), %r12
   c5be3: 48 b8 ab 60 d5 9b e7 a5 66 50	movabsq	$0x5066a5e79bd560ab, %rax # imm = 0x5066A5E79BD560AB
   c5bed: 49 b8 72 70 99 84 23 13 53 1c	movabsq	$0x1c53132384997072, %r8 # imm = 0x1C53132384997072
   c5bf7: 4d 39 c5                     	cmpq	%r8, %r13
   c5bfa: 0f 84 ee e2 ff ff            	je	0xc3eee <Java_com_adjust_sdk_sig_NativeLibHelper_nSign+0x8843>
   c5c00: 48 8b 44 24 60               	movq	0x60(%rsp), %rax
   c5c05: 48 89 44 24 58               	movq	%rax, 0x58(%rsp)
   c5c0a: 48 89 e8                     	movq	%rbp, %rax
   c5c0d: 48 89 6c 24 50               	movq	%rbp, 0x50(%rsp)
   c5c12: 48 8b 84 24 90 00 00 00      	movq	0x90(%rsp), %rax
   c5c1a: 48 89 44 24 48               	movq	%rax, 0x48(%rsp)
   c5c1f: 48 8b 84 24 98 00 00 00      	movq	0x98(%rsp), %rax
   c5c27: 48 89 44 24 40               	movq	%rax, 0x40(%rsp)
   c5c2c: 48 8b 84 24 88 00 00 00      	movq	0x88(%rsp), %rax
   c5c34: 48 89 44 24 38               	movq	%rax, 0x38(%rsp)
   c5c39: 48 89 54 24 30               	movq	%rdx, 0x30(%rsp)
   c5c3e: 48 89 4c 24 28               	movq	%rcx, 0x28(%rsp)
   c5c43: 48 89 5c 24 20               	movq	%rbx, 0x20(%rsp)
   c5c48: 4c 89 5c 24 18               	movq	%r11, 0x18(%rsp)
   c5c4d: 48 8b 44 24 70               	movq	0x70(%rsp), %rax
   c5c52: 48 89 44 24 10               	movq	%rax, 0x10(%rsp)
   c5c57: 48 8b 44 24 78               	movq	0x78(%rsp), %rax
   c5c5c: 48 89 44 24 08               	movq	%rax, 0x8(%rsp)
   c5c61: 48 8b 44 24 68               	movq	0x68(%rsp), %rax
   c5c66: 48 89 04 24                  	movq	%rax, (%rsp)
   c5c6a: 49 89 f2                     	movq	%rsi, %r10
   c5c6d: 4c 89 ff                     	movq	%r15, %rdi
   c5c70: 4d 89 ce                     	movq	%r9, %r14
   c5c73: 4c 8b a4 24 80 00 00 00      	movq	0x80(%rsp), %r12
   c5c7b: 48 b8 1c a3 2d 84 b6 f6 24 47	movabsq	$0x4724f6b6842da31c, %rax # imm = 0x4724F6B6842DA31C
   c5c85: 49 b8 fc 76 9a 66 22 18 30 23	movabsq	$0x23301822669a76fc, %r8 # imm = 0x23301822669A76FC
   c5c8f: 4d 39 c5                     	cmpq	%r8, %r13
   c5c92: 0f 84 56 e2 ff ff            	je	0xc3eee <Java_com_adjust_sdk_sig_NativeLibHelper_nSign+0x8843>
   c5c98: 48 8b 44 24 60               	movq	0x60(%rsp), %rax
   c5c9d: 48 89 44 24 58               	movq	%rax, 0x58(%rsp)
   c5ca2: 48 89 e8                     	movq	%rbp, %rax
   c5ca5: 48 89 6c 24 50               	movq	%rbp, 0x50(%rsp)
   c5caa: 48 8b 84 24 90 00 00 00      	movq	0x90(%rsp), %rax
   c5cb2: 48 89 44 24 48               	movq	%rax, 0x48(%rsp)
   c5cb7: 48 8b 84 24 98 00 00 00      	movq	0x98(%rsp), %rax
   c5cbf: 48 89 44 24 40               	movq	%rax, 0x40(%rsp)
   c5cc4: 48 8b 84 24 88 00 00 00      	movq	0x88(%rsp), %rax
   c5ccc: 48 89 44 24 38               	movq	%rax, 0x38(%rsp)
   c5cd1: 48 89 54 24 30               	movq	%rdx, 0x30(%rsp)
   c5cd6: 48 89 4c 24 28               	movq	%rcx, 0x28(%rsp)
   c5cdb: 48 89 5c 24 20               	movq	%rbx, 0x20(%rsp)
   c5ce0: 4c 8b 9c 24 10 01 00 00      	movq	0x110(%rsp), %r11
   c5ce8: 4c 89 5c 24 18               	movq	%r11, 0x18(%rsp)
   c5ced: 48 8b 44 24 70               	movq	0x70(%rsp), %rax
   c5cf2: 48 89 44 24 10               	movq	%rax, 0x10(%rsp)
   c5cf7: 48 8b 44 24 78               	movq	0x78(%rsp), %rax
   c5cfc: 48 89 44 24 08               	movq	%rax, 0x8(%rsp)
   c5d01: 48 8b 44 24 68               	movq	0x68(%rsp), %rax
   c5d06: 48 89 04 24                  	movq	%rax, (%rsp)
   c5d0a: 49 89 f2                     	movq	%rsi, %r10
   c5d0d: 4c 89 ff                     	movq	%r15, %rdi
   c5d10: 4d 89 ce                     	movq	%r9, %r14
   c5d13: 4c 8b a4 24 80 00 00 00      	movq	0x80(%rsp), %r12
   c5d1b: 48 b8 26 e2 82 d5 2c 9b 53 d6	movabsq	$-0x29ac64d32a7d1dda, %rax # imm = 0xD6539B2CD582E226
   c5d25: 49 b8 59 5c 5d a2 fc e3 68 23	movabsq	$0x2368e3fca25d5c59, %r8 # imm = 0x2368E3FCA25D5C59
   c5d2f: 4d 39 c5                     	cmpq	%r8, %r13
   c5d32: 0f 84 b6 e1 ff ff            	je	0xc3eee <Java_com_adjust_sdk_sig_NativeLibHelper_nSign+0x8843>
   c5d38: 48 b8 52 a3 f6 b1 c9 8d 3b 25	movabsq	$0x253b8dc9b1f6a352, %rax # imm = 0x253B8DC9B1F6A352
   c5d42: 49 39 c5                     	cmpq	%rax, %r13
   c5d45: 0f 84 48 25 00 00            	je	0xc8293 <Java_com_adjust_sdk_sig_NativeLibHelper_nSign+0xcbe8>
   c5d4b: 48 b8 a3 84 6c 40 6d b0 73 27	movabsq	$0x2773b06d406c84a3, %rax # imm = 0x2773B06D406C84A3
   c5d55: 49 39 c5                     	cmpq	%rax, %r13
   c5d58: 4c 8b b4 24 d8 00 00 00      	movq	0xd8(%rsp), %r14
   c5d60: 48 8b 9c 24 d0 00 00 00      	movq	0xd0(%rsp), %rbx
   c5d68: 0f 84 b7 30 00 00            	je	0xc8e25 <Java_com_adjust_sdk_sig_NativeLibHelper_nSign+0xd77a>
   c5d6e: 48 8b 84 24 80 02 00 00      	movq	0x280(%rsp), %rax
   c5d76: 48 89 44 24 58               	movq	%rax, 0x58(%rsp)
   c5d7b: 48 89 d8                     	movq	%rbx, %rax
   c5d7e: 48 89 5c 24 50               	movq	%rbx, 0x50(%rsp)
   c5d83: 48 8b 84 24 90 00 00 00      	movq	0x90(%rsp), %rax
   c5d8b: 48 89 44 24 48               	movq	%rax, 0x48(%rsp)
   c5d90: 48 8b 84 24 98 00 00 00      	movq	0x98(%rsp), %rax
   c5d98: 48 89 44 24 40               	movq	%rax, 0x40(%rsp)
   c5d9d: 48 8b 84 24 88 00 00 00      	movq	0x88(%rsp), %rax
   c5da5: 48 89 44 24 38               	movq	%rax, 0x38(%rsp)
   c5daa: 48 8b 84 24 a8 00 00 00      	movq	0xa8(%rsp), %rax
   c5db2: 48 89 44 24 30               	movq	%rax, 0x30(%rsp)
   c5db7: 48 8b 84 24 a0 00 00 00      	movq	0xa0(%rsp), %rax
   c5dbf: 48 89 44 24 28               	movq	%rax, 0x28(%rsp)
   c5dc4: 48 8b 84 24 b0 00 00 00      	movq	0xb0(%rsp), %rax
   c5dcc: 48 89 44 24 20               	movq	%rax, 0x20(%rsp)
   c5dd1: 48 8b 84 24 b8 00 00 00      	movq	0xb8(%rsp), %rax
   c5dd9: 48 89 44 24 18               	movq	%rax, 0x18(%rsp)
   c5dde: 48 8b 44 24 70               	movq	0x70(%rsp), %rax
   c5de3: 48 89 44 24 10               	movq	%rax, 0x10(%rsp)
   c5de8: 48 8b 44 24 78               	movq	0x78(%rsp), %rax
   c5ded: 48 89 44 24 08               	movq	%rax, 0x8(%rsp)
   c5df2: 48 8b 44 24 68               	movq	0x68(%rsp), %rax
   c5df7: 48 89 04 24                  	movq	%rax, (%rsp)
   c5dfb: 4c 8b 94 24 c0 00 00 00      	movq	0xc0(%rsp), %r10
   c5e03: 48 8b bc 24 c8 00 00 00      	movq	0xc8(%rsp), %rdi
   c5e0b: 4c 8b a4 24 80 00 00 00      	movq	0x80(%rsp), %r12
   c5e13: 48 b8 52 a3 f6 b1 c9 8d 3b 25	movabsq	$0x253b8dc9b1f6a352, %rax # imm = 0x253B8DC9B1F6A352
   c5e1d: 49 b8 96 b1 3e ba c2 75 d0 29	movabsq	$0x29d075c2ba3eb196, %r8 # imm = 0x29D075C2BA3EB196
   c5e27: 4d 39 c5                     	cmpq	%r8, %r13
   c5e2a: 0f 84 be e0 ff ff            	je	0xc3eee <Java_com_adjust_sdk_sig_NativeLibHelper_nSign+0x8843>
   c5e30: 48 b8 55 39 1c 12 15 01 99 2b	movabsq	$0x2b990115121c3955, %rax # imm = 0x2B990115121C3955
   c5e3a: 49 39 c5                     	cmpq	%rax, %r13
   c5e3d: 0f 84 ba 2e 00 00            	je	0xc8cfd <Java_com_adjust_sdk_sig_NativeLibHelper_nSign+0xd652>
   c5e43: 48 b8 f4 2f 9f 62 f3 d6 66 2c	movabsq	$0x2c66d6f3629f2ff4, %rax # imm = 0x2C66D6F3629F2FF4
   c5e4d: 49 39 c5                     	cmpq	%rax, %r13
   c5e50: 4c 8b b4 24 d8 00 00 00      	movq	0xd8(%rsp), %r14
   c5e58: 48 8b 9c 24 d0 00 00 00      	movq	0xd0(%rsp), %rbx
   c5e60: 0f 84 7e 16 00 00            	je	0xc74e4 <Java_com_adjust_sdk_sig_NativeLibHelper_nSign+0xbe39>
   c5e66: 48 b8 50 30 d8 07 4a 46 ca 2d	movabsq	$0x2dca464a07d83050, %rax # imm = 0x2DCA464A07D83050
   c5e70: 49 39 c5                     	cmpq	%rax, %r13
   c5e73: 0f 84 81 2f 00 00            	je	0xc8dfa <Java_com_adjust_sdk_sig_NativeLibHelper_nSign+0xd74f>
   c5e79: 48 b8 f7 c6 ba 0c 6b 1c 06 2f	movabsq	$0x2f061c6b0cbac6f7, %rax # imm = 0x2F061C6B0CBAC6F7
   c5e83: 49 39 c5                     	cmpq	%rax, %r13
   c5e86: 0f 84 e9 19 00 00            	je	0xc7875 <Java_com_adjust_sdk_sig_NativeLibHelper_nSign+0xc1ca>
   c5e8c: 48 b8 93 07 86 90 1c 74 b7 31	movabsq	$0x31b7741c90860793, %rax # imm = 0x31B7741C90860793
   c5e96: 49 39 c5                     	cmpq	%rax, %r13
   c5e99: 0f 84 e2 2a 00 00            	je	0xc8981 <Java_com_adjust_sdk_sig_NativeLibHelper_nSign+0xd2d6>
   c5e9f: 48 b8 a7 cf dc f5 45 06 b9 32	movabsq	$0x32b90645f5dccfa7, %rax # imm = 0x32B90645F5DCCFA7
   c5ea9: 49 39 c5                     	cmpq	%rax, %r13
   c5eac: 0f 84 9c 2d 00 00            	je	0xc8c4e <Java_com_adjust_sdk_sig_NativeLibHelper_nSign+0xd5a3>
   c5eb2: 48 b8 fc e8 ca 90 f4 dd a5 33	movabsq	$0x33a5ddf490cae8fc, %rax # imm = 0x33A5DDF490CAE8FC
   c5ebc: 49 39 c5                     	cmpq	%rax, %r13
   c5ebf: 0f 84 f4 28 00 00            	je	0xc87b9 <Java_com_adjust_sdk_sig_NativeLibHelper_nSign+0xd10e>
   c5ec5: 48 8b 44 24 60               	movq	0x60(%rsp), %rax
   c5eca: 48 89 44 24 58               	movq	%rax, 0x58(%rsp)
   c5ecf: 48 89 d8                     	movq	%rbx, %rax
   c5ed2: 48 89 5c 24 50               	movq	%rbx, 0x50(%rsp)
   c5ed7: 48 8b 84 24 90 00 00 00      	movq	0x90(%rsp), %rax
   c5edf: 48 89 44 24 48               	movq	%rax, 0x48(%rsp)
   c5ee4: 48 8b 84 24 98 00 00 00      	movq	0x98(%rsp), %rax
   c5eec: 48 89 44 24 40               	movq	%rax, 0x40(%rsp)
   c5ef1: 48 8b 84 24 88 00 00 00      	movq	0x88(%rsp), %rax
   c5ef9: 48 89 44 24 38               	movq	%rax, 0x38(%rsp)
   c5efe: 48 8b 94 24 a8 00 00 00      	movq	0xa8(%rsp), %rdx
   c5f06: 48 89 54 24 30               	movq	%rdx, 0x30(%rsp)
   c5f0b: 48 8b 8c 24 a0 00 00 00      	movq	0xa0(%rsp), %rcx
   c5f13: 48 89 4c 24 28               	movq	%rcx, 0x28(%rsp)
   c5f18: 48 89 dd                     	movq	%rbx, %rbp
   c5f1b: 48 8b 9c 24 b0 00 00 00      	movq	0xb0(%rsp), %rbx
   c5f23: 48 89 5c 24 20               	movq	%rbx, 0x20(%rsp)
   c5f28: 4c 8b 9c 24 b8 00 00 00      	movq	0xb8(%rsp), %r11
   c5f30: 4c 89 5c 24 18               	movq	%r11, 0x18(%rsp)
   c5f35: 48 8b 44 24 70               	movq	0x70(%rsp), %rax
   c5f3a: 48 89 44 24 10               	movq	%rax, 0x10(%rsp)
   c5f3f: 48 8b 44 24 78               	movq	0x78(%rsp), %rax
   c5f44: 48 89 44 24 08               	movq	%rax, 0x8(%rsp)
   c5f49: 48 8b 44 24 68               	movq	0x68(%rsp), %rax
   c5f4e: 48 89 04 24                  	movq	%rax, (%rsp)
   c5f52: 48 8b b4 24 c0 00 00 00      	movq	0xc0(%rsp), %rsi
   c5f5a: 49 89 f2                     	movq	%rsi, %r10
   c5f5d: 4c 8b bc 24 c8 00 00 00      	movq	0xc8(%rsp), %r15
   c5f65: 4c 89 ff                     	movq	%r15, %rdi
   c5f68: 4d 89 f1                     	movq	%r14, %r9
   c5f6b: 4c 8b b4 24 00 02 00 00      	movq	0x200(%rsp), %r14
   c5f73: 4c 8b a4 24 80 00 00 00      	movq	0x80(%rsp), %r12
   c5f7b: 48 b8 01 3f 6c d3 c8 51 e5 d8	movabsq	$-0x271aae372c93c0ff, %rax # imm = 0xD8E551C8D36C3F01
   c5f85: 49 b8 de a6 c1 dc 00 48 02 36	movabsq	$0x36024800dcc1a6de, %r8 # imm = 0x36024800DCC1A6DE
   c5f8f: 4d 39 c5                     	cmpq	%r8, %r13
   c5f92: 0f 84 56 df ff ff            	je	0xc3eee <Java_com_adjust_sdk_sig_NativeLibHelper_nSign+0x8843>
   c5f98: 48 8b 44 24 60               	movq	0x60(%rsp), %rax
   c5f9d: 48 89 44 24 58               	movq	%rax, 0x58(%rsp)
   c5fa2: 48 89 e8                     	movq	%rbp, %rax
   c5fa5: 48 89 6c 24 50               	movq	%rbp, 0x50(%rsp)
   c5faa: 48 8b 84 24 90 00 00 00      	movq	0x90(%rsp), %rax
   c5fb2: 48 89 44 24 48               	movq	%rax, 0x48(%rsp)
   c5fb7: 48 8b 84 24 98 00 00 00      	movq	0x98(%rsp), %rax
   c5fbf: 48 89 44 24 40               	movq	%rax, 0x40(%rsp)
   c5fc4: 48 8b 84 24 88 00 00 00      	movq	0x88(%rsp), %rax
   c5fcc: 48 89 44 24 38               	movq	%rax, 0x38(%rsp)
   c5fd1: 48 89 54 24 30               	movq	%rdx, 0x30(%rsp)
   c5fd6: 48 89 4c 24 28               	movq	%rcx, 0x28(%rsp)
   c5fdb: 48 89 5c 24 20               	movq	%rbx, 0x20(%rsp)
   c5fe0: 4c 89 5c 24 18               	movq	%r11, 0x18(%rsp)
   c5fe5: 48 8b 44 24 70               	movq	0x70(%rsp), %rax
   c5fea: 48 89 44 24 10               	movq	%rax, 0x10(%rsp)
   c5fef: 48 8b 44 24 78               	movq	0x78(%rsp), %rax
   c5ff4: 48 89 44 24 08               	movq	%rax, 0x8(%rsp)
   c5ff9: 48 8b 44 24 68               	movq	0x68(%rsp), %rax
   c5ffe: 48 89 04 24                  	movq	%rax, (%rsp)
   c6002: 49 89 f2                     	movq	%rsi, %r10
   c6005: 4c 89 ff                     	movq	%r15, %rdi
   c6008: 4d 89 ce                     	movq	%r9, %r14
   c600b: 4c 8b a4 24 80 00 00 00      	movq	0x80(%rsp), %r12
   c6013: 48 b8 4a e9 77 1d c7 6b f5 3e	movabsq	$0x3ef56bc71d77e94a, %rax # imm = 0x3EF56BC71D77E94A
   c601d: 49 b8 73 0c 94 3d 2a c2 fa 36	movabsq	$0x36fac22a3d940c73, %r8 # imm = 0x36FAC22A3D940C73
   c6027: 4d 39 c5                     	cmpq	%r8, %r13
   c602a: 0f 84 be de ff ff            	je	0xc3eee <Java_com_adjust_sdk_sig_NativeLibHelper_nSign+0x8843>
   c6030: 48 b8 03 24 9e 5a d4 b0 1e 39	movabsq	$0x391eb0d45a9e2403, %rax # imm = 0x391EB0D45A9E2403
   c603a: 49 39 c5                     	cmpq	%rax, %r13
   c603d: 0f 84 a4 09 00 00            	je	0xc69e7 <Java_com_adjust_sdk_sig_NativeLibHelper_nSign+0xb33c>
   c6043: 48 b8 64 e0 bc b9 af a5 78 3a	movabsq	$0x3a78a5afb9bce064, %rax # imm = 0x3A78A5AFB9BCE064
   c604d: 49 39 c5                     	cmpq	%rax, %r13
   c6050: 4c 8b b4 24 d8 00 00 00      	movq	0xd8(%rsp), %r14
   c6058: 48 8b 9c 24 d0 00 00 00      	movq	0xd0(%rsp), %rbx
   c6060: 0f 84 bb 13 00 00            	je	0xc7421 <Java_com_adjust_sdk_sig_NativeLibHelper_nSign+0xbd76>
   c6066: 48 b8 50 bc 28 be a9 40 a1 3b	movabsq	$0x3ba140a9be28bc50, %rax # imm = 0x3BA140A9BE28BC50
   c6070: 49 39 c5                     	cmpq	%rax, %r13
   c6073: 0f 84 07 1b 00 00            	je	0xc7b80 <Java_com_adjust_sdk_sig_NativeLibHelper_nSign+0xc4d5>
   c6079: 48 b8 4a e9 77 1d c7 6b f5 3e	movabsq	$0x3ef56bc71d77e94a, %rax # imm = 0x3EF56BC71D77E94A
   c6083: 49 39 c5                     	cmpq	%rax, %r13
   c6086: 0f 84 bd 2f 00 00            	je	0xc9049 <Java_com_adjust_sdk_sig_NativeLibHelper_nSign+0xd99e>
   c608c: 48 b8 be 0d a5 1f c3 a9 00 41	movabsq	$0x4100a9c31fa50dbe, %rax # imm = 0x4100A9C31FA50DBE
   c6096: 49 39 c5                     	cmpq	%rax, %r13
   c6099: 0f 84 d8 11 00 00            	je	0xc7277 <Java_com_adjust_sdk_sig_NativeLibHelper_nSign+0xbbcc>
   c609f: 48 8b 44 24 60               	movq	0x60(%rsp), %rax
   c60a4: 48 89 44 24 58               	movq	%rax, 0x58(%rsp)
   c60a9: 48 89 d8                     	movq	%rbx, %rax
   c60ac: 48 89 5c 24 50               	movq	%rbx, 0x50(%rsp)
   c60b1: 48 8b 84 24 90 00 00 00      	movq	0x90(%rsp), %rax
   c60b9: 48 89 44 24 48               	movq	%rax, 0x48(%rsp)
   c60be: 48 8b 84 24 98 00 00 00      	movq	0x98(%rsp), %rax
   c60c6: 48 89 44 24 40               	movq	%rax, 0x40(%rsp)
   c60cb: 48 8b 84 24 88 00 00 00      	movq	0x88(%rsp), %rax
   c60d3: 48 89 44 24 38               	movq	%rax, 0x38(%rsp)
   c60d8: 48 8b 84 24 a8 00 00 00      	movq	0xa8(%rsp), %rax
   c60e0: 48 89 44 24 30               	movq	%rax, 0x30(%rsp)
   c60e5: 48 8b 84 24 a0 00 00 00      	movq	0xa0(%rsp), %rax
   c60ed: 48 89 44 24 28               	movq	%rax, 0x28(%rsp)
   c60f2: 48 8b 84 24 b0 00 00 00      	movq	0xb0(%rsp), %rax
   c60fa: 48 89 44 24 20               	movq	%rax, 0x20(%rsp)
   c60ff: 48 8b 84 24 b8 00 00 00      	movq	0xb8(%rsp), %rax
   c6107: 48 89 44 24 18               	movq	%rax, 0x18(%rsp)
   c610c: 48 8b 44 24 70               	movq	0x70(%rsp), %rax
   c6111: 48 89 44 24 10               	movq	%rax, 0x10(%rsp)
   c6116: 48 8b 44 24 78               	movq	0x78(%rsp), %rax
   c611b: 48 89 44 24 08               	movq	%rax, 0x8(%rsp)
   c6120: 48 8b 44 24 68               	movq	0x68(%rsp), %rax
   c6125: 48 89 04 24                  	movq	%rax, (%rsp)
   c6129: 4c 8b 94 24 c0 00 00 00      	movq	0xc0(%rsp), %r10
   c6131: 48 8b bc 24 c8 00 00 00      	movq	0xc8(%rsp), %rdi
   c6139: 4c 8b a4 24 80 00 00 00      	movq	0x80(%rsp), %r12
   c6141: 48 b8 0d 38 ba 0f 13 39 dc ab	movabsq	$-0x5423c6ecf045c7f3, %rax # imm = 0xABDC39130FBA380D
   c614b: 49 b8 82 8d 0c a7 ea 3d c0 43	movabsq	$0x43c03deaa70c8d82, %r8 # imm = 0x43C03DEAA70C8D82
   c6155: 4d 39 c5                     	cmpq	%r8, %r13
   c6158: 0f 84 90 dd ff ff            	je	0xc3eee <Java_com_adjust_sdk_sig_NativeLibHelper_nSign+0x8843>
   c615e: 48 b8 98 ce f3 71 7e 67 98 45	movabsq	$0x4598677e71f3ce98, %rax # imm = 0x4598677E71F3CE98
   c6168: 49 39 c5                     	cmpq	%rax, %r13
   c616b: 0f 84 d1 14 00 00            	je	0xc7642 <Java_com_adjust_sdk_sig_NativeLibHelper_nSign+0xbf97>
   c6171: 48 b8 e5 ce 16 49 0d a4 6b 46	movabsq	$0x466ba40d4916cee5, %rax # imm = 0x466BA40D4916CEE5
   c617b: 49 39 c5                     	cmpq	%rax, %r13
   c617e: 4c 8b b4 24 d8 00 00 00      	movq	0xd8(%rsp), %r14
   c6186: 48 8b 9c 24 d0 00 00 00      	movq	0xd0(%rsp), %rbx
   c618e: 0f 84 e3 28 00 00            	je	0xc8a77 <Java_com_adjust_sdk_sig_NativeLibHelper_nSign+0xd3cc>
   c6194: 48 b8 1c a3 2d 84 b6 f6 24 47	movabsq	$0x4724f6b6842da31c, %rax # imm = 0x4724F6B6842DA31C
   c619e: 49 39 c5                     	cmpq	%rax, %r13
   c61a1: 0f 84 d4 13 00 00            	je	0xc757b <Java_com_adjust_sdk_sig_NativeLibHelper_nSign+0xbed0>
   c61a7: 48 b8 70 fb 90 79 0d 21 0a 49	movabsq	$0x490a210d7990fb70, %rax # imm = 0x490A210D7990FB70
   c61b1: 49 39 c5                     	cmpq	%rax, %r13
   c61b4: 0f 84 a2 27 00 00            	je	0xc895c <Java_com_adjust_sdk_sig_NativeLibHelper_nSign+0xd2b1>
   c61ba: 48 8b 44 24 60               	movq	0x60(%rsp), %rax
   c61bf: 48 89 44 24 58               	movq	%rax, 0x58(%rsp)
   c61c4: 48 89 d8                     	movq	%rbx, %rax
   c61c7: 48 89 5c 24 50               	movq	%rbx, 0x50(%rsp)
   c61cc: 48 8b 84 24 90 00 00 00      	movq	0x90(%rsp), %rax
   c61d4: 48 89 44 24 48               	movq	%rax, 0x48(%rsp)
   c61d9: 48 8b 84 24 98 00 00 00      	movq	0x98(%rsp), %rax
   c61e1: 48 89 44 24 40               	movq	%rax, 0x40(%rsp)
   c61e6: 48 8b 84 24 88 00 00 00      	movq	0x88(%rsp), %rax
   c61ee: 48 89 44 24 38               	movq	%rax, 0x38(%rsp)
   c61f3: 48 8b 84 24 a8 00 00 00      	movq	0xa8(%rsp), %rax
   c61fb: 48 89 44 24 30               	movq	%rax, 0x30(%rsp)
   c6200: 48 8b 84 24 a0 00 00 00      	movq	0xa0(%rsp), %rax
   c6208: 48 89 44 24 28               	movq	%rax, 0x28(%rsp)
   c620d: 48 8b 84 24 b0 00 00 00      	movq	0xb0(%rsp), %rax
   c6215: 48 89 44 24 20               	movq	%rax, 0x20(%rsp)
   c621a: 48 8b 84 24 b8 00 00 00      	movq	0xb8(%rsp), %rax
   c6222: 48 89 44 24 18               	movq	%rax, 0x18(%rsp)
   c6227: 48 8b 44 24 70               	movq	0x70(%rsp), %rax
   c622c: 48 89 44 24 10               	movq	%rax, 0x10(%rsp)
   c6231: 48 8b 44 24 78               	movq	0x78(%rsp), %rax
   c6236: 48 89 44 24 08               	movq	%rax, 0x8(%rsp)
   c623b: 48 8b 44 24 68               	movq	0x68(%rsp), %rax
   c6240: 48 89 04 24                  	movq	%rax, (%rsp)
   c6244: 4c 8b 94 24 c0 00 00 00      	movq	0xc0(%rsp), %r10
   c624c: 48 8b bc 24 c8 00 00 00      	movq	0xc8(%rsp), %rdi
   c6254: 4c 8b a4 24 80 00 00 00      	movq	0x80(%rsp), %r12
   c625c: 48 b8 0a be fd 30 cb c7 1b d1	movabsq	$-0x2ee43834cf0241f6, %rax # imm = 0xD11BC7CB30FDBE0A
   c6266: 49 b8 80 ec f1 25 bc 50 ba 4b	movabsq	$0x4bba50bc25f1ec80, %r8 # imm = 0x4BBA50BC25F1EC80
   c6270: 4d 39 c5                     	cmpq	%r8, %r13
   c6273: 0f 84 75 dc ff ff            	je	0xc3eee <Java_com_adjust_sdk_sig_NativeLibHelper_nSign+0x8843>
   c6279: 48 b8 f5 ee 10 e3 5b a5 81 4c	movabsq	$0x4c81a55be310eef5, %rax # imm = 0x4C81A55BE310EEF5
   c6283: 49 39 c5                     	cmpq	%rax, %r13
   c6286: 0f 84 cb 27 00 00            	je	0xc8a57 <Java_com_adjust_sdk_sig_NativeLibHelper_nSign+0xd3ac>
   c628c: 48 8b 44 24 60               	movq	0x60(%rsp), %rax
   c6291: 48 89 44 24 58               	movq	%rax, 0x58(%rsp)
   c6296: 48 8b 84 24 d0 00 00 00      	movq	0xd0(%rsp), %rax
   c629e: 48 89 44 24 50               	movq	%rax, 0x50(%rsp)
   c62a3: 48 8b 84 24 90 00 00 00      	movq	0x90(%rsp), %rax
   c62ab: 48 89 44 24 48               	movq	%rax, 0x48(%rsp)
   c62b0: 48 8b 84 24 98 00 00 00      	movq	0x98(%rsp), %rax
   c62b8: 48 89 44 24 40               	movq	%rax, 0x40(%rsp)
   c62bd: 48 8b 84 24 88 00 00 00      	movq	0x88(%rsp), %rax
   c62c5: 48 89 44 24 38               	movq	%rax, 0x38(%rsp)
   c62ca: 48 8b 84 24 a8 00 00 00      	movq	0xa8(%rsp), %rax
   c62d2: 48 89 44 24 30               	movq	%rax, 0x30(%rsp)
   c62d7: 48 8b 84 24 a0 00 00 00      	movq	0xa0(%rsp), %rax
   c62df: 48 89 44 24 28               	movq	%rax, 0x28(%rsp)
   c62e4: 48 8b 84 24 b0 00 00 00      	movq	0xb0(%rsp), %rax
   c62ec: 48 89 44 24 20               	movq	%rax, 0x20(%rsp)
   c62f1: 48 8b 84 24 b8 00 00 00      	movq	0xb8(%rsp), %rax
   c62f9: 48 89 44 24 18               	movq	%rax, 0x18(%rsp)
   c62fe: 48 8b 44 24 70               	movq	0x70(%rsp), %rax
   c6303: 48 89 44 24 10               	movq	%rax, 0x10(%rsp)
   c6308: 48 8b 44 24 78               	movq	0x78(%rsp), %rax
   c630d: 48 89 44 24 08               	movq	%rax, 0x8(%rsp)
   c6312: 48 8b 44 24 68               	movq	0x68(%rsp), %rax
   c6317: 48 89 04 24                  	movq	%rax, (%rsp)
   c631b: 4c 8b 94 24 c0 00 00 00      	movq	0xc0(%rsp), %r10
   c6323: 48 8b bc 24 c8 00 00 00      	movq	0xc8(%rsp), %rdi
   c632b: 4c 8b b4 24 d8 00 00 00      	movq	0xd8(%rsp), %r14
   c6333: 4c 8b a4 24 80 00 00 00      	movq	0x80(%rsp), %r12
   c633b: 48 b8 b1 32 8a 01 8f 50 64 d8	movabsq	$-0x279baf70fe75cd4f, %rax # imm = 0xD864508F018A32B1
   c6345: 49 b8 fb bd b6 ca c1 7c b8 4c	movabsq	$0x4cb87cc1cab6bdfb, %r8 # imm = 0x4CB87CC1CAB6BDFB
   c634f: 4d 39 c5                     	cmpq	%r8, %r13
   c6352: 0f 84 96 db ff ff            	je	0xc3eee <Java_com_adjust_sdk_sig_NativeLibHelper_nSign+0x8843>
   c6358: 48 b8 4b 74 08 7e a2 7a 06 4f	movabsq	$0x4f067aa27e08744b, %rax # imm = 0x4F067AA27E08744B
   c6362: 49 39 c5                     	cmpq	%rax, %r13
   c6365: 0f 84 4c 14 00 00            	je	0xc77b7 <Java_com_adjust_sdk_sig_NativeLibHelper_nSign+0xc10c>
   c636b: 48 8b 44 24 60               	movq	0x60(%rsp), %rax
   c6370: 48 89 44 24 58               	movq	%rax, 0x58(%rsp)
   c6375: 48 8b 84 24 d0 00 00 00      	movq	0xd0(%rsp), %rax
   c637d: 48 89 44 24 50               	movq	%rax, 0x50(%rsp)
   c6382: 48 8b 84 24 90 00 00 00      	movq	0x90(%rsp), %rax
   c638a: 48 89 44 24 48               	movq	%rax, 0x48(%rsp)
   c638f: 48 8b 84 24 98 00 00 00      	movq	0x98(%rsp), %rax
   c6397: 48 89 44 24 40               	movq	%rax, 0x40(%rsp)
   c639c: 48 8b 84 24 88 00 00 00      	movq	0x88(%rsp), %rax
   c63a4: 48 89 44 24 38               	movq	%rax, 0x38(%rsp)
   c63a9: 48 8b 84 24 a8 00 00 00      	movq	0xa8(%rsp), %rax
   c63b1: 48 89 44 24 30               	movq	%rax, 0x30(%rsp)
   c63b6: 48 8b 84 24 a0 00 00 00      	movq	0xa0(%rsp), %rax
   c63be: 48 89 44 24 28               	movq	%rax, 0x28(%rsp)
   c63c3: 48 8b 84 24 b0 00 00 00      	movq	0xb0(%rsp), %rax
   c63cb: 48 89 44 24 20               	movq	%rax, 0x20(%rsp)
   c63d0: 48 8b 84 24 b8 00 00 00      	movq	0xb8(%rsp), %rax
   c63d8: 48 89 44 24 18               	movq	%rax, 0x18(%rsp)
   c63dd: 48 8b 44 24 70               	movq	0x70(%rsp), %rax
   c63e2: 48 89 44 24 10               	movq	%rax, 0x10(%rsp)
   c63e7: 48 8b 44 24 78               	movq	0x78(%rsp), %rax
   c63ec: 48 89 44 24 08               	movq	%rax, 0x8(%rsp)
   c63f1: 48 8b 44 24 68               	movq	0x68(%rsp), %rax
   c63f6: 48 89 04 24                  	movq	%rax, (%rsp)
   c63fa: 4c 8b 94 24 c0 00 00 00      	movq	0xc0(%rsp), %r10
   c6402: 48 8b bc 24 c8 00 00 00      	movq	0xc8(%rsp), %rdi
   c640a: 4c 8b b4 24 d8 00 00 00      	movq	0xd8(%rsp), %r14
   c6412: 4c 8b a4 24 80 00 00 00      	movq	0x80(%rsp), %r12
   c641a: 48 b8 f3 2b ef 22 c0 61 72 57	movabsq	$0x577261c022ef2bf3, %rax # imm = 0x577261C022EF2BF3
   c6424: 49 b8 48 ed 83 6d bc cc 2d 4f	movabsq	$0x4f2dccbc6d83ed48, %r8 # imm = 0x4F2DCCBC6D83ED48
   c642e: 4d 39 c5                     	cmpq	%r8, %r13
   c6431: 0f 84 b7 da ff ff            	je	0xc3eee <Java_com_adjust_sdk_sig_NativeLibHelper_nSign+0x8843>
   c6437: 48 b8 bc 98 47 ae e0 53 37 50	movabsq	$0x503753e0ae4798bc, %rax # imm = 0x503753E0AE4798BC
   c6441: 49 39 c5                     	cmpq	%rax, %r13
   c6444: 0f 84 4a 16 00 00            	je	0xc7a94 <Java_com_adjust_sdk_sig_NativeLibHelper_nSign+0xc3e9>
   c644a: 48 b8 ab 60 d5 9b e7 a5 66 50	movabsq	$0x5066a5e79bd560ab, %rax # imm = 0x5066A5E79BD560AB
   c6454: 49 39 c5                     	cmpq	%rax, %r13
   c6457: 4c 8b b4 24 d8 00 00 00      	movq	0xd8(%rsp), %r14
   c645f: 48 8b 9c 24 d0 00 00 00      	movq	0xd0(%rsp), %rbx
   c6467: 0f 84 92 25 00 00            	je	0xc89ff <Java_com_adjust_sdk_sig_NativeLibHelper_nSign+0xd354>
   c646d: 48 8b 44 24 60               	movq	0x60(%rsp), %rax
   c6472: 48 89 44 24 58               	movq	%rax, 0x58(%rsp)
   c6477: 48 89 d8                     	movq	%rbx, %rax
   c647a: 48 89 5c 24 50               	movq	%rbx, 0x50(%rsp)
   c647f: 48 8b 84 24 90 00 00 00      	movq	0x90(%rsp), %rax
   c6487: 48 89 44 24 48               	movq	%rax, 0x48(%rsp)
   c648c: 48 8b 84 24 98 00 00 00      	movq	0x98(%rsp), %rax
   c6494: 48 89 44 24 40               	movq	%rax, 0x40(%rsp)
   c6499: 48 8b 84 24 88 00 00 00      	movq	0x88(%rsp), %rax
   c64a1: 48 89 44 24 38               	movq	%rax, 0x38(%rsp)
   c64a6: 48 8b 84 24 a8 00 00 00      	movq	0xa8(%rsp), %rax
   c64ae: 48 89 44 24 30               	movq	%rax, 0x30(%rsp)
   c64b3: 48 8b 84 24 a0 00 00 00      	movq	0xa0(%rsp), %rax
   c64bb: 48 89 44 24 28               	movq	%rax, 0x28(%rsp)
   c64c0: 48 8b 84 24 b0 00 00 00      	movq	0xb0(%rsp), %rax
   c64c8: 48 89 44 24 20               	movq	%rax, 0x20(%rsp)
   c64cd: 48 8b 84 24 b8 00 00 00      	movq	0xb8(%rsp), %rax
   c64d5: 48 89 44 24 18               	movq	%rax, 0x18(%rsp)
   c64da: 48 8b 44 24 70               	movq	0x70(%rsp), %rax
   c64df: 48 89 44 24 10               	movq	%rax, 0x10(%rsp)
   c64e4: 48 8b 44 24 78               	movq	0x78(%rsp), %rax
   c64e9: 48 89 44 24 08               	movq	%rax, 0x8(%rsp)
   c64ee: 48 8b 44 24 68               	movq	0x68(%rsp), %rax
   c64f3: 48 89 04 24                  	movq	%rax, (%rsp)
   c64f7: 4c 8b 94 24 c0 00 00 00      	movq	0xc0(%rsp), %r10
   c64ff: 48 8b bc 24 c8 00 00 00      	movq	0xc8(%rsp), %rdi
   c6507: 4c 8b a4 24 80 00 00 00      	movq	0x80(%rsp), %r12
   c650f: 48 b8 22 74 78 fb 19 9b 94 ea	movabsq	$-0x156b64e604878bde, %rax # imm = 0xEA949B19FB787422
   c6519: 49 b8 ba c5 28 51 81 06 00 55	movabsq	$0x550006815128c5ba, %r8 # imm = 0x550006815128C5BA
   c6523: 4d 39 c5                     	cmpq	%r8, %r13
   c6526: 0f 84 c2 d9 ff ff            	je	0xc3eee <Java_com_adjust_sdk_sig_NativeLibHelper_nSign+0x8843>
   c652c: 48 b8 82 48 52 ed 62 c0 d8 55	movabsq	$0x55d8c062ed524882, %rax # imm = 0x55D8C062ED524882
   c6536: 49 39 c5                     	cmpq	%rax, %r13
   c6539: 0f 84 a8 04 00 00            	je	0xc69e7 <Java_com_adjust_sdk_sig_NativeLibHelper_nSign+0xb33c>
   c653f: 48 b8 f3 2b ef 22 c0 61 72 57	movabsq	$0x577261c022ef2bf3, %rax # imm = 0x577261C022EF2BF3
   c6549: 49 39 c5                     	cmpq	%rax, %r13
   c654c: 4c 8b b4 24 d8 00 00 00      	movq	0xd8(%rsp), %r14
   c6554: 48 8b 9c 24 d0 00 00 00      	movq	0xd0(%rsp), %rbx
   c655c: 0f 84 78 17 00 00            	je	0xc7cda <Java_com_adjust_sdk_sig_NativeLibHelper_nSign+0xc62f>
   c6562: 48 b8 2c 7c 3d f8 60 26 e8 59	movabsq	$0x59e82660f83d7c2c, %rax # imm = 0x59E82660F83D7C2C
   c656c: 49 39 c5                     	cmpq	%rax, %r13
   c656f: 0f 84 e9 13 00 00            	je	0xc795e <Java_com_adjust_sdk_sig_NativeLibHelper_nSign+0xc2b3>
   c6575: 48 b8 10 21 37 41 e5 53 43 5a	movabsq	$0x5a4353e541372110, %rax # imm = 0x5A4353E541372110
   c657f: 49 39 c5                     	cmpq	%rax, %r13
   c6582: 0f 84 77 17 00 00            	je	0xc7cff <Java_com_adjust_sdk_sig_NativeLibHelper_nSign+0xc654>
   c6588: 48 b8 d3 5a 09 7b fe f9 06 5b	movabsq	$0x5b06f9fe7b095ad3, %rax # imm = 0x5B06F9FE7B095AD3
   c6592: 49 39 c5                     	cmpq	%rax, %r13
   c6595: 0f 84 a6 18 00 00            	je	0xc7e41 <Java_com_adjust_sdk_sig_NativeLibHelper_nSign+0xc796>
   c659b: 48 b8 80 cc 19 b2 1d 46 e0 5b	movabsq	$0x5be0461db219cc80, %rax # imm = 0x5BE0461DB219CC80
   c65a5: 49 39 c5                     	cmpq	%rax, %r13
   c65a8: 0f 84 e8 12 00 00            	je	0xc7896 <Java_com_adjust_sdk_sig_NativeLibHelper_nSign+0xc1eb>
   c65ae: 48 b8 29 b0 b2 48 32 40 78 5d	movabsq	$0x5d78403248b2b029, %rax # imm = 0x5D78403248B2B029
   c65b8: 49 39 c5                     	cmpq	%rax, %r13
   c65bb: 0f 84 71 16 00 00            	je	0xc7c32 <Java_com_adjust_sdk_sig_NativeLibHelper_nSign+0xc587>
   c65c1: 48 8b 44 24 60               	movq	0x60(%rsp), %rax
   c65c6: 48 89 44 24 58               	movq	%rax, 0x58(%rsp)
   c65cb: 48 89 d8                     	movq	%rbx, %rax
   c65ce: 48 89 5c 24 50               	movq	%rbx, 0x50(%rsp)
   c65d3: 48 8b 84 24 90 00 00 00      	movq	0x90(%rsp), %rax
   c65db: 48 89 44 24 48               	movq	%rax, 0x48(%rsp)
   c65e0: 48 8b 84 24 98 00 00 00      	movq	0x98(%rsp), %rax
   c65e8: 48 89 44 24 40               	movq	%rax, 0x40(%rsp)
   c65ed: 48 8b 84 24 88 00 00 00      	movq	0x88(%rsp), %rax
   c65f5: 48 89 44 24 38               	movq	%rax, 0x38(%rsp)
   c65fa: 48 8b 84 24 a8 00 00 00      	movq	0xa8(%rsp), %rax
   c6602: 48 89 44 24 30               	movq	%rax, 0x30(%rsp)
   c6607: 48 8b 84 24 a0 00 00 00      	movq	0xa0(%rsp), %rax
   c660f: 48 89 44 24 28               	movq	%rax, 0x28(%rsp)
   c6614: 48 8b 84 24 b0 00 00 00      	movq	0xb0(%rsp), %rax
   c661c: 48 89 44 24 20               	movq	%rax, 0x20(%rsp)
   c6621: 48 8b 84 24 b8 00 00 00      	movq	0xb8(%rsp), %rax
   c6629: 48 89 44 24 18               	movq	%rax, 0x18(%rsp)
   c662e: 48 8b 44 24 70               	movq	0x70(%rsp), %rax
   c6633: 48 89 44 24 10               	movq	%rax, 0x10(%rsp)
   c6638: 48 8b 44 24 78               	movq	0x78(%rsp), %rax
   c663d: 48 89 44 24 08               	movq	%rax, 0x8(%rsp)
   c6642: 48 8b 44 24 68               	movq	0x68(%rsp), %rax
   c6647: 48 89 04 24                  	movq	%rax, (%rsp)
   c664b: 4c 8b 94 24 c0 00 00 00      	movq	0xc0(%rsp), %r10
   c6653: 48 8b bc 24 c8 00 00 00      	movq	0xc8(%rsp), %rdi
   c665b: 4c 8b a4 24 80 00 00 00      	movq	0x80(%rsp), %r12
   c6663: 48 b8 2d af f8 2b 27 64 d1 bc	movabsq	$-0x432e9bd8d40750d3, %rax # imm = 0xBCD164272BF8AF2D
   c666d: 49 b8 ac a6 5a 15 b6 2f 55 5e	movabsq	$0x5e552fb6155aa6ac, %r8 # imm = 0x5E552FB6155AA6AC
   c6677: 4d 39 c5                     	cmpq	%r8, %r13
   c667a: 0f 84 6e d8 ff ff            	je	0xc3eee <Java_com_adjust_sdk_sig_NativeLibHelper_nSign+0x8843>
   c6680: 48 b8 2b 4e 6f 43 f6 d8 30 5f	movabsq	$0x5f30d8f6436f4e2b, %rax # imm = 0x5F30D8F6436F4E2B
   c668a: 49 39 c5                     	cmpq	%rax, %r13
   c668d: 0f 84 38 19 00 00            	je	0xc7fcb <Java_com_adjust_sdk_sig_NativeLibHelper_nSign+0xc920>
   c6693: 48 b8 67 3e a0 b8 7e a2 62 5f	movabsq	$0x5f62a27eb8a03e67, %rax # imm = 0x5F62A27EB8A03E67
   c669d: 49 39 c5                     	cmpq	%rax, %r13
   c66a0: 4c 8b b4 24 d8 00 00 00      	movq	0xd8(%rsp), %r14
   c66a8: 48 8b 9c 24 a8 00 00 00      	movq	0xa8(%rsp), %rbx
   c66b0: 0f 84 e1 17 00 00            	je	0xc7e97 <Java_com_adjust_sdk_sig_NativeLibHelper_nSign+0xc7ec>
   c66b6: 48 8b 44 24 60               	movq	0x60(%rsp), %rax
   c66bb: 48 89 44 24 58               	movq	%rax, 0x58(%rsp)
   c66c0: 48 8b 84 24 d0 00 00 00      	movq	0xd0(%rsp), %rax
   c66c8: 48 89 44 24 50               	movq	%rax, 0x50(%rsp)
   c66cd: 48 8b 84 24 90 00 00 00      	movq	0x90(%rsp), %rax
   c66d5: 48 89 44 24 48               	movq	%rax, 0x48(%rsp)
   c66da: 48 8b 84 24 98 00 00 00      	movq	0x98(%rsp), %rax
   c66e2: 48 89 44 24 40               	movq	%rax, 0x40(%rsp)
   c66e7: 48 8b 84 24 08 01 00 00      	movq	0x108(%rsp), %rax
   c66ef: 48 89 44 24 38               	movq	%rax, 0x38(%rsp)
   c66f4: 48 89 5c 24 30               	movq	%rbx, 0x30(%rsp)
   c66f9: 48 8b 84 24 a0 00 00 00      	movq	0xa0(%rsp), %rax
   c6701: 48 89 44 24 28               	movq	%rax, 0x28(%rsp)
   c6706: 48 8b 84 24 b0 00 00 00      	movq	0xb0(%rsp), %rax
   c670e: 48 89 44 24 20               	movq	%rax, 0x20(%rsp)
   c6713: 48 8b 84 24 b8 00 00 00      	movq	0xb8(%rsp), %rax
   c671b: 48 89 44 24 18               	movq	%rax, 0x18(%rsp)
   c6720: 48 8b 44 24 70               	movq	0x70(%rsp), %rax
   c6725: 48 89 44 24 10               	movq	%rax, 0x10(%rsp)
   c672a: 48 8b 44 24 78               	movq	0x78(%rsp), %rax
   c672f: 48 89 44 24 08               	movq	%rax, 0x8(%rsp)
   c6734: 48 8b 44 24 68               	movq	0x68(%rsp), %rax
   c6739: 48 89 04 24                  	movq	%rax, (%rsp)
   c673d: 4c 8b 94 24 c0 00 00 00      	movq	0xc0(%rsp), %r10
   c6745: 48 8b bc 24 c8 00 00 00      	movq	0xc8(%rsp), %rdi
   c674d: 4c 8b a4 24 80 00 00 00      	movq	0x80(%rsp), %r12
   c6755: 48 b8 0c 0e 28 d1 5a 5a fb 96	movabsq	$-0x6904a5a52ed7f1f4, %rax # imm = 0x96FB5A5AD1280E0C
   c675f: 49 b8 d5 b0 33 22 71 00 cf 5f	movabsq	$0x5fcf00712233b0d5, %r8 # imm = 0x5FCF00712233B0D5
   c6769: 4d 39 c5                     	cmpq	%r8, %r13
   c676c: 0f 84 7c d7 ff ff            	je	0xc3eee <Java_com_adjust_sdk_sig_NativeLibHelper_nSign+0x8843>
   c6772: 48 b8 9d 6d be c9 03 01 53 63	movabsq	$0x63530103c9be6d9d, %rax # imm = 0x63530103C9BE6D9D
   c677c: 49 39 c5                     	cmpq	%rax, %r13
   c677f: 0f 84 6a 17 00 00            	je	0xc7eef <Java_com_adjust_sdk_sig_NativeLibHelper_nSign+0xc844>
   c6785: 48 b8 c9 fa 9c 1b 2d 13 4c 65	movabsq	$0x654c132d1b9cfac9, %rax # imm = 0x654C132D1B9CFAC9
   c678f: 49 39 c5                     	cmpq	%rax, %r13
   c6792: 4c 8b b4 24 d8 00 00 00      	movq	0xd8(%rsp), %r14
   c679a: 48 8b 9c 24 d0 00 00 00      	movq	0xd0(%rsp), %rbx
   c67a2: 0f 84 dd 1f 00 00            	je	0xc8785 <Java_com_adjust_sdk_sig_NativeLibHelper_nSign+0xd0da>
   c67a8: 48 8b 44 24 60               	movq	0x60(%rsp), %rax
   c67ad: 48 89 44 24 58               	movq	%rax, 0x58(%rsp)
   c67b2: 48 89 d8                     	movq	%rbx, %rax
   c67b5: 48 89 5c 24 50               	movq	%rbx, 0x50(%rsp)
   c67ba: 48 8b 84 24 90 00 00 00      	movq	0x90(%rsp), %rax
   c67c2: 48 89 44 24 48               	movq	%rax, 0x48(%rsp)
   c67c7: 48 8b 84 24 98 00 00 00      	movq	0x98(%rsp), %rax
   c67cf: 48 89 44 24 40               	movq	%rax, 0x40(%rsp)
   c67d4: 48 8b 84 24 88 00 00 00      	movq	0x88(%rsp), %rax
   c67dc: 48 89 44 24 38               	movq	%rax, 0x38(%rsp)
   c67e1: 48 8b 84 24 a8 00 00 00      	movq	0xa8(%rsp), %rax
   c67e9: 48 89 44 24 30               	movq	%rax, 0x30(%rsp)
   c67ee: 48 8b 84 24 a0 00 00 00      	movq	0xa0(%rsp), %rax
   c67f6: 48 89 44 24 28               	movq	%rax, 0x28(%rsp)
   c67fb: 48 8b 84 24 b0 00 00 00      	movq	0xb0(%rsp), %rax
   c6803: 48 89 44 24 20               	movq	%rax, 0x20(%rsp)
   c6808: 48 8b 84 24 b8 00 00 00      	movq	0xb8(%rsp), %rax
   c6810: 48 89 44 24 18               	movq	%rax, 0x18(%rsp)
   c6815: 48 8b 44 24 70               	movq	0x70(%rsp), %rax
   c681a: 48 89 44 24 10               	movq	%rax, 0x10(%rsp)
   c681f: 48 8b 44 24 78               	movq	0x78(%rsp), %rax
   c6824: 48 89 44 24 08               	movq	%rax, 0x8(%rsp)
   c6829: 4c 8b 54 24 68               	movq	0x68(%rsp), %r10
   c682e: 4c 89 14 24                  	movq	%r10, (%rsp)
   c6832: 48 8b bc 24 38 01 00 00      	movq	0x138(%rsp), %rdi
   c683a: 4c 8b a4 24 80 00 00 00      	movq	0x80(%rsp), %r12
   c6842: 48 b8 dc 34 e5 0c 24 19 19 ca	movabsq	$-0x35e6e6dbf31acb24, %rax # imm = 0xCA1919240CE534DC
   c684c: 49 b8 8d 7f 7f 35 1e 25 bc 65	movabsq	$0x65bc251e357f7f8d, %r8 # imm = 0x65BC251E357F7F8D
   c6856: 4d 39 c5                     	cmpq	%r8, %r13
   c6859: 0f 84 8f d6 ff ff            	je	0xc3eee <Java_com_adjust_sdk_sig_NativeLibHelper_nSign+0x8843>
   c685f: 48 b8 d8 ea 6f ae a3 11 ee 68	movabsq	$0x68ee11a3ae6fead8, %rax # imm = 0x68EE11A3AE6FEAD8
   c6869: 49 39 c5                     	cmpq	%rax, %r13
   c686c: 0f 84 11 18 00 00            	je	0xc8083 <Java_com_adjust_sdk_sig_NativeLibHelper_nSign+0xc9d8>
   c6872: 48 b8 72 44 7c ec c4 2d 02 6f	movabsq	$0x6f022dc4ec7c4472, %rax # imm = 0x6F022DC4EC7C4472
   c687c: 49 39 c5                     	cmpq	%rax, %r13
   c687f: 4c 8b b4 24 d8 00 00 00      	movq	0xd8(%rsp), %r14
   c6887: 48 8b 9c 24 d0 00 00 00      	movq	0xd0(%rsp), %rbx
   c688f: 0f 84 d5 15 00 00            	je	0xc7e6a <Java_com_adjust_sdk_sig_NativeLibHelper_nSign+0xc7bf>
   c6895: 48 b8 9d c7 ee 13 aa 55 2d 6f	movabsq	$0x6f2d55aa13eec79d, %rax # imm = 0x6F2D55AA13EEC79D
   c689f: 49 39 c5                     	cmpq	%rax, %r13
   c68a2: 0f 84 09 20 00 00            	je	0xc88b1 <Java_com_adjust_sdk_sig_NativeLibHelper_nSign+0xd206>
   c68a8: 48 b8 10 03 a5 6c 84 8f ac 70	movabsq	$0x70ac8f846ca50310, %rax # imm = 0x70AC8F846CA50310
   c68b2: 49 39 c5                     	cmpq	%rax, %r13
   c68b5: 0f 84 22 1f 00 00            	je	0xc87dd <Java_com_adjust_sdk_sig_NativeLibHelper_nSign+0xd132>
   c68bb: 48 b8 be a2 25 27 fd e1 20 72	movabsq	$0x7220e1fd2725a2be, %rax # imm = 0x7220E1FD2725A2BE
   c68c5: 49 39 c5                     	cmpq	%rax, %r13
   c68c8: 0f 84 a1 1a 00 00            	je	0xc836f <Java_com_adjust_sdk_sig_NativeLibHelper_nSign+0xccc4>
   c68ce: 48 b8 2c 74 6e 7a 89 e0 a9 73	movabsq	$0x73a9e0897a6e742c, %rax # imm = 0x73A9E0897A6E742C
   c68d8: 49 39 c5                     	cmpq	%rax, %r13
   c68db: 0f 84 61 1b 00 00            	je	0xc8442 <Java_com_adjust_sdk_sig_NativeLibHelper_nSign+0xcd97>
   c68e1: 48 b8 7e 09 3c f6 5b f6 56 76	movabsq	$0x7656f65bf63c097e, %rax # imm = 0x7656F65BF63C097E
   c68eb: 49 39 c5                     	cmpq	%rax, %r13
   c68ee: 0f 84 05 1c 00 00            	je	0xc84f9 <Java_com_adjust_sdk_sig_NativeLibHelper_nSign+0xce4e>
   c68f4: 48 b8 9d 0f 45 29 85 65 6c 76	movabsq	$0x766c658529450f9d, %rax # imm = 0x766C658529450F9D
   c68fe: 49 39 c5                     	cmpq	%rax, %r13
   c6901: 0f 84 f1 1c 00 00            	je	0xc85f8 <Java_com_adjust_sdk_sig_NativeLibHelper_nSign+0xcf4d>
   c6907: 48 b8 c0 25 03 0f ff 6e af 76	movabsq	$0x76af6eff0f0325c0, %rax # imm = 0x76AF6EFF0F0325C0
   c6911: 49 39 c5                     	cmpq	%rax, %r13
   c6914: 0f 84 a2 1d 00 00            	je	0xc86bc <Java_com_adjust_sdk_sig_NativeLibHelper_nSign+0xd011>
   c691a: 48 b8 40 60 87 c6 48 30 1f 7d	movabsq	$0x7d1f3048c6876040, %rax # imm = 0x7D1F3048C6876040
   c6924: 49 39 c5                     	cmpq	%rax, %r13
   c6927: 0f 84 43 18 00 00            	je	0xc8170 <Java_com_adjust_sdk_sig_NativeLibHelper_nSign+0xcac5>
   c692d: 48 8b 44 24 60               	movq	0x60(%rsp), %rax
   c6932: 48 89 44 24 58               	movq	%rax, 0x58(%rsp)
   c6937: 48 89 5c 24 50               	movq	%rbx, 0x50(%rsp)
   c693c: 48 8b 84 24 90 00 00 00      	movq	0x90(%rsp), %rax
   c6944: 48 89 44 24 48               	movq	%rax, 0x48(%rsp)
   c6949: 48 8b 84 24 98 00 00 00      	movq	0x98(%rsp), %rax
   c6951: 48 89 44 24 40               	movq	%rax, 0x40(%rsp)
   c6956: 48 8b 84 24 88 00 00 00      	movq	0x88(%rsp), %rax
   c695e: 48 89 44 24 38               	movq	%rax, 0x38(%rsp)
   c6963: 48 8b 84 24 a8 00 00 00      	movq	0xa8(%rsp), %rax
   c696b: 48 89 44 24 30               	movq	%rax, 0x30(%rsp)
   c6970: 48 8b 84 24 a0 00 00 00      	movq	0xa0(%rsp), %rax
   c6978: 48 89 44 24 28               	movq	%rax, 0x28(%rsp)
   c697d: 48 8b 84 24 b0 00 00 00      	movq	0xb0(%rsp), %rax
   c6985: 48 89 44 24 20               	movq	%rax, 0x20(%rsp)
   c698a: 48 8b 84 24 b8 00 00 00      	movq	0xb8(%rsp), %rax
   c6992: 48 89 44 24 18               	movq	%rax, 0x18(%rsp)
   c6997: 48 8b 44 24 70               	movq	0x70(%rsp), %rax
   c699c: 48 89 44 24 10               	movq	%rax, 0x10(%rsp)
   c69a1: 48 8b 44 24 78               	movq	0x78(%rsp), %rax
   c69a6: 48 89 44 24 08               	movq	%rax, 0x8(%rsp)
   c69ab: 48 8b 44 24 68               	movq	0x68(%rsp), %rax
   c69b0: 48 89 04 24                  	movq	%rax, (%rsp)
   c69b4: 4c 8b 94 24 c0 00 00 00      	movq	0xc0(%rsp), %r10
   c69bc: 48 8b bc 24 c8 00 00 00      	movq	0xc8(%rsp), %rdi
   c69c4: 4c 8b a4 24 80 00 00 00      	movq	0x80(%rsp), %r12
   c69cc: 4c 89 e8                     	movq	%r13, %rax
   c69cf: 49 b8 63 67 77 38 87 a0 2d 93	movabsq	$-0x6cd25f78c788989d, %r8 # imm = 0x932DA08738776763
   c69d9: 4d 39 c5                     	cmpq	%r8, %r13
   c69dc: 0f 85 0c d5 ff ff            	jne	0xc3eee <Java_com_adjust_sdk_sig_NativeLibHelper_nSign+0x8843>
   c69e2: e9 ce 34 00 00               	jmp	0xc9eb5 <Java_com_adjust_sdk_sig_NativeLibHelper_nSign+0xe80a>
   c69e7: 48 8b 44 24 60               	movq	0x60(%rsp), %rax
   c69ec: 48 89 44 24 58               	movq	%rax, 0x58(%rsp)
   c69f1: 48 8b 9c 24 d0 00 00 00      	movq	0xd0(%rsp), %rbx
   c69f9: 48 89 5c 24 50               	movq	%rbx, 0x50(%rsp)
   c69fe: 48 8b 84 24 90 00 00 00      	movq	0x90(%rsp), %rax
   c6a06: 48 89 44 24 48               	movq	%rax, 0x48(%rsp)
   c6a0b: 48 8b 84 24 98 00 00 00      	movq	0x98(%rsp), %rax
   c6a13: 48 89 44 24 40               	movq	%rax, 0x40(%rsp)
   c6a18: 48 8b 84 24 88 00 00 00      	movq	0x88(%rsp), %rax
   c6a20: 48 89 44 24 38               	movq	%rax, 0x38(%rsp)
   c6a25: 48 8b 84 24 a8 00 00 00      	movq	0xa8(%rsp), %rax
   c6a2d: 48 89 44 24 30               	movq	%rax, 0x30(%rsp)
   c6a32: 48 8b 84 24 a0 00 00 00      	movq	0xa0(%rsp), %rax
   c6a3a: 48 89 44 24 28               	movq	%rax, 0x28(%rsp)
   c6a3f: 48 8b 84 24 b0 00 00 00      	movq	0xb0(%rsp), %rax
   c6a47: 48 89 44 24 20               	movq	%rax, 0x20(%rsp)
   c6a4c: 48 8b 84 24 b8 00 00 00      	movq	0xb8(%rsp), %rax
   c6a54: 48 89 44 24 18               	movq	%rax, 0x18(%rsp)
   c6a59: 48 8b 44 24 70               	movq	0x70(%rsp), %rax
   c6a5e: 48 89 44 24 10               	movq	%rax, 0x10(%rsp)
   c6a63: 48 8b 44 24 78               	movq	0x78(%rsp), %rax
   c6a68: 48 89 44 24 08               	movq	%rax, 0x8(%rsp)
   c6a6d: 48 8b 44 24 68               	movq	0x68(%rsp), %rax
   c6a72: 48 89 04 24                  	movq	%rax, (%rsp)
   c6a76: 4c 8b 94 24 c0 00 00 00      	movq	0xc0(%rsp), %r10
   c6a7e: 48 8b bc 24 c8 00 00 00      	movq	0xc8(%rsp), %rdi
   c6a86: 4c 8b b4 24 d8 00 00 00      	movq	0xd8(%rsp), %r14
   c6a8e: e9 fd 06 00 00               	jmp	0xc7190 <Java_com_adjust_sdk_sig_NativeLibHelper_nSign+0xbae5>
   c6a93: 48 8b 84 24 e0 01 00 00      	movq	0x1e0(%rsp), %rax
   c6a9b: 4c 8b 84 24 70 01 00 00      	movq	0x170(%rsp), %r8
   c6aa3: 4c 01 c0                     	addq	%r8, %rax
   c6aa6: 48 89 84 24 40 01 00 00      	movq	%rax, 0x140(%rsp)
   c6aae: 48 83 f8 0b                  	cmpq	$0xb, %rax
   c6ab2: 48 b8 fb bd b6 ca c1 7c b8 4c	movabsq	$0x4cb87cc1cab6bdfb, %rax # imm = 0x4CB87CC1CAB6BDFB
   c6abc: 48 b9 d0 2a aa e4 90 1c 03 a7	movabsq	$-0x58fce36f1b55d530, %rcx # imm = 0xA7031C90E4AA2AD0
   c6ac6: 48 0f 42 c1                  	cmovbq	%rcx, %rax
   c6aca: 48 8b 4c 24 60               	movq	0x60(%rsp), %rcx
   c6acf: 48 89 4c 24 58               	movq	%rcx, 0x58(%rsp)
   c6ad4: 48 8b 9c 24 d0 00 00 00      	movq	0xd0(%rsp), %rbx
   c6adc: 48 89 5c 24 50               	movq	%rbx, 0x50(%rsp)
   c6ae1: 48 8b 8c 24 90 00 00 00      	movq	0x90(%rsp), %rcx
   c6ae9: 48 89 4c 24 48               	movq	%rcx, 0x48(%rsp)
   c6aee: 48 8b 8c 24 98 00 00 00      	movq	0x98(%rsp), %rcx
   c6af6: 48 89 4c 24 40               	movq	%rcx, 0x40(%rsp)
   c6afb: 48 8b 8c 24 88 00 00 00      	movq	0x88(%rsp), %rcx
   c6b03: 48 89 4c 24 38               	movq	%rcx, 0x38(%rsp)
   c6b08: 48 8b 8c 24 a8 00 00 00      	movq	0xa8(%rsp), %rcx
   c6b10: 48 89 4c 24 30               	movq	%rcx, 0x30(%rsp)
   c6b15: 48 8b 8c 24 a0 00 00 00      	movq	0xa0(%rsp), %rcx
   c6b1d: 48 89 4c 24 28               	movq	%rcx, 0x28(%rsp)
   c6b22: 48 8b 8c 24 b0 00 00 00      	movq	0xb0(%rsp), %rcx
   c6b2a: 48 89 4c 24 20               	movq	%rcx, 0x20(%rsp)
   c6b2f: 48 8b 8c 24 b8 00 00 00      	movq	0xb8(%rsp), %rcx
   c6b37: 48 89 4c 24 18               	movq	%rcx, 0x18(%rsp)
   c6b3c: 48 8b 4c 24 70               	movq	0x70(%rsp), %rcx
   c6b41: 48 89 4c 24 10               	movq	%rcx, 0x10(%rsp)
   c6b46: 48 8b 4c 24 78               	movq	0x78(%rsp), %rcx
   c6b4b: 48 89 4c 24 08               	movq	%rcx, 0x8(%rsp)
   c6b50: 48 8b 4c 24 68               	movq	0x68(%rsp), %rcx
   c6b55: 48 89 0c 24                  	movq	%rcx, (%rsp)
   c6b59: 4c 8b 94 24 c0 00 00 00      	movq	0xc0(%rsp), %r10
   c6b61: 48 8b bc 24 c8 00 00 00      	movq	0xc8(%rsp), %rdi
   c6b69: 4c 8b b4 24 d8 00 00 00      	movq	0xd8(%rsp), %r14
   c6b71: 4c 8b a4 24 80 00 00 00      	movq	0x80(%rsp), %r12
   c6b79: 4c 89 84 24 10 01 00 00      	movq	%r8, 0x110(%rsp)
   c6b81: e9 68 d3 ff ff               	jmp	0xc3eee <Java_com_adjust_sdk_sig_NativeLibHelper_nSign+0x8843>
   c6b86: 48 8b 84 24 00 01 00 00      	movq	0x100(%rsp), %rax
   c6b8e: 0f b6 48 0a                  	movzbl	0xa(%rax), %ecx
   c6b92: 48 89 c8                     	movq	%rcx, %rax
   c6b95: 48 c1 e8 06                  	shrq	$0x6, %rax
   c6b99: 48 8b 84 c4 b0 0a 00 00      	movq	0xab0(%rsp,%rax,8), %rax
   c6ba1: 48 89 ca                     	movq	%rcx, %rdx
   c6ba4: 48 89 8c 24 70 02 00 00      	movq	%rcx, 0x270(%rsp)
   c6bac: 48 0f a3 c8                  	btq	%rcx, %rax
   c6bb0: 48 b8 d5 d8 9d e5 4f 83 2c d0	movabsq	$-0x2fd37cb01a62272b, %rax # imm = 0xD02C834FE59DD8D5
   c6bba: 48 b9 d5 03 5a 7c 82 4f eb cb	movabsq	$-0x3414b07d83a5fc2b, %rcx # imm = 0xCBEB4F827C5A03D5
   c6bc4: 48 0f 43 c1                  	cmovaeq	%rcx, %rax
   c6bc8: 48 8b 4c 24 60               	movq	0x60(%rsp), %rcx
   c6bcd: 48 89 4c 24 58               	movq	%rcx, 0x58(%rsp)
   c6bd2: 48 89 5c 24 50               	movq	%rbx, 0x50(%rsp)
   c6bd7: 48 8b 8c 24 90 00 00 00      	movq	0x90(%rsp), %rcx
   c6bdf: 48 89 4c 24 48               	movq	%rcx, 0x48(%rsp)
   c6be4: 48 8b 8c 24 98 00 00 00      	movq	0x98(%rsp), %rcx
   c6bec: 48 89 4c 24 40               	movq	%rcx, 0x40(%rsp)
   c6bf1: 48 8b 8c 24 a8 00 00 00      	movq	0xa8(%rsp), %rcx
   c6bf9: 48 89 4c 24 30               	movq	%rcx, 0x30(%rsp)
   c6bfe: 48 8b 8c 24 a0 00 00 00      	movq	0xa0(%rsp), %rcx
   c6c06: 48 89 4c 24 28               	movq	%rcx, 0x28(%rsp)
   c6c0b: 48 8b 8c 24 b0 00 00 00      	movq	0xb0(%rsp), %rcx
   c6c13: 48 89 4c 24 20               	movq	%rcx, 0x20(%rsp)
   c6c18: 48 8b 8c 24 b8 00 00 00      	movq	0xb8(%rsp), %rcx
   c6c20: 48 89 4c 24 18               	movq	%rcx, 0x18(%rsp)
   c6c25: 48 8b 4c 24 70               	movq	0x70(%rsp), %rcx
   c6c2a: 48 89 4c 24 10               	movq	%rcx, 0x10(%rsp)
   c6c2f: 48 8b 4c 24 78               	movq	0x78(%rsp), %rcx
   c6c34: 48 89 4c 24 08               	movq	%rcx, 0x8(%rsp)
   c6c39: 48 8b 8c 24 88 00 00 00      	movq	0x88(%rsp), %rcx
   c6c41: 48 89 4c 24 38               	movq	%rcx, 0x38(%rsp)
   c6c46: 48 89 8c 24 58 02 00 00      	movq	%rcx, 0x258(%rsp)
   c6c4e: e9 30 30 00 00               	jmp	0xc9c83 <Java_com_adjust_sdk_sig_NativeLibHelper_nSign+0xe5d8>
   c6c53: 48 8b 84 24 70 02 00 00      	movq	0x270(%rsp), %rax
   c6c5b: 48 8b 84 c4 b0 02 00 00      	movq	0x2b0(%rsp,%rax,8), %rax
   c6c63: 48 89 84 24 68 02 00 00      	movq	%rax, 0x268(%rsp)
   c6c6b: 48 83 f8 0b                  	cmpq	$0xb, %rax
   c6c6f: 48 b8 2c 7c 3d f8 60 26 e8 59	movabsq	$0x59e82660f83d7c2c, %rax # imm = 0x59E82660F83D7C2C
   c6c79: 48 b9 67 ac 6e 50 cf e2 82 02	movabsq	$0x282e2cf506eac67, %rcx # imm = 0x282E2CF506EAC67
   c6c83: e9 79 2f 00 00               	jmp	0xc9c01 <Java_com_adjust_sdk_sig_NativeLibHelper_nSign+0xe556>
   c6c88: 48 8b 84 24 d0 01 00 00      	movq	0x1d0(%rsp), %rax
   c6c90: 4c 8b 84 24 58 01 00 00      	movq	0x158(%rsp), %r8
   c6c98: 4c 01 c0                     	addq	%r8, %rax
   c6c9b: 48 89 84 24 38 01 00 00      	movq	%rax, 0x138(%rsp)
   c6ca3: 48 83 f8 0b                  	cmpq	$0xb, %rax
   c6ca7: 48 b8 a0 8c 1e 49 5d 28 de 95	movabsq	$-0x6a21d7a2b6e17360, %rax # imm = 0x95DE285D491E8CA0
   c6cb1: 48 b9 c5 87 5a 16 d2 c3 6d a5	movabsq	$-0x5a923c2de9a5783b, %rcx # imm = 0xA56DC3D2165A87C5
   c6cbb: 48 0f 42 c1                  	cmovbq	%rcx, %rax
   c6cbf: 48 8b 4c 24 60               	movq	0x60(%rsp), %rcx
   c6cc4: 48 89 4c 24 58               	movq	%rcx, 0x58(%rsp)
   c6cc9: 48 89 5c 24 50               	movq	%rbx, 0x50(%rsp)
   c6cce: 48 8b 8c 24 90 00 00 00      	movq	0x90(%rsp), %rcx
   c6cd6: 48 89 4c 24 48               	movq	%rcx, 0x48(%rsp)
   c6cdb: 48 8b 8c 24 98 00 00 00      	movq	0x98(%rsp), %rcx
   c6ce3: 48 89 4c 24 40               	movq	%rcx, 0x40(%rsp)
   c6ce8: 48 8b 8c 24 88 00 00 00      	movq	0x88(%rsp), %rcx
   c6cf0: 48 89 4c 24 38               	movq	%rcx, 0x38(%rsp)
   c6cf5: 48 8b 8c 24 a8 00 00 00      	movq	0xa8(%rsp), %rcx
   c6cfd: 48 89 4c 24 30               	movq	%rcx, 0x30(%rsp)
   c6d02: 48 8b 8c 24 a0 00 00 00      	movq	0xa0(%rsp), %rcx
   c6d0a: 48 89 4c 24 28               	movq	%rcx, 0x28(%rsp)
   c6d0f: 48 8b 8c 24 b0 00 00 00      	movq	0xb0(%rsp), %rcx
   c6d17: 48 89 4c 24 20               	movq	%rcx, 0x20(%rsp)
   c6d1c: 48 8b 8c 24 b8 00 00 00      	movq	0xb8(%rsp), %rcx
   c6d24: 48 89 4c 24 18               	movq	%rcx, 0x18(%rsp)
   c6d29: 48 8b 4c 24 70               	movq	0x70(%rsp), %rcx
   c6d2e: 48 89 4c 24 10               	movq	%rcx, 0x10(%rsp)
   c6d33: 48 8b 4c 24 78               	movq	0x78(%rsp), %rcx
   c6d38: 48 89 4c 24 08               	movq	%rcx, 0x8(%rsp)
   c6d3d: 48 8b 4c 24 68               	movq	0x68(%rsp), %rcx
   c6d42: 48 89 0c 24                  	movq	%rcx, (%rsp)
   c6d46: 4c 8b 94 24 c0 00 00 00      	movq	0xc0(%rsp), %r10
   c6d4e: 48 8b bc 24 c8 00 00 00      	movq	0xc8(%rsp), %rdi
   c6d56: 4c 8b a4 24 80 00 00 00      	movq	0x80(%rsp), %r12
   c6d5e: 4c 89 84 24 18 01 00 00      	movq	%r8, 0x118(%rsp)
   c6d66: e9 83 d1 ff ff               	jmp	0xc3eee <Java_com_adjust_sdk_sig_NativeLibHelper_nSign+0x8843>
   c6d6b: 48 8b 44 24 60               	movq	0x60(%rsp), %rax
   c6d70: 48 89 44 24 58               	movq	%rax, 0x58(%rsp)
   c6d75: 48 89 5c 24 50               	movq	%rbx, 0x50(%rsp)
   c6d7a: 48 8b 84 24 90 00 00 00      	movq	0x90(%rsp), %rax
   c6d82: 48 89 44 24 48               	movq	%rax, 0x48(%rsp)
   c6d87: 48 8b 84 24 98 00 00 00      	movq	0x98(%rsp), %rax
   c6d8f: 48 89 44 24 40               	movq	%rax, 0x40(%rsp)
   c6d94: 48 8b 84 24 88 00 00 00      	movq	0x88(%rsp), %rax
   c6d9c: 48 89 44 24 38               	movq	%rax, 0x38(%rsp)
   c6da1: 48 8b 84 24 a8 00 00 00      	movq	0xa8(%rsp), %rax
   c6da9: 48 89 44 24 30               	movq	%rax, 0x30(%rsp)
   c6dae: 48 8b 84 24 a0 00 00 00      	movq	0xa0(%rsp), %rax
   c6db6: 48 89 44 24 28               	movq	%rax, 0x28(%rsp)
   c6dbb: 48 8b 84 24 b0 00 00 00      	movq	0xb0(%rsp), %rax
   c6dc3: 48 89 44 24 20               	movq	%rax, 0x20(%rsp)
   c6dc8: 48 8b 84 24 b8 00 00 00      	movq	0xb8(%rsp), %rax
   c6dd0: 48 89 44 24 18               	movq	%rax, 0x18(%rsp)
   c6dd5: 48 8b 44 24 70               	movq	0x70(%rsp), %rax
   c6dda: 48 89 44 24 10               	movq	%rax, 0x10(%rsp)
   c6ddf: 48 8b 44 24 78               	movq	0x78(%rsp), %rax
   c6de4: 48 89 44 24 08               	movq	%rax, 0x8(%rsp)
   c6de9: 48 8b 44 24 68               	movq	0x68(%rsp), %rax
   c6dee: 48 89 04 24                  	movq	%rax, (%rsp)
   c6df2: 4c 8b 94 24 c0 00 00 00      	movq	0xc0(%rsp), %r10
   c6dfa: 48 8b bc 24 c8 00 00 00      	movq	0xc8(%rsp), %rdi
   c6e02: 4c 8b a4 24 80 00 00 00      	movq	0x80(%rsp), %r12
   c6e0a: 48 8b 84 24 d0 01 00 00      	movq	0x1d0(%rsp), %rax
   c6e12: 4c 8d 40 01                  	leaq	0x1(%rax), %r8
   c6e16: 4c 89 84 24 68 01 00 00      	movq	%r8, 0x168(%rsp)
   c6e1e: e9 aa 06 00 00               	jmp	0xc74cd <Java_com_adjust_sdk_sig_NativeLibHelper_nSign+0xbe22>
   c6e23: 4c 8b ac 24 a0 01 00 00      	movq	0x1a0(%rsp), %r13
   c6e2b: 49 83 fd 0b                  	cmpq	$0xb, %r13
   c6e2f: 48 b8 7b be d4 74 f9 4e 3f a4	movabsq	$-0x5bc0b1068b2b4185, %rax # imm = 0xA43F4EF974D4BE7B
   c6e39: 48 b9 64 e0 bc b9 af a5 78 3a	movabsq	$0x3a78a5afb9bce064, %rcx # imm = 0x3A78A5AFB9BCE064
   c6e43: 48 0f 44 c1                  	cmoveq	%rcx, %rax
   c6e47: 48 8b 4c 24 60               	movq	0x60(%rsp), %rcx
   c6e4c: 48 89 4c 24 58               	movq	%rcx, 0x58(%rsp)
   c6e51: 48 89 5c 24 50               	movq	%rbx, 0x50(%rsp)
   c6e56: 48 8b 8c 24 90 00 00 00      	movq	0x90(%rsp), %rcx
   c6e5e: 48 89 4c 24 48               	movq	%rcx, 0x48(%rsp)
   c6e63: 48 8b 8c 24 98 00 00 00      	movq	0x98(%rsp), %rcx
   c6e6b: 48 89 4c 24 40               	movq	%rcx, 0x40(%rsp)
   c6e70: 48 8b 8c 24 88 00 00 00      	movq	0x88(%rsp), %rcx
   c6e78: 48 89 4c 24 38               	movq	%rcx, 0x38(%rsp)
   c6e7d: 48 8b 8c 24 a8 00 00 00      	movq	0xa8(%rsp), %rcx
   c6e85: 48 89 4c 24 30               	movq	%rcx, 0x30(%rsp)
   c6e8a: 48 8b 8c 24 a0 00 00 00      	movq	0xa0(%rsp), %rcx
   c6e92: 48 89 4c 24 28               	movq	%rcx, 0x28(%rsp)
   c6e97: 48 8b 8c 24 b0 00 00 00      	movq	0xb0(%rsp), %rcx
   c6e9f: 48 89 4c 24 20               	movq	%rcx, 0x20(%rsp)
   c6ea4: 48 8b 8c 24 b8 00 00 00      	movq	0xb8(%rsp), %rcx
   c6eac: 48 89 4c 24 18               	movq	%rcx, 0x18(%rsp)
   c6eb1: 48 8b 4c 24 70               	movq	0x70(%rsp), %rcx
   c6eb6: 48 89 4c 24 10               	movq	%rcx, 0x10(%rsp)
   c6ebb: 48 8b 4c 24 78               	movq	0x78(%rsp), %rcx
   c6ec0: 48 89 4c 24 08               	movq	%rcx, 0x8(%rsp)
   c6ec5: 48 8b 4c 24 68               	movq	0x68(%rsp), %rcx
   c6eca: 48 89 0c 24                  	movq	%rcx, (%rsp)
   c6ece: 4c 8b 94 24 c0 00 00 00      	movq	0xc0(%rsp), %r10
   c6ed6: 48 8b bc 24 c8 00 00 00      	movq	0xc8(%rsp), %rdi
   c6ede: 4c 8b a4 24 80 00 00 00      	movq	0x80(%rsp), %r12
   c6ee6: 44 8a 84 24 e4 00 00 00      	movb	0xe4(%rsp), %r8b
   c6eee: 44 88 84 24 e6 00 00 00      	movb	%r8b, 0xe6(%rsp)
   c6ef6: 4d 89 e8                     	movq	%r13, %r8
   c6ef9: 4c 89 ac 24 c8 01 00 00      	movq	%r13, 0x1c8(%rsp)
   c6f01: e9 e8 cf ff ff               	jmp	0xc3eee <Java_com_adjust_sdk_sig_NativeLibHelper_nSign+0x8843>
   c6f06: 48 8b 84 24 10 01 00 00      	movq	0x110(%rsp), %rax
   c6f0e: 48 3b 84 24 e8 01 00 00      	cmpq	0x1e8(%rsp), %rax
   c6f16: 48 b8 23 7a 3d 50 45 17 93 e6	movabsq	$-0x196ce8baafc285dd, %rax # imm = 0xE6931745503D7A23
   c6f20: 48 b9 59 5c 5d a2 fc e3 68 23	movabsq	$0x2368e3fca25d5c59, %rcx # imm = 0x2368E3FCA25D5C59
   c6f2a: e9 d2 2c 00 00               	jmp	0xc9c01 <Java_com_adjust_sdk_sig_NativeLibHelper_nSign+0xe556>
   c6f2f: 8a 84 24 ea 00 00 00         	movb	0xea(%rsp), %al
   c6f36: 38 84 24 eb 00 00 00         	cmpb	%al, 0xeb(%rsp)
   c6f3d: 48 b8 c1 50 f3 08 9f e8 ca cd	movabsq	$-0x32351760f70caf3f, %rax # imm = 0xCDCAE89F08F350C1
   c6f47: 48 b9 e5 0b 21 28 64 ad 52 da	movabsq	$-0x25ad529bd7def41b, %rcx # imm = 0xDA52AD6428210BE5
   c6f51: 48 0f 47 c1                  	cmovaq	%rcx, %rax
   c6f55: e9 ab 2c 00 00               	jmp	0xc9c05 <Java_com_adjust_sdk_sig_NativeLibHelper_nSign+0xe55a>
   c6f5a: 48 8b ac 24 38 01 00 00      	movq	0x138(%rsp), %rbp
   c6f62: 48 2b ac 24 30 01 00 00      	subq	0x130(%rsp), %rbp
   c6f6a: 48 8b 44 24 60               	movq	0x60(%rsp), %rax
   c6f6f: 48 89 44 24 58               	movq	%rax, 0x58(%rsp)
   c6f74: 48 89 5c 24 50               	movq	%rbx, 0x50(%rsp)
   c6f79: 48 8b 84 24 90 00 00 00      	movq	0x90(%rsp), %rax
   c6f81: 48 89 44 24 48               	movq	%rax, 0x48(%rsp)
   c6f86: 48 8b 84 24 98 00 00 00      	movq	0x98(%rsp), %rax
   c6f8e: 48 89 44 24 40               	movq	%rax, 0x40(%rsp)
   c6f93: 48 8b 84 24 88 00 00 00      	movq	0x88(%rsp), %rax
   c6f9b: 48 89 44 24 38               	movq	%rax, 0x38(%rsp)
   c6fa0: 48 8b 84 24 a8 00 00 00      	movq	0xa8(%rsp), %rax
   c6fa8: 48 89 44 24 30               	movq	%rax, 0x30(%rsp)
   c6fad: 48 8b 84 24 a0 00 00 00      	movq	0xa0(%rsp), %rax
   c6fb5: 48 89 44 24 28               	movq	%rax, 0x28(%rsp)
   c6fba: 48 8b 84 24 b0 00 00 00      	movq	0xb0(%rsp), %rax
   c6fc2: 48 89 44 24 20               	movq	%rax, 0x20(%rsp)
   c6fc7: 48 8b 84 24 b8 00 00 00      	movq	0xb8(%rsp), %rax
   c6fcf: 48 89 44 24 18               	movq	%rax, 0x18(%rsp)
   c6fd4: 48 8b 44 24 70               	movq	0x70(%rsp), %rax
   c6fd9: 48 89 44 24 10               	movq	%rax, 0x10(%rsp)
   c6fde: 48 8b 44 24 78               	movq	0x78(%rsp), %rax
   c6fe3: 48 89 44 24 08               	movq	%rax, 0x8(%rsp)
   c6fe8: 48 89 2c 24                  	movq	%rbp, (%rsp)
   c6fec: 4c 8b 94 24 c0 00 00 00      	movq	0xc0(%rsp), %r10
   c6ff4: 48 8b bc 24 c8 00 00 00      	movq	0xc8(%rsp), %rdi
   c6ffc: 4c 8b a4 24 80 00 00 00      	movq	0x80(%rsp), %r12
   c7004: 48 b8 8d 7f 7f 35 1e 25 bc 65	movabsq	$0x65bc251e357f7f8d, %rax # imm = 0x65BC251E357F7F8D
   c700e: e9 db ce ff ff               	jmp	0xc3eee <Java_com_adjust_sdk_sig_NativeLibHelper_nSign+0x8843>
   c7013: 48 b8 5f 5f 5f 5f 5f 5f 5f 5f	movabsq	$0x5f5f5f5f5f5f5f5f, %rax # imm = 0x5F5F5F5F5F5F5F5F
   c701d: 48 31 05 34 73 07 00         	xorq	%rax, 0x77334(%rip)     # 0x13e358
   c7024: f2 0f 10 05 34 73 07 00      	movsd	0x77334(%rip), %xmm0    # 0x13e360
   c702c: 0f 57 05 4d bf f3 ff         	xorps	-0xc40b3(%rip), %xmm0   # 0x2f80
   c7033: f3 0f 11 05 25 73 07 00      	movss	%xmm0, 0x77325(%rip)    # 0x13e360
   c703b: c6 05 8d 80 07 00 01         	movb	$0x1, 0x7808d(%rip)     # 0x13f0cf
   c7042: 48 8b 44 24 60               	movq	0x60(%rsp), %rax
   c7047: 48 89 44 24 58               	movq	%rax, 0x58(%rsp)
   c704c: 48 8b 9c 24 d0 00 00 00      	movq	0xd0(%rsp), %rbx
   c7054: 48 89 5c 24 50               	movq	%rbx, 0x50(%rsp)
   c7059: 48 8b 84 24 90 00 00 00      	movq	0x90(%rsp), %rax
   c7061: 48 89 44 24 48               	movq	%rax, 0x48(%rsp)
   c7066: 48 8b 84 24 98 00 00 00      	movq	0x98(%rsp), %rax
   c706e: 48 89 44 24 40               	movq	%rax, 0x40(%rsp)
   c7073: 48 8b 84 24 88 00 00 00      	movq	0x88(%rsp), %rax
   c707b: 48 89 44 24 38               	movq	%rax, 0x38(%rsp)
   c7080: 48 8b 84 24 a8 00 00 00      	movq	0xa8(%rsp), %rax
   c7088: 48 89 44 24 30               	movq	%rax, 0x30(%rsp)
   c708d: 48 8b 84 24 a0 00 00 00      	movq	0xa0(%rsp), %rax
   c7095: 48 89 44 24 28               	movq	%rax, 0x28(%rsp)
   c709a: 48 8b 84 24 b0 00 00 00      	movq	0xb0(%rsp), %rax
   c70a2: 48 89 44 24 20               	movq	%rax, 0x20(%rsp)
   c70a7: 48 8b 84 24 b8 00 00 00      	movq	0xb8(%rsp), %rax
   c70af: 48 89 44 24 18               	movq	%rax, 0x18(%rsp)
   c70b4: 48 8b 44 24 70               	movq	0x70(%rsp), %rax
   c70b9: 48 89 44 24 10               	movq	%rax, 0x10(%rsp)
   c70be: 48 8b 44 24 78               	movq	0x78(%rsp), %rax
   c70c3: 48 89 44 24 08               	movq	%rax, 0x8(%rsp)
   c70c8: 48 8b 44 24 68               	movq	0x68(%rsp), %rax
   c70cd: 48 89 04 24                  	movq	%rax, (%rsp)
   c70d1: 4c 8b 94 24 c0 00 00 00      	movq	0xc0(%rsp), %r10
   c70d9: 48 8b bc 24 c8 00 00 00      	movq	0xc8(%rsp), %rdi
   c70e1: 4c 8b b4 24 d8 00 00 00      	movq	0xd8(%rsp), %r14
   c70e9: 4c 8b a4 24 80 00 00 00      	movq	0x80(%rsp), %r12
   c70f1: 48 b8 9e 92 04 ed ff 6f 39 9e	movabsq	$-0x61c6900012fb6d62, %rax # imm = 0x9E396FFFED04929E
   c70fb: e9 ee cd ff ff               	jmp	0xc3eee <Java_com_adjust_sdk_sig_NativeLibHelper_nSign+0x8843>
   c7100: 48 8b 44 24 60               	movq	0x60(%rsp), %rax
   c7105: 48 89 44 24 58               	movq	%rax, 0x58(%rsp)
   c710a: 4c 89 7c 24 50               	movq	%r15, 0x50(%rsp)
   c710f: 48 8b 84 24 90 00 00 00      	movq	0x90(%rsp), %rax
   c7117: 48 89 44 24 48               	movq	%rax, 0x48(%rsp)
   c711c: 48 8b 84 24 98 00 00 00      	movq	0x98(%rsp), %rax
   c7124: 48 89 44 24 40               	movq	%rax, 0x40(%rsp)
   c7129: 48 8b 84 24 88 00 00 00      	movq	0x88(%rsp), %rax
   c7131: 48 89 44 24 38               	movq	%rax, 0x38(%rsp)
   c7136: 48 8b 84 24 a8 00 00 00      	movq	0xa8(%rsp), %rax
   c713e: 48 89 44 24 30               	movq	%rax, 0x30(%rsp)
   c7143: 48 8b 84 24 a0 00 00 00      	movq	0xa0(%rsp), %rax
   c714b: 48 89 44 24 28               	movq	%rax, 0x28(%rsp)
   c7150: 48 8b 84 24 b0 00 00 00      	movq	0xb0(%rsp), %rax
   c7158: 48 89 44 24 20               	movq	%rax, 0x20(%rsp)
   c715d: 48 8b 84 24 b8 00 00 00      	movq	0xb8(%rsp), %rax
   c7165: 48 89 44 24 18               	movq	%rax, 0x18(%rsp)
   c716a: 48 8b 44 24 70               	movq	0x70(%rsp), %rax
   c716f: 48 89 44 24 10               	movq	%rax, 0x10(%rsp)
   c7174: 48 8b 44 24 78               	movq	0x78(%rsp), %rax
   c7179: 48 89 44 24 08               	movq	%rax, 0x8(%rsp)
   c717e: 48 8b 44 24 68               	movq	0x68(%rsp), %rax
   c7183: 48 89 04 24                  	movq	%rax, (%rsp)
   c7187: 4d 89 f2                     	movq	%r14, %r10
   c718a: 4c 89 c7                     	movq	%r8, %rdi
   c718d: 4d 89 ce                     	movq	%r9, %r14
   c7190: 4c 8b a4 24 80 00 00 00      	movq	0x80(%rsp), %r12
   c7198: 31 c0                        	xorl	%eax, %eax
   c719a: 48 89 84 24 f0 00 00 00      	movq	%rax, 0xf0(%rsp)
   c71a2: 48 b8 5b 19 4d cb de b1 f9 0d	movabsq	$0xdf9b1decb4d195b, %rax # imm = 0xDF9B1DECB4D195B
   c71ac: e9 3d cd ff ff               	jmp	0xc3eee <Java_com_adjust_sdk_sig_NativeLibHelper_nSign+0x8843>
   c71b1: 48 8b 44 24 60               	movq	0x60(%rsp), %rax
   c71b6: 48 89 44 24 58               	movq	%rax, 0x58(%rsp)
   c71bb: 48 89 5c 24 50               	movq	%rbx, 0x50(%rsp)
   c71c0: 48 8b 84 24 90 00 00 00      	movq	0x90(%rsp), %rax
   c71c8: 48 89 44 24 48               	movq	%rax, 0x48(%rsp)
   c71cd: 48 8b 84 24 98 00 00 00      	movq	0x98(%rsp), %rax
   c71d5: 48 89 44 24 40               	movq	%rax, 0x40(%rsp)
   c71da: 48 8b 84 24 88 00 00 00      	movq	0x88(%rsp), %rax
   c71e2: 48 89 44 24 38               	movq	%rax, 0x38(%rsp)
   c71e7: 48 8b 84 24 a8 00 00 00      	movq	0xa8(%rsp), %rax
   c71ef: 48 89 44 24 30               	movq	%rax, 0x30(%rsp)
   c71f4: 48 8b 84 24 a0 00 00 00      	movq	0xa0(%rsp), %rax
   c71fc: 48 89 44 24 28               	movq	%rax, 0x28(%rsp)
   c7201: 4c 89 74 24 20               	movq	%r14, 0x20(%rsp)
   c7206: 4c 89 5c 24 18               	movq	%r11, 0x18(%rsp)
   c720b: 48 8b 44 24 70               	movq	0x70(%rsp), %rax
   c7210: 48 89 44 24 10               	movq	%rax, 0x10(%rsp)
   c7215: 48 8b 44 24 78               	movq	0x78(%rsp), %rax
   c721a: 48 89 44 24 08               	movq	%rax, 0x8(%rsp)
   c721f: 48 8b 44 24 68               	movq	0x68(%rsp), %rax
   c7224: 48 89 04 24                  	movq	%rax, (%rsp)
   c7228: 49 89 f2                     	movq	%rsi, %r10
   c722b: 4c 89 c7                     	movq	%r8, %rdi
   c722e: 4d 89 ce                     	movq	%r9, %r14
   c7231: 4c 8b a4 24 80 00 00 00      	movq	0x80(%rsp), %r12
   c7239: 48 8b 84 24 e0 01 00 00      	movq	0x1e0(%rsp), %rax
   c7241: 4c 8d 40 01                  	leaq	0x1(%rax), %r8
   c7245: 4c 89 84 24 80 01 00 00      	movq	%r8, 0x180(%rsp)
   c724d: e9 29 23 00 00               	jmp	0xc957b <Java_com_adjust_sdk_sig_NativeLibHelper_nSign+0xded0>
   c7252: 31 c0                        	xorl	%eax, %eax
   c7254: b1 01                        	movb	$0x1, %cl
   c7256: f0                           	lock
   c7257: 0f b0 0d 70 7e 07 00         	cmpxchgb	%cl, 0x77e70(%rip)      # 0x13f0ce
   c725e: 48 b8 62 b1 21 17 8e 4a 0a c3	movabsq	$-0x3cf5b571e8de4e9e, %rax # imm = 0xC30A4A8E1721B162
   c7268: 48 b9 e3 9e 1b f8 fd be d2 1b	movabsq	$0x1bd2befdf81b9ee3, %rcx # imm = 0x1BD2BEFDF81B9EE3
   c7272: e9 8a 29 00 00               	jmp	0xc9c01 <Java_com_adjust_sdk_sig_NativeLibHelper_nSign+0xe556>
   c7277: 6a 0a                        	pushq	$0xa
   c7279: 59                           	popq	%rcx
   c727a: 48 8b 84 24 f0 01 00 00      	movq	0x1f0(%rsp), %rax
   c7282: 48 29 c1                     	subq	%rax, %rcx
   c7285: 48 39 c8                     	cmpq	%rcx, %rax
   c7288: 48 0f 47 c8                  	cmovaq	%rax, %rcx
   c728c: 48 ff c1                     	incq	%rcx
   c728f: 48 89 8c 24 b8 01 00 00      	movq	%rcx, 0x1b8(%rsp)
   c7297: 48 8b 44 24 60               	movq	0x60(%rsp), %rax
   c729c: 48 89 44 24 58               	movq	%rax, 0x58(%rsp)
   c72a1: 48 89 5c 24 50               	movq	%rbx, 0x50(%rsp)
   c72a6: 48 8b 84 24 90 00 00 00      	movq	0x90(%rsp), %rax
   c72ae: 48 89 44 24 48               	movq	%rax, 0x48(%rsp)
   c72b3: 48 8b 84 24 98 00 00 00      	movq	0x98(%rsp), %rax
   c72bb: 48 89 44 24 40               	movq	%rax, 0x40(%rsp)
   c72c0: 48 8b 84 24 88 00 00 00      	movq	0x88(%rsp), %rax
   c72c8: 48 89 44 24 38               	movq	%rax, 0x38(%rsp)
   c72cd: 48 8b 84 24 a8 00 00 00      	movq	0xa8(%rsp), %rax
   c72d5: 48 89 44 24 30               	movq	%rax, 0x30(%rsp)
   c72da: 48 8b 84 24 a0 00 00 00      	movq	0xa0(%rsp), %rax
   c72e2: 48 89 44 24 28               	movq	%rax, 0x28(%rsp)
   c72e7: 48 8b 84 24 b0 00 00 00      	movq	0xb0(%rsp), %rax
   c72ef: 48 89 44 24 20               	movq	%rax, 0x20(%rsp)
   c72f4: 48 8b 84 24 b8 00 00 00      	movq	0xb8(%rsp), %rax
   c72fc: 48 89 44 24 18               	movq	%rax, 0x18(%rsp)
   c7301: 48 8b 44 24 70               	movq	0x70(%rsp), %rax
   c7306: 48 89 44 24 10               	movq	%rax, 0x10(%rsp)
   c730b: 48 8b 44 24 78               	movq	0x78(%rsp), %rax
   c7310: 48 89 44 24 08               	movq	%rax, 0x8(%rsp)
   c7315: 48 8b 44 24 68               	movq	0x68(%rsp), %rax
   c731a: 48 89 04 24                  	movq	%rax, (%rsp)
   c731e: 4c 8b 94 24 c0 00 00 00      	movq	0xc0(%rsp), %r10
   c7326: 48 8b bc 24 c8 00 00 00      	movq	0xc8(%rsp), %rdi
   c732e: 4c 8b a4 24 80 00 00 00      	movq	0x80(%rsp), %r12
   c7336: 31 c0                        	xorl	%eax, %eax
   c7338: 48 89 84 24 b0 01 00 00      	movq	%rax, 0x1b0(%rsp)
   c7340: 48 b8 88 fb 26 f4 d3 30 a4 b9	movabsq	$-0x465bcf2c0bd90478, %rax # imm = 0xB9A430D3F426FB88
   c734a: e9 9f cb ff ff               	jmp	0xc3eee <Java_com_adjust_sdk_sig_NativeLibHelper_nSign+0x8843>
   c734f: 48 8b 44 24 60               	movq	0x60(%rsp), %rax
   c7354: 48 89 44 24 58               	movq	%rax, 0x58(%rsp)
   c7359: 48 89 5c 24 50               	movq	%rbx, 0x50(%rsp)
   c735e: 48 8b 84 24 90 00 00 00      	movq	0x90(%rsp), %rax
   c7366: 48 89 44 24 48               	movq	%rax, 0x48(%rsp)
   c736b: 48 8b 84 24 98 00 00 00      	movq	0x98(%rsp), %rax
   c7373: 48 89 44 24 40               	movq	%rax, 0x40(%rsp)
   c7378: 48 8b 84 24 88 00 00 00      	movq	0x88(%rsp), %rax
   c7380: 48 89 44 24 38               	movq	%rax, 0x38(%rsp)
   c7385: 48 8b 8c 24 a8 00 00 00      	movq	0xa8(%rsp), %rcx
   c738d: 48 8d 41 ff                  	leaq	-0x1(%rcx), %rax
   c7391: 48 89 84 24 28 02 00 00      	movq	%rax, 0x228(%rsp)
   c7399: 48 89 4c 24 30               	movq	%rcx, 0x30(%rsp)
   c739e: 48 8b 8c 24 a0 00 00 00      	movq	0xa0(%rsp), %rcx
   c73a6: 48 8d 41 01                  	leaq	0x1(%rcx), %rax
   c73aa: 48 89 84 24 18 02 00 00      	movq	%rax, 0x218(%rsp)
   c73b2: 48 89 4c 24 28               	movq	%rcx, 0x28(%rsp)
   c73b7: 48 8b 8c 24 b0 00 00 00      	movq	0xb0(%rsp), %rcx
   c73bf: 48 8d 41 01                  	leaq	0x1(%rcx), %rax
   c73c3: 48 89 84 24 20 02 00 00      	movq	%rax, 0x220(%rsp)
   c73cb: 48 89 4c 24 20               	movq	%rcx, 0x20(%rsp)
   c73d0: 48 8b 84 24 b8 00 00 00      	movq	0xb8(%rsp), %rax
   c73d8: 48 89 44 24 18               	movq	%rax, 0x18(%rsp)
   c73dd: 48 8b 44 24 70               	movq	0x70(%rsp), %rax
   c73e2: 48 89 44 24 10               	movq	%rax, 0x10(%rsp)
   c73e7: 48 8b 44 24 78               	movq	0x78(%rsp), %rax
   c73ec: 48 89 44 24 08               	movq	%rax, 0x8(%rsp)
   c73f1: 48 8b 44 24 68               	movq	0x68(%rsp), %rax
   c73f6: 48 89 04 24                  	movq	%rax, (%rsp)
   c73fa: 4c 8b 94 24 c0 00 00 00      	movq	0xc0(%rsp), %r10
   c7402: 48 8b bc 24 c8 00 00 00      	movq	0xc8(%rsp), %rdi
   c740a: 4c 8b a4 24 80 00 00 00      	movq	0x80(%rsp), %r12
   c7412: 48 b8 1e 15 24 f8 66 05 79 94	movabsq	$-0x6b86fa9907dbeae2, %rax # imm = 0x94790566F824151E
   c741c: e9 cd ca ff ff               	jmp	0xc3eee <Java_com_adjust_sdk_sig_NativeLibHelper_nSign+0x8843>
   c7421: 48 8b 44 24 60               	movq	0x60(%rsp), %rax
   c7426: 48 89 44 24 58               	movq	%rax, 0x58(%rsp)
   c742b: 48 89 5c 24 50               	movq	%rbx, 0x50(%rsp)
   c7430: 48 8b 84 24 90 00 00 00      	movq	0x90(%rsp), %rax
   c7438: 48 89 44 24 48               	movq	%rax, 0x48(%rsp)
   c743d: 48 8b 84 24 98 00 00 00      	movq	0x98(%rsp), %rax
   c7445: 48 89 44 24 40               	movq	%rax, 0x40(%rsp)
   c744a: 48 8b 84 24 88 00 00 00      	movq	0x88(%rsp), %rax
   c7452: 48 89 44 24 38               	movq	%rax, 0x38(%rsp)
   c7457: 48 8b 84 24 a8 00 00 00      	movq	0xa8(%rsp), %rax
   c745f: 48 89 44 24 30               	movq	%rax, 0x30(%rsp)
   c7464: 48 8b 84 24 a0 00 00 00      	movq	0xa0(%rsp), %rax
   c746c: 48 89 44 24 28               	movq	%rax, 0x28(%rsp)
   c7471: 48 8b 84 24 b0 00 00 00      	movq	0xb0(%rsp), %rax
   c7479: 48 89 44 24 20               	movq	%rax, 0x20(%rsp)
   c747e: 48 8b 84 24 b8 00 00 00      	movq	0xb8(%rsp), %rax
   c7486: 48 89 44 24 18               	movq	%rax, 0x18(%rsp)
   c748b: 48 8b 44 24 70               	movq	0x70(%rsp), %rax
   c7490: 48 89 44 24 10               	movq	%rax, 0x10(%rsp)
   c7495: 48 8b 44 24 78               	movq	0x78(%rsp), %rax
   c749a: 48 89 44 24 08               	movq	%rax, 0x8(%rsp)
   c749f: 48 8b 44 24 68               	movq	0x68(%rsp), %rax
   c74a4: 48 89 04 24                  	movq	%rax, (%rsp)
   c74a8: 4c 8b 94 24 c0 00 00 00      	movq	0xc0(%rsp), %r10
   c74b0: 48 8b bc 24 c8 00 00 00      	movq	0xc8(%rsp), %rdi
   c74b8: 4c 8b a4 24 80 00 00 00      	movq	0x80(%rsp), %r12
   c74c0: 31 c0                        	xorl	%eax, %eax
   c74c2: 48 89 84 24 68 01 00 00      	movq	%rax, 0x168(%rsp)
   c74ca: 6a ff                        	pushq	$-0x1
   c74cc: 58                           	popq	%rax
   c74cd: 48 89 84 24 60 01 00 00      	movq	%rax, 0x160(%rsp)
   c74d5: 48 b8 74 c4 d3 7d 2f 5c e0 05	movabsq	$0x5e05c2f7dd3c474, %rax # imm = 0x5E05C2F7DD3C474
   c74df: e9 0a ca ff ff               	jmp	0xc3eee <Java_com_adjust_sdk_sig_NativeLibHelper_nSign+0x8843>
   c74e4: 48 8b 44 24 60               	movq	0x60(%rsp), %rax
   c74e9: 48 89 44 24 58               	movq	%rax, 0x58(%rsp)
   c74ee: 48 8b 84 24 90 00 00 00      	movq	0x90(%rsp), %rax
   c74f6: 48 89 44 24 48               	movq	%rax, 0x48(%rsp)
   c74fb: 48 8b 84 24 98 00 00 00      	movq	0x98(%rsp), %rax
   c7503: 48 89 44 24 40               	movq	%rax, 0x40(%rsp)
   c7508: 48 8b 84 24 88 00 00 00      	movq	0x88(%rsp), %rax
   c7510: 48 89 44 24 38               	movq	%rax, 0x38(%rsp)
   c7515: 48 8b 84 24 a8 00 00 00      	movq	0xa8(%rsp), %rax
   c751d: 48 89 44 24 30               	movq	%rax, 0x30(%rsp)
   c7522: 48 8b 84 24 a0 00 00 00      	movq	0xa0(%rsp), %rax
   c752a: 48 89 44 24 28               	movq	%rax, 0x28(%rsp)
   c752f: 48 8b 84 24 b0 00 00 00      	movq	0xb0(%rsp), %rax
   c7537: 48 89 44 24 20               	movq	%rax, 0x20(%rsp)
   c753c: 48 8b 84 24 b8 00 00 00      	movq	0xb8(%rsp), %rax
   c7544: 48 89 44 24 18               	movq	%rax, 0x18(%rsp)
   c7549: 48 8b 44 24 70               	movq	0x70(%rsp), %rax
   c754e: 48 89 44 24 10               	movq	%rax, 0x10(%rsp)
   c7553: 48 8b 44 24 78               	movq	0x78(%rsp), %rax
   c7558: 48 89 44 24 08               	movq	%rax, 0x8(%rsp)
   c755d: 48 8b 44 24 68               	movq	0x68(%rsp), %rax
   c7562: 48 89 04 24                  	movq	%rax, (%rsp)
   c7566: 4c 8b 94 24 c0 00 00 00      	movq	0xc0(%rsp), %r10
   c756e: 48 8b bc 24 c8 00 00 00      	movq	0xc8(%rsp), %rdi
   c7576: e9 ea 0a 00 00               	jmp	0xc8065 <Java_com_adjust_sdk_sig_NativeLibHelper_nSign+0xc9ba>
   c757b: 48 8b 84 24 30 02 00 00      	movq	0x230(%rsp), %rax
   c7583: c7 00 08 00 00 00            	movl	$0x8, (%rax)
   c7589: 48 8b 44 24 60               	movq	0x60(%rsp), %rax
   c758e: 48 89 44 24 58               	movq	%rax, 0x58(%rsp)
   c7593: 48 89 5c 24 50               	movq	%rbx, 0x50(%rsp)
   c7598: 48 8b 84 24 90 00 00 00      	movq	0x90(%rsp), %rax
   c75a0: 48 89 44 24 48               	movq	%rax, 0x48(%rsp)
   c75a5: 48 8b 84 24 98 00 00 00      	movq	0x98(%rsp), %rax
   c75ad: 48 89 44 24 40               	movq	%rax, 0x40(%rsp)
   c75b2: 48 8b 84 24 88 00 00 00      	movq	0x88(%rsp), %rax
   c75ba: 48 89 44 24 38               	movq	%rax, 0x38(%rsp)
   c75bf: 48 8b 84 24 a8 00 00 00      	movq	0xa8(%rsp), %rax
   c75c7: 48 89 44 24 30               	movq	%rax, 0x30(%rsp)
   c75cc: 48 8b 84 24 a0 00 00 00      	movq	0xa0(%rsp), %rax
   c75d4: 48 89 44 24 28               	movq	%rax, 0x28(%rsp)
   c75d9: 48 8b 84 24 b0 00 00 00      	movq	0xb0(%rsp), %rax
   c75e1: 48 89 44 24 20               	movq	%rax, 0x20(%rsp)
   c75e6: 48 8b 84 24 b8 00 00 00      	movq	0xb8(%rsp), %rax
   c75ee: 48 89 44 24 18               	movq	%rax, 0x18(%rsp)
   c75f3: 48 8b 44 24 70               	movq	0x70(%rsp), %rax
   c75f8: 48 89 44 24 10               	movq	%rax, 0x10(%rsp)
   c75fd: 48 8b 44 24 78               	movq	0x78(%rsp), %rax
   c7602: 48 89 44 24 08               	movq	%rax, 0x8(%rsp)
   c7607: 48 8b 44 24 68               	movq	0x68(%rsp), %rax
   c760c: 48 89 04 24                  	movq	%rax, (%rsp)
   c7610: 4c 8b 94 24 c0 00 00 00      	movq	0xc0(%rsp), %r10
   c7618: 48 8b bc 24 c8 00 00 00      	movq	0xc8(%rsp), %rdi
   c7620: 4c 8b a4 24 80 00 00 00      	movq	0x80(%rsp), %r12
   c7628: c7 84 24 ec 00 00 00 00 00 00 00     	movl	$0x0, 0xec(%rsp)
   c7633: 48 b8 63 67 77 38 87 a0 2d 93	movabsq	$-0x6cd25f78c788989d, %rax # imm = 0x932DA08738776763
   c763d: e9 ac c8 ff ff               	jmp	0xc3eee <Java_com_adjust_sdk_sig_NativeLibHelper_nSign+0x8843>
   c7642: 48 8b 84 24 f8 00 00 00      	movq	0xf8(%rsp), %rax
   c764a: 80 78 02 00                  	cmpb	$0x0, 0x2(%rax)
   c764e: 48 b8 4f 3f a7 d6 08 d1 d4 fe	movabsq	$-0x12b2ef72958c0b1, %rax # imm = 0xFED4D108D6A73F4F
   c7658: 48 b9 82 48 52 ed 62 c0 d8 55	movabsq	$0x55d8c062ed524882, %rcx # imm = 0x55D8C062ED524882
   c7662: e9 02 18 00 00               	jmp	0xc8e69 <Java_com_adjust_sdk_sig_NativeLibHelper_nSign+0xd7be>
   c7667: 48 8b 44 24 60               	movq	0x60(%rsp), %rax
   c766c: 48 89 44 24 58               	movq	%rax, 0x58(%rsp)
   c7671: 48 89 5c 24 50               	movq	%rbx, 0x50(%rsp)
   c7676: 48 8b 84 24 90 00 00 00      	movq	0x90(%rsp), %rax
   c767e: 48 89 44 24 48               	movq	%rax, 0x48(%rsp)
   c7683: 48 8b 84 24 98 00 00 00      	movq	0x98(%rsp), %rax
   c768b: 48 89 44 24 40               	movq	%rax, 0x40(%rsp)
   c7690: 48 8b 84 24 88 00 00 00      	movq	0x88(%rsp), %rax
   c7698: 48 89 44 24 38               	movq	%rax, 0x38(%rsp)
   c769d: 48 8b 84 24 60 01 00 00      	movq	0x160(%rsp), %rax
   c76a5: 48 89 84 24 30 01 00 00      	movq	%rax, 0x130(%rsp)
   c76ad: 48 8b 84 24 a8 00 00 00      	movq	0xa8(%rsp), %rax
   c76b5: 48 89 44 24 30               	movq	%rax, 0x30(%rsp)
   c76ba: 48 8b 84 24 a0 00 00 00      	movq	0xa0(%rsp), %rax
   c76c2: 48 89 44 24 28               	movq	%rax, 0x28(%rsp)
   c76c7: 4c 89 74 24 20               	movq	%r14, 0x20(%rsp)
   c76cc: 4c 89 5c 24 18               	movq	%r11, 0x18(%rsp)
   c76d1: 48 8b 44 24 70               	movq	0x70(%rsp), %rax
   c76d6: 48 89 44 24 10               	movq	%rax, 0x10(%rsp)
   c76db: 48 8b 44 24 78               	movq	0x78(%rsp), %rax
   c76e0: 48 89 44 24 08               	movq	%rax, 0x8(%rsp)
   c76e5: 48 8b 44 24 68               	movq	0x68(%rsp), %rax
   c76ea: 48 89 04 24                  	movq	%rax, (%rsp)
   c76ee: 4d 89 ce                     	movq	%r9, %r14
   c76f1: 4c 8b a4 24 80 00 00 00      	movq	0x80(%rsp), %r12
   c76f9: 6a 01                        	pushq	$0x1
   c76fb: 41 5a                        	popq	%r10
   c76fd: 48 8b bc 24 68 01 00 00      	movq	0x168(%rsp), %rdi
   c7705: 48 b8 dc 34 e5 0c 24 19 19 ca	movabsq	$-0x35e6e6dbf31acb24, %rax # imm = 0xCA1919240CE534DC
   c770f: e9 da c7 ff ff               	jmp	0xc3eee <Java_com_adjust_sdk_sig_NativeLibHelper_nSign+0x8843>
   c7714: 48 8b 44 24 60               	movq	0x60(%rsp), %rax
   c7719: 48 89 44 24 58               	movq	%rax, 0x58(%rsp)
   c771e: 48 89 5c 24 50               	movq	%rbx, 0x50(%rsp)
   c7723: 31 c0                        	xorl	%eax, %eax
   c7725: 48 89 44 24 48               	movq	%rax, 0x48(%rsp)
   c772a: 48 8b 84 24 88 00 00 00      	movq	0x88(%rsp), %rax
   c7732: 48 89 44 24 38               	movq	%rax, 0x38(%rsp)
   c7737: 48 8b 84 24 a8 00 00 00      	movq	0xa8(%rsp), %rax
   c773f: 48 89 44 24 30               	movq	%rax, 0x30(%rsp)
   c7744: 48 8b 84 24 a0 00 00 00      	movq	0xa0(%rsp), %rax
   c774c: 48 89 44 24 28               	movq	%rax, 0x28(%rsp)
   c7751: 48 8b 84 24 b0 00 00 00      	movq	0xb0(%rsp), %rax
   c7759: 48 89 44 24 20               	movq	%rax, 0x20(%rsp)
   c775e: 48 8b 84 24 b8 00 00 00      	movq	0xb8(%rsp), %rax
   c7766: 48 89 44 24 18               	movq	%rax, 0x18(%rsp)
   c776b: 48 8b 44 24 70               	movq	0x70(%rsp), %rax
   c7770: 48 89 44 24 10               	movq	%rax, 0x10(%rsp)
   c7775: 48 8b 44 24 78               	movq	0x78(%rsp), %rax
   c777a: 48 89 44 24 08               	movq	%rax, 0x8(%rsp)
   c777f: 48 8b 44 24 68               	movq	0x68(%rsp), %rax
   c7784: 48 89 04 24                  	movq	%rax, (%rsp)
   c7788: 4c 8b 94 24 c0 00 00 00      	movq	0xc0(%rsp), %r10
   c7790: 48 8b bc 24 c8 00 00 00      	movq	0xc8(%rsp), %rdi
   c7798: 4c 8b a4 24 80 00 00 00      	movq	0x80(%rsp), %r12
   c77a0: 6a 0b                        	pushq	$0xb
   c77a2: 58                           	popq	%rax
   c77a3: 48 89 44 24 40               	movq	%rax, 0x40(%rsp)
   c77a8: 48 b8 bc 98 47 ae e0 53 37 50	movabsq	$0x503753e0ae4798bc, %rax # imm = 0x503753E0AE4798BC
   c77b2: e9 37 c7 ff ff               	jmp	0xc3eee <Java_com_adjust_sdk_sig_NativeLibHelper_nSign+0x8843>
   c77b7: 80 3d 11 79 07 00 00         	cmpb	$0x0, 0x77911(%rip)     # 0x13f0cf
   c77be: 48 b8 d8 ea 6f ae a3 11 ee 68	movabsq	$0x68ee11a3ae6fead8, %rax # imm = 0x68EE11A3AE6FEAD8
   c77c8: 48 b9 82 8d 0c a7 ea 3d c0 43	movabsq	$0x43c03deaa70c8d82, %rcx # imm = 0x43C03DEAA70C8D82
   c77d2: e9 d6 1d 00 00               	jmp	0xc95ad <Java_com_adjust_sdk_sig_NativeLibHelper_nSign+0xdf02>
   c77d7: 48 83 bc 24 f0 00 00 00 00   	cmpq	$0x0, 0xf0(%rsp)
   c77e0: 48 b8 f3 0d 4e 47 de 66 58 e7	movabsq	$-0x18a79921b8b1f20d, %rax # imm = 0xE75866DE474E0DF3
   c77ea: 48 b9 80 ec f1 25 bc 50 ba 4b	movabsq	$0x4bba50bc25f1ec80, %rcx # imm = 0x4BBA50BC25F1EC80
   c77f4: 48 0f 44 c1                  	cmoveq	%rcx, %rax
   c77f8: 48 8b 4c 24 60               	movq	0x60(%rsp), %rcx
   c77fd: 48 89 4c 24 58               	movq	%rcx, 0x58(%rsp)
   c7802: 48 89 eb                     	movq	%rbp, %rbx
   c7805: 48 89 6c 24 50               	movq	%rbp, 0x50(%rsp)
   c780a: 48 8b 8c 24 90 00 00 00      	movq	0x90(%rsp), %rcx
   c7812: 48 89 4c 24 48               	movq	%rcx, 0x48(%rsp)
   c7817: 48 8b 8c 24 98 00 00 00      	movq	0x98(%rsp), %rcx
   c781f: 48 89 4c 24 40               	movq	%rcx, 0x40(%rsp)
   c7824: 48 8b 8c 24 88 00 00 00      	movq	0x88(%rsp), %rcx
   c782c: 48 89 4c 24 38               	movq	%rcx, 0x38(%rsp)
   c7831: 48 8b 8c 24 a8 00 00 00      	movq	0xa8(%rsp), %rcx
   c7839: 48 89 4c 24 30               	movq	%rcx, 0x30(%rsp)
   c783e: 4c 89 74 24 28               	movq	%r14, 0x28(%rsp)
   c7843: 4c 89 44 24 20               	movq	%r8, 0x20(%rsp)
   c7848: 4c 89 5c 24 18               	movq	%r11, 0x18(%rsp)
   c784d: 48 8b 4c 24 70               	movq	0x70(%rsp), %rcx
   c7852: 48 89 4c 24 10               	movq	%rcx, 0x10(%rsp)
   c7857: 48 8b 4c 24 78               	movq	0x78(%rsp), %rcx
   c785c: 48 89 4c 24 08               	movq	%rcx, 0x8(%rsp)
   c7861: 48 8b 4c 24 68               	movq	0x68(%rsp), %rcx
   c7866: 48 89 0c 24                  	movq	%rcx, (%rsp)
   c786a: 49 89 f2                     	movq	%rsi, %r10
   c786d: 4c 89 ff                     	movq	%r15, %rdi
   c7870: e9 a4 17 00 00               	jmp	0xc9019 <Java_com_adjust_sdk_sig_NativeLibHelper_nSign+0xd96e>
   c7875: 80 bc 24 e3 00 00 00 00      	cmpb	$0x0, 0xe3(%rsp)
   c787d: 48 b8 a8 8f c1 3f bb 00 54 fc	movabsq	$-0x3abff44c03e7058, %rax # imm = 0xFC5400BB3FC18FA8
   c7887: 48 b9 3c fd 05 e7 cb dc ea dc	movabsq	$-0x2315233418fa02c4, %rcx # imm = 0xDCEADCCBE705FD3C
   c7891: e9 6b 23 00 00               	jmp	0xc9c01 <Java_com_adjust_sdk_sig_NativeLibHelper_nSign+0xe556>
   c7896: 80 3d 30 78 07 00 00         	cmpb	$0x0, 0x77830(%rip)     # 0x13f0cd
   c789d: 48 b8 55 39 1c 12 15 01 99 2b	movabsq	$0x2b990115121c3955, %rax # imm = 0x2B990115121C3955
   c78a7: 48 b9 79 31 77 ac f9 1f 2b dd	movabsq	$-0x22d4e0065388ce87, %rcx # imm = 0xDD2B1FF9AC773179
   c78b1: e9 1e 0f 00 00               	jmp	0xc87d4 <Java_com_adjust_sdk_sig_NativeLibHelper_nSign+0xd129>
   c78b6: 48 8b 44 24 60               	movq	0x60(%rsp), %rax
   c78bb: 48 89 44 24 58               	movq	%rax, 0x58(%rsp)
   c78c0: 48 89 5c 24 50               	movq	%rbx, 0x50(%rsp)
   c78c5: 48 8b 84 24 90 00 00 00      	movq	0x90(%rsp), %rax
   c78cd: 48 89 44 24 48               	movq	%rax, 0x48(%rsp)
   c78d2: 48 8b 84 24 98 00 00 00      	movq	0x98(%rsp), %rax
   c78da: 48 89 44 24 40               	movq	%rax, 0x40(%rsp)
   c78df: 48 8b 84 24 88 00 00 00      	movq	0x88(%rsp), %rax
   c78e7: 48 89 44 24 38               	movq	%rax, 0x38(%rsp)
   c78ec: 48 8b 84 24 78 01 00 00      	movq	0x178(%rsp), %rax
   c78f4: 48 89 84 24 28 01 00 00      	movq	%rax, 0x128(%rsp)
   c78fc: 48 8b 84 24 a8 00 00 00      	movq	0xa8(%rsp), %rax
   c7904: 48 89 44 24 30               	movq	%rax, 0x30(%rsp)
   c7909: 48 8b 84 24 a0 00 00 00      	movq	0xa0(%rsp), %rax
   c7911: 48 89 44 24 28               	movq	%rax, 0x28(%rsp)
   c7916: 4c 89 74 24 20               	movq	%r14, 0x20(%rsp)
   c791b: 4c 89 5c 24 18               	movq	%r11, 0x18(%rsp)
   c7920: 48 8b 44 24 68               	movq	0x68(%rsp), %rax
   c7925: 48 89 04 24                  	movq	%rax, (%rsp)
   c7929: 49 89 f2                     	movq	%rsi, %r10
   c792c: 4c 89 c7                     	movq	%r8, %rdi
   c792f: 4d 89 ce                     	movq	%r9, %r14
   c7932: 4c 8b a4 24 80 00 00 00      	movq	0x80(%rsp), %r12
   c793a: 6a 01                        	pushq	$0x1
   c793c: 59                           	popq	%rcx
   c793d: 48 89 4c 24 10               	movq	%rcx, 0x10(%rsp)
   c7942: 48 8b 94 24 80 01 00 00      	movq	0x180(%rsp), %rdx
   c794a: 48 89 54 24 08               	movq	%rdx, 0x8(%rsp)
   c794f: 48 b8 29 8e c9 3a ae b8 fd 85	movabsq	$-0x7a024751c53671d7, %rax # imm = 0x85FDB8AE3AC98E29
   c7959: e9 90 c5 ff ff               	jmp	0xc3eee <Java_com_adjust_sdk_sig_NativeLibHelper_nSign+0x8843>
   c795e: 6a 0b                        	pushq	$0xb
   c7960: 58                           	popq	%rax
   c7961: 48 2b 84 24 68 02 00 00      	subq	0x268(%rsp), %rax
   c7969: 48 8b 8c 24 20 01 00 00      	movq	0x120(%rsp), %rcx
   c7971: 48 39 c8                     	cmpq	%rcx, %rax
