   98f14: f2ccb1a9     	movk	x9, #0x658d, lsl #32
   98f18: 39000dab     	strb	w11, [x13, #0x3]
   98f1c: f2f6cd09     	movk	x9, #0xb668, lsl #48
   98f20: 39294548     	strb	w8, [x10, #0xa51]
   98f24: 17fffeac     	b	0x989d4 <.text+0x90964>
   98f28: d2806d69     	mov	x9, #0x36b              // =875
   98f2c: f94013e8     	ldr	x8, [sp, #0x20]
   98f30: f2a96289     	movk	x9, #0x4b14, lsl #16
   98f34: f2d790a9     	movk	x9, #0xbc85, lsl #32
   98f38: f2f28b29     	movk	x9, #0x9459, lsl #48
   98f3c: f900011f     	str	xzr, [x8]
   98f40: 17fffea5     	b	0x989d4 <.text+0x90964>
   98f44: d29e11e9     	mov	x9, #0xf08f             // =61583
   98f48: f94013e8     	ldr	x8, [sp, #0x20]
   98f4c: f94007ea     	ldr	x10, [sp, #0x8]
   98f50: f2b5b209     	movk	x9, #0xad90, lsl #16
   98f54: f2ce2149     	movk	x9, #0x710a, lsl #32
   98f58: f2f9cce9     	movk	x9, #0xce67, lsl #48
   98f5c: f900010a     	str	x10, [x8]
   98f60: 17fffe9d     	b	0x989d4 <.text+0x90964>
   98f64: d28a2889     	mov	x9, #0x5144             // =20804
   98f68: d503201f     	nop
   98f6c: 1056c9a8     	adr	x8, 0x1468a0
   98f70: f2ba80c9     	movk	x9, #0xd406, lsl #16
   98f74: f2d3d749     	movk	x9, #0x9eba, lsl #32
   98f78: f2e0a6c9     	movk	x9, #0x536, lsl #48
   98f7c: 089ffd1f     	stlrb	wzr, [x8]
   98f80: 17fffe95     	b	0x989d4 <.text+0x90964>
   98f84: f85f83a0     	ldur	x0, [x29, #-0x8]
   98f88: f85e83a1     	ldur	x1, [x29, #-0x18]
   98f8c: f9400008     	ldr	x8, [x0]
   98f90: f9405d08     	ldr	x8, [x8, #0xb8]
   98f94: d63f0100     	blr	x8
   98f98: f85f03a8     	ldur	x8, [x29, #-0x10]
   98f9c: d2800146     	mov	x6, #0xa                // =10
   98fa0: d29b1924     	mov	x4, #0xd8c9             // =55497
   98fa4: d2869c23     	mov	x3, #0x34e1             // =13537
   98fa8: d293efc2     	mov	x2, #0x9f7e             // =40830
   98fac: d29a8861     	mov	x1, #0xd443             // =54339
   98fb0: b9400108     	ldr	w8, [x8]
   98fb4: d286c400     	mov	x0, #0x3620             // =13856
   98fb8: d2854c11     	mov	x17, #0x2a60            // =10848
   98fbc: d28a2890     	mov	x16, #0x5144            // =20804
   98fc0: d28c430f     	mov	x15, #0x6218            // =25112
   98fc4: d29b95ae     	mov	x14, #0xdcad            // =56493
   98fc8: 7100011f     	cmp	w8, #0x0
   98fcc: d2947508     	mov	x8, #0xa3a8             // =41896
   98fd0: f2be40e8     	movk	x8, #0xf207, lsl #16
   98fd4: f2b4f066     	movk	x6, #0xa783, lsl #16
   98fd8: f2b2bc04     	movk	x4, #0x95e0, lsl #16
   98fdc: f2bedc43     	movk	x3, #0xf6e2, lsl #16
   98fe0: f2bc7e62     	movk	x2, #0xe3f3, lsl #16
   98fe4: f2b96761     	movk	x1, #0xcb3b, lsl #16
   98fe8: f2a634c0     	movk	x0, #0x31a6, lsl #16
   98fec: f2bd2271     	movk	x17, #0xe913, lsl #16
   98ff0: f2ba80d0     	movk	x16, #0xd406, lsl #16
   98ff4: f2b52e6f     	movk	x15, #0xa973, lsl #16
   98ff8: f2b5120e     	movk	x14, #0xa890, lsl #16
   98ffc: f2c0af28     	movk	x8, #0x579, lsl #32
   99000: f2c532e6     	movk	x6, #0x2997, lsl #32
   99004: f2dce944     	movk	x4, #0xe74a, lsl #32
   99008: f2ce2f23     	movk	x3, #0x7179, lsl #32
   9900c: f2c5f262     	movk	x2, #0x2f93, lsl #32
   99010: f2df8461     	movk	x1, #0xfc23, lsl #32
   99014: f2db3680     	movk	x0, #0xd9b4, lsl #32
   99018: f2dfcbd1     	movk	x17, #0xfe5e, lsl #32
   9901c: f2d3d750     	movk	x16, #0x9eba, lsl #32
   99020: f2ddab8f     	movk	x15, #0xed5c, lsl #32
   99024: f2cae6ae     	movk	x14, #0x5735, lsl #32
   99028: f2e7bae8     	movk	x8, #0x3dd7, lsl #48
   9902c: f2e55a66     	movk	x6, #0x2ad3, lsl #48
   99030: f2e012a4     	movk	x4, #0x95, lsl #48
   99034: f2ff4d23     	movk	x3, #0xfa69, lsl #48
   99038: f2e33d82     	movk	x2, #0x19ec, lsl #48
   9903c: f2fc7b81     	movk	x1, #0xe3dc, lsl #48
   99040: f2e2d6c0     	movk	x0, #0x16b6, lsl #48
   99044: f2fedd71     	movk	x17, #0xf6eb, lsl #48
   99048: f2e0a6d0     	movk	x16, #0x536, lsl #48
   9904c: f2fac40f     	movk	x15, #0xd620, lsl #48
   99050: f2fae20e     	movk	x14, #0xd710, lsl #48
   99054: 9a880349     	csel	x9, x26, x8, eq
   99058: 17fffe5f     	b	0x989d4 <.text+0x90964>
   9905c: 2a1f03e0     	mov	w0, wzr
   99060: 52800021     	mov	w1, #0x1                // =1
   99064: d503201f     	nop
   99068: 1056c182     	adr	x2, 0x146898
   9906c: 940281e5     	bl	0x139800 <Java_com_adjust_sdk_sig_NativeLibHelper_nSign+0x6d1fc>
   99070: d28da0a8     	mov	x8, #0x6d05             // =27909
   99074: d295db69     	mov	x9, #0xaedb             // =44763
   99078: d2800146     	mov	x6, #0xa                // =10
   9907c: d29b1924     	mov	x4, #0xd8c9             // =55497
   99080: d2869c23     	mov	x3, #0x34e1             // =13537
   99084: d293efc2     	mov	x2, #0x9f7e             // =40830
   99088: d29a8861     	mov	x1, #0xd443             // =54339
   9908c: d2854c11     	mov	x17, #0x2a60            // =10848
   99090: d28a2890     	mov	x16, #0x5144            // =20804
   99094: d28c430f     	mov	x15, #0x6218            // =25112
   99098: d29b95ae     	mov	x14, #0xdcad            // =56493
   9909c: 7100001f     	cmp	w0, #0x0
   990a0: d286c400     	mov	x0, #0x3620             // =13856
   990a4: f2a82708     	movk	x8, #0x4138, lsl #16
   990a8: f2a97a09     	movk	x9, #0x4bd0, lsl #16
   990ac: f2b4f066     	movk	x6, #0xa783, lsl #16
   990b0: f2b2bc04     	movk	x4, #0x95e0, lsl #16
   990b4: f2bedc43     	movk	x3, #0xf6e2, lsl #16
   990b8: f2bc7e62     	movk	x2, #0xe3f3, lsl #16
   990bc: f2b96761     	movk	x1, #0xcb3b, lsl #16
   990c0: f2bd2271     	movk	x17, #0xe913, lsl #16
   990c4: f2ba80d0     	movk	x16, #0xd406, lsl #16
   990c8: f2b52e6f     	movk	x15, #0xa973, lsl #16
   990cc: f2b5120e     	movk	x14, #0xa890, lsl #16
   990d0: f2a634c0     	movk	x0, #0x31a6, lsl #16
   990d4: f2c99748     	movk	x8, #0x4cba, lsl #32
   990d8: f2debba9     	movk	x9, #0xf5dd, lsl #32
   990dc: f2c532e6     	movk	x6, #0x2997, lsl #32
   990e0: f2dce944     	movk	x4, #0xe74a, lsl #32
   990e4: f2ce2f23     	movk	x3, #0x7179, lsl #32
   990e8: f2c5f262     	movk	x2, #0x2f93, lsl #32
   990ec: f2df8461     	movk	x1, #0xfc23, lsl #32
   990f0: f2dfcbd1     	movk	x17, #0xfe5e, lsl #32
   990f4: f2d3d750     	movk	x16, #0x9eba, lsl #32
   990f8: f2ddab8f     	movk	x15, #0xed5c, lsl #32
   990fc: f2cae6ae     	movk	x14, #0x5735, lsl #32
   99100: f2db3680     	movk	x0, #0xd9b4, lsl #32
   99104: f2ed04c8     	movk	x8, #0x6826, lsl #48
   99108: f2e92629     	movk	x9, #0x4931, lsl #48
   9910c: f2e55a66     	movk	x6, #0x2ad3, lsl #48
   99110: f2e012a4     	movk	x4, #0x95, lsl #48
   99114: f2ff4d23     	movk	x3, #0xfa69, lsl #48
   99118: f2e33d82     	movk	x2, #0x19ec, lsl #48
   9911c: f2fc7b81     	movk	x1, #0xe3dc, lsl #48
   99120: f2fedd71     	movk	x17, #0xf6eb, lsl #48
   99124: f2e0a6d0     	movk	x16, #0x536, lsl #48
   99128: f2fac40f     	movk	x15, #0xd620, lsl #48
   9912c: f2fae20e     	movk	x14, #0xd710, lsl #48
   99130: f2e2d6c0     	movk	x0, #0x16b6, lsl #48
   99134: 9a880129     	csel	x9, x9, x8, eq
   99138: 17fffe27     	b	0x989d4 <.text+0x90964>
   9913c: b0000568     	adrp	x8, 0x146000
   99140: 39694108     	ldrb	w8, [x8, #0xa50]
   99144: 7100011f     	cmp	w8, #0x0
   99148: d28ece48     	mov	x8, #0x7672             // =30322
   9914c: f2b94a88     	movk	x8, #0xca54, lsl #16
   99150: f2c1d2a8     	movk	x8, #0xe95, lsl #32
   99154: f2e9f6e8     	movk	x8, #0x4fb7, lsl #48
   99158: 9a881029     	csel	x9, x1, x8, ne
   9915c: 17fffe1e     	b	0x989d4 <.text+0x90964>
   99160: d29e11e9     	mov	x9, #0xf08f             // =61583
   99164: f85f03a8     	ldur	x8, [x29, #-0x10]
   99168: 5280042a     	mov	w10, #0x21              // =33
   9916c: f2b5b209     	movk	x9, #0xad90, lsl #16
   99170: f2ce2149     	movk	x9, #0x710a, lsl #32
   99174: f2f9cce9     	movk	x9, #0xce67, lsl #48
   99178: b900010a     	str	w10, [x8]
   9917c: 17fffe16     	b	0x989d4 <.text+0x90964>
   99180: 2a1f03e0     	mov	w0, wzr
   99184: 52800021     	mov	w1, #0x1                // =1
   99188: d503201f     	nop
   9918c: 1056b882     	adr	x2, 0x14689c
   99190: 9402819c     	bl	0x139800 <Java_com_adjust_sdk_sig_NativeLibHelper_nSign+0x6d1fc>
   99194: d2800146     	mov	x6, #0xa                // =10
   99198: d2869c23     	mov	x3, #0x34e1             // =13537
   9919c: f2b4f066     	movk	x6, #0xa783, lsl #16
   991a0: d29b1924     	mov	x4, #0xd8c9             // =55497
   991a4: f2bedc43     	movk	x3, #0xf6e2, lsl #16
   991a8: d293efc2     	mov	x2, #0x9f7e             // =40830
   991ac: d29a8861     	mov	x1, #0xd443             // =54339
   991b0: d2854c11     	mov	x17, #0x2a60            // =10848
   991b4: d28a2890     	mov	x16, #0x5144            // =20804
   991b8: d28c430f     	mov	x15, #0x6218            // =25112
   991bc: d29b95ae     	mov	x14, #0xdcad            // =56493
   991c0: 7100001f     	cmp	w0, #0x0
   991c4: d286c400     	mov	x0, #0x3620             // =13856
   991c8: f2c532e6     	movk	x6, #0x2997, lsl #32
   991cc: f2b2bc04     	movk	x4, #0x95e0, lsl #16
   991d0: f2ce2f23     	movk	x3, #0x7179, lsl #32
   991d4: f2bc7e62     	movk	x2, #0xe3f3, lsl #16
   991d8: f2b96761     	movk	x1, #0xcb3b, lsl #16
   991dc: f2bd2271     	movk	x17, #0xe913, lsl #16
   991e0: f2ba80d0     	movk	x16, #0xd406, lsl #16
   991e4: f2b52e6f     	movk	x15, #0xa973, lsl #16
   991e8: f2b5120e     	movk	x14, #0xa890, lsl #16
   991ec: f2a634c0     	movk	x0, #0x31a6, lsl #16
   991f0: f2e55a66     	movk	x6, #0x2ad3, lsl #48
   991f4: f2dce944     	movk	x4, #0xe74a, lsl #32
   991f8: f2ff4d23     	movk	x3, #0xfa69, lsl #48
   991fc: f2c5f262     	movk	x2, #0x2f93, lsl #32
   99200: f2df8461     	movk	x1, #0xfc23, lsl #32
   99204: f2dfcbd1     	movk	x17, #0xfe5e, lsl #32
   99208: f2d3d750     	movk	x16, #0x9eba, lsl #32
   9920c: f2ddab8f     	movk	x15, #0xed5c, lsl #32
   99210: f2cae6ae     	movk	x14, #0x5735, lsl #32
   99214: f2db3680     	movk	x0, #0xd9b4, lsl #32
   99218: f2e012a4     	movk	x4, #0x95, lsl #48
   9921c: f2e33d82     	movk	x2, #0x19ec, lsl #48
   99220: f2fc7b81     	movk	x1, #0xe3dc, lsl #48
   99224: f2fedd71     	movk	x17, #0xf6eb, lsl #48
   99228: f2e0a6d0     	movk	x16, #0x536, lsl #48
   9922c: f2fac40f     	movk	x15, #0xd620, lsl #48
   99230: f2fae20e     	movk	x14, #0xd710, lsl #48
   99234: f2e2d6c0     	movk	x0, #0x16b6, lsl #48
   99238: 9a860069     	csel	x9, x3, x6, eq
   9923c: 17fffde6     	b	0x989d4 <.text+0x90964>
   99240: 2a1f03e0     	mov	w0, wzr
   99244: 52800021     	mov	w1, #0x1                // =1
   99248: d503201f     	nop
   9924c: 1056b2a2     	adr	x2, 0x1468a0
   99250: 9402816c     	bl	0x139800 <Java_com_adjust_sdk_sig_NativeLibHelper_nSign+0x6d1fc>
   99254: d29e04e8     	mov	x8, #0xf027             // =61479
   99258: d2800146     	mov	x6, #0xa                // =10
   9925c: d29b1924     	mov	x4, #0xd8c9             // =55497
   99260: d2869c23     	mov	x3, #0x34e1             // =13537
   99264: d293efc2     	mov	x2, #0x9f7e             // =40830
   99268: d29a8861     	mov	x1, #0xd443             // =54339
   9926c: d2854c11     	mov	x17, #0x2a60            // =10848
   99270: d28a2890     	mov	x16, #0x5144            // =20804
   99274: d28c430f     	mov	x15, #0x6218            // =25112
   99278: d29b95ae     	mov	x14, #0xdcad            // =56493
   9927c: 7100001f     	cmp	w0, #0x0
   99280: d286c400     	mov	x0, #0x3620             // =13856
   99284: f2bfc088     	movk	x8, #0xfe04, lsl #16
   99288: f2b4f066     	movk	x6, #0xa783, lsl #16
   9928c: f2b2bc04     	movk	x4, #0x95e0, lsl #16
   99290: f2bedc43     	movk	x3, #0xf6e2, lsl #16
   99294: f2bc7e62     	movk	x2, #0xe3f3, lsl #16
   99298: f2b96761     	movk	x1, #0xcb3b, lsl #16
   9929c: f2bd2271     	movk	x17, #0xe913, lsl #16
   992a0: f2ba80d0     	movk	x16, #0xd406, lsl #16
   992a4: f2b52e6f     	movk	x15, #0xa973, lsl #16
   992a8: f2b5120e     	movk	x14, #0xa890, lsl #16
   992ac: f2a634c0     	movk	x0, #0x31a6, lsl #16
   992b0: f2d04888     	movk	x8, #0x8244, lsl #32
   992b4: f2c532e6     	movk	x6, #0x2997, lsl #32
   992b8: f2dce944     	movk	x4, #0xe74a, lsl #32
   992bc: f2ce2f23     	movk	x3, #0x7179, lsl #32
   992c0: f2c5f262     	movk	x2, #0x2f93, lsl #32
   992c4: f2df8461     	movk	x1, #0xfc23, lsl #32
   992c8: f2dfcbd1     	movk	x17, #0xfe5e, lsl #32
   992cc: f2d3d750     	movk	x16, #0x9eba, lsl #32
   992d0: f2ddab8f     	movk	x15, #0xed5c, lsl #32
   992d4: f2cae6ae     	movk	x14, #0x5735, lsl #32
   992d8: f2db3680     	movk	x0, #0xd9b4, lsl #32
   992dc: f2e8ad68     	movk	x8, #0x456b, lsl #48
   992e0: f2e55a66     	movk	x6, #0x2ad3, lsl #48
   992e4: f2e012a4     	movk	x4, #0x95, lsl #48
   992e8: f2ff4d23     	movk	x3, #0xfa69, lsl #48
   992ec: f2e33d82     	movk	x2, #0x19ec, lsl #48
   992f0: f2fc7b81     	movk	x1, #0xe3dc, lsl #48
   992f4: f2fedd71     	movk	x17, #0xf6eb, lsl #48
   992f8: f2e0a6d0     	movk	x16, #0x536, lsl #48
   992fc: f2fac40f     	movk	x15, #0xd620, lsl #48
   99300: f2fae20e     	movk	x14, #0xd710, lsl #48
   99304: f2e2d6c0     	movk	x0, #0x16b6, lsl #48
   99308: 9a930109     	csel	x9, x8, x19, eq
   9930c: 17fffdb2     	b	0x989d4 <.text+0x90964>
   99310: b0000568     	adrp	x8, 0x146000
   99314: 39694508     	ldrb	w8, [x8, #0xa51]
   99318: 7100011f     	cmp	w8, #0x0
   9931c: d29fab88     	mov	x8, #0xfd5c             // =64860
   99320: f2aac508     	movk	x8, #0x5628, lsl #16
   99324: f2cad388     	movk	x8, #0x569c, lsl #32
   99328: f2e8a348     	movk	x8, #0x451a, lsl #48
   9932c: 9a881289     	csel	x9, x20, x8, ne
   99330: 17fffda9     	b	0x989d4 <.text+0x90964>
   99334: b0000568     	adrp	x8, 0x146000
   99338: 39693d08     	ldrb	w8, [x8, #0xa4f]
   9933c: 7100011f     	cmp	w8, #0x0
   99340: d28ece68     	mov	x8, #0x7673             // =30323
   99344: f2a8ff48     	movk	x8, #0x47fa, lsl #16
   99348: f2d63e68     	movk	x8, #0xb1f3, lsl #32
   9934c: f2eedc08     	movk	x8, #0x76e0, lsl #48
   99350: 9a881389     	csel	x9, x28, x8, ne
   99354: 17fffda0     	b	0x989d4 <.text+0x90964>
   99358: f85f83b6     	ldur	x22, [x29, #-0x8]
   9935c: f85e83a1     	ldur	x1, [x29, #-0x18]
   99360: f9400be2     	ldr	x2, [sp, #0x10]
   99364: f94002c8     	ldr	x8, [x22]
   99368: aa1603e0     	mov	x0, x22
   9936c: f9407108     	ldr	x8, [x8, #0xe0]
   99370: d63f0100     	blr	x8
   99374: aa0003f7     	mov	x23, x0
   99378: aa1603e0     	mov	x0, x22
   9937c: d28fb796     	mov	x22, #0x7dbc            // =32188
   99380: f2adf2d6     	movk	x22, #0x6f96, lsl #16
   99384: f2dc4d16     	movk	x22, #0xe268, lsl #32
   99388: f2febd96     	movk	x22, #0xf5ec, lsl #48
   9938c: 97ffe5a5     	bl	0x92a20 <.text+0x8a9b0>
   99390: f10002ff     	cmp	x23, #0x0
   99394: d29b1924     	mov	x4, #0xd8c9             // =55497
   99398: 1a9f17e8     	cset	w8, eq
   9939c: d2800146     	mov	x6, #0xa                // =10
   993a0: f2b2bc04     	movk	x4, #0x95e0, lsl #16
   993a4: d2869c23     	mov	x3, #0x34e1             // =13537
   993a8: d293efc2     	mov	x2, #0x9f7e             // =40830
   993ac: d29a8861     	mov	x1, #0xd443             // =54339
   993b0: d2854c11     	mov	x17, #0x2a60            // =10848
   993b4: d28a2890     	mov	x16, #0x5144            // =20804
   993b8: d28c430f     	mov	x15, #0x6218            // =25112
   993bc: d29b95ae     	mov	x14, #0xdcad            // =56493
   993c0: f90007f7     	str	x23, [sp, #0x8]
   993c4: d29e11f7     	mov	x23, #0xf08f            // =61583
   993c8: 2a080008     	orr	w8, w0, w8
   993cc: d286c400     	mov	x0, #0x3620             // =13856
   993d0: f2b4f066     	movk	x6, #0xa783, lsl #16
   993d4: f2dce944     	movk	x4, #0xe74a, lsl #32
   993d8: f2bedc43     	movk	x3, #0xf6e2, lsl #16
   993dc: f2bc7e62     	movk	x2, #0xe3f3, lsl #16
   993e0: f2b96761     	movk	x1, #0xcb3b, lsl #16
   993e4: f2bd2271     	movk	x17, #0xe913, lsl #16
   993e8: f2ba80d0     	movk	x16, #0xd406, lsl #16
   993ec: f2b52e6f     	movk	x15, #0xa973, lsl #16
   993f0: f2b5120e     	movk	x14, #0xa890, lsl #16
   993f4: f2b5b217     	movk	x23, #0xad90, lsl #16
   993f8: f2a634c0     	movk	x0, #0x31a6, lsl #16
   993fc: f2c532e6     	movk	x6, #0x2997, lsl #32
   99400: f2e012a4     	movk	x4, #0x95, lsl #48
   99404: f2ce2f23     	movk	x3, #0x7179, lsl #32
   99408: f2c5f262     	movk	x2, #0x2f93, lsl #32
   9940c: f2df8461     	movk	x1, #0xfc23, lsl #32
   99410: f2dfcbd1     	movk	x17, #0xfe5e, lsl #32
   99414: f2d3d750     	movk	x16, #0x9eba, lsl #32
   99418: f2ddab8f     	movk	x15, #0xed5c, lsl #32
   9941c: f2cae6ae     	movk	x14, #0x5735, lsl #32
   99420: f2ce2157     	movk	x23, #0x710a, lsl #32
   99424: f2db3680     	movk	x0, #0xd9b4, lsl #32
   99428: 7200011f     	tst	w8, #0x1
   9942c: f2e55a66     	movk	x6, #0x2ad3, lsl #48
   99430: f2ff4d23     	movk	x3, #0xfa69, lsl #48
   99434: f2e33d82     	movk	x2, #0x19ec, lsl #48
   99438: f2fc7b81     	movk	x1, #0xe3dc, lsl #48
   9943c: f2fedd71     	movk	x17, #0xf6eb, lsl #48
   99440: f2e0a6d0     	movk	x16, #0x536, lsl #48
   99444: f2fac40f     	movk	x15, #0xd620, lsl #48
   99448: f2fae20e     	movk	x14, #0xd710, lsl #48
   9944c: f2f9ccf7     	movk	x23, #0xce67, lsl #48
   99450: f2e2d6c0     	movk	x0, #0x16b6, lsl #48
   99454: 9a951089     	csel	x9, x4, x21, ne
   99458: 17fffd5f     	b	0x989d4 <.text+0x90964>
   9945c: d503201f     	nop
   99460: 1055af27     	adr	x7, 0x144a44
   99464: 52800425     	mov	w5, #0x21               // =33
   99468: 394000e8     	ldrb	w8, [x7]
   9946c: 394004e9     	ldrb	w9, [x7, #0x1]
   99470: 394008ea     	ldrb	w10, [x7, #0x2]
   99474: 4a050108     	eor	w8, w8, w5
   99478: 394010ec     	ldrb	w12, [x7, #0x4]
   9947c: 394014ed     	ldrb	w13, [x7, #0x5]
   99480: 4a050129     	eor	w9, w9, w5
   99484: 4a05014a     	eor	w10, w10, w5
   99488: 39400ceb     	ldrb	w11, [x7, #0x3]
   9948c: 390000e8     	strb	w8, [x7]
   99490: 394018e8     	ldrb	w8, [x7, #0x6]
   99494: 390004e9     	strb	w9, [x7, #0x1]
   99498: 4a050189     	eor	w9, w12, w5
   9949c: 390008ea     	strb	w10, [x7, #0x2]
   994a0: 4a0501aa     	eor	w10, w13, w5
   994a4: 4a050108     	eor	w8, w8, w5
   994a8: 4a05016b     	eor	w11, w11, w5
   994ac: 390010e9     	strb	w9, [x7, #0x4]
   994b0: d29b95a9     	mov	x9, #0xdcad             // =56493
   994b4: 390014ea     	strb	w10, [x7, #0x5]
   994b8: b000056a     	adrp	x10, 0x146000
   994bc: 390018e8     	strb	w8, [x7, #0x6]
   994c0: 52800028     	mov	w8, #0x1                // =1
   994c4: f2b51209     	movk	x9, #0xa890, lsl #16
   994c8: 39000ceb     	strb	w11, [x7, #0x3]
   994cc: f2cae6a9     	movk	x9, #0x5735, lsl #32
   994d0: f2fae209     	movk	x9, #0xd710, lsl #48
   994d4: 39294148     	strb	w8, [x10, #0xa50]
   994d8: 17fffd3f     	b	0x989d4 <.text+0x90964>
   994dc: d503201f     	nop
   994e0: 1055aa8b     	adr	x11, 0x144a30
   994e4: 4f00e4e1     	movi	v1.16b, #0x7
   994e8: 39404168     	ldrb	w8, [x11, #0x10]
   994ec: 39404569     	ldrb	w9, [x11, #0x11]
   994f0: 3dc00160     	ldr	q0, [x11]
   994f4: 52000908     	eor	w8, w8, #0x7
   994f8: 5200092a     	eor	w10, w9, #0x7
   994fc: d28c4309     	mov	x9, #0x6218             // =25112
   99500: f2b52e69     	movk	x9, #0xa973, lsl #16
   99504: 39004168     	strb	w8, [x11, #0x10]
   99508: 52800028     	mov	w8, #0x1                // =1
   9950c: 3900456a     	strb	w10, [x11, #0x11]
   99510: b000056a     	adrp	x10, 0x146000
   99514: 6e211c00     	eor	v0.16b, v0.16b, v1.16b
   99518: f2ddab89     	movk	x9, #0xed5c, lsl #32
   9951c: 3d800160     	str	q0, [x11]
   99520: f2fac409     	movk	x9, #0xd620, lsl #48
   99524: 39293d48     	strb	w8, [x10, #0xa4f]
   99528: 17fffd2b     	b	0x989d4 <.text+0x90964>
   9952c: a9494ff4     	ldp	x20, x19, [sp, #0x90]
   99530: a94857f6     	ldp	x22, x21, [sp, #0x80]
   99534: a9475ff8     	ldp	x24, x23, [sp, #0x70]
   99538: a94667fa     	ldp	x26, x25, [sp, #0x60]
   9953c: a9456ffc     	ldp	x28, x27, [sp, #0x50]
   99540: a9447bfd     	ldp	x29, x30, [sp, #0x40]
   99544: 910283ff     	add	sp, sp, #0xa0
   99548: d65f03c0     	ret
   9954c: d10403ff     	sub	sp, sp, #0x100
   99550: fd004be8     	str	d8, [sp, #0x90]
   99554: a90a7bfd     	stp	x29, x30, [sp, #0xa0]
   99558: a90b6ffc     	stp	x28, x27, [sp, #0xb0]
   9955c: a90c67fa     	stp	x26, x25, [sp, #0xc0]
   99560: a90d5ff8     	stp	x24, x23, [sp, #0xd0]
   99564: a90e57f6     	stp	x22, x21, [sp, #0xe0]
   99568: a90f4ff4     	stp	x20, x19, [sp, #0xf0]
   9956c: 910283fd     	add	x29, sp, #0xa0
   99570: f100003f     	cmp	x1, #0x0
   99574: d2862769     	mov	x9, #0x313b             // =12603
   99578: 1a9f07e8     	cset	w8, ne
   9957c: f100009f     	cmp	x4, #0x0
   99580: fa401864     	ccmp	x3, #0x0, #0x4, ne
   99584: f2a55569     	movk	x9, #0x2aab, lsl #16
   99588: f2c0a009     	movk	x9, #0x500, lsl #32
   9958c: f81c83a0     	stur	x0, [x29, #-0x38]
   99590: b9000fe8     	str	w8, [sp, #0xc]
   99594: d2802468     	mov	x8, #0x123              // =291
   99598: fa401844     	ccmp	x2, #0x0, #0x4, ne
   9959c: f2b84ea8     	movk	x8, #0xc275, lsl #16
   995a0: f2c0a808     	movk	x8, #0x540, lsl #32
   995a4: f2e944c9     	movk	x9, #0x4a26, lsl #48
   995a8: f2ea3f08     	movk	x8, #0x51f8, lsl #48
   995ac: d2850c4c     	mov	x12, #0x2862            // =10338
   995b0: 9a881137     	csel	x23, x9, x8, ne
   995b4: a90113e3     	stp	x3, x4, [sp, #0x10]
   995b8: d2884a2d     	mov	x13, #0x4251            // =16977
   995bc: d2912bce     	mov	x14, #0x895e            // =35166
   995c0: d29d410f     	mov	x15, #0xea08            // =59912
   995c4: d29e5679     	mov	x25, #0xf2b3            // =62131
   995c8: d286ec3a     	mov	x26, #0x3761            // =14177
   995cc: d291b89c     	mov	x28, #0x8dc4            // =36292
   995d0: f90023e2     	str	x2, [sp, #0x40]
   995d4: d28325d1     	mov	x17, #0x192e            // =6446
   995d8: d28ed3e0     	mov	x0, #0x769f             // =30367
   995dc: d29a36c2     	mov	x2, #0xd1b6             // =53686
   995e0: d29a7374     	mov	x20, #0xd39b            // =54171
   995e4: d2843823     	mov	x3, #0x21c1             // =8641
   995e8: d2859364     	mov	x4, #0x2c9b             // =11419
   995ec: d28f3665     	mov	x5, #0x79b3             // =31155
   995f0: d2894aa6     	mov	x6, #0x4a55             // =19029
   995f4: d294c627     	mov	x7, #0xa631             // =42545
   995f8: d2831abe     	mov	x30, #0x18d5            // =6357
   995fc: d2854410     	mov	x16, #0x2a20            // =10784
   99600: d28325ca     	mov	x10, #0x192e            // =6446
   99604: f2a139ac     	movk	x12, #0x9cd, lsl #16
   99608: f2bacdad     	movk	x13, #0xd66d, lsl #16
   9960c: f2a7374e     	movk	x14, #0x39ba, lsl #16
   99610: f2bbbb2f     	movk	x15, #0xddd9, lsl #16
   99614: f2b814d9     	movk	x25, #0xc0a6, lsl #16
   99618: f2ac549a     	movk	x26, #0x62a4, lsl #16
   9961c: f2bc61bc     	movk	x28, #0xe30d, lsl #16
   99620: f2a56c51     	movk	x17, #0x2b62, lsl #16
   99624: f2a326e0     	movk	x0, #0x1937, lsl #16
   99628: f2a30b02     	movk	x2, #0x1858, lsl #16
   9962c: f2a53954     	movk	x20, #0x29ca, lsl #16
   99630: f2bedc03     	movk	x3, #0xf6e0, lsl #16
   99634: f2b4d144     	movk	x4, #0xa68a, lsl #16
   99638: f2aa1805     	movk	x5, #0x50c0, lsl #16
   9963c: f2a24266     	movk	x6, #0x1213, lsl #16
   99640: f2b324e7     	movk	x7, #0x9927, lsl #16
   99644: f2ab40fe     	movk	x30, #0x5a07, lsl #16
   99648: f2a3bd90     	movk	x16, #0x1dec, lsl #16
   9964c: f2a56c4a     	movk	x10, #0x2b62, lsl #16
   99650: f2ce902c     	movk	x12, #0x7481, lsl #32
   99654: f2d9de4d     	movk	x13, #0xcef2, lsl #32
   99658: f2c5ec0e     	movk	x14, #0x2f60, lsl #32
   9965c: f2d4292f     	movk	x15, #0xa149, lsl #32
   99660: f2ddce79     	movk	x25, #0xee73, lsl #32
   99664: f2d2731a     	movk	x26, #0x9398, lsl #32
   99668: f2ca6ffc     	movk	x28, #0x537f, lsl #32
   9966c: f2c75af1     	movk	x17, #0x3ad7, lsl #32
   99670: f2c0a3e0     	movk	x0, #0x51f, lsl #32
   99674: f2de81e2     	movk	x2, #0xf40f, lsl #32
   99678: f2ddf514     	movk	x20, #0xefa8, lsl #32
   9967c: 0f04e768     	movi	v8.8b, #0x9b
   99680: f2c94903     	movk	x3, #0x4a48, lsl #32
   99684: f2ca2604     	movk	x4, #0x5130, lsl #32
   99688: f2d8c665     	movk	x5, #0xc633, lsl #32
   9968c: f2cf3706     	movk	x6, #0x79b8, lsl #32
   99690: f2c02f07     	movk	x7, #0x178, lsl #32
   99694: f2da03de     	movk	x30, #0xd01e, lsl #32
   99698: f2d4eaf0     	movk	x16, #0xa757, lsl #32
   9969c: f2c75aea     	movk	x10, #0x3ad7, lsl #32
   996a0: aa0103f6     	mov	x22, x1
   996a4: f2f8cdcc     	movk	x12, #0xc66e, lsl #48
   996a8: f2f7930d     	movk	x13, #0xbc98, lsl #48
   996ac: f2f2896e     	movk	x14, #0x944b, lsl #48
   996b0: f2f1e6cf     	movk	x15, #0x8f36, lsl #48
   996b4: f2f1d599     	movk	x25, #0x8eac, lsl #48
   996b8: f2f127da     	movk	x26, #0x893e, lsl #48
   996bc: f2f01fdc     	movk	x28, #0x80fe, lsl #48
   996c0: f2f97ff1     	movk	x17, #0xcbff, lsl #48
   996c4: f2f5f2c0     	movk	x0, #0xaf96, lsl #48
   996c8: f2f70d82     	movk	x2, #0xb86c, lsl #48
   996cc: f2f22374     	movk	x20, #0x911b, lsl #48
   996d0: f2f29cc3     	movk	x3, #0x94e6, lsl #48
   996d4: f2fa40e4     	movk	x4, #0xd207, lsl #48
   996d8: f2f3c0a5     	movk	x5, #0x9e05, lsl #48
   996dc: f2fe1846     	movk	x6, #0xf0c2, lsl #48
   996e0: f2fe38a7     	movk	x7, #0xf1c5, lsl #48
   996e4: f2fbb41e     	movk	x30, #0xdda0, lsl #48
   996e8: f2fcb2d0     	movk	x16, #0xe596, lsl #48
   996ec: f2f97fea     	movk	x10, #0xcbff, lsl #48
   996f0: aa0803f5     	mov	x21, x8
   996f4: aa0103f8     	mov	x24, x1
   996f8: eb1c015f     	cmp	x10, x28
   996fc: 54001c80     	b.eq	0x99a8c <.text+0x91a1c>
   99700: aa0a03e9     	mov	x9, x10
   99704: eb1a015f     	cmp	x10, x26
   99708: 54002720     	b.eq	0x99bec <.text+0x91b7c>
   9970c: eb19013f     	cmp	x9, x25
   99710: 540027e0     	b.eq	0x99c0c <.text+0x91b9c>
   99714: eb0f013f     	cmp	x9, x15
   99718: 54003120     	b.eq	0x99d3c <.text+0x91ccc>
   9971c: d2884a2a     	mov	x10, #0x4251            // =16977
   99720: aa1803e1     	mov	x1, x24
   99724: f2bacdaa     	movk	x10, #0xd66d, lsl #16
   99728: aa1503e8     	mov	x8, x21
   9972c: f2d9de4a     	movk	x10, #0xcef2, lsl #32
   99730: eb14013f     	cmp	x9, x20
   99734: f2f7930a     	movk	x10, #0xbc98, lsl #48
   99738: 54fffdc0     	b.eq	0x996f0 <.text+0x91680>
   9973c: eb0e013f     	cmp	x9, x14
   99740: 54003100     	b.eq	0x99d60 <.text+0x91cf0>
   99744: eb03013f     	cmp	x9, x3
   99748: 540032e0     	b.eq	0x99da4 <.text+0x91d34>
   9974c: eb05013f     	cmp	x9, x5
   99750: 54003440     	b.eq	0x99dd8 <.text+0x91d68>
   99754: eb00013f     	cmp	x9, x0
   99758: 54003d40     	b.eq	0x99f00 <.text+0x91e90>
   9975c: eb02013f     	cmp	x9, x2
   99760: 540046c0     	b.eq	0x9a038 <.text+0x91fc8>
   99764: eb0d013f     	cmp	x9, x13
   99768: 54004f60     	b.eq	0x9a154 <.text+0x920e4>
   9976c: eb0c013f     	cmp	x9, x12
   99770: 540057e0     	b.eq	0x9a26c <.text+0x921fc>
   99774: aa1803e1     	mov	x1, x24
   99778: aa1503e8     	mov	x8, x21
   9977c: aa1703ea     	mov	x10, x23
   99780: eb11013f     	cmp	x9, x17
   99784: 54fffb60     	b.eq	0x996f0 <.text+0x91680>
   99788: eb04013f     	cmp	x9, x4
   9978c: 54006040     	b.eq	0x9a394 <.text+0x92324>
   99790: d291b88a     	mov	x10, #0x8dc4            // =36292
   99794: aa1803e1     	mov	x1, x24
   99798: f2bc61aa     	movk	x10, #0xe30d, lsl #16
   9979c: aa1503e8     	mov	x8, x21
   997a0: f2ca6fea     	movk	x10, #0x537f, lsl #32
   997a4: eb1e013f     	cmp	x9, x30
   997a8: f2f01fca     	movk	x10, #0x80fe, lsl #48
   997ac: 54fffa20     	b.eq	0x996f0 <.text+0x91680>
   997b0: eb10013f     	cmp	x9, x16
   997b4: 54005fe0     	b.eq	0x9a3b0 <.text+0x92340>
   997b8: eb06013f     	cmp	x9, x6
   997bc: 54006300     	b.eq	0x9a41c <.text+0x923ac>
   997c0: d2802dc8     	mov	x8, #0x16e              // =366
   997c4: f2bd75e8     	movk	x8, #0xebaf, lsl #16
   997c8: f2db3968     	movk	x8, #0xd9cb, lsl #32
   997cc: f2fe26e8     	movk	x8, #0xf137, lsl #48
   997d0: eb08013f     	cmp	x9, x8
   997d4: 540062c0     	b.eq	0x9a42c <.text+0x923bc>
   997d8: eb07013f     	cmp	x9, x7
   997dc: 54006620     	b.eq	0x9a4a0 <.text+0x92430>
   997e0: d290e028     	mov	x8, #0x8701             // =34561
   997e4: f2a0eda8     	movk	x8, #0x76d, lsl #16
   997e8: f2cdda08     	movk	x8, #0x6ed0, lsl #32
   997ec: f2fecf88     	movk	x8, #0xf67c, lsl #48
   997f0: eb08013f     	cmp	x9, x8
   997f4: 54006680     	b.eq	0x9a4c4 <.text+0x92454>
   997f8: d2993e4a     	mov	x10, #0xc9f2            // =51698
   997fc: d290c5ab     	mov	x11, #0x862d            // =34349
   99800: f2a39eea     	movk	x10, #0x1cf7, lsl #16
   99804: f2b6080b     	movk	x11, #0xb040, lsl #16
   99808: f2cf5e4a     	movk	x10, #0x7af2, lsl #32
   9980c: aa1803e1     	mov	x1, x24
   99810: aa1503e8     	mov	x8, x21
   99814: f2e030ea     	movk	x10, #0x187, lsl #48
   99818: f2d7d7eb     	movk	x11, #0xbebf, lsl #32
   9981c: f2fee0eb     	movk	x11, #0xf707, lsl #48
   99820: eb0b013f     	cmp	x9, x11
   99824: 54fff660     	b.eq	0x996f0 <.text+0x91680>
   99828: d29bd928     	mov	x8, #0xdec9             // =57033
   9982c: f2a2fd08     	movk	x8, #0x17e8, lsl #16
   99830: f2c44008     	movk	x8, #0x2200, lsl #32
   99834: f2ff29a8     	movk	x8, #0xf94d, lsl #48
   99838: eb08013f     	cmp	x9, x8
   9983c: 54004780     	b.eq	0x9a12c <.text+0x920bc>
   99840: d29a7068     	mov	x8, #0xd383             // =54147
   99844: f2bd7f08     	movk	x8, #0xebf8, lsl #16
   99848: f2df2e28     	movk	x8, #0xf971, lsl #32
   9984c: f2ff7b68     	movk	x8, #0xfbdb, lsl #48
   99850: eb08013f     	cmp	x9, x8
   99854: 54006d60     	b.eq	0x9a600 <.text+0x92590>
   99858: d2993e48     	mov	x8, #0xc9f2             // =51698
   9985c: f2a39ee8     	movk	x8, #0x1cf7, lsl #16
   99860: f2cf5e48     	movk	x8, #0x7af2, lsl #32
   99864: f2e030e8     	movk	x8, #0x187, lsl #48
   99868: eb08013f     	cmp	x9, x8
   9986c: 54006e00     	b.eq	0x9a62c <.text+0x925bc>
   99870: d29e566a     	mov	x10, #0xf2b3            // =62131
   99874: d29156cb     	mov	x11, #0x8ab6            // =35510
   99878: f2b814ca     	movk	x10, #0xc0a6, lsl #16
   9987c: f2be2a2b     	movk	x11, #0xf151, lsl #16
   99880: f2ddce6a     	movk	x10, #0xee73, lsl #32
   99884: f85f83a1     	ldur	x1, [x29, #-0x8]
   99888: aa1303e8     	mov	x8, x19
   9988c: f2f1d58a     	movk	x10, #0x8eac, lsl #48
   99890: f2d08c0b     	movk	x11, #0x8460, lsl #32
   99894: f2e26aeb     	movk	x11, #0x1357, lsl #48
   99898: eb0b013f     	cmp	x9, x11
   9989c: 54fff2a0     	b.eq	0x996f0 <.text+0x91680>
   998a0: d29c2ec8     	mov	x8, #0xe176             // =57718
   998a4: f2b1de28     	movk	x8, #0x8ef1, lsl #16
   998a8: f2d946c8     	movk	x8, #0xca36, lsl #32
   998ac: f2e2aac8     	movk	x8, #0x1556, lsl #48
   998b0: eb08013f     	cmp	x9, x8
   998b4: 54006d00     	b.eq	0x9a654 <.text+0x925e4>
   998b8: d29a87a8     	mov	x8, #0xd43d             // =54333
   998bc: f2ad1e28     	movk	x8, #0x68f1, lsl #16
   998c0: f2d7b788     	movk	x8, #0xbdbc, lsl #32
   998c4: f2e587c8     	movk	x8, #0x2c3e, lsl #48
   998c8: eb08013f     	cmp	x9, x8
   998cc: 54004300     	b.eq	0x9a12c <.text+0x920bc>
   998d0: d296ff48     	mov	x8, #0xb7fa             // =47098
   998d4: f2b82488     	movk	x8, #0xc124, lsl #16
   998d8: f2c2c4c8     	movk	x8, #0x1626, lsl #32
   998dc: f2e72328     	movk	x8, #0x3919, lsl #48
   998e0: eb08013f     	cmp	x9, x8
   998e4: 54000be0     	b.eq	0x99a60 <.text+0x919f0>
   998e8: d2850c4a     	mov	x10, #0x2862            // =10338
   998ec: d296344b     	mov	x11, #0xb1a2            // =45474
   998f0: f2a139aa     	movk	x10, #0x9cd, lsl #16
   998f4: f2ba4fab     	movk	x11, #0xd27d, lsl #16
   998f8: f2ce902a     	movk	x10, #0x7481, lsl #32
   998fc: aa1803e1     	mov	x1, x24
   99900: aa1503e8     	mov	x8, x21
   99904: f2f8cdca     	movk	x10, #0xc66e, lsl #48
   99908: f2ce9feb     	movk	x11, #0x74ff, lsl #32
   9990c: f2e83f4b     	movk	x11, #0x41fa, lsl #48
   99910: eb0b013f     	cmp	x9, x11
   99914: 54ffeee0     	b.eq	0x996f0 <.text+0x91680>
   99918: d2862768     	mov	x8, #0x313b             // =12603
   9991c: f2a55568     	movk	x8, #0x2aab, lsl #16
   99920: f2c0a008     	movk	x8, #0x500, lsl #32
   99924: f2e944c8     	movk	x8, #0x4a26, lsl #48
   99928: eb08013f     	cmp	x9, x8
   9992c: 54006ae0     	b.eq	0x9a688 <.text+0x92618>
   99930: d2884a2a     	mov	x10, #0x4251            // =16977
   99934: d281468b     	mov	x11, #0xa34             // =2612
   99938: f2bacdaa     	movk	x10, #0xd66d, lsl #16
   9993c: f2b5e2ab     	movk	x11, #0xaf15, lsl #16
   99940: f2d9de4a     	movk	x10, #0xcef2, lsl #32
   99944: aa1803e1     	mov	x1, x24
   99948: aa1503e8     	mov	x8, x21
   9994c: f2f7930a     	movk	x10, #0xbc98, lsl #48
   99950: f2dd230b     	movk	x11, #0xe918, lsl #32
   99954: f2e94e8b     	movk	x11, #0x4a74, lsl #48
   99958: eb0b013f     	cmp	x9, x11
   9995c: 54ffeca0     	b.eq	0x996f0 <.text+0x91680>
   99960: d2802468     	mov	x8, #0x123              // =291
   99964: f2b84ea8     	movk	x8, #0xc275, lsl #16
   99968: f2c0a808     	movk	x8, #0x540, lsl #32
   9996c: f2ea3f08     	movk	x8, #0x51f8, lsl #48
   99970: eb08013f     	cmp	x9, x8
   99974: 54007280     	b.eq	0x9a7c4 <.text+0x92754>
   99978: d2888988     	mov	x8, #0x444c             // =17484
   9997c: f2afa168     	movk	x8, #0x7d0b, lsl #16
   99980: f2d8ce88     	movk	x8, #0xc674, lsl #32
   99984: f2ea4e88     	movk	x8, #0x5274, lsl #48
   99988: eb08013f     	cmp	x9, x8
   9998c: 540006a0     	b.eq	0x99a60 <.text+0x919f0>
   99990: d283b9aa     	mov	x10, #0x1dcd            // =7629
   99994: d280a7cb     	mov	x11, #0x53e             // =1342
   99998: f2a61b6a     	movk	x10, #0x30db, lsl #16
   9999c: f2a7046b     	movk	x11, #0x3823, lsl #16
   999a0: f2c05bca     	movk	x10, #0x2de, lsl #32
   999a4: aa1803e1     	mov	x1, x24
   999a8: aa1503e8     	mov	x8, x21
   999ac: f2e6d88a     	movk	x10, #0x36c4, lsl #48
   999b0: f2c291eb     	movk	x11, #0x148f, lsl #32
   999b4: f2eb06eb     	movk	x11, #0x5837, lsl #48
   999b8: eb0b013f     	cmp	x9, x11
   999bc: 54ffe9a0     	b.eq	0x996f0 <.text+0x91680>
   999c0: d28127c8     	mov	x8, #0x93e              // =2366
   999c4: f2b9fa68     	movk	x8, #0xcfd3, lsl #16
   999c8: f2c71be8     	movk	x8, #0x38df, lsl #32
   999cc: f2eb6d08     	movk	x8, #0x5b68, lsl #48
   999d0: eb08013f     	cmp	x9, x8
   999d4: 540070c0     	b.eq	0x9a7ec <.text+0x9277c>
   999d8: d2921468     	mov	x8, #0x90a3             // =37027
   999dc: f2a5cba8     	movk	x8, #0x2e5d, lsl #16
   999e0: f2c31ce8     	movk	x8, #0x18e7, lsl #32
   999e4: f2ec4028     	movk	x8, #0x6201, lsl #48
   999e8: eb08013f     	cmp	x9, x8
   999ec: 54007880     	b.eq	0x9a8fc <.text+0x9288c>
   999f0: d286ec2a     	mov	x10, #0x3761            // =14177
   999f4: d288112b     	mov	x11, #0x4089            // =16521
   999f8: f2ac548a     	movk	x10, #0x62a4, lsl #16
   999fc: f2a04ecb     	movk	x11, #0x276, lsl #16
   99a00: f2d2730a     	movk	x10, #0x9398, lsl #32
   99a04: aa1803e1     	mov	x1, x24
   99a08: aa1503e8     	mov	x8, x21
   99a0c: f2f127ca     	movk	x10, #0x893e, lsl #48
   99a10: f2d2f0eb     	movk	x11, #0x9787, lsl #32
   99a14: f2ecbd0b     	movk	x11, #0x65e8, lsl #48
   99a18: eb0b013f     	cmp	x9, x11
   99a1c: 54ffe6a0     	b.eq	0x996f0 <.text+0x91680>
   99a20: d28905c8     	mov	x8, #0x482e             // =18478
   99a24: f2a10908     	movk	x8, #0x848, lsl #16
   99a28: f2c00d68     	movk	x8, #0x6b, lsl #32
   99a2c: f2ed88a8     	movk	x8, #0x6c45, lsl #48
   99a30: eb08013f     	cmp	x9, x8
   99a34: 54007ec0     	b.eq	0x9aa0c <.text+0x9299c>
   99a38: d283b9ab     	mov	x11, #0x1dcd            // =7629
   99a3c: aa1803e1     	mov	x1, x24
   99a40: f2a61b6b     	movk	x11, #0x30db, lsl #16
   99a44: aa1503e8     	mov	x8, x21
   99a48: aa0903ea     	mov	x10, x9
   99a4c: f2c05bcb     	movk	x11, #0x2de, lsl #32
   99a50: f2e6d88b     	movk	x11, #0x36c4, lsl #48
   99a54: eb0b013f     	cmp	x9, x11
   99a58: 54ffe4c1     	b.ne	0x996f0 <.text+0x91680>
   99a5c: 140003f7     	b	0x9aa38 <.text+0x929c8>
   99a60: 52800248     	mov	w8, #0x12               // =18
   99a64: f85e83a9     	ldur	x9, [x29, #-0x18]
   99a68: d29c2eca     	mov	x10, #0xe176            // =57718
   99a6c: aa1803e1     	mov	x1, x24
   99a70: f2b1de2a     	movk	x10, #0x8ef1, lsl #16
   99a74: f2d946ca     	movk	x10, #0xca36, lsl #32
   99a78: b81dc3a8     	stur	w8, [x29, #-0x24]
   99a7c: aa1503e8     	mov	x8, x21
   99a80: f81d03a9     	stur	x9, [x29, #-0x30]
   99a84: f2e2aaca     	movk	x10, #0x1556, lsl #48
   99a88: 17ffff1a     	b	0x996f0 <.text+0x91680>
   99a8c: d503201f     	nop
   99a90: 105670a8     	adr	x8, 0x1468a4
   99a94: aa1603e0     	mov	x0, x22
   99a98: d503201f     	nop
   99a9c: 10557da2     	adr	x2, 0x144a50
   99aa0: d503201f     	nop
   99aa4: 10557de3     	adr	x3, 0x144a60
   99aa8: 089ffd1f     	stlrb	wzr, [x8]
   99aac: f94002c8     	ldr	x8, [x22]
   99ab0: f85e83a1     	ldur	x1, [x29, #-0x18]
   99ab4: f9408508     	ldr	x8, [x8, #0x108]
   99ab8: d63f0100     	blr	x8
   99abc: 2a1b03f9     	mov	w25, w27
   99ac0: aa0003fb     	mov	x27, x0
   99ac4: aa1603e0     	mov	x0, x22
   99ac8: 97ffe3d6     	bl	0x92a20 <.text+0x8a9b0>
   99acc: f100037f     	cmp	x27, #0x0
   99ad0: d2854410     	mov	x16, #0x2a20            // =10784
   99ad4: 1a9f17e8     	cset	w8, eq
   99ad8: d2831abe     	mov	x30, #0x18d5            // =6357
   99adc: 2a080008     	orr	w8, w0, w8
   99ae0: d28ed3e0     	mov	x0, #0x769f             // =30367
   99ae4: 7200011f     	tst	w8, #0x1
   99ae8: d2888988     	mov	x8, #0x444c             // =17484
   99aec: d294c627     	mov	x7, #0xa631             // =42545
   99af0: d2894aa6     	mov	x6, #0x4a55             // =19029
   99af4: d28f3665     	mov	x5, #0x79b3             // =31155
   99af8: d2859364     	mov	x4, #0x2c9b             // =11419
   99afc: d2843823     	mov	x3, #0x21c1             // =8641
   99b00: d29a36c2     	mov	x2, #0xd1b6             // =53686
   99b04: d28325d1     	mov	x17, #0x192e            // =6446
   99b08: d29d410f     	mov	x15, #0xea08            // =59912
   99b0c: d2912bce     	mov	x14, #0x895e            // =35166
   99b10: d2884a2d     	mov	x13, #0x4251            // =16977
   99b14: d2850c4c     	mov	x12, #0x2862            // =10338
   99b18: f9001ffb     	str	x27, [sp, #0x38]
   99b1c: 2a1903fb     	mov	w27, w25
   99b20: d29e5679     	mov	x25, #0xf2b3            // =62131
   99b24: f2a326e0     	movk	x0, #0x1937, lsl #16
   99b28: f2afa168     	movk	x8, #0x7d0b, lsl #16
   99b2c: f2a3bd90     	movk	x16, #0x1dec, lsl #16
   99b30: f2ab40fe     	movk	x30, #0x5a07, lsl #16
   99b34: f2b324e7     	movk	x7, #0x9927, lsl #16
   99b38: f2a24266     	movk	x6, #0x1213, lsl #16
   99b3c: f2aa1805     	movk	x5, #0x50c0, lsl #16
   99b40: f2b4d144     	movk	x4, #0xa68a, lsl #16
   99b44: f2bedc03     	movk	x3, #0xf6e0, lsl #16
   99b48: f2a30b02     	movk	x2, #0x1858, lsl #16
   99b4c: f2a56c51     	movk	x17, #0x2b62, lsl #16
   99b50: f2bbbb2f     	movk	x15, #0xddd9, lsl #16
   99b54: f2a7374e     	movk	x14, #0x39ba, lsl #16
   99b58: f2bacdad     	movk	x13, #0xd66d, lsl #16
   99b5c: f2a139ac     	movk	x12, #0x9cd, lsl #16
   99b60: f2b814d9     	movk	x25, #0xc0a6, lsl #16
   99b64: f2c0a3e0     	movk	x0, #0x51f, lsl #32
   99b68: f2d8ce88     	movk	x8, #0xc674, lsl #32
   99b6c: f2d4eaf0     	movk	x16, #0xa757, lsl #32
   99b70: f2da03de     	movk	x30, #0xd01e, lsl #32
   99b74: f2c02f07     	movk	x7, #0x178, lsl #32
   99b78: f2cf3706     	movk	x6, #0x79b8, lsl #32
   99b7c: f2d8c665     	movk	x5, #0xc633, lsl #32
   99b80: f2ca2604     	movk	x4, #0x5130, lsl #32
   99b84: f2c94903     	movk	x3, #0x4a48, lsl #32
   99b88: f2de81e2     	movk	x2, #0xf40f, lsl #32
   99b8c: f2c75af1     	movk	x17, #0x3ad7, lsl #32
   99b90: f2d4292f     	movk	x15, #0xa149, lsl #32
   99b94: f2c5ec0e     	movk	x14, #0x2f60, lsl #32
   99b98: f2d9de4d     	movk	x13, #0xcef2, lsl #32
   99b9c: f2ce902c     	movk	x12, #0x7481, lsl #32
   99ba0: f2ddce79     	movk	x25, #0xee73, lsl #32
   99ba4: f2f5f2c0     	movk	x0, #0xaf96, lsl #48
   99ba8: f2ea4e88     	movk	x8, #0x5274, lsl #48
   99bac: f2fcb2d0     	movk	x16, #0xe596, lsl #48
   99bb0: f2fbb41e     	movk	x30, #0xdda0, lsl #48
   99bb4: f2fe38a7     	movk	x7, #0xf1c5, lsl #48
   99bb8: f2fe1846     	movk	x6, #0xf0c2, lsl #48
   99bbc: f2f3c0a5     	movk	x5, #0x9e05, lsl #48
   99bc0: f2fa40e4     	movk	x4, #0xd207, lsl #48
   99bc4: f2f29cc3     	movk	x3, #0x94e6, lsl #48
   99bc8: f2f70d82     	movk	x2, #0xb86c, lsl #48
   99bcc: f2f97ff1     	movk	x17, #0xcbff, lsl #48
   99bd0: f2f1e6cf     	movk	x15, #0x8f36, lsl #48
   99bd4: f2f2896e     	movk	x14, #0x944b, lsl #48
   99bd8: f2f7930d     	movk	x13, #0xbc98, lsl #48
   99bdc: f2f8cdcc     	movk	x12, #0xc66e, lsl #48
   99be0: f2f1d599     	movk	x25, #0x8eac, lsl #48
   99be4: 9a80110a     	csel	x10, x8, x0, ne
   99be8: 14000391     	b	0x9aa2c <.text+0x929bc>
   99bec: f94027e8     	ldr	x8, [sp, #0x48]
   99bf0: f100011f     	cmp	x8, #0x0
   99bf4: d29a87a8     	mov	x8, #0xd43d             // =54333
   99bf8: f2ad1e28     	movk	x8, #0x68f1, lsl #16
   99bfc: f2d7b788     	movk	x8, #0xbdbc, lsl #32
   99c00: f2e587c8     	movk	x8, #0x2c3e, lsl #48
   99c04: 9a82010a     	csel	x10, x8, x2, eq
   99c08: 14000389     	b	0x9aa2c <.text+0x929bc>
   99c0c: f94002c8     	ldr	x8, [x22]
   99c10: aa1603e0     	mov	x0, x22
   99c14: f9402be1     	ldr	x1, [sp, #0x50]
   99c18: f9405d08     	ldr	x8, [x8, #0xb8]
   99c1c: d63f0100     	blr	x8
   99c20: d28127c9     	mov	x9, #0x93e              // =2366
   99c24: d288112a     	mov	x10, #0x4089            // =16521
   99c28: d2854410     	mov	x16, #0x2a20            // =10784
   99c2c: d2831abe     	mov	x30, #0x18d5            // =6357
   99c30: d294c627     	mov	x7, #0xa631             // =42545
   99c34: d2894aa6     	mov	x6, #0x4a55             // =19029
   99c38: d28f3665     	mov	x5, #0x79b3             // =31155
   99c3c: d2859364     	mov	x4, #0x2c9b             // =11419
   99c40: d2843823     	mov	x3, #0x21c1             // =8641
   99c44: d29a36c2     	mov	x2, #0xd1b6             // =53686
   99c48: d28ed3e0     	mov	x0, #0x769f             // =30367
   99c4c: d28325d1     	mov	x17, #0x192e            // =6446
   99c50: d29d410f     	mov	x15, #0xea08            // =59912
   99c54: d2912bce     	mov	x14, #0x895e            // =35166
   99c58: d2884a2d     	mov	x13, #0x4251            // =16977
   99c5c: d2850c4c     	mov	x12, #0x2862            // =10338
   99c60: f2b9fa69     	movk	x9, #0xcfd3, lsl #16
   99c64: f2a04eca     	movk	x10, #0x276, lsl #16
   99c68: f2a3bd90     	movk	x16, #0x1dec, lsl #16
   99c6c: f2ab40fe     	movk	x30, #0x5a07, lsl #16
   99c70: f2b324e7     	movk	x7, #0x9927, lsl #16
   99c74: f2a24266     	movk	x6, #0x1213, lsl #16
   99c78: f2aa1805     	movk	x5, #0x50c0, lsl #16
   99c7c: f2b4d144     	movk	x4, #0xa68a, lsl #16
   99c80: f2bedc03     	movk	x3, #0xf6e0, lsl #16
   99c84: f2a30b02     	movk	x2, #0x1858, lsl #16
   99c88: f2a326e0     	movk	x0, #0x1937, lsl #16
   99c8c: f2a56c51     	movk	x17, #0x2b62, lsl #16
   99c90: f2bbbb2f     	movk	x15, #0xddd9, lsl #16
   99c94: f2a7374e     	movk	x14, #0x39ba, lsl #16
   99c98: f2bacdad     	movk	x13, #0xd66d, lsl #16
   99c9c: f2a139ac     	movk	x12, #0x9cd, lsl #16
   99ca0: f2c71be9     	movk	x9, #0x38df, lsl #32
   99ca4: f2d2f0ea     	movk	x10, #0x9787, lsl #32
   99ca8: f2d4eaf0     	movk	x16, #0xa757, lsl #32
   99cac: f2da03de     	movk	x30, #0xd01e, lsl #32
   99cb0: f2c02f07     	movk	x7, #0x178, lsl #32
   99cb4: f2cf3706     	movk	x6, #0x79b8, lsl #32
   99cb8: f2d8c665     	movk	x5, #0xc633, lsl #32
   99cbc: f2ca2604     	movk	x4, #0x5130, lsl #32
   99cc0: f2c94903     	movk	x3, #0x4a48, lsl #32
   99cc4: f2de81e2     	movk	x2, #0xf40f, lsl #32
   99cc8: f2c0a3e0     	movk	x0, #0x51f, lsl #32
   99ccc: f2c75af1     	movk	x17, #0x3ad7, lsl #32
   99cd0: f2d4292f     	movk	x15, #0xa149, lsl #32
   99cd4: f2c5ec0e     	movk	x14, #0x2f60, lsl #32
   99cd8: f2d9de4d     	movk	x13, #0xcef2, lsl #32
   99cdc: f2ce902c     	movk	x12, #0x7481, lsl #32
   99ce0: f10002bf     	cmp	x21, #0x0
   99ce4: f2eb6d09     	movk	x9, #0x5b68, lsl #48
   99ce8: f2ecbd0a     	movk	x10, #0x65e8, lsl #48
   99cec: f2fcb2d0     	movk	x16, #0xe596, lsl #48
   99cf0: f2fbb41e     	movk	x30, #0xdda0, lsl #48
   99cf4: f2fe38a7     	movk	x7, #0xf1c5, lsl #48
   99cf8: f2fe1846     	movk	x6, #0xf0c2, lsl #48
   99cfc: f2f3c0a5     	movk	x5, #0x9e05, lsl #48
   99d00: f2fa40e4     	movk	x4, #0xd207, lsl #48
   99d04: f2f29cc3     	movk	x3, #0x94e6, lsl #48
   99d08: f2f70d82     	movk	x2, #0xb86c, lsl #48
   99d0c: f2f5f2c0     	movk	x0, #0xaf96, lsl #48
   99d10: f2f97ff1     	movk	x17, #0xcbff, lsl #48
   99d14: f2f1e6cf     	movk	x15, #0x8f36, lsl #48
   99d18: f2f2896e     	movk	x14, #0x944b, lsl #48
   99d1c: f2f7930d     	movk	x13, #0xbc98, lsl #48
   99d20: f2f8cdcc     	movk	x12, #0xc66e, lsl #48
   99d24: aa1803e1     	mov	x1, x24
   99d28: aa1503e8     	mov	x8, x21
   99d2c: 9a89014a     	csel	x10, x10, x9, eq
   99d30: f90027f8     	str	x24, [sp, #0x48]
   99d34: f90013f5     	str	x21, [sp, #0x20]
   99d38: 17fffe6e     	b	0x996f0 <.text+0x91680>
   99d3c: a97c27a1     	ldp	x1, x9, [x29, #-0x40]
   99d40: d29e566a     	mov	x10, #0xf2b3            // =62131
   99d44: aa1303e8     	mov	x8, x19
   99d48: b85bc3ab     	ldur	w11, [x29, #-0x44]
   99d4c: f2b814ca     	movk	x10, #0xc0a6, lsl #16
   99d50: f2ddce6a     	movk	x10, #0xee73, lsl #32
   99d54: f2f1d58a     	movk	x10, #0x8eac, lsl #48
   99d58: b900012b     	str	w11, [x9]
   99d5c: 17fffe65     	b	0x996f0 <.text+0x91680>
   99d60: f85e03ab     	ldur	x11, [x29, #-0x20]
   99d64: d2921469     	mov	x9, #0x90a3             // =37027
   99d68: f2a5cba9     	movk	x9, #0x2e5d, lsl #16
   99d6c: aa1803e1     	mov	x1, x24
   99d70: f2c31ce9     	movk	x9, #0x18e7, lsl #32
   99d74: f100017f     	cmp	x11, #0x0
   99d78: f2ec4029     	movk	x9, #0x6201, lsl #48
   99d7c: 1a9f07e8     	cset	w8, ne
   99d80: f90017eb     	str	x11, [sp, #0x28]
   99d84: 6a08037f     	tst	w27, w8
   99d88: d280a7c8     	mov	x8, #0x53e              // =1342
   99d8c: f2a70468     	movk	x8, #0x3823, lsl #16
   99d90: f2c291e8     	movk	x8, #0x148f, lsl #32
   99d94: f2eb06e8     	movk	x8, #0x5837, lsl #48
   99d98: 9a88112a     	csel	x10, x9, x8, ne
   99d9c: aa1503e8     	mov	x8, x21
   99da0: 17fffe54     	b	0x996f0 <.text+0x91680>
   99da4: b94037e8     	ldr	w8, [sp, #0x34]
   99da8: 5280044b     	mov	w11, #0x22              // =34
   99dac: f85c83a9     	ldur	x9, [x29, #-0x38]
   99db0: aa1803e1     	mov	x1, x24
   99db4: 7200011f     	tst	w8, #0x1
   99db8: d29bd928     	mov	x8, #0xdec9             // =57033
   99dbc: f2a2fd08     	movk	x8, #0x17e8, lsl #16
   99dc0: b900012b     	str	w11, [x9]
   99dc4: f2c44008     	movk	x8, #0x2200, lsl #32
   99dc8: f2ff29a8     	movk	x8, #0xf94d, lsl #48
   99dcc: 9a84110a     	csel	x10, x8, x4, ne
   99dd0: aa1503e8     	mov	x8, x21
   99dd4: 17fffe47     	b	0x996f0 <.text+0x91680>
   99dd8: f94002c8     	ldr	x8, [x22]
   99ddc: aa1603e0     	mov	x0, x22
   99de0: f9400fe1     	ldr	x1, [sp, #0x18]
   99de4: f9429d08     	ldr	x8, [x8, #0x538]
   99de8: d63f0100     	blr	x8
   99dec: aa0003f3     	mov	x19, x0
   99df0: aa1603e0     	mov	x0, x22
   99df4: 97ffe30b     	bl	0x92a20 <.text+0x8a9b0>
   99df8: f100027f     	cmp	x19, #0x0
   99dfc: d2894aa6     	mov	x6, #0x4a55             // =19029
   99e00: 1a9f17e8     	cset	w8, eq
   99e04: d2854410     	mov	x16, #0x2a20            // =10784
   99e08: 2a080008     	orr	w8, w0, w8
   99e0c: d2831abe     	mov	x30, #0x18d5            // =6357
   99e10: 7200011f     	tst	w8, #0x1
   99e14: d290e028     	mov	x8, #0x8701             // =34561
   99e18: d294c627     	mov	x7, #0xa631             // =42545
   99e1c: f2a24266     	movk	x6, #0x1213, lsl #16
   99e20: d28f3665     	mov	x5, #0x79b3             // =31155
   99e24: d2859364     	mov	x4, #0x2c9b             // =11419
   99e28: d2843823     	mov	x3, #0x21c1             // =8641
   99e2c: d29a36c2     	mov	x2, #0xd1b6             // =53686
   99e30: d28325d1     	mov	x17, #0x192e            // =6446
   99e34: d29d410f     	mov	x15, #0xea08            // =59912
   99e38: d2912bce     	mov	x14, #0x895e            // =35166
   99e3c: d2884a2d     	mov	x13, #0x4251            // =16977
   99e40: d2850c4c     	mov	x12, #0x2862            // =10338
   99e44: d28ed3e0     	mov	x0, #0x769f             // =30367
   99e48: f2a0eda8     	movk	x8, #0x76d, lsl #16
   99e4c: f2a3bd90     	movk	x16, #0x1dec, lsl #16
   99e50: f2ab40fe     	movk	x30, #0x5a07, lsl #16
   99e54: f2b324e7     	movk	x7, #0x9927, lsl #16
   99e58: f2cf3706     	movk	x6, #0x79b8, lsl #32
   99e5c: f2aa1805     	movk	x5, #0x50c0, lsl #16
   99e60: f2b4d144     	movk	x4, #0xa68a, lsl #16
   99e64: f2bedc03     	movk	x3, #0xf6e0, lsl #16
   99e68: f2a30b02     	movk	x2, #0x1858, lsl #16
   99e6c: f2a56c51     	movk	x17, #0x2b62, lsl #16
   99e70: f2bbbb2f     	movk	x15, #0xddd9, lsl #16
   99e74: f2a7374e     	movk	x14, #0x39ba, lsl #16
   99e78: f2bacdad     	movk	x13, #0xd66d, lsl #16
   99e7c: f2a139ac     	movk	x12, #0x9cd, lsl #16
   99e80: f2a326e0     	movk	x0, #0x1937, lsl #16
   99e84: f2cdda08     	movk	x8, #0x6ed0, lsl #32
   99e88: f2d4eaf0     	movk	x16, #0xa757, lsl #32
   99e8c: f2da03de     	movk	x30, #0xd01e, lsl #32
   99e90: f2c02f07     	movk	x7, #0x178, lsl #32
   99e94: f2fe1846     	movk	x6, #0xf0c2, lsl #48
   99e98: f2d8c665     	movk	x5, #0xc633, lsl #32
   99e9c: f2ca2604     	movk	x4, #0x5130, lsl #32
   99ea0: f2c94903     	movk	x3, #0x4a48, lsl #32
   99ea4: f2de81e2     	movk	x2, #0xf40f, lsl #32
   99ea8: f2c75af1     	movk	x17, #0x3ad7, lsl #32
   99eac: f2d4292f     	movk	x15, #0xa149, lsl #32
   99eb0: f2c5ec0e     	movk	x14, #0x2f60, lsl #32
   99eb4: f2d9de4d     	movk	x13, #0xcef2, lsl #32
   99eb8: f2ce902c     	movk	x12, #0x7481, lsl #32
   99ebc: f2c0a3e0     	movk	x0, #0x51f, lsl #32
   99ec0: f2fecf88     	movk	x8, #0xf67c, lsl #48
   99ec4: f2fcb2d0     	movk	x16, #0xe596, lsl #48
   99ec8: f2fbb41e     	movk	x30, #0xdda0, lsl #48
   99ecc: f2fe38a7     	movk	x7, #0xf1c5, lsl #48
   99ed0: f2f3c0a5     	movk	x5, #0x9e05, lsl #48
   99ed4: f2fa40e4     	movk	x4, #0xd207, lsl #48
   99ed8: f2f29cc3     	movk	x3, #0x94e6, lsl #48
   99edc: f2f70d82     	movk	x2, #0xb86c, lsl #48
   99ee0: f2f97ff1     	movk	x17, #0xcbff, lsl #48
   99ee4: f2f1e6cf     	movk	x15, #0x8f36, lsl #48
   99ee8: f2f2896e     	movk	x14, #0x944b, lsl #48
   99eec: f2f7930d     	movk	x13, #0xbc98, lsl #48
   99ef0: f2f8cdcc     	movk	x12, #0xc66e, lsl #48
   99ef4: f2f5f2c0     	movk	x0, #0xaf96, lsl #48
   99ef8: 9a8810ca     	csel	x10, x6, x8, ne
   99efc: 140002cc     	b	0x9aa2c <.text+0x929bc>
   99f00: f94002c8     	ldr	x8, [x22]
   99f04: aa1603e0     	mov	x0, x22
   99f08: f9400be1     	ldr	x1, [sp, #0x10]
   99f0c: f9429d08     	ldr	x8, [x8, #0x538]
   99f10: d63f0100     	blr	x8
   99f14: 2a1b03f9     	mov	w25, w27
   99f18: aa0003fb     	mov	x27, x0
   99f1c: aa1603e0     	mov	x0, x22
   99f20: 97ffe2c0     	bl	0x92a20 <.text+0x8a9b0>
   99f24: f100037f     	cmp	x27, #0x0
   99f28: d28f3665     	mov	x5, #0x79b3             // =31155
   99f2c: 1a9f17e8     	cset	w8, eq
   99f30: d2843823     	mov	x3, #0x21c1             // =8641
   99f34: d2854410     	mov	x16, #0x2a20            // =10784
   99f38: d2831abe     	mov	x30, #0x18d5            // =6357
   99f3c: d294c627     	mov	x7, #0xa631             // =42545
   99f40: d2894aa6     	mov	x6, #0x4a55             // =19029
   99f44: f2aa1805     	movk	x5, #0x50c0, lsl #16
   99f48: d2859364     	mov	x4, #0x2c9b             // =11419
   99f4c: f2bedc03     	movk	x3, #0xf6e0, lsl #16
   99f50: d29a36c2     	mov	x2, #0xd1b6             // =53686
   99f54: d28325d1     	mov	x17, #0x192e            // =6446
   99f58: d29d410f     	mov	x15, #0xea08            // =59912
   99f5c: d2912bce     	mov	x14, #0x895e            // =35166
   99f60: d2884a2d     	mov	x13, #0x4251            // =16977
   99f64: d2850c4c     	mov	x12, #0x2862            // =10338
   99f68: f9002bfb     	str	x27, [sp, #0x50]
   99f6c: 2a1903fb     	mov	w27, w25
   99f70: d29e5679     	mov	x25, #0xf2b3            // =62131
   99f74: b90037e8     	str	w8, [sp, #0x34]
   99f78: 2a080008     	orr	w8, w0, w8
   99f7c: d28ed3e0     	mov	x0, #0x769f             // =30367
   99f80: f2a3bd90     	movk	x16, #0x1dec, lsl #16
   99f84: f2ab40fe     	movk	x30, #0x5a07, lsl #16
   99f88: f2b324e7     	movk	x7, #0x9927, lsl #16
   99f8c: f2a24266     	movk	x6, #0x1213, lsl #16
   99f90: f2d8c665     	movk	x5, #0xc633, lsl #32
   99f94: f2b4d144     	movk	x4, #0xa68a, lsl #16
   99f98: f2c94903     	movk	x3, #0x4a48, lsl #32
   99f9c: f2a30b02     	movk	x2, #0x1858, lsl #16
   99fa0: f2a56c51     	movk	x17, #0x2b62, lsl #16
   99fa4: f2bbbb2f     	movk	x15, #0xddd9, lsl #16
   99fa8: f2a7374e     	movk	x14, #0x39ba, lsl #16
   99fac: f2bacdad     	movk	x13, #0xd66d, lsl #16
   99fb0: f2a139ac     	movk	x12, #0x9cd, lsl #16
   99fb4: f2b814d9     	movk	x25, #0xc0a6, lsl #16
   99fb8: f2a326e0     	movk	x0, #0x1937, lsl #16
   99fbc: f2d4eaf0     	movk	x16, #0xa757, lsl #32
   99fc0: f2da03de     	movk	x30, #0xd01e, lsl #32
   99fc4: f2c02f07     	movk	x7, #0x178, lsl #32
   99fc8: f2cf3706     	movk	x6, #0x79b8, lsl #32
   99fcc: f2f3c0a5     	movk	x5, #0x9e05, lsl #48
   99fd0: f2ca2604     	movk	x4, #0x5130, lsl #32
   99fd4: f2f29cc3     	movk	x3, #0x94e6, lsl #48
   99fd8: f2de81e2     	movk	x2, #0xf40f, lsl #32
   99fdc: f2c75af1     	movk	x17, #0x3ad7, lsl #32
   99fe0: f2d4292f     	movk	x15, #0xa149, lsl #32
   99fe4: f2c5ec0e     	movk	x14, #0x2f60, lsl #32
   99fe8: f2d9de4d     	movk	x13, #0xcef2, lsl #32
   99fec: f2ce902c     	movk	x12, #0x7481, lsl #32
   99ff0: f2ddce79     	movk	x25, #0xee73, lsl #32
   99ff4: f2c0a3e0     	movk	x0, #0x51f, lsl #32
   99ff8: 7200011f     	tst	w8, #0x1
   99ffc: f2fcb2d0     	movk	x16, #0xe596, lsl #48
   9a000: f2fbb41e     	movk	x30, #0xdda0, lsl #48
   9a004: f2fe38a7     	movk	x7, #0xf1c5, lsl #48
   9a008: f2fe1846     	movk	x6, #0xf0c2, lsl #48
   9a00c: f2fa40e4     	movk	x4, #0xd207, lsl #48
   9a010: f2f70d82     	movk	x2, #0xb86c, lsl #48
   9a014: f2f97ff1     	movk	x17, #0xcbff, lsl #48
   9a018: f2f1e6cf     	movk	x15, #0x8f36, lsl #48
   9a01c: f2f2896e     	movk	x14, #0x944b, lsl #48
   9a020: f2f7930d     	movk	x13, #0xbc98, lsl #48
   9a024: f2f8cdcc     	movk	x12, #0xc66e, lsl #48
   9a028: f2f1d599     	movk	x25, #0x8eac, lsl #48
   9a02c: f2f5f2c0     	movk	x0, #0xaf96, lsl #48
   9a030: 9a85106a     	csel	x10, x3, x5, ne
   9a034: 1400027e     	b	0x9aa2c <.text+0x929bc>
   9a038: f94002c8     	ldr	x8, [x22]
   9a03c: aa1603e0     	mov	x0, x22
   9a040: f94027e1     	ldr	x1, [sp, #0x48]
   9a044: f9405d08     	ldr	x8, [x8, #0xb8]
   9a048: d63f0100     	blr	x8
   9a04c: d2854410     	mov	x16, #0x2a20            // =10784
   9a050: d2831abe     	mov	x30, #0x18d5            // =6357
   9a054: d294c627     	mov	x7, #0xa631             // =42545
   9a058: d2894aa6     	mov	x6, #0x4a55             // =19029
   9a05c: d28f3665     	mov	x5, #0x79b3             // =31155
   9a060: d2859364     	mov	x4, #0x2c9b             // =11419
   9a064: d2843823     	mov	x3, #0x21c1             // =8641
   9a068: d29a36c2     	mov	x2, #0xd1b6             // =53686
   9a06c: d28ed3e0     	mov	x0, #0x769f             // =30367
   9a070: d28325d1     	mov	x17, #0x192e            // =6446
   9a074: d29d410f     	mov	x15, #0xea08            // =59912
   9a078: d2912bce     	mov	x14, #0x895e            // =35166
   9a07c: d2884a2d     	mov	x13, #0x4251            // =16977
   9a080: d2850c4c     	mov	x12, #0x2862            // =10338
   9a084: f2a3bd90     	movk	x16, #0x1dec, lsl #16
   9a088: f2ab40fe     	movk	x30, #0x5a07, lsl #16
   9a08c: f2b324e7     	movk	x7, #0x9927, lsl #16
   9a090: f2a24266     	movk	x6, #0x1213, lsl #16
   9a094: f2aa1805     	movk	x5, #0x50c0, lsl #16
   9a098: f2b4d144     	movk	x4, #0xa68a, lsl #16
   9a09c: f2bedc03     	movk	x3, #0xf6e0, lsl #16
   9a0a0: f2a30b02     	movk	x2, #0x1858, lsl #16
   9a0a4: f2a326e0     	movk	x0, #0x1937, lsl #16
   9a0a8: f2a56c51     	movk	x17, #0x2b62, lsl #16
   9a0ac: f2bbbb2f     	movk	x15, #0xddd9, lsl #16
   9a0b0: f2a7374e     	movk	x14, #0x39ba, lsl #16
   9a0b4: f2bacdad     	movk	x13, #0xd66d, lsl #16
   9a0b8: f2a139ac     	movk	x12, #0x9cd, lsl #16
   9a0bc: f2d4eaf0     	movk	x16, #0xa757, lsl #32
   9a0c0: f2da03de     	movk	x30, #0xd01e, lsl #32
   9a0c4: f2c02f07     	movk	x7, #0x178, lsl #32
   9a0c8: f2cf3706     	movk	x6, #0x79b8, lsl #32
   9a0cc: f2d8c665     	movk	x5, #0xc633, lsl #32
   9a0d0: f2ca2604     	movk	x4, #0x5130, lsl #32
   9a0d4: f2c94903     	movk	x3, #0x4a48, lsl #32
   9a0d8: f2de81e2     	movk	x2, #0xf40f, lsl #32
   9a0dc: f2c0a3e0     	movk	x0, #0x51f, lsl #32
   9a0e0: f2c75af1     	movk	x17, #0x3ad7, lsl #32
   9a0e4: f2d4292f     	movk	x15, #0xa149, lsl #32
   9a0e8: f2c5ec0e     	movk	x14, #0x2f60, lsl #32
   9a0ec: f2d9de4d     	movk	x13, #0xcef2, lsl #32
   9a0f0: f2ce902c     	movk	x12, #0x7481, lsl #32
   9a0f4: f2fcb2d0     	movk	x16, #0xe596, lsl #48
   9a0f8: f2fbb41e     	movk	x30, #0xdda0, lsl #48
   9a0fc: f2fe38a7     	movk	x7, #0xf1c5, lsl #48
   9a100: f2fe1846     	movk	x6, #0xf0c2, lsl #48
   9a104: f2f3c0a5     	movk	x5, #0x9e05, lsl #48
   9a108: f2fa40e4     	movk	x4, #0xd207, lsl #48
   9a10c: f2f29cc3     	movk	x3, #0x94e6, lsl #48
   9a110: f2f70d82     	movk	x2, #0xb86c, lsl #48
   9a114: f2f5f2c0     	movk	x0, #0xaf96, lsl #48
   9a118: f2f97ff1     	movk	x17, #0xcbff, lsl #48
   9a11c: f2f1e6cf     	movk	x15, #0x8f36, lsl #48
   9a120: f2f2896e     	movk	x14, #0x944b, lsl #48
   9a124: f2f7930d     	movk	x13, #0xbc98, lsl #48
   9a128: f2f8cdcc     	movk	x12, #0xc66e, lsl #48
   9a12c: f85e83a9     	ldur	x9, [x29, #-0x18]
   9a130: d2912bca     	mov	x10, #0x895e            // =35166
   9a134: f2a7374a     	movk	x10, #0x39ba, lsl #16
   9a138: 5280003b     	mov	w27, #0x1               // =1
   9a13c: f2c5ec0a     	movk	x10, #0x2f60, lsl #32
   9a140: aa1803e1     	mov	x1, x24
   9a144: aa1503e8     	mov	x8, x21
   9a148: f81e03a9     	stur	x9, [x29, #-0x20]
   9a14c: f2f2896a     	movk	x10, #0x944b, lsl #48
   9a150: 17fffd68     	b	0x996f0 <.text+0x91680>
   9a154: 2a1f03e0     	mov	w0, wzr
   9a158: 52800021     	mov	w1, #0x1                // =1
   9a15c: d503201f     	nop
   9a160: 10563a42     	adr	x2, 0x1468a8
   9a164: 94027da7     	bl	0x139800 <Java_com_adjust_sdk_sig_NativeLibHelper_nSign+0x6d1fc>
   9a168: d294c627     	mov	x7, #0xa631             // =42545
   9a16c: d2814688     	mov	x8, #0xa34              // =2612
   9a170: d2854410     	mov	x16, #0x2a20            // =10784
   9a174: d2831abe     	mov	x30, #0x18d5            // =6357
   9a178: f2b324e7     	movk	x7, #0x9927, lsl #16
   9a17c: d2894aa6     	mov	x6, #0x4a55             // =19029
   9a180: d28f3665     	mov	x5, #0x79b3             // =31155
   9a184: d2859364     	mov	x4, #0x2c9b             // =11419
   9a188: d2843823     	mov	x3, #0x21c1             // =8641
   9a18c: d29a36c2     	mov	x2, #0xd1b6             // =53686
   9a190: d28325d1     	mov	x17, #0x192e            // =6446
   9a194: d29d410f     	mov	x15, #0xea08            // =59912
   9a198: d2912bce     	mov	x14, #0x895e            // =35166
   9a19c: d2884a2d     	mov	x13, #0x4251            // =16977
   9a1a0: d2850c4c     	mov	x12, #0x2862            // =10338
   9a1a4: 7100001f     	cmp	w0, #0x0
   9a1a8: d28ed3e0     	mov	x0, #0x769f             // =30367
   9a1ac: f2b5e2a8     	movk	x8, #0xaf15, lsl #16
   9a1b0: f2a3bd90     	movk	x16, #0x1dec, lsl #16
   9a1b4: f2ab40fe     	movk	x30, #0x5a07, lsl #16
   9a1b8: f2c02f07     	movk	x7, #0x178, lsl #32
   9a1bc: f2a24266     	movk	x6, #0x1213, lsl #16
   9a1c0: f2aa1805     	movk	x5, #0x50c0, lsl #16
   9a1c4: f2b4d144     	movk	x4, #0xa68a, lsl #16
   9a1c8: f2bedc03     	movk	x3, #0xf6e0, lsl #16
   9a1cc: f2a30b02     	movk	x2, #0x1858, lsl #16
   9a1d0: f2a56c51     	movk	x17, #0x2b62, lsl #16
   9a1d4: f2bbbb2f     	movk	x15, #0xddd9, lsl #16
   9a1d8: f2a7374e     	movk	x14, #0x39ba, lsl #16
   9a1dc: f2bacdad     	movk	x13, #0xd66d, lsl #16
   9a1e0: f2a139ac     	movk	x12, #0x9cd, lsl #16
   9a1e4: f2a326e0     	movk	x0, #0x1937, lsl #16
   9a1e8: f2dd2308     	movk	x8, #0xe918, lsl #32
   9a1ec: f2d4eaf0     	movk	x16, #0xa757, lsl #32
   9a1f0: f2da03de     	movk	x30, #0xd01e, lsl #32
   9a1f4: f2fe38a7     	movk	x7, #0xf1c5, lsl #48
   9a1f8: f2cf3706     	movk	x6, #0x79b8, lsl #32
   9a1fc: f2d8c665     	movk	x5, #0xc633, lsl #32
   9a200: f2ca2604     	movk	x4, #0x5130, lsl #32
   9a204: f2c94903     	movk	x3, #0x4a48, lsl #32
   9a208: f2de81e2     	movk	x2, #0xf40f, lsl #32
   9a20c: f2c75af1     	movk	x17, #0x3ad7, lsl #32
   9a210: f2d4292f     	movk	x15, #0xa149, lsl #32
   9a214: f2c5ec0e     	movk	x14, #0x2f60, lsl #32
   9a218: f2d9de4d     	movk	x13, #0xcef2, lsl #32
   9a21c: f2ce902c     	movk	x12, #0x7481, lsl #32
   9a220: f2c0a3e0     	movk	x0, #0x51f, lsl #32
   9a224: f2e94e88     	movk	x8, #0x4a74, lsl #48
   9a228: f2fcb2d0     	movk	x16, #0xe596, lsl #48
   9a22c: f2fbb41e     	movk	x30, #0xdda0, lsl #48
   9a230: f2fe1846     	movk	x6, #0xf0c2, lsl #48
   9a234: f2f3c0a5     	movk	x5, #0x9e05, lsl #48
   9a238: f2fa40e4     	movk	x4, #0xd207, lsl #48
   9a23c: f2f29cc3     	movk	x3, #0x94e6, lsl #48
   9a240: f2f70d82     	movk	x2, #0xb86c, lsl #48
   9a244: f2f97ff1     	movk	x17, #0xcbff, lsl #48
   9a248: f2f1e6cf     	movk	x15, #0x8f36, lsl #48
   9a24c: f2f2896e     	movk	x14, #0x944b, lsl #48
   9a250: f2f7930d     	movk	x13, #0xbc98, lsl #48
   9a254: f2f8cdcc     	movk	x12, #0xc66e, lsl #48
   9a258: aa1803e1     	mov	x1, x24
   9a25c: f2f5f2c0     	movk	x0, #0xaf96, lsl #48
   9a260: 9a8800ea     	csel	x10, x7, x8, eq
   9a264: aa1503e8     	mov	x8, x21
   9a268: 17fffd22     	b	0x996f0 <.text+0x91680>
   9a26c: 2a1f03e0     	mov	w0, wzr
   9a270: 52800021     	mov	w1, #0x1                // =1
   9a274: d503201f     	nop
   9a278: 10563162     	adr	x2, 0x1468a4
   9a27c: 94027d61     	bl	0x139800 <Java_com_adjust_sdk_sig_NativeLibHelper_nSign+0x6d1fc>
   9a280: d2963448     	mov	x8, #0xb1a2             // =45474
   9a284: d28905c9     	mov	x9, #0x482e             // =18478
   9a288: d2854410     	mov	x16, #0x2a20            // =10784
   9a28c: d2831abe     	mov	x30, #0x18d5            // =6357
   9a290: d294c627     	mov	x7, #0xa631             // =42545
   9a294: d2894aa6     	mov	x6, #0x4a55             // =19029
   9a298: d28f3665     	mov	x5, #0x79b3             // =31155
   9a29c: d2859364     	mov	x4, #0x2c9b             // =11419
   9a2a0: d2843823     	mov	x3, #0x21c1             // =8641
   9a2a4: d29a36c2     	mov	x2, #0xd1b6             // =53686
   9a2a8: d28325d1     	mov	x17, #0x192e            // =6446
   9a2ac: d29d410f     	mov	x15, #0xea08            // =59912
   9a2b0: d2912bce     	mov	x14, #0x895e            // =35166
   9a2b4: d2884a2d     	mov	x13, #0x4251            // =16977
   9a2b8: d2850c4c     	mov	x12, #0x2862            // =10338
   9a2bc: 7100001f     	cmp	w0, #0x0
   9a2c0: d28ed3e0     	mov	x0, #0x769f             // =30367
   9a2c4: f2ba4fa8     	movk	x8, #0xd27d, lsl #16
   9a2c8: f2a10909     	movk	x9, #0x848, lsl #16
   9a2cc: f2a3bd90     	movk	x16, #0x1dec, lsl #16
   9a2d0: f2ab40fe     	movk	x30, #0x5a07, lsl #16
   9a2d4: f2b324e7     	movk	x7, #0x9927, lsl #16
   9a2d8: f2a24266     	movk	x6, #0x1213, lsl #16
   9a2dc: f2aa1805     	movk	x5, #0x50c0, lsl #16
   9a2e0: f2b4d144     	movk	x4, #0xa68a, lsl #16
   9a2e4: f2bedc03     	movk	x3, #0xf6e0, lsl #16
   9a2e8: f2a30b02     	movk	x2, #0x1858, lsl #16
   9a2ec: f2a56c51     	movk	x17, #0x2b62, lsl #16
   9a2f0: f2bbbb2f     	movk	x15, #0xddd9, lsl #16
   9a2f4: f2a7374e     	movk	x14, #0x39ba, lsl #16
   9a2f8: f2bacdad     	movk	x13, #0xd66d, lsl #16
   9a2fc: f2a139ac     	movk	x12, #0x9cd, lsl #16
   9a300: f2a326e0     	movk	x0, #0x1937, lsl #16
   9a304: f2ce9fe8     	movk	x8, #0x74ff, lsl #32
   9a308: f2c00d69     	movk	x9, #0x6b, lsl #32
   9a30c: f2d4eaf0     	movk	x16, #0xa757, lsl #32
   9a310: f2da03de     	movk	x30, #0xd01e, lsl #32
   9a314: f2c02f07     	movk	x7, #0x178, lsl #32
   9a318: f2cf3706     	movk	x6, #0x79b8, lsl #32
   9a31c: f2d8c665     	movk	x5, #0xc633, lsl #32
   9a320: f2ca2604     	movk	x4, #0x5130, lsl #32
   9a324: f2c94903     	movk	x3, #0x4a48, lsl #32
   9a328: f2de81e2     	movk	x2, #0xf40f, lsl #32
   9a32c: f2c75af1     	movk	x17, #0x3ad7, lsl #32
   9a330: f2d4292f     	movk	x15, #0xa149, lsl #32
   9a334: f2c5ec0e     	movk	x14, #0x2f60, lsl #32
   9a338: f2d9de4d     	movk	x13, #0xcef2, lsl #32
   9a33c: f2ce902c     	movk	x12, #0x7481, lsl #32
   9a340: f2c0a3e0     	movk	x0, #0x51f, lsl #32
   9a344: f2e83f48     	movk	x8, #0x41fa, lsl #48
   9a348: f2ed88a9     	movk	x9, #0x6c45, lsl #48
   9a34c: f2fcb2d0     	movk	x16, #0xe596, lsl #48
   9a350: f2fbb41e     	movk	x30, #0xdda0, lsl #48
   9a354: f2fe38a7     	movk	x7, #0xf1c5, lsl #48
   9a358: f2fe1846     	movk	x6, #0xf0c2, lsl #48
   9a35c: f2f3c0a5     	movk	x5, #0x9e05, lsl #48
   9a360: f2fa40e4     	movk	x4, #0xd207, lsl #48
   9a364: f2f29cc3     	movk	x3, #0x94e6, lsl #48
   9a368: f2f70d82     	movk	x2, #0xb86c, lsl #48
   9a36c: f2f97ff1     	movk	x17, #0xcbff, lsl #48
   9a370: f2f1e6cf     	movk	x15, #0x8f36, lsl #48
   9a374: f2f2896e     	movk	x14, #0x944b, lsl #48
   9a378: f2f7930d     	movk	x13, #0xbc98, lsl #48
   9a37c: f2f8cdcc     	movk	x12, #0xc66e, lsl #48
   9a380: aa1803e1     	mov	x1, x24
   9a384: f2f5f2c0     	movk	x0, #0xaf96, lsl #48
   9a388: 9a88012a     	csel	x10, x9, x8, eq
   9a38c: aa1503e8     	mov	x8, x21
   9a390: 17fffcd8     	b	0x996f0 <.text+0x91680>
   9a394: d29e566a     	mov	x10, #0xf2b3            // =62131
   9a398: aa1f03e1     	mov	x1, xzr
   9a39c: f2b814ca     	movk	x10, #0xc0a6, lsl #16
   9a3a0: aa1f03e8     	mov	x8, xzr
   9a3a4: f2ddce6a     	movk	x10, #0xee73, lsl #32
   9a3a8: f2f1d58a     	movk	x10, #0x8eac, lsl #48
   9a3ac: 17fffcd1     	b	0x996f0 <.text+0x91680>
   9a3b0: d503201f     	nop
   9a3b4: 1055356b     	adr	x11, 0x144a60
   9a3b8: 4f04e764     	movi	v4.16b, #0x9b
   9a3bc: 52801369     	mov	w9, #0x9b               // =155
   9a3c0: d2993e4a     	mov	x10, #0xc9f2            // =51698
   9a3c4: aa1803e1     	mov	x1, x24
   9a3c8: ad400560     	ldp	q0, q1, [x11]
   9a3cc: f2a39eea     	movk	x10, #0x1cf7, lsl #16
   9a3d0: f2cf5e4a     	movk	x10, #0x7af2, lsl #32
   9a3d4: f2e030ea     	movk	x10, #0x187, lsl #48
   9a3d8: 6e241c00     	eor	v0.16b, v0.16b, v4.16b
   9a3dc: 3940e168     	ldrb	w8, [x11, #0x38]
   9a3e0: 3dc00962     	ldr	q2, [x11, #0x20]
   9a3e4: fd401963     	ldr	d3, [x11, #0x30]
   9a3e8: 6e241c21     	eor	v1.16b, v1.16b, v4.16b
   9a3ec: 4a090108     	eor	w8, w8, w9
   9a3f0: ad000560     	stp	q0, q1, [x11]
   9a3f4: 52800029     	mov	w9, #0x1                // =1
   9a3f8: 6e241c40     	eor	v0.16b, v2.16b, v4.16b
   9a3fc: 3d800960     	str	q0, [x11, #0x20]
   9a400: 2e281c60     	eor	v0.8b, v3.8b, v8.8b
   9a404: 3900e168     	strb	w8, [x11, #0x38]
   9a408: aa1503e8     	mov	x8, x21
   9a40c: fd001960     	str	d0, [x11, #0x30]
   9a410: 9000056b     	adrp	x11, 0x146000
   9a414: 39294d69     	strb	w9, [x11, #0xa53]
   9a418: 17fffcb6     	b	0x996f0 <.text+0x91680>
   9a41c: 52800448     	mov	w8, #0x22               // =34
   9a420: f81c03bf     	stur	xzr, [x29, #-0x40]
   9a424: b81bc3a8     	stur	w8, [x29, #-0x44]
   9a428: 1400007a     	b	0x9a610 <.text+0x925a0>
   9a42c: d503201f     	nop
   9a430: 10553110     	adr	x16, 0x144a50
   9a434: 52801d21     	mov	w1, #0xe9               // =233
   9a438: 39400609     	ldrb	w9, [x16, #0x1]
   9a43c: 39400208     	ldrb	w8, [x16]
   9a440: 39400a0a     	ldrb	w10, [x16, #0x2]
   9a444: 39400e0b     	ldrb	w11, [x16, #0x3]
   9a448: 4a010129     	eor	w9, w9, w1
   9a44c: 4a010108     	eor	w8, w8, w1
   9a450: 4a01014a     	eor	w10, w10, w1
   9a454: 39000609     	strb	w9, [x16, #0x1]
   9a458: 4a010169     	eor	w9, w11, w1
   9a45c: 39000208     	strb	w8, [x16]
   9a460: 9000056b     	adrp	x11, 0x146000
   9a464: 39000a0a     	strb	w10, [x16, #0x2]
   9a468: d291b88a     	mov	x10, #0x8dc4            // =36292
   9a46c: 39000e09     	strb	w9, [x16, #0x3]
   9a470: d2854410     	mov	x16, #0x2a20            // =10784
   9a474: 52800029     	mov	w9, #0x1                // =1
   9a478: f2bc61aa     	movk	x10, #0xe30d, lsl #16
   9a47c: f2a3bd90     	movk	x16, #0x1dec, lsl #16
   9a480: f2ca6fea     	movk	x10, #0x537f, lsl #32
   9a484: f2d4eaf0     	movk	x16, #0xa757, lsl #32
   9a488: aa1803e1     	mov	x1, x24
   9a48c: aa1503e8     	mov	x8, x21
   9a490: f2f01fca     	movk	x10, #0x80fe, lsl #48
   9a494: f2fcb2d0     	movk	x16, #0xe596, lsl #48
   9a498: 39294969     	strb	w9, [x11, #0xa52]
   9a49c: 17fffc95     	b	0x996f0 <.text+0x91680>
   9a4a0: 90000568     	adrp	x8, 0x146000
   9a4a4: 39694d08     	ldrb	w8, [x8, #0xa53]
   9a4a8: 7100011f     	cmp	w8, #0x0
   9a4ac: d290c5a8     	mov	x8, #0x862d             // =34349
   9a4b0: f2b60808     	movk	x8, #0xb040, lsl #16
   9a4b4: f2d7d7e8     	movk	x8, #0xbebf, lsl #32
   9a4b8: f2fee0e8     	movk	x8, #0xf707, lsl #48
   9a4bc: 9a90110a     	csel	x10, x8, x16, ne
   9a4c0: 1400015b     	b	0x9aa2c <.text+0x929bc>
   9a4c4: f94002c8     	ldr	x8, [x22]
   9a4c8: aa1603e0     	mov	x0, x22
   9a4cc: a94387e2     	ldp	x2, x1, [sp, #0x38]
   9a4d0: aa1303e4     	mov	x4, x19
   9a4d4: f9408908     	ldr	x8, [x8, #0x110]
   9a4d8: f9402be3     	ldr	x3, [sp, #0x50]
   9a4dc: d63f0100     	blr	x8
   9a4e0: f81f83a0     	stur	x0, [x29, #-0x8]
   9a4e4: aa1603e0     	mov	x0, x22
   9a4e8: 97ffe14e     	bl	0x92a20 <.text+0x8a9b0>
   9a4ec: d29156c8     	mov	x8, #0x8ab6             // =35510
   9a4f0: d29a7069     	mov	x9, #0xd383             // =54147
   9a4f4: d2854410     	mov	x16, #0x2a20            // =10784
   9a4f8: d2831abe     	mov	x30, #0x18d5            // =6357
   9a4fc: d294c627     	mov	x7, #0xa631             // =42545
   9a500: d2894aa6     	mov	x6, #0x4a55             // =19029
   9a504: d28f3665     	mov	x5, #0x79b3             // =31155
   9a508: d2859364     	mov	x4, #0x2c9b             // =11419
   9a50c: d2843823     	mov	x3, #0x21c1             // =8641
   9a510: d29a36c2     	mov	x2, #0xd1b6             // =53686
   9a514: d28325d1     	mov	x17, #0x192e            // =6446
   9a518: d29d410f     	mov	x15, #0xea08            // =59912
   9a51c: d2912bce     	mov	x14, #0x895e            // =35166
   9a520: d2884a2d     	mov	x13, #0x4251            // =16977
   9a524: d2850c4c     	mov	x12, #0x2862            // =10338
   9a528: 7200001f     	tst	w0, #0x1
   9a52c: d28ed3e0     	mov	x0, #0x769f             // =30367
   9a530: f2be2a28     	movk	x8, #0xf151, lsl #16
   9a534: f2bd7f09     	movk	x9, #0xebf8, lsl #16
   9a538: f2a3bd90     	movk	x16, #0x1dec, lsl #16
   9a53c: f2ab40fe     	movk	x30, #0x5a07, lsl #16
   9a540: f2b324e7     	movk	x7, #0x9927, lsl #16
   9a544: f2a24266     	movk	x6, #0x1213, lsl #16
   9a548: f2aa1805     	movk	x5, #0x50c0, lsl #16
   9a54c: f2b4d144     	movk	x4, #0xa68a, lsl #16
   9a550: f2bedc03     	movk	x3, #0xf6e0, lsl #16
   9a554: f2a30b02     	movk	x2, #0x1858, lsl #16
   9a558: f2a56c51     	movk	x17, #0x2b62, lsl #16
   9a55c: f2bbbb2f     	movk	x15, #0xddd9, lsl #16
   9a560: f2a7374e     	movk	x14, #0x39ba, lsl #16
   9a564: f2bacdad     	movk	x13, #0xd66d, lsl #16
   9a568: f2a139ac     	movk	x12, #0x9cd, lsl #16
   9a56c: f2a326e0     	movk	x0, #0x1937, lsl #16
   9a570: f2d08c08     	movk	x8, #0x8460, lsl #32
   9a574: f2df2e29     	movk	x9, #0xf971, lsl #32
   9a578: f2d4eaf0     	movk	x16, #0xa757, lsl #32
   9a57c: f2da03de     	movk	x30, #0xd01e, lsl #32
   9a580: f2c02f07     	movk	x7, #0x178, lsl #32
   9a584: f2cf3706     	movk	x6, #0x79b8, lsl #32
   9a588: f2d8c665     	movk	x5, #0xc633, lsl #32
   9a58c: f2ca2604     	movk	x4, #0x5130, lsl #32
   9a590: f2c94903     	movk	x3, #0x4a48, lsl #32
   9a594: f2de81e2     	movk	x2, #0xf40f, lsl #32
   9a598: f2c75af1     	movk	x17, #0x3ad7, lsl #32
   9a59c: f2d4292f     	movk	x15, #0xa149, lsl #32
   9a5a0: f2c5ec0e     	movk	x14, #0x2f60, lsl #32
   9a5a4: f2d9de4d     	movk	x13, #0xcef2, lsl #32
   9a5a8: f2ce902c     	movk	x12, #0x7481, lsl #32
   9a5ac: f2c0a3e0     	movk	x0, #0x51f, lsl #32
   9a5b0: f2e26ae8     	movk	x8, #0x1357, lsl #48
   9a5b4: f2ff7b69     	movk	x9, #0xfbdb, lsl #48
   9a5b8: f2fcb2d0     	movk	x16, #0xe596, lsl #48
   9a5bc: f2fbb41e     	movk	x30, #0xdda0, lsl #48
   9a5c0: f2fe38a7     	movk	x7, #0xf1c5, lsl #48
   9a5c4: f2fe1846     	movk	x6, #0xf0c2, lsl #48
   9a5c8: f2f3c0a5     	movk	x5, #0x9e05, lsl #48
   9a5cc: f2fa40e4     	movk	x4, #0xd207, lsl #48
   9a5d0: f2f29cc3     	movk	x3, #0x94e6, lsl #48
   9a5d4: f2f70d82     	movk	x2, #0xb86c, lsl #48
   9a5d8: f2f97ff1     	movk	x17, #0xcbff, lsl #48
   9a5dc: f2f1e6cf     	movk	x15, #0x8f36, lsl #48
   9a5e0: f2f2896e     	movk	x14, #0x944b, lsl #48
   9a5e4: f2f7930d     	movk	x13, #0xbc98, lsl #48
   9a5e8: f2f8cdcc     	movk	x12, #0xc66e, lsl #48
   9a5ec: aa1803e1     	mov	x1, x24
   9a5f0: f2f5f2c0     	movk	x0, #0xaf96, lsl #48
   9a5f4: 9a88112a     	csel	x10, x9, x8, ne
   9a5f8: aa1503e8     	mov	x8, x21
   9a5fc: 17fffc3d     	b	0x996f0 <.text+0x91680>
   9a600: 52800388     	mov	w8, #0x1c               // =28
   9a604: b81bc3a8     	stur	w8, [x29, #-0x44]
   9a608: f85f83a8     	ldur	x8, [x29, #-0x8]
   9a60c: f81c03a8     	stur	x8, [x29, #-0x40]
   9a610: d29d410a     	mov	x10, #0xea08            // =59912
   9a614: aa1803e1     	mov	x1, x24
   9a618: f2bbbb2a     	movk	x10, #0xddd9, lsl #16
   9a61c: aa1503e8     	mov	x8, x21
   9a620: f2d4292a     	movk	x10, #0xa149, lsl #32
   9a624: f2f1e6ca     	movk	x10, #0x8f36, lsl #48
   9a628: 17fffc32     	b	0x996f0 <.text+0x91680>
   9a62c: d2850c4a     	mov	x10, #0x2862            // =10338
   9a630: d503201f     	nop
   9a634: 105613a9     	adr	x9, 0x1468a8
   9a638: f2a139aa     	movk	x10, #0x9cd, lsl #16
   9a63c: f2ce902a     	movk	x10, #0x7481, lsl #32
   9a640: aa1803e1     	mov	x1, x24
   9a644: aa1503e8     	mov	x8, x21
   9a648: f2f8cdca     	movk	x10, #0xc66e, lsl #48
   9a64c: 089ffd3f     	stlrb	wzr, [x9]
   9a650: 17fffc28     	b	0x996f0 <.text+0x91680>
   9a654: f85d03a9     	ldur	x9, [x29, #-0x30]
   9a658: d2912bca     	mov	x10, #0x895e            // =35166
   9a65c: b85dc3ab     	ldur	w11, [x29, #-0x24]
   9a660: f2a7374a     	movk	x10, #0x39ba, lsl #16
   9a664: b9400ffb     	ldr	w27, [sp, #0xc]
   9a668: f2c5ec0a     	movk	x10, #0x2f60, lsl #32
   9a66c: f81e03a9     	stur	x9, [x29, #-0x20]
   9a670: f85c83a9     	ldur	x9, [x29, #-0x38]
   9a674: aa1803e1     	mov	x1, x24
   9a678: aa1503e8     	mov	x8, x21
   9a67c: f2f2896a     	movk	x10, #0x944b, lsl #48
   9a680: b900012b     	str	w11, [x9]
   9a684: 17fffc1b     	b	0x996f0 <.text+0x91680>
   9a688: f94002c8     	ldr	x8, [x22]
   9a68c: aa1603e0     	mov	x0, x22
   9a690: f94023e1     	ldr	x1, [sp, #0x40]
   9a694: f9407d08     	ldr	x8, [x8, #0xf8]
   9a698: d63f0100     	blr	x8
   9a69c: aa0003f4     	mov	x20, x0
   9a6a0: aa1603e0     	mov	x0, x22
   9a6a4: 97ffe0df     	bl	0x92a20 <.text+0x8a9b0>
   9a6a8: f100029f     	cmp	x20, #0x0
   9a6ac: f81e83b4     	stur	x20, [x29, #-0x18]
   9a6b0: 1a9f17e8     	cset	w8, eq
   9a6b4: d29a7374     	mov	x20, #0xd39b            // =54171
   9a6b8: 2a080008     	orr	w8, w0, w8
   9a6bc: d2854410     	mov	x16, #0x2a20            // =10784
   9a6c0: 7200011f     	tst	w8, #0x1
   9a6c4: d296ff48     	mov	x8, #0xb7fa             // =47098
   9a6c8: d2831abe     	mov	x30, #0x18d5            // =6357
   9a6cc: d294c627     	mov	x7, #0xa631             // =42545
   9a6d0: d2894aa6     	mov	x6, #0x4a55             // =19029
   9a6d4: d28f3665     	mov	x5, #0x79b3             // =31155
   9a6d8: d2859364     	mov	x4, #0x2c9b             // =11419
   9a6dc: d2843823     	mov	x3, #0x21c1             // =8641
   9a6e0: d29a36c2     	mov	x2, #0xd1b6             // =53686
   9a6e4: d28325d1     	mov	x17, #0x192e            // =6446
   9a6e8: d29d410f     	mov	x15, #0xea08            // =59912
   9a6ec: d2912bce     	mov	x14, #0x895e            // =35166
   9a6f0: d2884a2d     	mov	x13, #0x4251            // =16977
   9a6f4: d2850c4c     	mov	x12, #0x2862            // =10338
   9a6f8: f2a53954     	movk	x20, #0x29ca, lsl #16
   9a6fc: d28ed3e0     	mov	x0, #0x769f             // =30367
   9a700: f2b82488     	movk	x8, #0xc124, lsl #16
   9a704: f2a3bd90     	movk	x16, #0x1dec, lsl #16
   9a708: f2ab40fe     	movk	x30, #0x5a07, lsl #16
   9a70c: f2b324e7     	movk	x7, #0x9927, lsl #16
   9a710: f2a24266     	movk	x6, #0x1213, lsl #16
   9a714: f2aa1805     	movk	x5, #0x50c0, lsl #16
   9a718: f2b4d144     	movk	x4, #0xa68a, lsl #16
   9a71c: f2bedc03     	movk	x3, #0xf6e0, lsl #16
   9a720: f2a30b02     	movk	x2, #0x1858, lsl #16
   9a724: f2a56c51     	movk	x17, #0x2b62, lsl #16
   9a728: f2bbbb2f     	movk	x15, #0xddd9, lsl #16
   9a72c: f2a7374e     	movk	x14, #0x39ba, lsl #16
   9a730: f2bacdad     	movk	x13, #0xd66d, lsl #16
   9a734: f2a139ac     	movk	x12, #0x9cd, lsl #16
   9a738: f2ddf514     	movk	x20, #0xefa8, lsl #32
   9a73c: f2a326e0     	movk	x0, #0x1937, lsl #16
   9a740: f2c2c4c8     	movk	x8, #0x1626, lsl #32
   9a744: f2d4eaf0     	movk	x16, #0xa757, lsl #32
   9a748: f2da03de     	movk	x30, #0xd01e, lsl #32
   9a74c: f2c02f07     	movk	x7, #0x178, lsl #32
   9a750: f2cf3706     	movk	x6, #0x79b8, lsl #32
   9a754: f2d8c665     	movk	x5, #0xc633, lsl #32
   9a758: f2ca2604     	movk	x4, #0x5130, lsl #32
   9a75c: f2c94903     	movk	x3, #0x4a48, lsl #32
   9a760: f2de81e2     	movk	x2, #0xf40f, lsl #32
   9a764: f2c75af1     	movk	x17, #0x3ad7, lsl #32
   9a768: f2d4292f     	movk	x15, #0xa149, lsl #32
   9a76c: f2c5ec0e     	movk	x14, #0x2f60, lsl #32
   9a770: f2d9de4d     	movk	x13, #0xcef2, lsl #32
   9a774: f2ce902c     	movk	x12, #0x7481, lsl #32
   9a778: f2f22374     	movk	x20, #0x911b, lsl #48
   9a77c: f2c0a3e0     	movk	x0, #0x51f, lsl #32
   9a780: f2e72328     	movk	x8, #0x3919, lsl #48
   9a784: f2fcb2d0     	movk	x16, #0xe596, lsl #48
   9a788: f2fbb41e     	movk	x30, #0xdda0, lsl #48
   9a78c: f2fe38a7     	movk	x7, #0xf1c5, lsl #48
   9a790: f2fe1846     	movk	x6, #0xf0c2, lsl #48
   9a794: f2f3c0a5     	movk	x5, #0x9e05, lsl #48
   9a798: f2fa40e4     	movk	x4, #0xd207, lsl #48
   9a79c: f2f29cc3     	movk	x3, #0x94e6, lsl #48
   9a7a0: f2f70d82     	movk	x2, #0xb86c, lsl #48
   9a7a4: f2f97ff1     	movk	x17, #0xcbff, lsl #48
   9a7a8: f2f1e6cf     	movk	x15, #0x8f36, lsl #48
   9a7ac: f2f2896e     	movk	x14, #0x944b, lsl #48
   9a7b0: f2f7930d     	movk	x13, #0xbc98, lsl #48
   9a7b4: f2f8cdcc     	movk	x12, #0xc66e, lsl #48
   9a7b8: f2f5f2c0     	movk	x0, #0xaf96, lsl #48
   9a7bc: 9a94110a     	csel	x10, x8, x20, ne
   9a7c0: 1400009b     	b	0x9aa2c <.text+0x929bc>
   9a7c4: 52800068     	mov	w8, #0x3                // =3
   9a7c8: d29c2eca     	mov	x10, #0xe176            // =57718
   9a7cc: f2b1de2a     	movk	x10, #0x8ef1, lsl #16
   9a7d0: f81d03bf     	stur	xzr, [x29, #-0x30]
   9a7d4: f2d946ca     	movk	x10, #0xca36, lsl #32
   9a7d8: aa1803e1     	mov	x1, x24
   9a7dc: b81dc3a8     	stur	w8, [x29, #-0x24]
   9a7e0: aa1503e8     	mov	x8, x21
   9a7e4: f2e2aaca     	movk	x10, #0x1556, lsl #48
   9a7e8: 17fffbc2     	b	0x996f0 <.text+0x91680>
   9a7ec: f94002c8     	ldr	x8, [x22]
   9a7f0: aa1603e0     	mov	x0, x22
   9a7f4: f94013e1     	ldr	x1, [sp, #0x20]
   9a7f8: f9405d08     	ldr	x8, [x8, #0xb8]
   9a7fc: d63f0100     	blr	x8
   9a800: d2854410     	mov	x16, #0x2a20            // =10784
   9a804: d2831abe     	mov	x30, #0x18d5            // =6357
   9a808: d294c627     	mov	x7, #0xa631             // =42545
   9a80c: d2894aa6     	mov	x6, #0x4a55             // =19029
   9a810: d28f3665     	mov	x5, #0x79b3             // =31155
   9a814: d2859364     	mov	x4, #0x2c9b             // =11419
   9a818: d2843823     	mov	x3, #0x21c1             // =8641
   9a81c: d29a36c2     	mov	x2, #0xd1b6             // =53686
   9a820: d28ed3e0     	mov	x0, #0x769f             // =30367
   9a824: d28325d1     	mov	x17, #0x192e            // =6446
   9a828: d29d410f     	mov	x15, #0xea08            // =59912
   9a82c: d2912bce     	mov	x14, #0x895e            // =35166
   9a830: d2884a2d     	mov	x13, #0x4251            // =16977
   9a834: d2850c4c     	mov	x12, #0x2862            // =10338
   9a838: d286ec2a     	mov	x10, #0x3761            // =14177
   9a83c: f2a3bd90     	movk	x16, #0x1dec, lsl #16
   9a840: f2ab40fe     	movk	x30, #0x5a07, lsl #16
   9a844: f2b324e7     	movk	x7, #0x9927, lsl #16
   9a848: f2a24266     	movk	x6, #0x1213, lsl #16
   9a84c: f2aa1805     	movk	x5, #0x50c0, lsl #16
   9a850: f2b4d144     	movk	x4, #0xa68a, lsl #16
   9a854: f2bedc03     	movk	x3, #0xf6e0, lsl #16
   9a858: f2a30b02     	movk	x2, #0x1858, lsl #16
   9a85c: f2a326e0     	movk	x0, #0x1937, lsl #16
   9a860: f2a56c51     	movk	x17, #0x2b62, lsl #16
   9a864: f2bbbb2f     	movk	x15, #0xddd9, lsl #16
   9a868: f2a7374e     	movk	x14, #0x39ba, lsl #16
   9a86c: f2bacdad     	movk	x13, #0xd66d, lsl #16
   9a870: f2a139ac     	movk	x12, #0x9cd, lsl #16
   9a874: f2ac548a     	movk	x10, #0x62a4, lsl #16
   9a878: f2d4eaf0     	movk	x16, #0xa757, lsl #32
   9a87c: f2da03de     	movk	x30, #0xd01e, lsl #32
   9a880: f2c02f07     	movk	x7, #0x178, lsl #32
   9a884: f2cf3706     	movk	x6, #0x79b8, lsl #32
   9a888: f2d8c665     	movk	x5, #0xc633, lsl #32
   9a88c: f2ca2604     	movk	x4, #0x5130, lsl #32
   9a890: f2c94903     	movk	x3, #0x4a48, lsl #32
   9a894: f2de81e2     	movk	x2, #0xf40f, lsl #32
   9a898: f2c0a3e0     	movk	x0, #0x51f, lsl #32
   9a89c: f2c75af1     	movk	x17, #0x3ad7, lsl #32
   9a8a0: f2d4292f     	movk	x15, #0xa149, lsl #32
   9a8a4: f2c5ec0e     	movk	x14, #0x2f60, lsl #32
   9a8a8: f2d9de4d     	movk	x13, #0xcef2, lsl #32
   9a8ac: f2ce902c     	movk	x12, #0x7481, lsl #32
   9a8b0: f2d2730a     	movk	x10, #0x9398, lsl #32
   9a8b4: f2fcb2d0     	movk	x16, #0xe596, lsl #48
   9a8b8: f2fbb41e     	movk	x30, #0xdda0, lsl #48
   9a8bc: f2fe38a7     	movk	x7, #0xf1c5, lsl #48
   9a8c0: f2fe1846     	movk	x6, #0xf0c2, lsl #48
   9a8c4: f2f3c0a5     	movk	x5, #0x9e05, lsl #48
   9a8c8: f2fa40e4     	movk	x4, #0xd207, lsl #48
   9a8cc: f2f29cc3     	movk	x3, #0x94e6, lsl #48
   9a8d0: f2f70d82     	movk	x2, #0xb86c, lsl #48
   9a8d4: f2f5f2c0     	movk	x0, #0xaf96, lsl #48
   9a8d8: f2f97ff1     	movk	x17, #0xcbff, lsl #48
   9a8dc: f2f1e6cf     	movk	x15, #0x8f36, lsl #48
   9a8e0: f2f2896e     	movk	x14, #0x944b, lsl #48
   9a8e4: f2f7930d     	movk	x13, #0xbc98, lsl #48
   9a8e8: f2f8cdcc     	movk	x12, #0xc66e, lsl #48
   9a8ec: aa1803e1     	mov	x1, x24
   9a8f0: aa1503e8     	mov	x8, x21
   9a8f4: f2f127ca     	movk	x10, #0x893e, lsl #48
   9a8f8: 17fffb7e     	b	0x996f0 <.text+0x91680>
   9a8fc: f94002c8     	ldr	x8, [x22]
   9a900: aa1603e0     	mov	x0, x22
   9a904: f94017e1     	ldr	x1, [sp, #0x28]
   9a908: f9405d08     	ldr	x8, [x8, #0xb8]
   9a90c: d63f0100     	blr	x8
   9a910: d2854410     	mov	x16, #0x2a20            // =10784
   9a914: d2831abe     	mov	x30, #0x18d5            // =6357
   9a918: d294c627     	mov	x7, #0xa631             // =42545
   9a91c: d2894aa6     	mov	x6, #0x4a55             // =19029
   9a920: d28f3665     	mov	x5, #0x79b3             // =31155
   9a924: d2859364     	mov	x4, #0x2c9b             // =11419
   9a928: d2843823     	mov	x3, #0x21c1             // =8641
   9a92c: d29a36c2     	mov	x2, #0xd1b6             // =53686
   9a930: d28ed3e0     	mov	x0, #0x769f             // =30367
   9a934: d28325d1     	mov	x17, #0x192e            // =6446
   9a938: d29d410f     	mov	x15, #0xea08            // =59912
   9a93c: d2912bce     	mov	x14, #0x895e            // =35166
   9a940: d2884a2d     	mov	x13, #0x4251            // =16977
   9a944: d2850c4c     	mov	x12, #0x2862            // =10338
   9a948: d283b9aa     	mov	x10, #0x1dcd            // =7629
   9a94c: f2a3bd90     	movk	x16, #0x1dec, lsl #16
   9a950: f2ab40fe     	movk	x30, #0x5a07, lsl #16
   9a954: f2b324e7     	movk	x7, #0x9927, lsl #16
   9a958: f2a24266     	movk	x6, #0x1213, lsl #16
   9a95c: f2aa1805     	movk	x5, #0x50c0, lsl #16
   9a960: f2b4d144     	movk	x4, #0xa68a, lsl #16
   9a964: f2bedc03     	movk	x3, #0xf6e0, lsl #16
   9a968: f2a30b02     	movk	x2, #0x1858, lsl #16
   9a96c: f2a326e0     	movk	x0, #0x1937, lsl #16
   9a970: f2a56c51     	movk	x17, #0x2b62, lsl #16
   9a974: f2bbbb2f     	movk	x15, #0xddd9, lsl #16
   9a978: f2a7374e     	movk	x14, #0x39ba, lsl #16
   9a97c: f2bacdad     	movk	x13, #0xd66d, lsl #16
   9a980: f2a139ac     	movk	x12, #0x9cd, lsl #16
   9a984: f2a61b6a     	movk	x10, #0x30db, lsl #16
   9a988: f2d4eaf0     	movk	x16, #0xa757, lsl #32
   9a98c: f2da03de     	movk	x30, #0xd01e, lsl #32
   9a990: f2c02f07     	movk	x7, #0x178, lsl #32
   9a994: f2cf3706     	movk	x6, #0x79b8, lsl #32
   9a998: f2d8c665     	movk	x5, #0xc633, lsl #32
   9a99c: f2ca2604     	movk	x4, #0x5130, lsl #32
   9a9a0: f2c94903     	movk	x3, #0x4a48, lsl #32
   9a9a4: f2de81e2     	movk	x2, #0xf40f, lsl #32
   9a9a8: f2c0a3e0     	movk	x0, #0x51f, lsl #32
   9a9ac: f2c75af1     	movk	x17, #0x3ad7, lsl #32
   9a9b0: f2d4292f     	movk	x15, #0xa149, lsl #32
   9a9b4: f2c5ec0e     	movk	x14, #0x2f60, lsl #32
   9a9b8: f2d9de4d     	movk	x13, #0xcef2, lsl #32
   9a9bc: f2ce902c     	movk	x12, #0x7481, lsl #32
   9a9c0: f2c05bca     	movk	x10, #0x2de, lsl #32
   9a9c4: f2fcb2d0     	movk	x16, #0xe596, lsl #48
   9a9c8: f2fbb41e     	movk	x30, #0xdda0, lsl #48
   9a9cc: f2fe38a7     	movk	x7, #0xf1c5, lsl #48
   9a9d0: f2fe1846     	movk	x6, #0xf0c2, lsl #48
   9a9d4: f2f3c0a5     	movk	x5, #0x9e05, lsl #48
   9a9d8: f2fa40e4     	movk	x4, #0xd207, lsl #48
   9a9dc: f2f29cc3     	movk	x3, #0x94e6, lsl #48
   9a9e0: f2f70d82     	movk	x2, #0xb86c, lsl #48
   9a9e4: f2f5f2c0     	movk	x0, #0xaf96, lsl #48
   9a9e8: f2f97ff1     	movk	x17, #0xcbff, lsl #48
   9a9ec: f2f1e6cf     	movk	x15, #0x8f36, lsl #48
   9a9f0: f2f2896e     	movk	x14, #0x944b, lsl #48
   9a9f4: f2f7930d     	movk	x13, #0xbc98, lsl #48
   9a9f8: f2f8cdcc     	movk	x12, #0xc66e, lsl #48
   9a9fc: aa1803e1     	mov	x1, x24
   9aa00: aa1503e8     	mov	x8, x21
   9aa04: f2e6d88a     	movk	x10, #0x36c4, lsl #48
   9aa08: 17fffb3a     	b	0x996f0 <.text+0x91680>
   9aa0c: 90000568     	adrp	x8, 0x146000
   9aa10: 39694908     	ldrb	w8, [x8, #0xa52]
   9aa14: 7100011f     	cmp	w8, #0x0
   9aa18: d2802dc8     	mov	x8, #0x16e              // =366
   9aa1c: f2bd75e8     	movk	x8, #0xebaf, lsl #16
   9aa20: f2db3968     	movk	x8, #0xd9cb, lsl #32
   9aa24: f2fe26e8     	movk	x8, #0xf137, lsl #48
   9aa28: 9a8813ca     	csel	x10, x30, x8, ne
   9aa2c: aa1803e1     	mov	x1, x24
   9aa30: aa1503e8     	mov	x8, x21
   9aa34: 17fffb2f     	b	0x996f0 <.text+0x91680>
   9aa38: a94f4ff4     	ldp	x20, x19, [sp, #0xf0]
   9aa3c: a94e57f6     	ldp	x22, x21, [sp, #0xe0]
   9aa40: a94d5ff8     	ldp	x24, x23, [sp, #0xd0]
   9aa44: a94c67fa     	ldp	x26, x25, [sp, #0xc0]
   9aa48: a94b6ffc     	ldp	x28, x27, [sp, #0xb0]
   9aa4c: a94a7bfd     	ldp	x29, x30, [sp, #0xa0]
   9aa50: fd404be8     	ldr	d8, [sp, #0x90]
   9aa54: 910403ff     	add	sp, sp, #0x100
   9aa58: d65f03c0     	ret
   9aa5c: d10383ff     	sub	sp, sp, #0xe0
   9aa60: a9087bfd     	stp	x29, x30, [sp, #0x80]
   9aa64: a9096ffc     	stp	x28, x27, [sp, #0x90]
   9aa68: a90a67fa     	stp	x26, x25, [sp, #0xa0]
   9aa6c: a90b5ff8     	stp	x24, x23, [sp, #0xb0]
   9aa70: a90c57f6     	stp	x22, x21, [sp, #0xc0]
   9aa74: a90d4ff4     	stp	x20, x19, [sp, #0xd0]
   9aa78: 910203fd     	add	x29, sp, #0x80
   9aa7c: f100003f     	cmp	x1, #0x0
   9aa80: d290cb6d     	mov	x13, #0x865b            // =34395
   9aa84: 1a9f07e8     	cset	w8, ne
   9aa88: f100007f     	cmp	x3, #0x0
   9aa8c: d297ffae     	mov	x14, #0xbffd            // =49149
   9aa90: fa401844     	ccmp	x2, #0x0, #0x4, ne
   9aa94: f2bb4e2d     	movk	x13, #0xda71, lsl #16
   9aa98: f2a929ce     	movk	x14, #0x494e, lsl #16
   9aa9c: d2942c19     	mov	x25, #0xa160            // =41312
   9aaa0: d29f04dc     	mov	x28, #0xf826            // =63526
   9aaa4: d28a607b     	mov	x27, #0x5303            // =21251
   9aaa8: d2992df8     	mov	x24, #0xc96f            // =51567
   9aaac: d286ac5a     	mov	x26, #0x3562            // =13666
   9aab0: d2999c96     	mov	x22, #0xcce4            // =52452
   9aab4: d28dbd6f     	mov	x15, #0x6deb            // =28139
   9aab8: d284ad10     	mov	x16, #0x2568            // =9576
   9aabc: d28a8b91     	mov	x17, #0x545c            // =21596
   9aac0: d29750aa     	mov	x10, #0xba85            // =47749
   9aac4: f2cc7dcd     	movk	x13, #0x63ee, lsl #32
   9aac8: f2d7a5ee     	movk	x14, #0xbd2f, lsl #32
   9aacc: f2a29919     	movk	x25, #0x14c8, lsl #16
   9aad0: f2abeedc     	movk	x28, #0x5f76, lsl #16
   9aad4: f2af315b     	movk	x27, #0x798a, lsl #16
   9aad8: f2b56c58     	movk	x24, #0xab62, lsl #16
   9aadc: f2bbcc3a     	movk	x26, #0xde61, lsl #16
   9aae0: f2bca836     	movk	x22, #0xe541, lsl #16
   9aae4: f2ac12af     	movk	x15, #0x6095, lsl #16
   9aae8: f2a453f0     	movk	x16, #0x229f, lsl #16
   9aaec: f2bd2bd1     	movk	x17, #0xe95e, lsl #16
   9aaf0: f2bdfc2a     	movk	x10, #0xefe1, lsl #16
   9aaf4: f2fb2c0d     	movk	x13, #0xd960, lsl #48
   9aaf8: f2f918ee     	movk	x14, #0xc8c7, lsl #48
   9aafc: f2c12a99     	movk	x25, #0x954, lsl #32
   9ab00: f2d3827c     	movk	x28, #0x9c13, lsl #32
   9ab04: f2d82e5b     	movk	x27, #0xc172, lsl #32
   9ab08: f2c75098     	movk	x24, #0x3a84, lsl #32
   9ab0c: f2d1977a     	movk	x26, #0x8cbb, lsl #32
   9ab10: f2c9bdb6     	movk	x22, #0x4ded, lsl #32
   9ab14: f2c1b14f     	movk	x15, #0xd8a, lsl #32
   9ab18: f2d8fa70     	movk	x16, #0xc7d3, lsl #32
   9ab1c: f2d2bd51     	movk	x17, #0x95ea, lsl #32
   9ab20: f2d4c96a     	movk	x10, #0xa64b, lsl #32
   9ab24: aa0103f5     	mov	x21, x1
   9ab28: b90017e8     	str	w8, [sp, #0x14]
   9ab2c: 9a8d11c8     	csel	x8, x14, x13, ne
   9ab30: f2f1ebb9     	movk	x25, #0x8f5d, lsl #48
   9ab34: f2f29f3c     	movk	x28, #0x94f9, lsl #48
   9ab38: f2f4667b     	movk	x27, #0xa333, lsl #48
   9ab3c: f2f50638     	movk	x24, #0xa831, lsl #48
   9ab40: f2f7213a     	movk	x26, #0xb909, lsl #48
   9ab44: f2f87cd6     	movk	x22, #0xc3e6, lsl #48
   9ab48: f2fff40f     	movk	x15, #0xffa0, lsl #48
   9ab4c: f2fc5750     	movk	x16, #0xe2ba, lsl #48
   9ab50: f2fb9db1     	movk	x17, #0xdced, lsl #48
   9ab54: f2edc42a     	movk	x10, #0x6e21, lsl #48
   9ab58: f81c83a0     	stur	x0, [x29, #-0x38]
   9ab5c: f90007e3     	str	x3, [sp, #0x8]
   9ab60: f9001fe2     	str	x2, [sp, #0x38]
   9ab64: f81e03a8     	stur	x8, [x29, #-0x20]
   9ab68: aa0a03e9     	mov	x9, x10
   9ab6c: d29c8a4a     	mov	x10, #0xe452            // =58450
   9ab70: f2afb6aa     	movk	x10, #0x7db5, lsl #16
   9ab74: aa0803f7     	mov	x23, x8
   9ab78: f2d6852a     	movk	x10, #0xb429, lsl #32
   9ab7c: aa1303e8     	mov	x8, x19
   9ab80: f2e2caaa     	movk	x10, #0x1655, lsl #48
   9ab84: eb19013f     	cmp	x9, x25
   9ab88: 54ffff00     	b.eq	0x9ab68 <.text+0x92af8>
   9ab8c: eb1c013f     	cmp	x9, x28
   9ab90: 54002bc0     	b.eq	0x9b108 <.text+0x93098>
   9ab94: eb1b013f     	cmp	x9, x27
   9ab98: 54001fa0     	b.eq	0x9af8c <.text+0x92f1c>
   9ab9c: d29ba94a     	mov	x10, #0xdd4a            // =56650
   9aba0: aa1703e8     	mov	x8, x23
   9aba4: f2be3d6a     	movk	x10, #0xf1eb, lsl #16
   9aba8: eb18013f     	cmp	x9, x24
   9abac: f2d1ee6a     	movk	x10, #0x8f73, lsl #32
   9abb0: f2fd3e0a     	movk	x10, #0xe9f0, lsl #48
   9abb4: 54fffda0     	b.eq	0x9ab68 <.text+0x92af8>
   9abb8: d281526a     	mov	x10, #0xa93             // =2707
   9abbc: aa1703e8     	mov	x8, x23
   9abc0: f2a17d4a     	movk	x10, #0xbea, lsl #16
   9abc4: eb1a013f     	cmp	x9, x26
   9abc8: f2dfac6a     	movk	x10, #0xfd63, lsl #32
   9abcc: f2e38c4a     	movk	x10, #0x1c62, lsl #48
   9abd0: 54fffcc0     	b.eq	0x9ab68 <.text+0x92af8>
   9abd4: d2963d68     	mov	x8, #0xb1eb             // =45547
   9abd8: f2be3aa8     	movk	x8, #0xf1d5, lsl #16
   9abdc: f2d86ea8     	movk	x8, #0xc375, lsl #32
   9abe0: f2f87a08     	movk	x8, #0xc3d0, lsl #48
   9abe4: eb08013f     	cmp	x9, x8
   9abe8: 540015c0     	b.eq	0x9aea0 <.text+0x92e30>
   9abec: eb16013f     	cmp	x9, x22
   9abf0: 54002a40     	b.eq	0x9b138 <.text+0x930c8>
   9abf4: eb0e013f     	cmp	x9, x14
   9abf8: 54002ac0     	b.eq	0x9b150 <.text+0x930e0>
   9abfc: eb0d013f     	cmp	x9, x13
   9ac00: 540016a0     	b.eq	0x9aed4 <.text+0x92e64>
   9ac04: eb11013f     	cmp	x9, x17
   9ac08: 54001780     	b.eq	0x9aef8 <.text+0x92e88>
   9ac0c: d28b46ca     	mov	x10, #0x5a36            // =23094
   9ac10: aa1703e8     	mov	x8, x23
   9ac14: f2a4f3aa     	movk	x10, #0x279d, lsl #16
   9ac18: eb10013f     	cmp	x9, x16
   9ac1c: f2c3daca     	movk	x10, #0x1ed6, lsl #32
   9ac20: f2ecf88a     	movk	x10, #0x67c4, lsl #48
   9ac24: 54fffa20     	b.eq	0x9ab68 <.text+0x92af8>
   9ac28: d29ba948     	mov	x8, #0xdd4a             // =56650
   9ac2c: f2be3d68     	movk	x8, #0xf1eb, lsl #16
   9ac30: f2d1ee68     	movk	x8, #0x8f73, lsl #32
   9ac34: f2fd3e08     	movk	x8, #0xe9f0, lsl #48
   9ac38: eb08013f     	cmp	x9, x8
   9ac3c: 54002de0     	b.eq	0x9b1f8 <.text+0x93188>
   9ac40: d299ae88     	mov	x8, #0xcd74             // =52596
   9ac44: f2b967e8     	movk	x8, #0xcb3f, lsl #16
   9ac48: f2cd3488     	movk	x8, #0x69a4, lsl #32
   9ac4c: f2fdf908     	movk	x8, #0xefc8, lsl #48
   9ac50: eb08013f     	cmp	x9, x8
   9ac54: 540016a0     	b.eq	0x9af28 <.text+0x92eb8>
   9ac58: eb0f013f     	cmp	x9, x15
   9ac5c: 54003080     	b.eq	0x9b26c <.text+0x931fc>
   9ac60: d2873928     	mov	x8, #0x39c9             // =14793
   9ac64: f2b54b28     	movk	x8, #0xaa59, lsl #16
   9ac68: f2c85008     	movk	x8, #0x4280, lsl #32
   9ac6c: f2e1a6c8     	movk	x8, #0xd36, lsl #48
   9ac70: eb08013f     	cmp	x9, x8
   9ac74: 54001020     	b.eq	0x9ae78 <.text+0x92e08>
   9ac78: d288eb08     	mov	x8, #0x4758             // =18264
   9ac7c: f2a89848     	movk	x8, #0x44c2, lsl #16
   9ac80: f2d03de8     	movk	x8, #0x81ef, lsl #32
   9ac84: f2e28e48     	movk	x8, #0x1472, lsl #48
   9ac88: eb08013f     	cmp	x9, x8
   9ac8c: 54001800     	b.eq	0x9af8c <.text+0x92f1c>
   9ac90: d29c8a48     	mov	x8, #0xe452             // =58450
   9ac94: f2afb6a8     	movk	x8, #0x7db5, lsl #16
   9ac98: f2d68528     	movk	x8, #0xb429, lsl #32
   9ac9c: f2e2caa8     	movk	x8, #0x1655, lsl #48
   9aca0: eb08013f     	cmp	x9, x8
   9aca4: 54003300     	b.eq	0x9b304 <.text+0x93294>
   9aca8: d29b6928     	mov	x8, #0xdb49             // =56137
   9acac: f2bb1328     	movk	x8, #0xd899, lsl #16
   9acb0: f2d3e528     	movk	x8, #0x9f29, lsl #32
   9acb4: f2e3c948     	movk	x8, #0x1e4a, lsl #48
   9acb8: eb08013f     	cmp	x9, x8
   9acbc: 54003700     	b.eq	0x9b39c <.text+0x9332c>
   9acc0: d291ed28     	mov	x8, #0x8f69             // =36713
   9acc4: f2a12e48     	movk	x8, #0x972, lsl #16
   9acc8: f2d0c7c8     	movk	x8, #0x863e, lsl #32
   9accc: f2e42da8     	movk	x8, #0x216d, lsl #48
   9acd0: eb08013f     	cmp	x9, x8
   9acd4: 54003ca0     	b.eq	0x9b468 <.text+0x933f8>
   9acd8: d29050a8     	mov	x8, #0x8285             // =33413
   9acdc: f2b473c8     	movk	x8, #0xa39e, lsl #16
   9ace0: f2d65608     	movk	x8, #0xb2b0, lsl #32
   9ace4: f2e46508     	movk	x8, #0x2328, lsl #48
   9ace8: eb08013f     	cmp	x9, x8
   9acec: 54001640     	b.eq	0x9afb4 <.text+0x92f44>
   9acf0: d292f36a     	mov	x10, #0x979b            // =38811
   9acf4: d288426b     	mov	x11, #0x4213            // =16915
   9acf8: f2a684ca     	movk	x10, #0x3426, lsl #16
   9acfc: f2be382b     	movk	x11, #0xf1c1, lsl #16
   9ad00: f2d6b60a     	movk	x10, #0xb5b0, lsl #32
   9ad04: aa1703e8     	mov	x8, x23
   9ad08: f2edd66a     	movk	x10, #0x6eb3, lsl #48
   9ad0c: f2d70d2b     	movk	x11, #0xb869, lsl #32
   9ad10: f2e4858b     	movk	x11, #0x242c, lsl #48
   9ad14: eb0b013f     	cmp	x9, x11
   9ad18: 54fff280     	b.eq	0x9ab68 <.text+0x92af8>
   9ad1c: d29b692a     	mov	x10, #0xdb49            // =56137
   9ad20: d288f94b     	mov	x11, #0x47ca            // =18378
   9ad24: f2bb132a     	movk	x10, #0xd899, lsl #16
   9ad28: f2b812eb     	movk	x11, #0xc097, lsl #16
   9ad2c: f2d3e52a     	movk	x10, #0x9f29, lsl #32
   9ad30: aa1703e8     	mov	x8, x23
   9ad34: f2e3c94a     	movk	x10, #0x1e4a, lsl #48
   9ad38: f2dc656b     	movk	x11, #0xe32b, lsl #32
   9ad3c: f2e58acb     	movk	x11, #0x2c56, lsl #48
   9ad40: eb0b013f     	cmp	x9, x11
   9ad44: 54fff120     	b.eq	0x9ab68 <.text+0x92af8>
   9ad48: d2858088     	mov	x8, #0x2c04             // =11268
   9ad4c: f2a66bc8     	movk	x8, #0x335e, lsl #16
   9ad50: f2c24e88     	movk	x8, #0x1274, lsl #32
   9ad54: f2e66768     	movk	x8, #0x333b, lsl #48
   9ad58: eb08013f     	cmp	x9, x8
   9ad5c: 54001760     	b.eq	0x9b048 <.text+0x92fd8>
   9ad60: d287d1a8     	mov	x8, #0x3e8d             // =16013
   9ad64: f2bd8648     	movk	x8, #0xec32, lsl #16
   9ad68: f2cd6fc8     	movk	x8, #0x6b7e, lsl #32
   9ad6c: f2e98ca8     	movk	x8, #0x4c65, lsl #48
   9ad70: eb08013f     	cmp	x9, x8
   9ad74: 54001760     	b.eq	0x9b060 <.text+0x92ff0>
   9ad78: d288ecc8     	mov	x8, #0x4766             // =18278
   9ad7c: f2ab33c8     	movk	x8, #0x599e, lsl #16
   9ad80: f2c03308     	movk	x8, #0x198, lsl #32
   9ad84: f2ea13a8     	movk	x8, #0x509d, lsl #48
   9ad88: eb08013f     	cmp	x9, x8
   9ad8c: 54003c00     	b.eq	0x9b50c <.text+0x9349c>
   9ad90: d292f36a     	mov	x10, #0x979b            // =38811
   9ad94: d2996e2b     	mov	x11, #0xcb71            // =52081
   9ad98: f2a684ca     	movk	x10, #0x3426, lsl #16
   9ad9c: f2a2ae0b     	movk	x11, #0x1570, lsl #16
   9ada0: f2d6b60a     	movk	x10, #0xb5b0, lsl #32
   9ada4: aa1703e8     	mov	x8, x23
   9ada8: f2edd66a     	movk	x10, #0x6eb3, lsl #48
   9adac: f2dfa8eb     	movk	x11, #0xfd47, lsl #32
   9adb0: f2eb13cb     	movk	x11, #0x589e, lsl #48
   9adb4: eb0b013f     	cmp	x9, x11
   9adb8: 54ffed80     	b.eq	0x9ab68 <.text+0x92af8>
   9adbc: d2815748     	mov	x8, #0xaba              // =2746
   9adc0: f2b371a8     	movk	x8, #0x9b8d, lsl #16
   9adc4: f2d21328     	movk	x8, #0x9099, lsl #32
   9adc8: f2eb3c48     	movk	x8, #0x59e2, lsl #48
   9adcc: eb08013f     	cmp	x9, x8
   9add0: 54003b80     	b.eq	0x9b540 <.text+0x934d0>
   9add4: d28a29a8     	mov	x8, #0x514d             // =20813
   9add8: f2a1cd68     	movk	x8, #0xe6b, lsl #16
   9addc: f2dce648     	movk	x8, #0xe732, lsl #32
   9ade0: f2ec7ba8     	movk	x8, #0x63dd, lsl #48
   9ade4: eb08013f     	cmp	x9, x8
   9ade8: 54000480     	b.eq	0x9ae78 <.text+0x92e08>
   9adec: d28b46c8     	mov	x8, #0x5a36             // =23094
   9adf0: f2a4f3a8     	movk	x8, #0x279d, lsl #16
   9adf4: f2c3dac8     	movk	x8, #0x1ed6, lsl #32
   9adf8: f2ecf888     	movk	x8, #0x67c4, lsl #48
   9adfc: eb08013f     	cmp	x9, x8
   9ae00: 54003de0     	b.eq	0x9b5bc <.text+0x9354c>
   9ae04: d29750ab     	mov	x11, #0xba85            // =47749
   9ae08: aa1703e8     	mov	x8, x23
   9ae0c: f2bdfc2b     	movk	x11, #0xefe1, lsl #16
   9ae10: f85e03aa     	ldur	x10, [x29, #-0x20]
   9ae14: f2d4c96b     	movk	x11, #0xa64b, lsl #32
   9ae18: f2edc42b     	movk	x11, #0x6e21, lsl #48
   9ae1c: eb0b013f     	cmp	x9, x11
   9ae20: 54ffea40     	b.eq	0x9ab68 <.text+0x92af8>
   9ae24: d292f368     	mov	x8, #0x979b             // =38811
   9ae28: f2a684c8     	movk	x8, #0x3426, lsl #16
   9ae2c: f2d6b608     	movk	x8, #0xb5b0, lsl #32
   9ae30: f2edd668     	movk	x8, #0x6eb3, lsl #48
   9ae34: eb08013f     	cmp	x9, x8
   9ae38: 54003d40     	b.eq	0x9b5e0 <.text+0x93570>
   9ae3c: d2992f88     	mov	x8, #0xc97c             // =51580
   9ae40: f2a2a3e8     	movk	x8, #0x151f, lsl #16
   9ae44: f2d8d788     	movk	x8, #0xc6bc, lsl #32
   9ae48: f2ef5fa8     	movk	x8, #0x7afd, lsl #48
   9ae4c: eb08013f     	cmp	x9, x8
   9ae50: 540011a0     	b.eq	0x9b084 <.text+0x93014>
   9ae54: d281526b     	mov	x11, #0xa93             // =2707
   9ae58: aa1703e8     	mov	x8, x23
   9ae5c: f2a17d4b     	movk	x11, #0xbea, lsl #16
   9ae60: aa0903ea     	mov	x10, x9
   9ae64: f2dfac6b     	movk	x11, #0xfd63, lsl #32
   9ae68: f2e38c4b     	movk	x11, #0x1c62, lsl #48
   9ae6c: eb0b013f     	cmp	x9, x11
   9ae70: 54ffe7c1     	b.ne	0x9ab68 <.text+0x92af8>
   9ae74: 140001fc     	b	0x9b664 <.text+0x935f4>
   9ae78: 52800248     	mov	w8, #0x12               // =18
   9ae7c: f85f83a9     	ldur	x9, [x29, #-0x8]
   9ae80: d2963d6a     	mov	x10, #0xb1eb            // =45547
   9ae84: f2be3aaa     	movk	x10, #0xf1d5, lsl #16
   9ae88: f2d86eaa     	movk	x10, #0xc375, lsl #32
   9ae8c: b81dc3a8     	stur	w8, [x29, #-0x24]
   9ae90: aa1703e8     	mov	x8, x23
   9ae94: f81d03a9     	stur	x9, [x29, #-0x30]
   9ae98: f2f87a0a     	movk	x10, #0xc3d0, lsl #48
   9ae9c: 17ffff33     	b	0x9ab68 <.text+0x92af8>
   9aea0: f85d03a9     	ldur	x9, [x29, #-0x30]
   9aea4: d288ecca     	mov	x10, #0x4766            // =18278
   9aea8: b85dc3ab     	ldur	w11, [x29, #-0x24]
   9aeac: f2ab33ca     	movk	x10, #0x599e, lsl #16
   9aeb0: f2c0330a     	movk	x10, #0x198, lsl #32
   9aeb4: aa1703e8     	mov	x8, x23
   9aeb8: f81e83a9     	stur	x9, [x29, #-0x18]
   9aebc: b94017e9     	ldr	w9, [sp, #0x14]
   9aec0: f2ea13aa     	movk	x10, #0x509d, lsl #48
   9aec4: b81f43a9     	stur	w9, [x29, #-0xc]
   9aec8: f85c83a9     	ldur	x9, [x29, #-0x38]
   9aecc: b900012b     	str	w11, [x9]
   9aed0: 17ffff26     	b	0x9ab68 <.text+0x92af8>
   9aed4: 52800068     	mov	w8, #0x3                // =3
   9aed8: d2963d6a     	mov	x10, #0xb1eb            // =45547
   9aedc: f2be3aaa     	movk	x10, #0xf1d5, lsl #16
   9aee0: f81d03bf     	stur	xzr, [x29, #-0x30]
   9aee4: f2d86eaa     	movk	x10, #0xc375, lsl #32
   9aee8: b81dc3a8     	stur	w8, [x29, #-0x24]
   9aeec: aa1703e8     	mov	x8, x23
   9aef0: f2f87a0a     	movk	x10, #0xc3d0, lsl #48
   9aef4: 17ffff1d     	b	0x9ab68 <.text+0x92af8>
   9aef8: b9402fe8     	ldr	w8, [sp, #0x2c]
   9aefc: 5280044b     	mov	w11, #0x22              // =34
   9af00: f85c83a9     	ldur	x9, [x29, #-0x38]
   9af04: 7200011f     	tst	w8, #0x1
   9af08: d2858088     	mov	x8, #0x2c04             // =11268
   9af0c: f2a66bc8     	movk	x8, #0x335e, lsl #16
   9af10: b900012b     	str	w11, [x9]
   9af14: f2c24e88     	movk	x8, #0x1274, lsl #32
   9af18: f2e66768     	movk	x8, #0x333b, lsl #48
   9af1c: 9a88136a     	csel	x10, x27, x8, ne
